; ModuleID = '/nfs/ug/thesis/thesis0/pc/Quinn/galapagos/hlsIP_adm-8k5/reverseEndian64/solution1/.autopilot/db/a.o.3.bc'
target datalayout = "e-p:64:64:64-i1:8:8-i8:8:8-i16:16:16-i32:32:32-i64:64:64-f32:32:32-f64:64:64-v64:64:64-v128:128:128-a0:0:64-s0:64:64-f80:128:128-n8:16:32:64-S128"
target triple = "x86_64-unknown-linux-gnu"

@reverseEndian64_str = internal unnamed_addr constant [16 x i8] c"reverseEndian64\00" ; [#uses=1 type=[16 x i8]*]
@llvm_global_ctors_1 = appending global [0 x void ()*] zeroinitializer ; [#uses=0 type=[0 x void ()*]*]
@llvm_global_ctors_0 = appending global [0 x i32] zeroinitializer ; [#uses=0 type=[0 x i32]*]
@p_str3 = private unnamed_addr constant [5 x i8] c"both\00", align 1 ; [#uses=2 type=[5 x i8]*]
@p_str2 = private unnamed_addr constant [5 x i8] c"axis\00", align 1 ; [#uses=2 type=[5 x i8]*]
@p_str1 = private unnamed_addr constant [1 x i8] zeroinitializer, align 1 ; [#uses=16 type=[1 x i8]*]
@p_str = private unnamed_addr constant [13 x i8] c"ap_ctrl_none\00", align 1 ; [#uses=1 type=[13 x i8]*]

; [#uses=0]
define void @reverseEndian64(i64* %stream_in_V_data_V, i1* %stream_in_V_last_V, i8* %stream_in_V_tkeep_V, i64* %stream_out_V_data_V, i1* %stream_out_V_last_V, i8* %stream_out_V_tkeep_V) {
  call void (...)* @_ssdm_op_SpecBitsMap(i64* %stream_in_V_data_V), !map !74
  call void (...)* @_ssdm_op_SpecBitsMap(i1* %stream_in_V_last_V), !map !78
  call void (...)* @_ssdm_op_SpecBitsMap(i8* %stream_in_V_tkeep_V), !map !82
  call void (...)* @_ssdm_op_SpecBitsMap(i64* %stream_out_V_data_V), !map !86
  call void (...)* @_ssdm_op_SpecBitsMap(i1* %stream_out_V_last_V), !map !90
  call void (...)* @_ssdm_op_SpecBitsMap(i8* %stream_out_V_tkeep_V), !map !94
  call void (...)* @_ssdm_op_SpecTopModule([16 x i8]* @reverseEndian64_str) nounwind
  call void @llvm.dbg.value(metadata !{i64* %stream_in_V_data_V}, i64 0, metadata !98), !dbg !1806 ; [debug line = 30:27] [debug variable = stream_in.V.data.V]
  call void @llvm.dbg.value(metadata !{i1* %stream_in_V_last_V}, i64 0, metadata !1807), !dbg !1806 ; [debug line = 30:27] [debug variable = stream_in.V.last.V]
  call void @llvm.dbg.value(metadata !{i8* %stream_in_V_tkeep_V}, i64 0, metadata !1819), !dbg !1806 ; [debug line = 30:27] [debug variable = stream_in.V.tkeep.V]
  call void @llvm.dbg.value(metadata !{i64* %stream_out_V_data_V}, i64 0, metadata !1831), !dbg !1833 ; [debug line = 31:27] [debug variable = stream_out.V.data.V]
  call void @llvm.dbg.value(metadata !{i1* %stream_out_V_last_V}, i64 0, metadata !1834), !dbg !1833 ; [debug line = 31:27] [debug variable = stream_out.V.last.V]
  call void @llvm.dbg.value(metadata !{i8* %stream_out_V_tkeep_V}, i64 0, metadata !1835), !dbg !1833 ; [debug line = 31:27] [debug variable = stream_out.V.tkeep.V]
  call void (...)* @_ssdm_op_SpecInterface(i32 0, [13 x i8]* @p_str, i32 0, i32 0, [1 x i8]* @p_str1, i32 0, i32 0, [1 x i8]* @p_str1, [1 x i8]* @p_str1, [1 x i8]* @p_str1, i32 0, i32 0, i32 0, i32 0, [1 x i8]* @p_str1, [1 x i8]* @p_str1) nounwind, !dbg !1836 ; [debug line = 34:1]
  call void (...)* @_ssdm_op_SpecInterface(i64* %stream_out_V_data_V, i1* %stream_out_V_last_V, i8* %stream_out_V_tkeep_V, [5 x i8]* @p_str2, i32 1, i32 1, [5 x i8]* @p_str3, i32 0, i32 0, [1 x i8]* @p_str1, [1 x i8]* @p_str1, [1 x i8]* @p_str1, i32 0, i32 0, i32 0, i32 0, [1 x i8]* @p_str1, [1 x i8]* @p_str1) nounwind, !dbg !1836 ; [debug line = 34:1]
  call void (...)* @_ssdm_op_SpecInterface(i64* %stream_in_V_data_V, i1* %stream_in_V_last_V, i8* %stream_in_V_tkeep_V, [5 x i8]* @p_str2, i32 1, i32 1, [5 x i8]* @p_str3, i32 0, i32 0, [1 x i8]* @p_str1, [1 x i8]* @p_str1, [1 x i8]* @p_str1, i32 0, i32 0, i32 0, i32 0, [1 x i8]* @p_str1, [1 x i8]* @p_str1) nounwind, !dbg !1836 ; [debug line = 34:1]
  br label %1, !dbg !1838                         ; [debug line = 47:2]

; <label>:1                                       ; preds = %1, %0
  call void @llvm.dbg.value(metadata !{i64* %stream_in_V_data_V}, i64 0, metadata !1839), !dbg !1842 ; [debug line = 129:56@49:14] [debug variable = stream<ap_axis>.V.data.V]
  call void @llvm.dbg.value(metadata !{i1* %stream_in_V_last_V}, i64 0, metadata !1845), !dbg !1842 ; [debug line = 129:56@49:14] [debug variable = stream<ap_axis>.V.last.V]
  call void @llvm.dbg.value(metadata !{i8* %stream_in_V_tkeep_V}, i64 0, metadata !1846), !dbg !1842 ; [debug line = 129:56@49:14] [debug variable = stream<ap_axis>.V.tkeep.V]
  %empty = call { i64, i1, i8 } @_ssdm_op_Read.axis.volatile.i64P.i1P.i8P(i64* %stream_in_V_data_V, i1* %stream_in_V_last_V, i8* %stream_in_V_tkeep_V), !dbg !1847 ; [#uses=3 type={ i64, i1, i8 }] [debug line = 131:9@49:14]
  %tmp_data_V_1 = extractvalue { i64, i1, i8 } %empty, 0, !dbg !1847 ; [#uses=8 type=i64] [debug line = 131:9@49:14]
  %tmp_last_V = extractvalue { i64, i1, i8 } %empty, 1, !dbg !1847 ; [#uses=1 type=i1] [debug line = 131:9@49:14]
  %tmp_tkeep_V = extractvalue { i64, i1, i8 } %empty, 2, !dbg !1847 ; [#uses=1 type=i8] [debug line = 131:9@49:14]
  call void @llvm.dbg.value(metadata !{i64 %tmp_data_V_1}, i64 0, metadata !1849), !dbg !1847 ; [debug line = 131:9@49:14] [debug variable = tmp.data.V]
  call void @llvm.dbg.value(metadata !{i1 %tmp_last_V}, i64 0, metadata !1851), !dbg !1847 ; [debug line = 131:9@49:14] [debug variable = tmp.last.V]
  call void @llvm.dbg.value(metadata !{i8 %tmp_tkeep_V}, i64 0, metadata !1852), !dbg !1847 ; [debug line = 131:9@49:14] [debug variable = tmp.tkeep.V]
  call void @llvm.dbg.value(metadata !{i64 %tmp_data_V_1}, i64 0, metadata !1853), !dbg !2478 ; [debug line = 3432:0@3524:0@22:8@50:20] [debug variable = lhs.V]
  %tmp = trunc i64 %tmp_data_V_1 to i8            ; [#uses=1 type=i8]
  %tmp_1 = call i8 @_ssdm_op_PartSelect.i8.i64.i32.i32(i64 %tmp_data_V_1, i32 56, i32 63) ; [#uses=1 type=i8]
  %tmp_2 = call i8 @_ssdm_op_PartSelect.i8.i64.i32.i32(i64 %tmp_data_V_1, i32 8, i32 15) ; [#uses=1 type=i8]
  %tmp_3 = call i8 @_ssdm_op_PartSelect.i8.i64.i32.i32(i64 %tmp_data_V_1, i32 24, i32 31) ; [#uses=1 type=i8]
  %tmp_4 = call i8 @_ssdm_op_PartSelect.i8.i64.i32.i32(i64 %tmp_data_V_1, i32 40, i32 47) ; [#uses=1 type=i8]
  %tmp_5 = call i8 @_ssdm_op_PartSelect.i8.i64.i32.i32(i64 %tmp_data_V_1, i32 16, i32 23) ; [#uses=1 type=i8]
  %tmp_6 = call i8 @_ssdm_op_PartSelect.i8.i64.i32.i32(i64 %tmp_data_V_1, i32 32, i32 39) ; [#uses=1 type=i8]
  %tmp_7 = call i8 @_ssdm_op_PartSelect.i8.i64.i32.i32(i64 %tmp_data_V_1, i32 48, i32 55) ; [#uses=1 type=i8]
  %x_V = call i64 @_ssdm_op_BitConcatenate.i64.i8.i8.i8.i8.i8.i8.i8.i8(i8 %tmp, i8 %tmp_2, i8 %tmp_5, i8 %tmp_3, i8 %tmp_6, i8 %tmp_4, i8 %tmp_7, i8 %tmp_1), !dbg !2479 ; [#uses=1 type=i64] [debug line = 121:88@121:104@24:40@50:20]
  call void @llvm.dbg.value(metadata !{i64 %x_V}, i64 0, metadata !2485), !dbg !2487 ; [debug line = 174:5@24:40@50:20] [debug variable = x.V]
  call void @llvm.dbg.value(metadata !{i64 %x_V}, i64 0, metadata !2490), !dbg !2492 ; [debug line = 174:5@50:20] [debug variable = packetOut.data.V]
  call void @llvm.dbg.value(metadata !{i1 %tmp_last_V}, i64 0, metadata !2493), !dbg !2494 ; [debug line = 281:5@51:3] [debug variable = packetOut.last.V]
  call void @llvm.dbg.value(metadata !{i8 %tmp_tkeep_V}, i64 0, metadata !2498), !dbg !2499 ; [debug line = 281:5@52:3] [debug variable = packetOut.tkeep.V]
  call void @llvm.dbg.value(metadata !{i64* %stream_out_V_data_V}, i64 0, metadata !2503), !dbg !2506 ; [debug line = 144:48@53:3] [debug variable = stream<ap_axis>.V.data.V]
  call void @llvm.dbg.value(metadata !{i1* %stream_out_V_last_V}, i64 0, metadata !2508), !dbg !2506 ; [debug line = 144:48@53:3] [debug variable = stream<ap_axis>.V.last.V]
  call void @llvm.dbg.value(metadata !{i8* %stream_out_V_tkeep_V}, i64 0, metadata !2509), !dbg !2506 ; [debug line = 144:48@53:3] [debug variable = stream<ap_axis>.V.tkeep.V]
  call void @llvm.dbg.value(metadata !{i64 %x_V}, i64 0, metadata !2510), !dbg !2513 ; [debug line = 145:31@53:3] [debug variable = tmp.data.V]
  call void @llvm.dbg.value(metadata !{i1 %tmp_last_V}, i64 0, metadata !2514), !dbg !2513 ; [debug line = 145:31@53:3] [debug variable = tmp.last.V]
  call void @llvm.dbg.value(metadata !{i8 %tmp_tkeep_V}, i64 0, metadata !2515), !dbg !2513 ; [debug line = 145:31@53:3] [debug variable = tmp.tkeep.V]
  call void @_ssdm_op_Write.axis.volatile.i64P.i1P.i8P(i64* %stream_out_V_data_V, i1* %stream_out_V_last_V, i8* %stream_out_V_tkeep_V, i64 %x_V, i1 %tmp_last_V, i8 %tmp_tkeep_V), !dbg !2516 ; [debug line = 146:9@53:3]
  br label %1, !dbg !2517                         ; [debug line = 55:2]
}

; [#uses=1]
declare i64 @llvm.part.select.i64(i64, i32, i32) nounwind readnone

; [#uses=23]
declare void @llvm.dbg.value(metadata, i64, metadata) nounwind readnone

; [#uses=1]
define weak void @_ssdm_op_Write.axis.volatile.i64P.i1P.i8P(i64*, i1*, i8*, i64, i1, i8) {
entry:
  store i64 %3, i64* %0
  store i1 %4, i1* %1
  store i8 %5, i8* %2
  ret void
}

; [#uses=1]
define weak void @_ssdm_op_SpecTopModule(...) {
entry:
  ret void
}

; [#uses=3]
define weak void @_ssdm_op_SpecInterface(...) nounwind {
entry:
  ret void
}

; [#uses=6]
define weak void @_ssdm_op_SpecBitsMap(...) {
entry:
  ret void
}

; [#uses=1]
define weak { i64, i1, i8 } @_ssdm_op_Read.axis.volatile.i64P.i1P.i8P(i64*, i1*, i8*) {
entry:
  %empty = load i64* %0                           ; [#uses=1 type=i64]
  %empty_4 = load i1* %1                          ; [#uses=1 type=i1]
  %empty_5 = load i8* %2                          ; [#uses=1 type=i8]
  %mrv_0 = insertvalue { i64, i1, i8 } undef, i64 %empty, 0 ; [#uses=1 type={ i64, i1, i8 }]
  %mrv1 = insertvalue { i64, i1, i8 } %mrv_0, i1 %empty_4, 1 ; [#uses=1 type={ i64, i1, i8 }]
  %mrv2 = insertvalue { i64, i1, i8 } %mrv1, i8 %empty_5, 2 ; [#uses=1 type={ i64, i1, i8 }]
  ret { i64, i1, i8 } %mrv2
}

; [#uses=7]
define weak i8 @_ssdm_op_PartSelect.i8.i64.i32.i32(i64, i32, i32) nounwind readnone {
entry:
  %empty = call i64 @llvm.part.select.i64(i64 %0, i32 %1, i32 %2) ; [#uses=1 type=i64]
  %empty_6 = trunc i64 %empty to i8               ; [#uses=1 type=i8]
  ret i8 %empty_6
}

; [#uses=1]
define weak i64 @_ssdm_op_BitConcatenate.i64.i8.i8.i8.i8.i8.i8.i8.i8(i8, i8, i8, i8, i8, i8, i8, i8) nounwind readnone {
entry:
  %empty = zext i8 %6 to i16                      ; [#uses=1 type=i16]
  %empty_7 = zext i8 %7 to i16                    ; [#uses=1 type=i16]
  %empty_8 = shl i16 %empty, 8                    ; [#uses=1 type=i16]
  %empty_9 = or i16 %empty_8, %empty_7            ; [#uses=1 type=i16]
  %empty_10 = zext i8 %5 to i24                   ; [#uses=1 type=i24]
  %empty_11 = zext i16 %empty_9 to i24            ; [#uses=1 type=i24]
  %empty_12 = shl i24 %empty_10, 16               ; [#uses=1 type=i24]
  %empty_13 = or i24 %empty_12, %empty_11         ; [#uses=1 type=i24]
  %empty_14 = zext i8 %4 to i32                   ; [#uses=1 type=i32]
  %empty_15 = zext i24 %empty_13 to i32           ; [#uses=1 type=i32]
  %empty_16 = shl i32 %empty_14, 24               ; [#uses=1 type=i32]
  %empty_17 = or i32 %empty_16, %empty_15         ; [#uses=1 type=i32]
  %empty_18 = zext i8 %3 to i40                   ; [#uses=1 type=i40]
  %empty_19 = zext i32 %empty_17 to i40           ; [#uses=1 type=i40]
  %empty_20 = shl i40 %empty_18, 32               ; [#uses=1 type=i40]
  %empty_21 = or i40 %empty_20, %empty_19         ; [#uses=1 type=i40]
  %empty_22 = zext i8 %2 to i48                   ; [#uses=1 type=i48]
  %empty_23 = zext i40 %empty_21 to i48           ; [#uses=1 type=i48]
  %empty_24 = shl i48 %empty_22, 40               ; [#uses=1 type=i48]
  %empty_25 = or i48 %empty_24, %empty_23         ; [#uses=1 type=i48]
  %empty_26 = zext i8 %1 to i56                   ; [#uses=1 type=i56]
  %empty_27 = zext i48 %empty_25 to i56           ; [#uses=1 type=i56]
  %empty_28 = shl i56 %empty_26, 48               ; [#uses=1 type=i56]
  %empty_29 = or i56 %empty_28, %empty_27         ; [#uses=1 type=i56]
  %empty_30 = zext i8 %0 to i64                   ; [#uses=1 type=i64]
  %empty_31 = zext i56 %empty_29 to i64           ; [#uses=1 type=i64]
  %empty_32 = shl i64 %empty_30, 56               ; [#uses=1 type=i64]
  %empty_33 = or i64 %empty_32, %empty_31         ; [#uses=1 type=i64]
  ret i64 %empty_33
}

!opencl.kernels = !{!0, !7, !13, !16, !19, !21, !27, !31, !31, !21, !34, !21, !21, !37, !37, !39, !41, !21, !21, !21, !43, !43, !45, !47, !49, !49, !21, !51, !53, !53, !55, !57, !59, !59, !21, !61, !63, !63, !65, !21, !21, !21, !21, !21, !21, !21, !21, !21, !21, !21, !21}
!hls.encrypted.func = !{}
!llvm.map.gv = !{!67}

!0 = metadata !{null, metadata !1, metadata !2, metadata !3, metadata !4, metadata !5, metadata !6}
!1 = metadata !{metadata !"kernel_arg_addr_space", i32 0}
!2 = metadata !{metadata !"kernel_arg_access_qual", metadata !"none"}
!3 = metadata !{metadata !"kernel_arg_type", metadata !"ap_int<64>"}
!4 = metadata !{metadata !"kernel_arg_type_qual", metadata !""}
!5 = metadata !{metadata !"kernel_arg_name", metadata !"X"}
!6 = metadata !{metadata !"reqd_work_group_size", i32 1, i32 1, i32 1}
!7 = metadata !{null, metadata !8, metadata !9, metadata !10, metadata !11, metadata !12, metadata !6}
!8 = metadata !{metadata !"kernel_arg_addr_space", i32 1, i32 1}
!9 = metadata !{metadata !"kernel_arg_access_qual", metadata !"none", metadata !"none"}
!10 = metadata !{metadata !"kernel_arg_type", metadata !"hls::stream<ap_axis>*", metadata !"hls::stream<ap_axis>*"}
!11 = metadata !{metadata !"kernel_arg_type_qual", metadata !"", metadata !""}
!12 = metadata !{metadata !"kernel_arg_name", metadata !"stream_in", metadata !"stream_out"}
!13 = metadata !{null, metadata !1, metadata !2, metadata !14, metadata !4, metadata !15, metadata !6}
!14 = metadata !{metadata !"kernel_arg_type", metadata !"const struct ap_axis &"}
!15 = metadata !{metadata !"kernel_arg_name", metadata !"din"}
!16 = metadata !{null, metadata !1, metadata !2, metadata !17, metadata !4, metadata !18, metadata !6}
!17 = metadata !{metadata !"kernel_arg_type", metadata !"const ap_uint<8> &"}
!18 = metadata !{metadata !"kernel_arg_name", metadata !"op2"}
!19 = metadata !{null, metadata !1, metadata !2, metadata !20, metadata !4, metadata !18, metadata !6}
!20 = metadata !{metadata !"kernel_arg_type", metadata !"const ap_uint<1> &"}
!21 = metadata !{null, metadata !22, metadata !23, metadata !24, metadata !25, metadata !26, metadata !6}
!22 = metadata !{metadata !"kernel_arg_addr_space"}
!23 = metadata !{metadata !"kernel_arg_access_qual"}
!24 = metadata !{metadata !"kernel_arg_type"}
!25 = metadata !{metadata !"kernel_arg_type_qual"}
!26 = metadata !{metadata !"kernel_arg_name"}
!27 = metadata !{null, metadata !28, metadata !9, metadata !29, metadata !11, metadata !30, metadata !6}
!28 = metadata !{metadata !"kernel_arg_addr_space", i32 0, i32 0}
!29 = metadata !{metadata !"kernel_arg_type", metadata !"const ap_int_base<64, true> &", metadata !"long"}
!30 = metadata !{metadata !"kernel_arg_name", metadata !"op", metadata !"i_op"}
!31 = metadata !{null, metadata !1, metadata !2, metadata !32, metadata !4, metadata !33, metadata !6}
!32 = metadata !{metadata !"kernel_arg_type", metadata !"long"}
!33 = metadata !{metadata !"kernel_arg_name", metadata !"op"}
!34 = metadata !{null, metadata !28, metadata !9, metadata !35, metadata !11, metadata !36, metadata !6}
!35 = metadata !{metadata !"kernel_arg_type", metadata !"const ap_int_base<64, true> &", metadata !"const ap_int_base<64, true> &"}
!36 = metadata !{metadata !"kernel_arg_name", metadata !"op", metadata !"op2"}
!37 = metadata !{null, metadata !1, metadata !2, metadata !38, metadata !4, metadata !33, metadata !6}
!38 = metadata !{metadata !"kernel_arg_type", metadata !"const ap_int_base<65, true> &"}
!39 = metadata !{null, metadata !1, metadata !2, metadata !40, metadata !4, metadata !18, metadata !6}
!40 = metadata !{metadata !"kernel_arg_type", metadata !"const ap_int<64> &"}
!41 = metadata !{null, metadata !28, metadata !9, metadata !42, metadata !11, metadata !36, metadata !6}
!42 = metadata !{metadata !"kernel_arg_type", metadata !"const ap_int_base<64, true> &", metadata !"const ap_int_base<65, true> &"}
!43 = metadata !{null, metadata !1, metadata !2, metadata !44, metadata !4, metadata !33, metadata !6}
!44 = metadata !{metadata !"kernel_arg_type", metadata !"const ap_int_base<64, true> &"}
!45 = metadata !{null, metadata !28, metadata !9, metadata !46, metadata !11, metadata !36, metadata !6}
!46 = metadata !{metadata !"kernel_arg_type", metadata !"const ap_int_base<65, true> &", metadata !"int"}
!47 = metadata !{null, metadata !28, metadata !9, metadata !48, metadata !11, metadata !30, metadata !6}
!48 = metadata !{metadata !"kernel_arg_type", metadata !"const ap_int_base<64, true> &", metadata !"ulong"}
!49 = metadata !{null, metadata !1, metadata !2, metadata !50, metadata !4, metadata !33, metadata !6}
!50 = metadata !{metadata !"kernel_arg_type", metadata !"ulong"}
!51 = metadata !{null, metadata !28, metadata !9, metadata !52, metadata !11, metadata !36, metadata !6}
!52 = metadata !{metadata !"kernel_arg_type", metadata !"const ap_int_base<64, true> &", metadata !"const ap_int_base<64, false> &"}
!53 = metadata !{null, metadata !1, metadata !2, metadata !54, metadata !4, metadata !33, metadata !6}
!54 = metadata !{metadata !"kernel_arg_type", metadata !"const ap_int_base<64, false> &"}
!55 = metadata !{null, metadata !28, metadata !9, metadata !56, metadata !11, metadata !36, metadata !6}
!56 = metadata !{metadata !"kernel_arg_type", metadata !"const ap_int_base<64, true> &", metadata !"int"}
!57 = metadata !{null, metadata !28, metadata !9, metadata !58, metadata !11, metadata !30, metadata !6}
!58 = metadata !{metadata !"kernel_arg_type", metadata !"const ap_int_base<64, true> &", metadata !"uint"}
!59 = metadata !{null, metadata !1, metadata !2, metadata !60, metadata !4, metadata !33, metadata !6}
!60 = metadata !{metadata !"kernel_arg_type", metadata !"uint"}
!61 = metadata !{null, metadata !28, metadata !9, metadata !62, metadata !11, metadata !36, metadata !6}
!62 = metadata !{metadata !"kernel_arg_type", metadata !"const ap_int_base<64, true> &", metadata !"const ap_int_base<32, false> &"}
!63 = metadata !{null, metadata !1, metadata !2, metadata !64, metadata !4, metadata !33, metadata !6}
!64 = metadata !{metadata !"kernel_arg_type", metadata !"const ap_int_base<32, false> &"}
!65 = metadata !{null, metadata !1, metadata !2, metadata !14, metadata !4, metadata !66, metadata !6}
!66 = metadata !{metadata !"kernel_arg_name", metadata !""}
!67 = metadata !{metadata !68, [0 x i32]* @llvm_global_ctors_0}
!68 = metadata !{metadata !69}
!69 = metadata !{i32 0, i32 31, metadata !70}
!70 = metadata !{metadata !71}
!71 = metadata !{metadata !"llvm.global_ctors.0", metadata !72, metadata !"", i32 0, i32 31}
!72 = metadata !{metadata !73}
!73 = metadata !{i32 0, i32 0, i32 1}
!74 = metadata !{metadata !75}
!75 = metadata !{i32 0, i32 63, metadata !76}
!76 = metadata !{metadata !77}
!77 = metadata !{metadata !"stream_in.V.data.V", metadata !72, metadata !"int64", i32 0, i32 63}
!78 = metadata !{metadata !79}
!79 = metadata !{i32 0, i32 0, metadata !80}
!80 = metadata !{metadata !81}
!81 = metadata !{metadata !"stream_in.V.last.V", metadata !72, metadata !"uint1", i32 0, i32 0}
!82 = metadata !{metadata !83}
!83 = metadata !{i32 0, i32 7, metadata !84}
!84 = metadata !{metadata !85}
!85 = metadata !{metadata !"stream_in.V.tkeep.V", metadata !72, metadata !"uint8", i32 0, i32 7}
!86 = metadata !{metadata !87}
!87 = metadata !{i32 0, i32 63, metadata !88}
!88 = metadata !{metadata !89}
!89 = metadata !{metadata !"stream_out.V.data.V", metadata !72, metadata !"int64", i32 0, i32 63}
!90 = metadata !{metadata !91}
!91 = metadata !{i32 0, i32 0, metadata !92}
!92 = metadata !{metadata !93}
!93 = metadata !{metadata !"stream_out.V.last.V", metadata !72, metadata !"uint1", i32 0, i32 0}
!94 = metadata !{metadata !95}
!95 = metadata !{i32 0, i32 7, metadata !96}
!96 = metadata !{metadata !97}
!97 = metadata !{metadata !"stream_out.V.tkeep.V", metadata !72, metadata !"uint8", i32 0, i32 7}
!98 = metadata !{i32 790531, metadata !99, metadata !"stream_in.V.data.V", null, i32 30, metadata !1795, i32 0, i32 0} ; [ DW_TAG_arg_variable_field ]
!99 = metadata !{i32 786689, metadata !100, metadata !"stream_in", metadata !101, i32 16777246, metadata !104, i32 0, i32 0} ; [ DW_TAG_arg_variable ]
!100 = metadata !{i32 786478, i32 0, metadata !101, metadata !"reverseEndian64", metadata !"reverseEndian64", metadata !"_Z15reverseEndian64PN3hls6streamI7ap_axisEES3_", metadata !101, i32 29, metadata !102, i1 false, i1 true, i32 0, i32 0, null, i32 256, i1 false, null, null, null, metadata !130, i32 33} ; [ DW_TAG_subprogram ]
!101 = metadata !{i32 786473, metadata !"../hlsSources/srcs/reverseEndian64.cpp", metadata !"/nfs/ug/thesis/thesis0/pc/Quinn/galapagos", null} ; [ DW_TAG_file_type ]
!102 = metadata !{i32 786453, i32 0, metadata !"", i32 0, i32 0, i64 0, i64 0, i64 0, i32 0, null, metadata !103, i32 0, i32 0} ; [ DW_TAG_subroutine_type ]
!103 = metadata !{null, metadata !104, metadata !104}
!104 = metadata !{i32 786447, null, metadata !"", null, i32 0, i64 64, i64 64, i64 0, i32 0, metadata !105} ; [ DW_TAG_pointer_type ]
!105 = metadata !{i32 786434, metadata !106, metadata !"stream<ap_axis>", metadata !107, i32 79, i64 128, i64 64, i32 0, i32 0, null, metadata !108, i32 0, null, metadata !1793} ; [ DW_TAG_class_type ]
!106 = metadata !{i32 786489, null, metadata !"hls", metadata !107, i32 69} ; [ DW_TAG_namespace ]
!107 = metadata !{i32 786473, metadata !"/cad1/Xilinx/Vivado/2018.1/common/technology/autopilot/hls_stream.h", metadata !"/nfs/ug/thesis/thesis0/pc/Quinn/galapagos", null} ; [ DW_TAG_file_type ]
!108 = metadata !{metadata !109, metadata !1752, metadata !1756, metadata !1759, metadata !1764, metadata !1768, metadata !1771, metadata !1774, metadata !1778, metadata !1779, metadata !1780, metadata !1783, metadata !1786, metadata !1787, metadata !1790}
!109 = metadata !{i32 786445, metadata !105, metadata !"V", metadata !107, i32 163, i64 128, i64 64, i64 0, i32 0, metadata !110} ; [ DW_TAG_member ]
!110 = metadata !{i32 786434, null, metadata !"ap_axis", metadata !101, i32 8, i64 128, i64 64, i32 0, i32 0, null, metadata !111, i32 0, null, null} ; [ DW_TAG_class_type ]
!111 = metadata !{metadata !112, metadata !784, metadata !1124, metadata !1741, metadata !1745, metadata !1746}
!112 = metadata !{i32 786445, metadata !110, metadata !"data", metadata !101, i32 10, i64 64, i64 64, i64 0, i32 0, metadata !113} ; [ DW_TAG_member ]
!113 = metadata !{i32 786434, null, metadata !"ap_int<64>", metadata !114, i32 74, i64 64, i64 64, i32 0, i32 0, null, metadata !115, i32 0, null, metadata !783} ; [ DW_TAG_class_type ]
!114 = metadata !{i32 786473, metadata !"/cad1/Xilinx/Vivado/2018.1/common/technology/autopilot/ap_int.h", metadata !"/nfs/ug/thesis/thesis0/pc/Quinn/galapagos", null} ; [ DW_TAG_file_type ]
!115 = metadata !{metadata !116, metadata !411, metadata !415, metadata !421, metadata !427, metadata !716, metadata !719, metadata !722, metadata !725, metadata !728, metadata !731, metadata !734, metadata !737, metadata !740, metadata !743, metadata !746, metadata !749, metadata !752, metadata !755, metadata !758, metadata !761, metadata !764, metadata !767, metadata !771, metadata !774, metadata !778, metadata !781, metadata !782}
!116 = metadata !{i32 786460, metadata !113, null, metadata !114, i32 0, i64 0, i64 0, i64 0, i32 0, metadata !117} ; [ DW_TAG_inheritance ]
!117 = metadata !{i32 786434, null, metadata !"ap_int_base<64, true, true>", metadata !118, i32 1453, i64 64, i64 64, i32 0, i32 0, null, metadata !119, i32 0, null, metadata !409} ; [ DW_TAG_class_type ]
!118 = metadata !{i32 786473, metadata !"/cad1/Xilinx/Vivado/2018.1/common/technology/autopilot/ap_int_syn.h", metadata !"/nfs/ug/thesis/thesis0/pc/Quinn/galapagos", null} ; [ DW_TAG_file_type ]
!119 = metadata !{metadata !120, metadata !142, metadata !146, metadata !154, metadata !160, metadata !163, metadata !167, metadata !171, metadata !175, metadata !179, metadata !182, metadata !186, metadata !190, metadata !194, metadata !199, metadata !204, metadata !209, metadata !213, metadata !217, metadata !223, metadata !226, metadata !230, metadata !233, metadata !236, metadata !237, metadata !241, metadata !244, metadata !247, metadata !250, metadata !253, metadata !256, metadata !259, metadata !262, metadata !265, metadata !268, metadata !271, metadata !274, metadata !284, metadata !287, metadata !290, metadata !293, metadata !296, metadata !299, metadata !302, metadata !305, metadata !308, metadata !311, metadata !314, metadata !317, metadata !320, metadata !321, metadata !325, metadata !328, metadata !329, metadata !330, metadata !331, metadata !332, metadata !333, metadata !336, metadata !337, metadata !340, metadata !341, metadata !342, metadata !343, metadata !344, metadata !345, metadata !348, metadata !349, metadata !350, metadata !353, metadata !354, metadata !357, metadata !358, metadata !359, metadata !365, metadata !366, metadata !369, metadata !370, metadata !374, metadata !375, metadata !376, metadata !377, metadata !380, metadata !381, metadata !382, metadata !383, metadata !384, metadata !385, metadata !386, metadata !387, metadata !388, metadata !389, metadata !390, metadata !391, metadata !401, metadata !404, metadata !407, metadata !408}
!120 = metadata !{i32 786460, metadata !117, null, metadata !118, i32 0, i64 0, i64 0, i64 0, i32 0, metadata !121} ; [ DW_TAG_inheritance ]
!121 = metadata !{i32 786434, null, metadata !"ssdm_int<64 + 1024 * 0, true>", metadata !122, i32 68, i64 64, i64 64, i32 0, i32 0, null, metadata !123, i32 0, null, metadata !137} ; [ DW_TAG_class_type ]
!122 = metadata !{i32 786473, metadata !"/cad1/Xilinx/Vivado/2018.1/common/technology/autopilot/etc/autopilot_dt.def", metadata !"/nfs/ug/thesis/thesis0/pc/Quinn/galapagos", null} ; [ DW_TAG_file_type ]
!123 = metadata !{metadata !124, metadata !126, metadata !132}
!124 = metadata !{i32 786445, metadata !121, metadata !"V", metadata !122, i32 68, i64 64, i64 64, i64 0, i32 0, metadata !125} ; [ DW_TAG_member ]
!125 = metadata !{i32 786468, null, metadata !"int64", null, i32 0, i64 64, i64 64, i64 0, i32 0, i32 5} ; [ DW_TAG_base_type ]
!126 = metadata !{i32 786478, i32 0, metadata !121, metadata !"ssdm_int", metadata !"ssdm_int", metadata !"", metadata !122, i32 68, metadata !127, i1 false, i1 false, i32 0, i32 0, null, i32 256, i1 false, null, null, i32 0, metadata !130, i32 68} ; [ DW_TAG_subprogram ]
!127 = metadata !{i32 786453, i32 0, metadata !"", i32 0, i32 0, i64 0, i64 0, i64 0, i32 0, null, metadata !128, i32 0, i32 0} ; [ DW_TAG_subroutine_type ]
!128 = metadata !{null, metadata !129}
!129 = metadata !{i32 786447, i32 0, metadata !"", i32 0, i32 0, i64 64, i64 64, i64 0, i32 64, metadata !121} ; [ DW_TAG_pointer_type ]
!130 = metadata !{metadata !131}
!131 = metadata !{i32 786468}                     ; [ DW_TAG_base_type ]
!132 = metadata !{i32 786478, i32 0, metadata !121, metadata !"ssdm_int", metadata !"ssdm_int", metadata !"", metadata !122, i32 68, metadata !133, i1 false, i1 false, i32 0, i32 0, null, i32 320, i1 false, null, null, i32 0, metadata !130, i32 68} ; [ DW_TAG_subprogram ]
!133 = metadata !{i32 786453, i32 0, metadata !"", i32 0, i32 0, i64 0, i64 0, i64 0, i32 0, null, metadata !134, i32 0, i32 0} ; [ DW_TAG_subroutine_type ]
!134 = metadata !{null, metadata !129, metadata !135}
!135 = metadata !{i32 786448, null, null, null, i32 0, i64 0, i64 0, i64 0, i32 0, metadata !136} ; [ DW_TAG_reference_type ]
!136 = metadata !{i32 786470, null, metadata !"", null, i32 0, i64 0, i64 0, i64 0, i32 0, metadata !121} ; [ DW_TAG_const_type ]
!137 = metadata !{metadata !138, metadata !140}
!138 = metadata !{i32 786480, null, metadata !"_AP_N", metadata !139, i64 64, null, i32 0, i32 0} ; [ DW_TAG_template_value_parameter ]
!139 = metadata !{i32 786468, null, metadata !"int", null, i32 0, i64 32, i64 32, i64 0, i32 0, i32 5} ; [ DW_TAG_base_type ]
!140 = metadata !{i32 786480, null, metadata !"_AP_S", metadata !141, i64 1, null, i32 0, i32 0} ; [ DW_TAG_template_value_parameter ]
!141 = metadata !{i32 786468, null, metadata !"bool", null, i32 0, i64 8, i64 8, i64 0, i32 0, i32 2} ; [ DW_TAG_base_type ]
!142 = metadata !{i32 786478, i32 0, metadata !117, metadata !"ap_int_base", metadata !"ap_int_base", metadata !"", metadata !118, i32 1494, metadata !143, i1 false, i1 false, i32 0, i32 0, null, i32 256, i1 false, null, null, i32 0, metadata !130, i32 1494} ; [ DW_TAG_subprogram ]
!143 = metadata !{i32 786453, i32 0, metadata !"", i32 0, i32 0, i64 0, i64 0, i64 0, i32 0, null, metadata !144, i32 0, i32 0} ; [ DW_TAG_subroutine_type ]
!144 = metadata !{null, metadata !145}
!145 = metadata !{i32 786447, i32 0, metadata !"", i32 0, i32 0, i64 64, i64 64, i64 0, i32 64, metadata !117} ; [ DW_TAG_pointer_type ]
!146 = metadata !{i32 786478, i32 0, metadata !117, metadata !"ap_int_base<64, true>", metadata !"ap_int_base<64, true>", metadata !"", metadata !118, i32 1506, metadata !147, i1 false, i1 false, i32 0, i32 0, null, i32 256, i1 false, null, metadata !151, i32 0, metadata !130, i32 1506} ; [ DW_TAG_subprogram ]
!147 = metadata !{i32 786453, i32 0, metadata !"", i32 0, i32 0, i64 0, i64 0, i64 0, i32 0, null, metadata !148, i32 0, i32 0} ; [ DW_TAG_subroutine_type ]
!148 = metadata !{null, metadata !145, metadata !149}
!149 = metadata !{i32 786448, null, null, null, i32 0, i64 0, i64 0, i64 0, i32 0, metadata !150} ; [ DW_TAG_reference_type ]
!150 = metadata !{i32 786470, null, metadata !"", null, i32 0, i64 0, i64 0, i64 0, i32 0, metadata !117} ; [ DW_TAG_const_type ]
!151 = metadata !{metadata !152, metadata !153}
!152 = metadata !{i32 786480, null, metadata !"_AP_W2", metadata !139, i64 64, null, i32 0, i32 0} ; [ DW_TAG_template_value_parameter ]
!153 = metadata !{i32 786480, null, metadata !"_AP_S2", metadata !141, i64 1, null, i32 0, i32 0} ; [ DW_TAG_template_value_parameter ]
!154 = metadata !{i32 786478, i32 0, metadata !117, metadata !"ap_int_base<64, true>", metadata !"ap_int_base<64, true>", metadata !"", metadata !118, i32 1509, metadata !155, i1 false, i1 false, i32 0, i32 0, null, i32 256, i1 false, null, metadata !151, i32 0, metadata !130, i32 1509} ; [ DW_TAG_subprogram ]
!155 = metadata !{i32 786453, i32 0, metadata !"", i32 0, i32 0, i64 0, i64 0, i64 0, i32 0, null, metadata !156, i32 0, i32 0} ; [ DW_TAG_subroutine_type ]
!156 = metadata !{null, metadata !145, metadata !157}
!157 = metadata !{i32 786448, null, null, null, i32 0, i64 0, i64 0, i64 0, i32 0, metadata !158} ; [ DW_TAG_reference_type ]
!158 = metadata !{i32 786470, null, metadata !"", null, i32 0, i64 0, i64 0, i64 0, i32 0, metadata !159} ; [ DW_TAG_const_type ]
!159 = metadata !{i32 786485, null, metadata !"", null, i32 0, i64 0, i64 0, i64 0, i32 0, metadata !117} ; [ DW_TAG_volatile_type ]
!160 = metadata !{i32 786478, i32 0, metadata !117, metadata !"ap_int_base", metadata !"ap_int_base", metadata !"", metadata !118, i32 1516, metadata !161, i1 false, i1 false, i32 0, i32 0, null, i32 384, i1 false, null, null, i32 0, metadata !130, i32 1516} ; [ DW_TAG_subprogram ]
!161 = metadata !{i32 786453, i32 0, metadata !"", i32 0, i32 0, i64 0, i64 0, i64 0, i32 0, null, metadata !162, i32 0, i32 0} ; [ DW_TAG_subroutine_type ]
!162 = metadata !{null, metadata !145, metadata !141}
!163 = metadata !{i32 786478, i32 0, metadata !117, metadata !"ap_int_base", metadata !"ap_int_base", metadata !"", metadata !118, i32 1517, metadata !164, i1 false, i1 false, i32 0, i32 0, null, i32 384, i1 false, null, null, i32 0, metadata !130, i32 1517} ; [ DW_TAG_subprogram ]
!164 = metadata !{i32 786453, i32 0, metadata !"", i32 0, i32 0, i64 0, i64 0, i64 0, i32 0, null, metadata !165, i32 0, i32 0} ; [ DW_TAG_subroutine_type ]
!165 = metadata !{null, metadata !145, metadata !166}
!166 = metadata !{i32 786468, null, metadata !"signed char", null, i32 0, i64 8, i64 8, i64 0, i32 0, i32 6} ; [ DW_TAG_base_type ]
!167 = metadata !{i32 786478, i32 0, metadata !117, metadata !"ap_int_base", metadata !"ap_int_base", metadata !"", metadata !118, i32 1518, metadata !168, i1 false, i1 false, i32 0, i32 0, null, i32 384, i1 false, null, null, i32 0, metadata !130, i32 1518} ; [ DW_TAG_subprogram ]
!168 = metadata !{i32 786453, i32 0, metadata !"", i32 0, i32 0, i64 0, i64 0, i64 0, i32 0, null, metadata !169, i32 0, i32 0} ; [ DW_TAG_subroutine_type ]
!169 = metadata !{null, metadata !145, metadata !170}
!170 = metadata !{i32 786468, null, metadata !"unsigned char", null, i32 0, i64 8, i64 8, i64 0, i32 0, i32 8} ; [ DW_TAG_base_type ]
!171 = metadata !{i32 786478, i32 0, metadata !117, metadata !"ap_int_base", metadata !"ap_int_base", metadata !"", metadata !118, i32 1519, metadata !172, i1 false, i1 false, i32 0, i32 0, null, i32 384, i1 false, null, null, i32 0, metadata !130, i32 1519} ; [ DW_TAG_subprogram ]
!172 = metadata !{i32 786453, i32 0, metadata !"", i32 0, i32 0, i64 0, i64 0, i64 0, i32 0, null, metadata !173, i32 0, i32 0} ; [ DW_TAG_subroutine_type ]
!173 = metadata !{null, metadata !145, metadata !174}
!174 = metadata !{i32 786468, null, metadata !"short", null, i32 0, i64 16, i64 16, i64 0, i32 0, i32 5} ; [ DW_TAG_base_type ]
!175 = metadata !{i32 786478, i32 0, metadata !117, metadata !"ap_int_base", metadata !"ap_int_base", metadata !"", metadata !118, i32 1520, metadata !176, i1 false, i1 false, i32 0, i32 0, null, i32 384, i1 false, null, null, i32 0, metadata !130, i32 1520} ; [ DW_TAG_subprogram ]
!176 = metadata !{i32 786453, i32 0, metadata !"", i32 0, i32 0, i64 0, i64 0, i64 0, i32 0, null, metadata !177, i32 0, i32 0} ; [ DW_TAG_subroutine_type ]
!177 = metadata !{null, metadata !145, metadata !178}
!178 = metadata !{i32 786468, null, metadata !"unsigned short", null, i32 0, i64 16, i64 16, i64 0, i32 0, i32 7} ; [ DW_TAG_base_type ]
!179 = metadata !{i32 786478, i32 0, metadata !117, metadata !"ap_int_base", metadata !"ap_int_base", metadata !"", metadata !118, i32 1521, metadata !180, i1 false, i1 false, i32 0, i32 0, null, i32 384, i1 false, null, null, i32 0, metadata !130, i32 1521} ; [ DW_TAG_subprogram ]
!180 = metadata !{i32 786453, i32 0, metadata !"", i32 0, i32 0, i64 0, i64 0, i64 0, i32 0, null, metadata !181, i32 0, i32 0} ; [ DW_TAG_subroutine_type ]
!181 = metadata !{null, metadata !145, metadata !139}
!182 = metadata !{i32 786478, i32 0, metadata !117, metadata !"ap_int_base", metadata !"ap_int_base", metadata !"", metadata !118, i32 1522, metadata !183, i1 false, i1 false, i32 0, i32 0, null, i32 384, i1 false, null, null, i32 0, metadata !130, i32 1522} ; [ DW_TAG_subprogram ]
!183 = metadata !{i32 786453, i32 0, metadata !"", i32 0, i32 0, i64 0, i64 0, i64 0, i32 0, null, metadata !184, i32 0, i32 0} ; [ DW_TAG_subroutine_type ]
!184 = metadata !{null, metadata !145, metadata !185}
!185 = metadata !{i32 786468, null, metadata !"unsigned int", null, i32 0, i64 32, i64 32, i64 0, i32 0, i32 7} ; [ DW_TAG_base_type ]
!186 = metadata !{i32 786478, i32 0, metadata !117, metadata !"ap_int_base", metadata !"ap_int_base", metadata !"", metadata !118, i32 1523, metadata !187, i1 false, i1 false, i32 0, i32 0, null, i32 384, i1 false, null, null, i32 0, metadata !130, i32 1523} ; [ DW_TAG_subprogram ]
!187 = metadata !{i32 786453, i32 0, metadata !"", i32 0, i32 0, i64 0, i64 0, i64 0, i32 0, null, metadata !188, i32 0, i32 0} ; [ DW_TAG_subroutine_type ]
!188 = metadata !{null, metadata !145, metadata !189}
!189 = metadata !{i32 786468, null, metadata !"long int", null, i32 0, i64 64, i64 64, i64 0, i32 0, i32 5} ; [ DW_TAG_base_type ]
!190 = metadata !{i32 786478, i32 0, metadata !117, metadata !"ap_int_base", metadata !"ap_int_base", metadata !"", metadata !118, i32 1524, metadata !191, i1 false, i1 false, i32 0, i32 0, null, i32 384, i1 false, null, null, i32 0, metadata !130, i32 1524} ; [ DW_TAG_subprogram ]
!191 = metadata !{i32 786453, i32 0, metadata !"", i32 0, i32 0, i64 0, i64 0, i64 0, i32 0, null, metadata !192, i32 0, i32 0} ; [ DW_TAG_subroutine_type ]
!192 = metadata !{null, metadata !145, metadata !193}
!193 = metadata !{i32 786468, null, metadata !"long unsigned int", null, i32 0, i64 64, i64 64, i64 0, i32 0, i32 7} ; [ DW_TAG_base_type ]
!194 = metadata !{i32 786478, i32 0, metadata !117, metadata !"ap_int_base", metadata !"ap_int_base", metadata !"", metadata !118, i32 1525, metadata !195, i1 false, i1 false, i32 0, i32 0, null, i32 384, i1 false, null, null, i32 0, metadata !130, i32 1525} ; [ DW_TAG_subprogram ]
!195 = metadata !{i32 786453, i32 0, metadata !"", i32 0, i32 0, i64 0, i64 0, i64 0, i32 0, null, metadata !196, i32 0, i32 0} ; [ DW_TAG_subroutine_type ]
!196 = metadata !{null, metadata !145, metadata !197}
!197 = metadata !{i32 786454, null, metadata !"ap_slong", metadata !118, i32 112, i64 0, i64 0, i64 0, i32 0, metadata !198} ; [ DW_TAG_typedef ]
!198 = metadata !{i32 786468, null, metadata !"long long int", null, i32 0, i64 64, i64 64, i64 0, i32 0, i32 5} ; [ DW_TAG_base_type ]
!199 = metadata !{i32 786478, i32 0, metadata !117, metadata !"ap_int_base", metadata !"ap_int_base", metadata !"", metadata !118, i32 1526, metadata !200, i1 false, i1 false, i32 0, i32 0, null, i32 384, i1 false, null, null, i32 0, metadata !130, i32 1526} ; [ DW_TAG_subprogram ]
!200 = metadata !{i32 786453, i32 0, metadata !"", i32 0, i32 0, i64 0, i64 0, i64 0, i32 0, null, metadata !201, i32 0, i32 0} ; [ DW_TAG_subroutine_type ]
!201 = metadata !{null, metadata !145, metadata !202}
!202 = metadata !{i32 786454, null, metadata !"ap_ulong", metadata !118, i32 111, i64 0, i64 0, i64 0, i32 0, metadata !203} ; [ DW_TAG_typedef ]
!203 = metadata !{i32 786468, null, metadata !"long long unsigned int", null, i32 0, i64 64, i64 64, i64 0, i32 0, i32 7} ; [ DW_TAG_base_type ]
!204 = metadata !{i32 786478, i32 0, metadata !117, metadata !"ap_int_base", metadata !"ap_int_base", metadata !"", metadata !118, i32 1527, metadata !205, i1 false, i1 false, i32 0, i32 0, null, i32 384, i1 false, null, null, i32 0, metadata !130, i32 1527} ; [ DW_TAG_subprogram ]
!205 = metadata !{i32 786453, i32 0, metadata !"", i32 0, i32 0, i64 0, i64 0, i64 0, i32 0, null, metadata !206, i32 0, i32 0} ; [ DW_TAG_subroutine_type ]
!206 = metadata !{null, metadata !145, metadata !207}
!207 = metadata !{i32 786454, null, metadata !"half", metadata !118, i32 54, i64 0, i64 0, i64 0, i32 0, metadata !208} ; [ DW_TAG_typedef ]
!208 = metadata !{i32 786468, null, metadata !"half", null, i32 0, i64 16, i64 16, i64 0, i32 0, i32 4} ; [ DW_TAG_base_type ]
!209 = metadata !{i32 786478, i32 0, metadata !117, metadata !"ap_int_base", metadata !"ap_int_base", metadata !"", metadata !118, i32 1528, metadata !210, i1 false, i1 false, i32 0, i32 0, null, i32 384, i1 false, null, null, i32 0, metadata !130, i32 1528} ; [ DW_TAG_subprogram ]
!210 = metadata !{i32 786453, i32 0, metadata !"", i32 0, i32 0, i64 0, i64 0, i64 0, i32 0, null, metadata !211, i32 0, i32 0} ; [ DW_TAG_subroutine_type ]
!211 = metadata !{null, metadata !145, metadata !212}
!212 = metadata !{i32 786468, null, metadata !"float", null, i32 0, i64 32, i64 32, i64 0, i32 0, i32 4} ; [ DW_TAG_base_type ]
!213 = metadata !{i32 786478, i32 0, metadata !117, metadata !"ap_int_base", metadata !"ap_int_base", metadata !"", metadata !118, i32 1529, metadata !214, i1 false, i1 false, i32 0, i32 0, null, i32 384, i1 false, null, null, i32 0, metadata !130, i32 1529} ; [ DW_TAG_subprogram ]
!214 = metadata !{i32 786453, i32 0, metadata !"", i32 0, i32 0, i64 0, i64 0, i64 0, i32 0, null, metadata !215, i32 0, i32 0} ; [ DW_TAG_subroutine_type ]
!215 = metadata !{null, metadata !145, metadata !216}
!216 = metadata !{i32 786468, null, metadata !"double", null, i32 0, i64 64, i64 64, i64 0, i32 0, i32 4} ; [ DW_TAG_base_type ]
!217 = metadata !{i32 786478, i32 0, metadata !117, metadata !"ap_int_base", metadata !"ap_int_base", metadata !"", metadata !118, i32 1556, metadata !218, i1 false, i1 false, i32 0, i32 0, null, i32 256, i1 false, null, null, i32 0, metadata !130, i32 1556} ; [ DW_TAG_subprogram ]
!218 = metadata !{i32 786453, i32 0, metadata !"", i32 0, i32 0, i64 0, i64 0, i64 0, i32 0, null, metadata !219, i32 0, i32 0} ; [ DW_TAG_subroutine_type ]
!219 = metadata !{null, metadata !145, metadata !220}
!220 = metadata !{i32 786447, null, metadata !"", null, i32 0, i64 64, i64 64, i64 0, i32 0, metadata !221} ; [ DW_TAG_pointer_type ]
!221 = metadata !{i32 786470, null, metadata !"", null, i32 0, i64 0, i64 0, i64 0, i32 0, metadata !222} ; [ DW_TAG_const_type ]
!222 = metadata !{i32 786468, null, metadata !"char", null, i32 0, i64 8, i64 8, i64 0, i32 0, i32 6} ; [ DW_TAG_base_type ]
!223 = metadata !{i32 786478, i32 0, metadata !117, metadata !"ap_int_base", metadata !"ap_int_base", metadata !"", metadata !118, i32 1563, metadata !224, i1 false, i1 false, i32 0, i32 0, null, i32 256, i1 false, null, null, i32 0, metadata !130, i32 1563} ; [ DW_TAG_subprogram ]
!224 = metadata !{i32 786453, i32 0, metadata !"", i32 0, i32 0, i64 0, i64 0, i64 0, i32 0, null, metadata !225, i32 0, i32 0} ; [ DW_TAG_subroutine_type ]
!225 = metadata !{null, metadata !145, metadata !220, metadata !166}
!226 = metadata !{i32 786478, i32 0, metadata !117, metadata !"read", metadata !"read", metadata !"_ZNV11ap_int_baseILi64ELb1ELb1EE4readEv", metadata !118, i32 1584, metadata !227, i1 false, i1 false, i32 0, i32 0, null, i32 256, i1 false, null, null, i32 0, metadata !130, i32 1584} ; [ DW_TAG_subprogram ]
!227 = metadata !{i32 786453, i32 0, metadata !"", i32 0, i32 0, i64 0, i64 0, i64 0, i32 0, null, metadata !228, i32 0, i32 0} ; [ DW_TAG_subroutine_type ]
!228 = metadata !{metadata !117, metadata !229}
!229 = metadata !{i32 786447, i32 0, metadata !"", i32 0, i32 0, i64 64, i64 64, i64 0, i32 64, metadata !159} ; [ DW_TAG_pointer_type ]
!230 = metadata !{i32 786478, i32 0, metadata !117, metadata !"write", metadata !"write", metadata !"_ZNV11ap_int_baseILi64ELb1ELb1EE5writeERKS0_", metadata !118, i32 1590, metadata !231, i1 false, i1 false, i32 0, i32 0, null, i32 256, i1 false, null, null, i32 0, metadata !130, i32 1590} ; [ DW_TAG_subprogram ]
!231 = metadata !{i32 786453, i32 0, metadata !"", i32 0, i32 0, i64 0, i64 0, i64 0, i32 0, null, metadata !232, i32 0, i32 0} ; [ DW_TAG_subroutine_type ]
!232 = metadata !{null, metadata !229, metadata !149}
!233 = metadata !{i32 786478, i32 0, metadata !117, metadata !"operator=", metadata !"operator=", metadata !"_ZNV11ap_int_baseILi64ELb1ELb1EEaSERVKS0_", metadata !118, i32 1602, metadata !234, i1 false, i1 false, i32 0, i32 0, null, i32 256, i1 false, null, null, i32 0, metadata !130, i32 1602} ; [ DW_TAG_subprogram ]
!234 = metadata !{i32 786453, i32 0, metadata !"", i32 0, i32 0, i64 0, i64 0, i64 0, i32 0, null, metadata !235, i32 0, i32 0} ; [ DW_TAG_subroutine_type ]
!235 = metadata !{null, metadata !229, metadata !157}
!236 = metadata !{i32 786478, i32 0, metadata !117, metadata !"operator=", metadata !"operator=", metadata !"_ZNV11ap_int_baseILi64ELb1ELb1EEaSERKS0_", metadata !118, i32 1611, metadata !231, i1 false, i1 false, i32 0, i32 0, null, i32 256, i1 false, null, null, i32 0, metadata !130, i32 1611} ; [ DW_TAG_subprogram ]
!237 = metadata !{i32 786478, i32 0, metadata !117, metadata !"operator=", metadata !"operator=", metadata !"_ZN11ap_int_baseILi64ELb1ELb1EEaSERVKS0_", metadata !118, i32 1634, metadata !238, i1 false, i1 false, i32 0, i32 0, null, i32 256, i1 false, null, null, i32 0, metadata !130, i32 1634} ; [ DW_TAG_subprogram ]
!238 = metadata !{i32 786453, i32 0, metadata !"", i32 0, i32 0, i64 0, i64 0, i64 0, i32 0, null, metadata !239, i32 0, i32 0} ; [ DW_TAG_subroutine_type ]
!239 = metadata !{metadata !240, metadata !145, metadata !157}
!240 = metadata !{i32 786448, null, null, null, i32 0, i64 0, i64 0, i64 0, i32 0, metadata !117} ; [ DW_TAG_reference_type ]
!241 = metadata !{i32 786478, i32 0, metadata !117, metadata !"operator=", metadata !"operator=", metadata !"_ZN11ap_int_baseILi64ELb1ELb1EEaSERKS0_", metadata !118, i32 1639, metadata !242, i1 false, i1 false, i32 0, i32 0, null, i32 256, i1 false, null, null, i32 0, metadata !130, i32 1639} ; [ DW_TAG_subprogram ]
!242 = metadata !{i32 786453, i32 0, metadata !"", i32 0, i32 0, i64 0, i64 0, i64 0, i32 0, null, metadata !243, i32 0, i32 0} ; [ DW_TAG_subroutine_type ]
!243 = metadata !{metadata !240, metadata !145, metadata !149}
!244 = metadata !{i32 786478, i32 0, metadata !117, metadata !"operator=", metadata !"operator=", metadata !"_ZN11ap_int_baseILi64ELb1ELb1EEaSEPKc", metadata !118, i32 1643, metadata !245, i1 false, i1 false, i32 0, i32 0, null, i32 256, i1 false, null, null, i32 0, metadata !130, i32 1643} ; [ DW_TAG_subprogram ]
!245 = metadata !{i32 786453, i32 0, metadata !"", i32 0, i32 0, i64 0, i64 0, i64 0, i32 0, null, metadata !246, i32 0, i32 0} ; [ DW_TAG_subroutine_type ]
!246 = metadata !{metadata !240, metadata !145, metadata !220}
!247 = metadata !{i32 786478, i32 0, metadata !117, metadata !"set", metadata !"set", metadata !"_ZN11ap_int_baseILi64ELb1ELb1EE3setEPKca", metadata !118, i32 1651, metadata !248, i1 false, i1 false, i32 0, i32 0, null, i32 256, i1 false, null, null, i32 0, metadata !130, i32 1651} ; [ DW_TAG_subprogram ]
!248 = metadata !{i32 786453, i32 0, metadata !"", i32 0, i32 0, i64 0, i64 0, i64 0, i32 0, null, metadata !249, i32 0, i32 0} ; [ DW_TAG_subroutine_type ]
!249 = metadata !{metadata !240, metadata !145, metadata !220, metadata !166}
!250 = metadata !{i32 786478, i32 0, metadata !117, metadata !"operator=", metadata !"operator=", metadata !"_ZN11ap_int_baseILi64ELb1ELb1EEaSEa", metadata !118, i32 1665, metadata !251, i1 false, i1 false, i32 0, i32 0, null, i32 256, i1 false, null, null, i32 0, metadata !130, i32 1665} ; [ DW_TAG_subprogram ]
!251 = metadata !{i32 786453, i32 0, metadata !"", i32 0, i32 0, i64 0, i64 0, i64 0, i32 0, null, metadata !252, i32 0, i32 0} ; [ DW_TAG_subroutine_type ]
!252 = metadata !{metadata !240, metadata !145, metadata !166}
!253 = metadata !{i32 786478, i32 0, metadata !117, metadata !"operator=", metadata !"operator=", metadata !"_ZN11ap_int_baseILi64ELb1ELb1EEaSEh", metadata !118, i32 1666, metadata !254, i1 false, i1 false, i32 0, i32 0, null, i32 256, i1 false, null, null, i32 0, metadata !130, i32 1666} ; [ DW_TAG_subprogram ]
!254 = metadata !{i32 786453, i32 0, metadata !"", i32 0, i32 0, i64 0, i64 0, i64 0, i32 0, null, metadata !255, i32 0, i32 0} ; [ DW_TAG_subroutine_type ]
!255 = metadata !{metadata !240, metadata !145, metadata !170}
!256 = metadata !{i32 786478, i32 0, metadata !117, metadata !"operator=", metadata !"operator=", metadata !"_ZN11ap_int_baseILi64ELb1ELb1EEaSEs", metadata !118, i32 1667, metadata !257, i1 false, i1 false, i32 0, i32 0, null, i32 256, i1 false, null, null, i32 0, metadata !130, i32 1667} ; [ DW_TAG_subprogram ]
!257 = metadata !{i32 786453, i32 0, metadata !"", i32 0, i32 0, i64 0, i64 0, i64 0, i32 0, null, metadata !258, i32 0, i32 0} ; [ DW_TAG_subroutine_type ]
!258 = metadata !{metadata !240, metadata !145, metadata !174}
!259 = metadata !{i32 786478, i32 0, metadata !117, metadata !"operator=", metadata !"operator=", metadata !"_ZN11ap_int_baseILi64ELb1ELb1EEaSEt", metadata !118, i32 1668, metadata !260, i1 false, i1 false, i32 0, i32 0, null, i32 256, i1 false, null, null, i32 0, metadata !130, i32 1668} ; [ DW_TAG_subprogram ]
!260 = metadata !{i32 786453, i32 0, metadata !"", i32 0, i32 0, i64 0, i64 0, i64 0, i32 0, null, metadata !261, i32 0, i32 0} ; [ DW_TAG_subroutine_type ]
!261 = metadata !{metadata !240, metadata !145, metadata !178}
!262 = metadata !{i32 786478, i32 0, metadata !117, metadata !"operator=", metadata !"operator=", metadata !"_ZN11ap_int_baseILi64ELb1ELb1EEaSEi", metadata !118, i32 1669, metadata !263, i1 false, i1 false, i32 0, i32 0, null, i32 256, i1 false, null, null, i32 0, metadata !130, i32 1669} ; [ DW_TAG_subprogram ]
!263 = metadata !{i32 786453, i32 0, metadata !"", i32 0, i32 0, i64 0, i64 0, i64 0, i32 0, null, metadata !264, i32 0, i32 0} ; [ DW_TAG_subroutine_type ]
!264 = metadata !{metadata !240, metadata !145, metadata !139}
!265 = metadata !{i32 786478, i32 0, metadata !117, metadata !"operator=", metadata !"operator=", metadata !"_ZN11ap_int_baseILi64ELb1ELb1EEaSEj", metadata !118, i32 1670, metadata !266, i1 false, i1 false, i32 0, i32 0, null, i32 256, i1 false, null, null, i32 0, metadata !130, i32 1670} ; [ DW_TAG_subprogram ]
!266 = metadata !{i32 786453, i32 0, metadata !"", i32 0, i32 0, i64 0, i64 0, i64 0, i32 0, null, metadata !267, i32 0, i32 0} ; [ DW_TAG_subroutine_type ]
!267 = metadata !{metadata !240, metadata !145, metadata !185}
!268 = metadata !{i32 786478, i32 0, metadata !117, metadata !"operator=", metadata !"operator=", metadata !"_ZN11ap_int_baseILi64ELb1ELb1EEaSEx", metadata !118, i32 1671, metadata !269, i1 false, i1 false, i32 0, i32 0, null, i32 256, i1 false, null, null, i32 0, metadata !130, i32 1671} ; [ DW_TAG_subprogram ]
!269 = metadata !{i32 786453, i32 0, metadata !"", i32 0, i32 0, i64 0, i64 0, i64 0, i32 0, null, metadata !270, i32 0, i32 0} ; [ DW_TAG_subroutine_type ]
!270 = metadata !{metadata !240, metadata !145, metadata !197}
!271 = metadata !{i32 786478, i32 0, metadata !117, metadata !"operator=", metadata !"operator=", metadata !"_ZN11ap_int_baseILi64ELb1ELb1EEaSEy", metadata !118, i32 1672, metadata !272, i1 false, i1 false, i32 0, i32 0, null, i32 256, i1 false, null, null, i32 0, metadata !130, i32 1672} ; [ DW_TAG_subprogram ]
!272 = metadata !{i32 786453, i32 0, metadata !"", i32 0, i32 0, i64 0, i64 0, i64 0, i32 0, null, metadata !273, i32 0, i32 0} ; [ DW_TAG_subroutine_type ]
!273 = metadata !{metadata !240, metadata !145, metadata !202}
!274 = metadata !{i32 786478, i32 0, metadata !117, metadata !"operator long long", metadata !"operator long long", metadata !"_ZNK11ap_int_baseILi64ELb1ELb1EEcvxEv", metadata !118, i32 1710, metadata !275, i1 false, i1 false, i32 0, i32 0, null, i32 256, i1 false, null, null, i32 0, metadata !130, i32 1710} ; [ DW_TAG_subprogram ]
!275 = metadata !{i32 786453, i32 0, metadata !"", i32 0, i32 0, i64 0, i64 0, i64 0, i32 0, null, metadata !276, i32 0, i32 0} ; [ DW_TAG_subroutine_type ]
!276 = metadata !{metadata !277, metadata !283}
!277 = metadata !{i32 786454, metadata !117, metadata !"RetType", metadata !118, i32 1458, i64 0, i64 0, i64 0, i32 0, metadata !278} ; [ DW_TAG_typedef ]
!278 = metadata !{i32 786454, metadata !279, metadata !"Type", metadata !118, i32 1415, i64 0, i64 0, i64 0, i32 0, metadata !197} ; [ DW_TAG_typedef ]
!279 = metadata !{i32 786434, null, metadata !"retval<8, true>", metadata !118, i32 1414, i64 8, i64 8, i32 0, i32 0, null, metadata !280, i32 0, null, metadata !281} ; [ DW_TAG_class_type ]
!280 = metadata !{i32 0}
!281 = metadata !{metadata !282, metadata !140}
!282 = metadata !{i32 786480, null, metadata !"_AP_N", metadata !139, i64 8, null, i32 0, i32 0} ; [ DW_TAG_template_value_parameter ]
!283 = metadata !{i32 786447, i32 0, metadata !"", i32 0, i32 0, i64 64, i64 64, i64 0, i32 64, metadata !150} ; [ DW_TAG_pointer_type ]
!284 = metadata !{i32 786478, i32 0, metadata !117, metadata !"to_bool", metadata !"to_bool", metadata !"_ZNK11ap_int_baseILi64ELb1ELb1EE7to_boolEv", metadata !118, i32 1716, metadata !285, i1 false, i1 false, i32 0, i32 0, null, i32 256, i1 false, null, null, i32 0, metadata !130, i32 1716} ; [ DW_TAG_subprogram ]
!285 = metadata !{i32 786453, i32 0, metadata !"", i32 0, i32 0, i64 0, i64 0, i64 0, i32 0, null, metadata !286, i32 0, i32 0} ; [ DW_TAG_subroutine_type ]
!286 = metadata !{metadata !141, metadata !283}
!287 = metadata !{i32 786478, i32 0, metadata !117, metadata !"to_uchar", metadata !"to_uchar", metadata !"_ZNK11ap_int_baseILi64ELb1ELb1EE8to_ucharEv", metadata !118, i32 1717, metadata !288, i1 false, i1 false, i32 0, i32 0, null, i32 256, i1 false, null, null, i32 0, metadata !130, i32 1717} ; [ DW_TAG_subprogram ]
!288 = metadata !{i32 786453, i32 0, metadata !"", i32 0, i32 0, i64 0, i64 0, i64 0, i32 0, null, metadata !289, i32 0, i32 0} ; [ DW_TAG_subroutine_type ]
!289 = metadata !{metadata !170, metadata !283}
!290 = metadata !{i32 786478, i32 0, metadata !117, metadata !"to_char", metadata !"to_char", metadata !"_ZNK11ap_int_baseILi64ELb1ELb1EE7to_charEv", metadata !118, i32 1718, metadata !291, i1 false, i1 false, i32 0, i32 0, null, i32 256, i1 false, null, null, i32 0, metadata !130, i32 1718} ; [ DW_TAG_subprogram ]
!291 = metadata !{i32 786453, i32 0, metadata !"", i32 0, i32 0, i64 0, i64 0, i64 0, i32 0, null, metadata !292, i32 0, i32 0} ; [ DW_TAG_subroutine_type ]
!292 = metadata !{metadata !166, metadata !283}
!293 = metadata !{i32 786478, i32 0, metadata !117, metadata !"to_ushort", metadata !"to_ushort", metadata !"_ZNK11ap_int_baseILi64ELb1ELb1EE9to_ushortEv", metadata !118, i32 1719, metadata !294, i1 false, i1 false, i32 0, i32 0, null, i32 256, i1 false, null, null, i32 0, metadata !130, i32 1719} ; [ DW_TAG_subprogram ]
!294 = metadata !{i32 786453, i32 0, metadata !"", i32 0, i32 0, i64 0, i64 0, i64 0, i32 0, null, metadata !295, i32 0, i32 0} ; [ DW_TAG_subroutine_type ]
!295 = metadata !{metadata !178, metadata !283}
!296 = metadata !{i32 786478, i32 0, metadata !117, metadata !"to_short", metadata !"to_short", metadata !"_ZNK11ap_int_baseILi64ELb1ELb1EE8to_shortEv", metadata !118, i32 1720, metadata !297, i1 false, i1 false, i32 0, i32 0, null, i32 256, i1 false, null, null, i32 0, metadata !130, i32 1720} ; [ DW_TAG_subprogram ]
!297 = metadata !{i32 786453, i32 0, metadata !"", i32 0, i32 0, i64 0, i64 0, i64 0, i32 0, null, metadata !298, i32 0, i32 0} ; [ DW_TAG_subroutine_type ]
!298 = metadata !{metadata !174, metadata !283}
!299 = metadata !{i32 786478, i32 0, metadata !117, metadata !"to_int", metadata !"to_int", metadata !"_ZNK11ap_int_baseILi64ELb1ELb1EE6to_intEv", metadata !118, i32 1721, metadata !300, i1 false, i1 false, i32 0, i32 0, null, i32 256, i1 false, null, null, i32 0, metadata !130, i32 1721} ; [ DW_TAG_subprogram ]
!300 = metadata !{i32 786453, i32 0, metadata !"", i32 0, i32 0, i64 0, i64 0, i64 0, i32 0, null, metadata !301, i32 0, i32 0} ; [ DW_TAG_subroutine_type ]
!301 = metadata !{metadata !139, metadata !283}
!302 = metadata !{i32 786478, i32 0, metadata !117, metadata !"to_uint", metadata !"to_uint", metadata !"_ZNK11ap_int_baseILi64ELb1ELb1EE7to_uintEv", metadata !118, i32 1722, metadata !303, i1 false, i1 false, i32 0, i32 0, null, i32 256, i1 false, null, null, i32 0, metadata !130, i32 1722} ; [ DW_TAG_subprogram ]
!303 = metadata !{i32 786453, i32 0, metadata !"", i32 0, i32 0, i64 0, i64 0, i64 0, i32 0, null, metadata !304, i32 0, i32 0} ; [ DW_TAG_subroutine_type ]
!304 = metadata !{metadata !185, metadata !283}
!305 = metadata !{i32 786478, i32 0, metadata !117, metadata !"to_long", metadata !"to_long", metadata !"_ZNK11ap_int_baseILi64ELb1ELb1EE7to_longEv", metadata !118, i32 1723, metadata !306, i1 false, i1 false, i32 0, i32 0, null, i32 256, i1 false, null, null, i32 0, metadata !130, i32 1723} ; [ DW_TAG_subprogram ]
!306 = metadata !{i32 786453, i32 0, metadata !"", i32 0, i32 0, i64 0, i64 0, i64 0, i32 0, null, metadata !307, i32 0, i32 0} ; [ DW_TAG_subroutine_type ]
!307 = metadata !{metadata !189, metadata !283}
!308 = metadata !{i32 786478, i32 0, metadata !117, metadata !"to_ulong", metadata !"to_ulong", metadata !"_ZNK11ap_int_baseILi64ELb1ELb1EE8to_ulongEv", metadata !118, i32 1724, metadata !309, i1 false, i1 false, i32 0, i32 0, null, i32 256, i1 false, null, null, i32 0, metadata !130, i32 1724} ; [ DW_TAG_subprogram ]
!309 = metadata !{i32 786453, i32 0, metadata !"", i32 0, i32 0, i64 0, i64 0, i64 0, i32 0, null, metadata !310, i32 0, i32 0} ; [ DW_TAG_subroutine_type ]
!310 = metadata !{metadata !193, metadata !283}
!311 = metadata !{i32 786478, i32 0, metadata !117, metadata !"to_int64", metadata !"to_int64", metadata !"_ZNK11ap_int_baseILi64ELb1ELb1EE8to_int64Ev", metadata !118, i32 1725, metadata !312, i1 false, i1 false, i32 0, i32 0, null, i32 256, i1 false, null, null, i32 0, metadata !130, i32 1725} ; [ DW_TAG_subprogram ]
!312 = metadata !{i32 786453, i32 0, metadata !"", i32 0, i32 0, i64 0, i64 0, i64 0, i32 0, null, metadata !313, i32 0, i32 0} ; [ DW_TAG_subroutine_type ]
!313 = metadata !{metadata !197, metadata !283}
!314 = metadata !{i32 786478, i32 0, metadata !117, metadata !"to_uint64", metadata !"to_uint64", metadata !"_ZNK11ap_int_baseILi64ELb1ELb1EE9to_uint64Ev", metadata !118, i32 1726, metadata !315, i1 false, i1 false, i32 0, i32 0, null, i32 256, i1 false, null, null, i32 0, metadata !130, i32 1726} ; [ DW_TAG_subprogram ]
!315 = metadata !{i32 786453, i32 0, metadata !"", i32 0, i32 0, i64 0, i64 0, i64 0, i32 0, null, metadata !316, i32 0, i32 0} ; [ DW_TAG_subroutine_type ]
!316 = metadata !{metadata !202, metadata !283}
!317 = metadata !{i32 786478, i32 0, metadata !117, metadata !"to_double", metadata !"to_double", metadata !"_ZNK11ap_int_baseILi64ELb1ELb1EE9to_doubleEv", metadata !118, i32 1727, metadata !318, i1 false, i1 false, i32 0, i32 0, null, i32 256, i1 false, null, null, i32 0, metadata !130, i32 1727} ; [ DW_TAG_subprogram ]
!318 = metadata !{i32 786453, i32 0, metadata !"", i32 0, i32 0, i64 0, i64 0, i64 0, i32 0, null, metadata !319, i32 0, i32 0} ; [ DW_TAG_subroutine_type ]
!319 = metadata !{metadata !216, metadata !283}
!320 = metadata !{i32 786478, i32 0, metadata !117, metadata !"length", metadata !"length", metadata !"_ZNK11ap_int_baseILi64ELb1ELb1EE6lengthEv", metadata !118, i32 1741, metadata !300, i1 false, i1 false, i32 0, i32 0, null, i32 256, i1 false, null, null, i32 0, metadata !130, i32 1741} ; [ DW_TAG_subprogram ]
!321 = metadata !{i32 786478, i32 0, metadata !117, metadata !"length", metadata !"length", metadata !"_ZNVK11ap_int_baseILi64ELb1ELb1EE6lengthEv", metadata !118, i32 1742, metadata !322, i1 false, i1 false, i32 0, i32 0, null, i32 256, i1 false, null, null, i32 0, metadata !130, i32 1742} ; [ DW_TAG_subprogram ]
!322 = metadata !{i32 786453, i32 0, metadata !"", i32 0, i32 0, i64 0, i64 0, i64 0, i32 0, null, metadata !323, i32 0, i32 0} ; [ DW_TAG_subroutine_type ]
!323 = metadata !{metadata !139, metadata !324}
!324 = metadata !{i32 786447, i32 0, metadata !"", i32 0, i32 0, i64 64, i64 64, i64 0, i32 64, metadata !158} ; [ DW_TAG_pointer_type ]
!325 = metadata !{i32 786478, i32 0, metadata !117, metadata !"reverse", metadata !"reverse", metadata !"_ZN11ap_int_baseILi64ELb1ELb1EE7reverseEv", metadata !118, i32 1747, metadata !326, i1 false, i1 false, i32 0, i32 0, null, i32 256, i1 false, null, null, i32 0, metadata !130, i32 1747} ; [ DW_TAG_subprogram ]
!326 = metadata !{i32 786453, i32 0, metadata !"", i32 0, i32 0, i64 0, i64 0, i64 0, i32 0, null, metadata !327, i32 0, i32 0} ; [ DW_TAG_subroutine_type ]
!327 = metadata !{metadata !240, metadata !145}
!328 = metadata !{i32 786478, i32 0, metadata !117, metadata !"iszero", metadata !"iszero", metadata !"_ZNK11ap_int_baseILi64ELb1ELb1EE6iszeroEv", metadata !118, i32 1753, metadata !285, i1 false, i1 false, i32 0, i32 0, null, i32 256, i1 false, null, null, i32 0, metadata !130, i32 1753} ; [ DW_TAG_subprogram ]
!329 = metadata !{i32 786478, i32 0, metadata !117, metadata !"is_zero", metadata !"is_zero", metadata !"_ZNK11ap_int_baseILi64ELb1ELb1EE7is_zeroEv", metadata !118, i32 1758, metadata !285, i1 false, i1 false, i32 0, i32 0, null, i32 256, i1 false, null, null, i32 0, metadata !130, i32 1758} ; [ DW_TAG_subprogram ]
!330 = metadata !{i32 786478, i32 0, metadata !117, metadata !"sign", metadata !"sign", metadata !"_ZNK11ap_int_baseILi64ELb1ELb1EE4signEv", metadata !118, i32 1763, metadata !285, i1 false, i1 false, i32 0, i32 0, null, i32 256, i1 false, null, null, i32 0, metadata !130, i32 1763} ; [ DW_TAG_subprogram ]
!331 = metadata !{i32 786478, i32 0, metadata !117, metadata !"clear", metadata !"clear", metadata !"_ZN11ap_int_baseILi64ELb1ELb1EE5clearEi", metadata !118, i32 1771, metadata !180, i1 false, i1 false, i32 0, i32 0, null, i32 256, i1 false, null, null, i32 0, metadata !130, i32 1771} ; [ DW_TAG_subprogram ]
!332 = metadata !{i32 786478, i32 0, metadata !117, metadata !"invert", metadata !"invert", metadata !"_ZN11ap_int_baseILi64ELb1ELb1EE6invertEi", metadata !118, i32 1777, metadata !180, i1 false, i1 false, i32 0, i32 0, null, i32 256, i1 false, null, null, i32 0, metadata !130, i32 1777} ; [ DW_TAG_subprogram ]
!333 = metadata !{i32 786478, i32 0, metadata !117, metadata !"test", metadata !"test", metadata !"_ZNK11ap_int_baseILi64ELb1ELb1EE4testEi", metadata !118, i32 1785, metadata !334, i1 false, i1 false, i32 0, i32 0, null, i32 256, i1 false, null, null, i32 0, metadata !130, i32 1785} ; [ DW_TAG_subprogram ]
!334 = metadata !{i32 786453, i32 0, metadata !"", i32 0, i32 0, i64 0, i64 0, i64 0, i32 0, null, metadata !335, i32 0, i32 0} ; [ DW_TAG_subroutine_type ]
!335 = metadata !{metadata !141, metadata !283, metadata !139}
!336 = metadata !{i32 786478, i32 0, metadata !117, metadata !"set", metadata !"set", metadata !"_ZN11ap_int_baseILi64ELb1ELb1EE3setEi", metadata !118, i32 1791, metadata !180, i1 false, i1 false, i32 0, i32 0, null, i32 256, i1 false, null, null, i32 0, metadata !130, i32 1791} ; [ DW_TAG_subprogram ]
!337 = metadata !{i32 786478, i32 0, metadata !117, metadata !"set", metadata !"set", metadata !"_ZN11ap_int_baseILi64ELb1ELb1EE3setEib", metadata !118, i32 1797, metadata !338, i1 false, i1 false, i32 0, i32 0, null, i32 256, i1 false, null, null, i32 0, metadata !130, i32 1797} ; [ DW_TAG_subprogram ]
!338 = metadata !{i32 786453, i32 0, metadata !"", i32 0, i32 0, i64 0, i64 0, i64 0, i32 0, null, metadata !339, i32 0, i32 0} ; [ DW_TAG_subroutine_type ]
!339 = metadata !{null, metadata !145, metadata !139, metadata !141}
!340 = metadata !{i32 786478, i32 0, metadata !117, metadata !"lrotate", metadata !"lrotate", metadata !"_ZN11ap_int_baseILi64ELb1ELb1EE7lrotateEi", metadata !118, i32 1804, metadata !180, i1 false, i1 false, i32 0, i32 0, null, i32 256, i1 false, null, null, i32 0, metadata !130, i32 1804} ; [ DW_TAG_subprogram ]
!341 = metadata !{i32 786478, i32 0, metadata !117, metadata !"rrotate", metadata !"rrotate", metadata !"_ZN11ap_int_baseILi64ELb1ELb1EE7rrotateEi", metadata !118, i32 1813, metadata !180, i1 false, i1 false, i32 0, i32 0, null, i32 256, i1 false, null, null, i32 0, metadata !130, i32 1813} ; [ DW_TAG_subprogram ]
!342 = metadata !{i32 786478, i32 0, metadata !117, metadata !"set_bit", metadata !"set_bit", metadata !"_ZN11ap_int_baseILi64ELb1ELb1EE7set_bitEib", metadata !118, i32 1821, metadata !338, i1 false, i1 false, i32 0, i32 0, null, i32 256, i1 false, null, null, i32 0, metadata !130, i32 1821} ; [ DW_TAG_subprogram ]
!343 = metadata !{i32 786478, i32 0, metadata !117, metadata !"get_bit", metadata !"get_bit", metadata !"_ZNK11ap_int_baseILi64ELb1ELb1EE7get_bitEi", metadata !118, i32 1826, metadata !334, i1 false, i1 false, i32 0, i32 0, null, i32 256, i1 false, null, null, i32 0, metadata !130, i32 1826} ; [ DW_TAG_subprogram ]
!344 = metadata !{i32 786478, i32 0, metadata !117, metadata !"b_not", metadata !"b_not", metadata !"_ZN11ap_int_baseILi64ELb1ELb1EE5b_notEv", metadata !118, i32 1831, metadata !143, i1 false, i1 false, i32 0, i32 0, null, i32 256, i1 false, null, null, i32 0, metadata !130, i32 1831} ; [ DW_TAG_subprogram ]
!345 = metadata !{i32 786478, i32 0, metadata !117, metadata !"countLeadingZeros", metadata !"countLeadingZeros", metadata !"_ZN11ap_int_baseILi64ELb1ELb1EE17countLeadingZerosEv", metadata !118, i32 1838, metadata !346, i1 false, i1 false, i32 0, i32 0, null, i32 256, i1 false, null, null, i32 0, metadata !130, i32 1838} ; [ DW_TAG_subprogram ]
!346 = metadata !{i32 786453, i32 0, metadata !"", i32 0, i32 0, i64 0, i64 0, i64 0, i32 0, null, metadata !347, i32 0, i32 0} ; [ DW_TAG_subroutine_type ]
!347 = metadata !{metadata !139, metadata !145}
!348 = metadata !{i32 786478, i32 0, metadata !117, metadata !"operator++", metadata !"operator++", metadata !"_ZN11ap_int_baseILi64ELb1ELb1EEppEv", metadata !118, i32 1895, metadata !326, i1 false, i1 false, i32 0, i32 0, null, i32 256, i1 false, null, null, i32 0, metadata !130, i32 1895} ; [ DW_TAG_subprogram ]
!349 = metadata !{i32 786478, i32 0, metadata !117, metadata !"operator--", metadata !"operator--", metadata !"_ZN11ap_int_baseILi64ELb1ELb1EEmmEv", metadata !118, i32 1899, metadata !326, i1 false, i1 false, i32 0, i32 0, null, i32 256, i1 false, null, null, i32 0, metadata !130, i32 1899} ; [ DW_TAG_subprogram ]
!350 = metadata !{i32 786478, i32 0, metadata !117, metadata !"operator++", metadata !"operator++", metadata !"_ZN11ap_int_baseILi64ELb1ELb1EEppEi", metadata !118, i32 1907, metadata !351, i1 false, i1 false, i32 0, i32 0, null, i32 256, i1 false, null, null, i32 0, metadata !130, i32 1907} ; [ DW_TAG_subprogram ]
!351 = metadata !{i32 786453, i32 0, metadata !"", i32 0, i32 0, i64 0, i64 0, i64 0, i32 0, null, metadata !352, i32 0, i32 0} ; [ DW_TAG_subroutine_type ]
!352 = metadata !{metadata !150, metadata !145, metadata !139}
!353 = metadata !{i32 786478, i32 0, metadata !117, metadata !"operator--", metadata !"operator--", metadata !"_ZN11ap_int_baseILi64ELb1ELb1EEmmEi", metadata !118, i32 1912, metadata !351, i1 false, i1 false, i32 0, i32 0, null, i32 256, i1 false, null, null, i32 0, metadata !130, i32 1912} ; [ DW_TAG_subprogram ]
!354 = metadata !{i32 786478, i32 0, metadata !117, metadata !"operator+", metadata !"operator+", metadata !"_ZNK11ap_int_baseILi64ELb1ELb1EEpsEv", metadata !118, i32 1921, metadata !355, i1 false, i1 false, i32 0, i32 0, null, i32 256, i1 false, null, null, i32 0, metadata !130, i32 1921} ; [ DW_TAG_subprogram ]
!355 = metadata !{i32 786453, i32 0, metadata !"", i32 0, i32 0, i64 0, i64 0, i64 0, i32 0, null, metadata !356, i32 0, i32 0} ; [ DW_TAG_subroutine_type ]
!356 = metadata !{metadata !117, metadata !283}
!357 = metadata !{i32 786478, i32 0, metadata !117, metadata !"operator!", metadata !"operator!", metadata !"_ZNK11ap_int_baseILi64ELb1ELb1EEntEv", metadata !118, i32 1927, metadata !285, i1 false, i1 false, i32 0, i32 0, null, i32 256, i1 false, null, null, i32 0, metadata !130, i32 1927} ; [ DW_TAG_subprogram ]
!358 = metadata !{i32 786478, i32 0, metadata !117, metadata !"operator-", metadata !"operator-", metadata !"_ZNK11ap_int_baseILi64ELb1ELb1EEngEv", metadata !118, i32 1932, metadata !355, i1 false, i1 false, i32 0, i32 0, null, i32 256, i1 false, null, null, i32 0, metadata !130, i32 1932} ; [ DW_TAG_subprogram ]
!359 = metadata !{i32 786478, i32 0, metadata !117, metadata !"range", metadata !"range", metadata !"_ZN11ap_int_baseILi64ELb1ELb1EE5rangeEii", metadata !118, i32 2062, metadata !360, i1 false, i1 false, i32 0, i32 0, null, i32 256, i1 false, null, null, i32 0, metadata !130, i32 2062} ; [ DW_TAG_subprogram ]
!360 = metadata !{i32 786453, i32 0, metadata !"", i32 0, i32 0, i64 0, i64 0, i64 0, i32 0, null, metadata !361, i32 0, i32 0} ; [ DW_TAG_subroutine_type ]
!361 = metadata !{metadata !362, metadata !145, metadata !139, metadata !139}
!362 = metadata !{i32 786434, null, metadata !"ap_range_ref<64, true>", metadata !118, i32 925, i64 0, i64 0, i32 0, i32 4, null, null, i32 0, null, metadata !363} ; [ DW_TAG_class_type ]
!363 = metadata !{metadata !364, metadata !140}
!364 = metadata !{i32 786480, null, metadata !"_AP_W", metadata !139, i64 64, null, i32 0, i32 0} ; [ DW_TAG_template_value_parameter ]
!365 = metadata !{i32 786478, i32 0, metadata !117, metadata !"operator()", metadata !"operator()", metadata !"_ZN11ap_int_baseILi64ELb1ELb1EEclEii", metadata !118, i32 2068, metadata !360, i1 false, i1 false, i32 0, i32 0, null, i32 256, i1 false, null, null, i32 0, metadata !130, i32 2068} ; [ DW_TAG_subprogram ]
!366 = metadata !{i32 786478, i32 0, metadata !117, metadata !"range", metadata !"range", metadata !"_ZNK11ap_int_baseILi64ELb1ELb1EE5rangeEii", metadata !118, i32 2074, metadata !367, i1 false, i1 false, i32 0, i32 0, null, i32 256, i1 false, null, null, i32 0, metadata !130, i32 2074} ; [ DW_TAG_subprogram ]
!367 = metadata !{i32 786453, i32 0, metadata !"", i32 0, i32 0, i64 0, i64 0, i64 0, i32 0, null, metadata !368, i32 0, i32 0} ; [ DW_TAG_subroutine_type ]
!368 = metadata !{metadata !362, metadata !283, metadata !139, metadata !139}
!369 = metadata !{i32 786478, i32 0, metadata !117, metadata !"operator()", metadata !"operator()", metadata !"_ZNK11ap_int_baseILi64ELb1ELb1EEclEii", metadata !118, i32 2080, metadata !367, i1 false, i1 false, i32 0, i32 0, null, i32 256, i1 false, null, null, i32 0, metadata !130, i32 2080} ; [ DW_TAG_subprogram ]
!370 = metadata !{i32 786478, i32 0, metadata !117, metadata !"operator[]", metadata !"operator[]", metadata !"_ZN11ap_int_baseILi64ELb1ELb1EEixEi", metadata !118, i32 2099, metadata !371, i1 false, i1 false, i32 0, i32 0, null, i32 256, i1 false, null, null, i32 0, metadata !130, i32 2099} ; [ DW_TAG_subprogram ]
!371 = metadata !{i32 786453, i32 0, metadata !"", i32 0, i32 0, i64 0, i64 0, i64 0, i32 0, null, metadata !372, i32 0, i32 0} ; [ DW_TAG_subroutine_type ]
!372 = metadata !{metadata !373, metadata !145, metadata !139}
!373 = metadata !{i32 786434, null, metadata !"ap_bit_ref<64, true>", metadata !118, i32 1249, i64 0, i64 0, i32 0, i32 4, null, null, i32 0, null, metadata !363} ; [ DW_TAG_class_type ]
!374 = metadata !{i32 786478, i32 0, metadata !117, metadata !"operator[]", metadata !"operator[]", metadata !"_ZNK11ap_int_baseILi64ELb1ELb1EEixEi", metadata !118, i32 2113, metadata !334, i1 false, i1 false, i32 0, i32 0, null, i32 256, i1 false, null, null, i32 0, metadata !130, i32 2113} ; [ DW_TAG_subprogram ]
!375 = metadata !{i32 786478, i32 0, metadata !117, metadata !"bit", metadata !"bit", metadata !"_ZN11ap_int_baseILi64ELb1ELb1EE3bitEi", metadata !118, i32 2127, metadata !371, i1 false, i1 false, i32 0, i32 0, null, i32 256, i1 false, null, null, i32 0, metadata !130, i32 2127} ; [ DW_TAG_subprogram ]
!376 = metadata !{i32 786478, i32 0, metadata !117, metadata !"bit", metadata !"bit", metadata !"_ZNK11ap_int_baseILi64ELb1ELb1EE3bitEi", metadata !118, i32 2141, metadata !334, i1 false, i1 false, i32 0, i32 0, null, i32 256, i1 false, null, null, i32 0, metadata !130, i32 2141} ; [ DW_TAG_subprogram ]
!377 = metadata !{i32 786478, i32 0, metadata !117, metadata !"and_reduce", metadata !"and_reduce", metadata !"_ZN11ap_int_baseILi64ELb1ELb1EE10and_reduceEv", metadata !118, i32 2321, metadata !378, i1 false, i1 false, i32 0, i32 0, null, i32 256, i1 false, null, null, i32 0, metadata !130, i32 2321} ; [ DW_TAG_subprogram ]
!378 = metadata !{i32 786453, i32 0, metadata !"", i32 0, i32 0, i64 0, i64 0, i64 0, i32 0, null, metadata !379, i32 0, i32 0} ; [ DW_TAG_subroutine_type ]
!379 = metadata !{metadata !141, metadata !145}
!380 = metadata !{i32 786478, i32 0, metadata !117, metadata !"nand_reduce", metadata !"nand_reduce", metadata !"_ZN11ap_int_baseILi64ELb1ELb1EE11nand_reduceEv", metadata !118, i32 2324, metadata !378, i1 false, i1 false, i32 0, i32 0, null, i32 256, i1 false, null, null, i32 0, metadata !130, i32 2324} ; [ DW_TAG_subprogram ]
!381 = metadata !{i32 786478, i32 0, metadata !117, metadata !"or_reduce", metadata !"or_reduce", metadata !"_ZN11ap_int_baseILi64ELb1ELb1EE9or_reduceEv", metadata !118, i32 2327, metadata !378, i1 false, i1 false, i32 0, i32 0, null, i32 256, i1 false, null, null, i32 0, metadata !130, i32 2327} ; [ DW_TAG_subprogram ]
!382 = metadata !{i32 786478, i32 0, metadata !117, metadata !"nor_reduce", metadata !"nor_reduce", metadata !"_ZN11ap_int_baseILi64ELb1ELb1EE10nor_reduceEv", metadata !118, i32 2330, metadata !378, i1 false, i1 false, i32 0, i32 0, null, i32 256, i1 false, null, null, i32 0, metadata !130, i32 2330} ; [ DW_TAG_subprogram ]
!383 = metadata !{i32 786478, i32 0, metadata !117, metadata !"xor_reduce", metadata !"xor_reduce", metadata !"_ZN11ap_int_baseILi64ELb1ELb1EE10xor_reduceEv", metadata !118, i32 2333, metadata !378, i1 false, i1 false, i32 0, i32 0, null, i32 256, i1 false, null, null, i32 0, metadata !130, i32 2333} ; [ DW_TAG_subprogram ]
!384 = metadata !{i32 786478, i32 0, metadata !117, metadata !"xnor_reduce", metadata !"xnor_reduce", metadata !"_ZN11ap_int_baseILi64ELb1ELb1EE11xnor_reduceEv", metadata !118, i32 2336, metadata !378, i1 false, i1 false, i32 0, i32 0, null, i32 256, i1 false, null, null, i32 0, metadata !130, i32 2336} ; [ DW_TAG_subprogram ]
!385 = metadata !{i32 786478, i32 0, metadata !117, metadata !"and_reduce", metadata !"and_reduce", metadata !"_ZNK11ap_int_baseILi64ELb1ELb1EE10and_reduceEv", metadata !118, i32 2340, metadata !285, i1 false, i1 false, i32 0, i32 0, null, i32 256, i1 false, null, null, i32 0, metadata !130, i32 2340} ; [ DW_TAG_subprogram ]
!386 = metadata !{i32 786478, i32 0, metadata !117, metadata !"nand_reduce", metadata !"nand_reduce", metadata !"_ZNK11ap_int_baseILi64ELb1ELb1EE11nand_reduceEv", metadata !118, i32 2343, metadata !285, i1 false, i1 false, i32 0, i32 0, null, i32 256, i1 false, null, null, i32 0, metadata !130, i32 2343} ; [ DW_TAG_subprogram ]
!387 = metadata !{i32 786478, i32 0, metadata !117, metadata !"or_reduce", metadata !"or_reduce", metadata !"_ZNK11ap_int_baseILi64ELb1ELb1EE9or_reduceEv", metadata !118, i32 2346, metadata !285, i1 false, i1 false, i32 0, i32 0, null, i32 256, i1 false, null, null, i32 0, metadata !130, i32 2346} ; [ DW_TAG_subprogram ]
!388 = metadata !{i32 786478, i32 0, metadata !117, metadata !"nor_reduce", metadata !"nor_reduce", metadata !"_ZNK11ap_int_baseILi64ELb1ELb1EE10nor_reduceEv", metadata !118, i32 2349, metadata !285, i1 false, i1 false, i32 0, i32 0, null, i32 256, i1 false, null, null, i32 0, metadata !130, i32 2349} ; [ DW_TAG_subprogram ]
!389 = metadata !{i32 786478, i32 0, metadata !117, metadata !"xor_reduce", metadata !"xor_reduce", metadata !"_ZNK11ap_int_baseILi64ELb1ELb1EE10xor_reduceEv", metadata !118, i32 2352, metadata !285, i1 false, i1 false, i32 0, i32 0, null, i32 256, i1 false, null, null, i32 0, metadata !130, i32 2352} ; [ DW_TAG_subprogram ]
!390 = metadata !{i32 786478, i32 0, metadata !117, metadata !"xnor_reduce", metadata !"xnor_reduce", metadata !"_ZNK11ap_int_baseILi64ELb1ELb1EE11xnor_reduceEv", metadata !118, i32 2355, metadata !285, i1 false, i1 false, i32 0, i32 0, null, i32 256, i1 false, null, null, i32 0, metadata !130, i32 2355} ; [ DW_TAG_subprogram ]
!391 = metadata !{i32 786478, i32 0, metadata !117, metadata !"to_string", metadata !"to_string", metadata !"_ZNK11ap_int_baseILi64ELb1ELb1EE9to_stringEPci8BaseModeb", metadata !118, i32 2362, metadata !392, i1 false, i1 false, i32 0, i32 0, null, i32 256, i1 false, null, null, i32 0, metadata !130, i32 2362} ; [ DW_TAG_subprogram ]
!392 = metadata !{i32 786453, i32 0, metadata !"", i32 0, i32 0, i64 0, i64 0, i64 0, i32 0, null, metadata !393, i32 0, i32 0} ; [ DW_TAG_subroutine_type ]
!393 = metadata !{null, metadata !283, metadata !394, metadata !139, metadata !395, metadata !141}
!394 = metadata !{i32 786447, null, metadata !"", null, i32 0, i64 64, i64 64, i64 0, i32 0, metadata !222} ; [ DW_TAG_pointer_type ]
!395 = metadata !{i32 786436, null, metadata !"BaseMode", metadata !118, i32 603, i64 5, i64 8, i32 0, i32 0, null, metadata !396, i32 0, i32 0} ; [ DW_TAG_enumeration_type ]
!396 = metadata !{metadata !397, metadata !398, metadata !399, metadata !400}
!397 = metadata !{i32 786472, metadata !"SC_BIN", i64 2} ; [ DW_TAG_enumerator ]
!398 = metadata !{i32 786472, metadata !"SC_OCT", i64 8} ; [ DW_TAG_enumerator ]
!399 = metadata !{i32 786472, metadata !"SC_DEC", i64 10} ; [ DW_TAG_enumerator ]
!400 = metadata !{i32 786472, metadata !"SC_HEX", i64 16} ; [ DW_TAG_enumerator ]
!401 = metadata !{i32 786478, i32 0, metadata !117, metadata !"to_string", metadata !"to_string", metadata !"_ZNK11ap_int_baseILi64ELb1ELb1EE9to_stringE8BaseModeb", metadata !118, i32 2389, metadata !402, i1 false, i1 false, i32 0, i32 0, null, i32 256, i1 false, null, null, i32 0, metadata !130, i32 2389} ; [ DW_TAG_subprogram ]
!402 = metadata !{i32 786453, i32 0, metadata !"", i32 0, i32 0, i64 0, i64 0, i64 0, i32 0, null, metadata !403, i32 0, i32 0} ; [ DW_TAG_subroutine_type ]
!403 = metadata !{metadata !394, metadata !283, metadata !395, metadata !141}
!404 = metadata !{i32 786478, i32 0, metadata !117, metadata !"to_string", metadata !"to_string", metadata !"_ZNK11ap_int_baseILi64ELb1ELb1EE9to_stringEab", metadata !118, i32 2393, metadata !405, i1 false, i1 false, i32 0, i32 0, null, i32 256, i1 false, null, null, i32 0, metadata !130, i32 2393} ; [ DW_TAG_subprogram ]
!405 = metadata !{i32 786453, i32 0, metadata !"", i32 0, i32 0, i64 0, i64 0, i64 0, i32 0, null, metadata !406, i32 0, i32 0} ; [ DW_TAG_subroutine_type ]
!406 = metadata !{metadata !394, metadata !283, metadata !166, metadata !141}
!407 = metadata !{i32 786478, i32 0, metadata !117, metadata !"ap_int_base", metadata !"ap_int_base", metadata !"", metadata !118, i32 1453, metadata !147, i1 false, i1 false, i32 0, i32 0, null, i32 320, i1 false, null, null, i32 0, metadata !130, i32 1453} ; [ DW_TAG_subprogram ]
!408 = metadata !{i32 786478, i32 0, metadata !117, metadata !"~ap_int_base", metadata !"~ap_int_base", metadata !"", metadata !118, i32 1453, metadata !143, i1 false, i1 false, i32 0, i32 0, null, i32 320, i1 false, null, null, i32 0, metadata !130, i32 1453} ; [ DW_TAG_subprogram ]
!409 = metadata !{metadata !364, metadata !140, metadata !410}
!410 = metadata !{i32 786480, null, metadata !"_AP_C", metadata !141, i64 1, null, i32 0, i32 0} ; [ DW_TAG_template_value_parameter ]
!411 = metadata !{i32 786478, i32 0, metadata !113, metadata !"ap_int", metadata !"ap_int", metadata !"", metadata !114, i32 77, metadata !412, i1 false, i1 false, i32 0, i32 0, null, i32 256, i1 false, null, null, i32 0, metadata !130, i32 77} ; [ DW_TAG_subprogram ]
!412 = metadata !{i32 786453, i32 0, metadata !"", i32 0, i32 0, i64 0, i64 0, i64 0, i32 0, null, metadata !413, i32 0, i32 0} ; [ DW_TAG_subroutine_type ]
!413 = metadata !{null, metadata !414}
!414 = metadata !{i32 786447, i32 0, metadata !"", i32 0, i32 0, i64 64, i64 64, i64 0, i32 64, metadata !113} ; [ DW_TAG_pointer_type ]
!415 = metadata !{i32 786478, i32 0, metadata !113, metadata !"ap_int<64>", metadata !"ap_int<64>", metadata !"", metadata !114, i32 79, metadata !416, i1 false, i1 false, i32 0, i32 0, null, i32 256, i1 false, null, metadata !420, i32 0, metadata !130, i32 79} ; [ DW_TAG_subprogram ]
!416 = metadata !{i32 786453, i32 0, metadata !"", i32 0, i32 0, i64 0, i64 0, i64 0, i32 0, null, metadata !417, i32 0, i32 0} ; [ DW_TAG_subroutine_type ]
!417 = metadata !{null, metadata !414, metadata !418}
!418 = metadata !{i32 786448, null, null, null, i32 0, i64 0, i64 0, i64 0, i32 0, metadata !419} ; [ DW_TAG_reference_type ]
!419 = metadata !{i32 786470, null, metadata !"", null, i32 0, i64 0, i64 0, i64 0, i32 0, metadata !113} ; [ DW_TAG_const_type ]
!420 = metadata !{metadata !152}
!421 = metadata !{i32 786478, i32 0, metadata !113, metadata !"ap_int<64>", metadata !"ap_int<64>", metadata !"", metadata !114, i32 82, metadata !422, i1 false, i1 false, i32 0, i32 0, null, i32 256, i1 false, null, metadata !420, i32 0, metadata !130, i32 82} ; [ DW_TAG_subprogram ]
!422 = metadata !{i32 786453, i32 0, metadata !"", i32 0, i32 0, i64 0, i64 0, i64 0, i32 0, null, metadata !423, i32 0, i32 0} ; [ DW_TAG_subroutine_type ]
!423 = metadata !{null, metadata !414, metadata !424}
!424 = metadata !{i32 786448, null, null, null, i32 0, i64 0, i64 0, i64 0, i32 0, metadata !425} ; [ DW_TAG_reference_type ]
!425 = metadata !{i32 786470, null, metadata !"", null, i32 0, i64 0, i64 0, i64 0, i32 0, metadata !426} ; [ DW_TAG_const_type ]
!426 = metadata !{i32 786485, null, metadata !"", null, i32 0, i64 0, i64 0, i64 0, i32 0, metadata !113} ; [ DW_TAG_volatile_type ]
!427 = metadata !{i32 786478, i32 0, metadata !113, metadata !"ap_int<65, true>", metadata !"ap_int<65, true>", metadata !"", metadata !114, i32 121, metadata !428, i1 false, i1 false, i32 0, i32 0, null, i32 256, i1 false, null, metadata !452, i32 0, metadata !130, i32 121} ; [ DW_TAG_subprogram ]
!428 = metadata !{i32 786453, i32 0, metadata !"", i32 0, i32 0, i64 0, i64 0, i64 0, i32 0, null, metadata !429, i32 0, i32 0} ; [ DW_TAG_subroutine_type ]
!429 = metadata !{null, metadata !414, metadata !430}
!430 = metadata !{i32 786448, null, null, null, i32 0, i64 0, i64 0, i64 0, i32 0, metadata !431} ; [ DW_TAG_reference_type ]
!431 = metadata !{i32 786470, null, metadata !"", null, i32 0, i64 0, i64 0, i64 0, i32 0, metadata !432} ; [ DW_TAG_const_type ]
!432 = metadata !{i32 786434, null, metadata !"ap_int_base<65, true, false>", metadata !118, i32 2398, i64 128, i64 64, i32 0, i32 0, null, metadata !433, i32 0, null, metadata !715} ; [ DW_TAG_class_type ]
!433 = metadata !{metadata !434, metadata !445, metadata !449, metadata !454, metadata !460, metadata !463, metadata !466, metadata !469, metadata !472, metadata !475, metadata !478, metadata !481, metadata !484, metadata !487, metadata !490, metadata !493, metadata !496, metadata !499, metadata !502, metadata !505, metadata !508, metadata !512, metadata !515, metadata !518, metadata !519, metadata !523, metadata !526, metadata !529, metadata !532, metadata !535, metadata !538, metadata !541, metadata !544, metadata !547, metadata !550, metadata !553, metadata !556, metadata !561, metadata !564, metadata !565, metadata !566, metadata !567, metadata !568, metadata !571, metadata !574, metadata !577, metadata !580, metadata !583, metadata !586, metadata !589, metadata !590, metadata !594, metadata !597, metadata !598, metadata !599, metadata !600, metadata !601, metadata !602, metadata !605, metadata !606, metadata !609, metadata !610, metadata !611, metadata !612, metadata !613, metadata !614, metadata !617, metadata !618, metadata !619, metadata !622, metadata !623, metadata !626, metadata !638, metadata !639, metadata !640, metadata !646, metadata !647, metadata !650, metadata !651, metadata !688, metadata !689, metadata !690, metadata !691, metadata !694, metadata !695, metadata !696, metadata !697, metadata !698, metadata !699, metadata !700, metadata !701, metadata !702, metadata !703, metadata !704, metadata !705, metadata !708, metadata !711, metadata !714}
!434 = metadata !{i32 786460, metadata !432, null, metadata !118, i32 0, i64 0, i64 0, i64 0, i32 0, metadata !435} ; [ DW_TAG_inheritance ]
!435 = metadata !{i32 786434, null, metadata !"ssdm_int<65 + 1024 * 0, true>", metadata !122, i32 73, i64 128, i64 64, i32 0, i32 0, null, metadata !436, i32 0, null, metadata !443} ; [ DW_TAG_class_type ]
!436 = metadata !{metadata !437, metadata !439}
!437 = metadata !{i32 786445, metadata !435, metadata !"V", metadata !122, i32 73, i64 65, i64 64, i64 0, i32 0, metadata !438} ; [ DW_TAG_member ]
!438 = metadata !{i32 786468, null, metadata !"int65", null, i32 0, i64 65, i64 64, i64 0, i32 0, i32 5} ; [ DW_TAG_base_type ]
!439 = metadata !{i32 786478, i32 0, metadata !435, metadata !"ssdm_int", metadata !"ssdm_int", metadata !"", metadata !122, i32 73, metadata !440, i1 false, i1 false, i32 0, i32 0, null, i32 256, i1 false, null, null, i32 0, metadata !130, i32 73} ; [ DW_TAG_subprogram ]
!440 = metadata !{i32 786453, i32 0, metadata !"", i32 0, i32 0, i64 0, i64 0, i64 0, i32 0, null, metadata !441, i32 0, i32 0} ; [ DW_TAG_subroutine_type ]
!441 = metadata !{null, metadata !442}
!442 = metadata !{i32 786447, i32 0, metadata !"", i32 0, i32 0, i64 64, i64 64, i64 0, i32 64, metadata !435} ; [ DW_TAG_pointer_type ]
!443 = metadata !{metadata !444, metadata !140}
!444 = metadata !{i32 786480, null, metadata !"_AP_N", metadata !139, i64 65, null, i32 0, i32 0} ; [ DW_TAG_template_value_parameter ]
!445 = metadata !{i32 786478, i32 0, metadata !432, metadata !"ap_int_base", metadata !"ap_int_base", metadata !"", metadata !118, i32 2436, metadata !446, i1 false, i1 false, i32 0, i32 0, null, i32 256, i1 false, null, null, i32 0, metadata !130, i32 2436} ; [ DW_TAG_subprogram ]
!446 = metadata !{i32 786453, i32 0, metadata !"", i32 0, i32 0, i64 0, i64 0, i64 0, i32 0, null, metadata !447, i32 0, i32 0} ; [ DW_TAG_subroutine_type ]
!447 = metadata !{null, metadata !448}
!448 = metadata !{i32 786447, i32 0, metadata !"", i32 0, i32 0, i64 64, i64 64, i64 0, i32 64, metadata !432} ; [ DW_TAG_pointer_type ]
!449 = metadata !{i32 786478, i32 0, metadata !432, metadata !"ap_int_base<65, true>", metadata !"ap_int_base<65, true>", metadata !"", metadata !118, i32 2448, metadata !450, i1 false, i1 false, i32 0, i32 0, null, i32 256, i1 false, null, metadata !452, i32 0, metadata !130, i32 2448} ; [ DW_TAG_subprogram ]
!450 = metadata !{i32 786453, i32 0, metadata !"", i32 0, i32 0, i64 0, i64 0, i64 0, i32 0, null, metadata !451, i32 0, i32 0} ; [ DW_TAG_subroutine_type ]
!451 = metadata !{null, metadata !448, metadata !430}
!452 = metadata !{metadata !453, metadata !153}
!453 = metadata !{i32 786480, null, metadata !"_AP_W2", metadata !139, i64 65, null, i32 0, i32 0} ; [ DW_TAG_template_value_parameter ]
!454 = metadata !{i32 786478, i32 0, metadata !432, metadata !"ap_int_base<65, true>", metadata !"ap_int_base<65, true>", metadata !"", metadata !118, i32 2451, metadata !455, i1 false, i1 false, i32 0, i32 0, null, i32 256, i1 false, null, metadata !452, i32 0, metadata !130, i32 2451} ; [ DW_TAG_subprogram ]
!455 = metadata !{i32 786453, i32 0, metadata !"", i32 0, i32 0, i64 0, i64 0, i64 0, i32 0, null, metadata !456, i32 0, i32 0} ; [ DW_TAG_subroutine_type ]
!456 = metadata !{null, metadata !448, metadata !457}
!457 = metadata !{i32 786448, null, null, null, i32 0, i64 0, i64 0, i64 0, i32 0, metadata !458} ; [ DW_TAG_reference_type ]
!458 = metadata !{i32 786470, null, metadata !"", null, i32 0, i64 0, i64 0, i64 0, i32 0, metadata !459} ; [ DW_TAG_const_type ]
!459 = metadata !{i32 786485, null, metadata !"", null, i32 0, i64 0, i64 0, i64 0, i32 0, metadata !432} ; [ DW_TAG_volatile_type ]
!460 = metadata !{i32 786478, i32 0, metadata !432, metadata !"ap_int_base", metadata !"ap_int_base", metadata !"", metadata !118, i32 2458, metadata !461, i1 false, i1 false, i32 0, i32 0, null, i32 384, i1 false, null, null, i32 0, metadata !130, i32 2458} ; [ DW_TAG_subprogram ]
!461 = metadata !{i32 786453, i32 0, metadata !"", i32 0, i32 0, i64 0, i64 0, i64 0, i32 0, null, metadata !462, i32 0, i32 0} ; [ DW_TAG_subroutine_type ]
!462 = metadata !{null, metadata !448, metadata !141}
!463 = metadata !{i32 786478, i32 0, metadata !432, metadata !"ap_int_base", metadata !"ap_int_base", metadata !"", metadata !118, i32 2459, metadata !464, i1 false, i1 false, i32 0, i32 0, null, i32 384, i1 false, null, null, i32 0, metadata !130, i32 2459} ; [ DW_TAG_subprogram ]
!464 = metadata !{i32 786453, i32 0, metadata !"", i32 0, i32 0, i64 0, i64 0, i64 0, i32 0, null, metadata !465, i32 0, i32 0} ; [ DW_TAG_subroutine_type ]
!465 = metadata !{null, metadata !448, metadata !166}
!466 = metadata !{i32 786478, i32 0, metadata !432, metadata !"ap_int_base", metadata !"ap_int_base", metadata !"", metadata !118, i32 2460, metadata !467, i1 false, i1 false, i32 0, i32 0, null, i32 384, i1 false, null, null, i32 0, metadata !130, i32 2460} ; [ DW_TAG_subprogram ]
!467 = metadata !{i32 786453, i32 0, metadata !"", i32 0, i32 0, i64 0, i64 0, i64 0, i32 0, null, metadata !468, i32 0, i32 0} ; [ DW_TAG_subroutine_type ]
!468 = metadata !{null, metadata !448, metadata !170}
!469 = metadata !{i32 786478, i32 0, metadata !432, metadata !"ap_int_base", metadata !"ap_int_base", metadata !"", metadata !118, i32 2461, metadata !470, i1 false, i1 false, i32 0, i32 0, null, i32 384, i1 false, null, null, i32 0, metadata !130, i32 2461} ; [ DW_TAG_subprogram ]
!470 = metadata !{i32 786453, i32 0, metadata !"", i32 0, i32 0, i64 0, i64 0, i64 0, i32 0, null, metadata !471, i32 0, i32 0} ; [ DW_TAG_subroutine_type ]
!471 = metadata !{null, metadata !448, metadata !174}
!472 = metadata !{i32 786478, i32 0, metadata !432, metadata !"ap_int_base", metadata !"ap_int_base", metadata !"", metadata !118, i32 2462, metadata !473, i1 false, i1 false, i32 0, i32 0, null, i32 384, i1 false, null, null, i32 0, metadata !130, i32 2462} ; [ DW_TAG_subprogram ]
!473 = metadata !{i32 786453, i32 0, metadata !"", i32 0, i32 0, i64 0, i64 0, i64 0, i32 0, null, metadata !474, i32 0, i32 0} ; [ DW_TAG_subroutine_type ]
!474 = metadata !{null, metadata !448, metadata !178}
!475 = metadata !{i32 786478, i32 0, metadata !432, metadata !"ap_int_base", metadata !"ap_int_base", metadata !"", metadata !118, i32 2463, metadata !476, i1 false, i1 false, i32 0, i32 0, null, i32 384, i1 false, null, null, i32 0, metadata !130, i32 2463} ; [ DW_TAG_subprogram ]
!476 = metadata !{i32 786453, i32 0, metadata !"", i32 0, i32 0, i64 0, i64 0, i64 0, i32 0, null, metadata !477, i32 0, i32 0} ; [ DW_TAG_subroutine_type ]
!477 = metadata !{null, metadata !448, metadata !139}
!478 = metadata !{i32 786478, i32 0, metadata !432, metadata !"ap_int_base", metadata !"ap_int_base", metadata !"", metadata !118, i32 2464, metadata !479, i1 false, i1 false, i32 0, i32 0, null, i32 384, i1 false, null, null, i32 0, metadata !130, i32 2464} ; [ DW_TAG_subprogram ]
!479 = metadata !{i32 786453, i32 0, metadata !"", i32 0, i32 0, i64 0, i64 0, i64 0, i32 0, null, metadata !480, i32 0, i32 0} ; [ DW_TAG_subroutine_type ]
!480 = metadata !{null, metadata !448, metadata !185}
!481 = metadata !{i32 786478, i32 0, metadata !432, metadata !"ap_int_base", metadata !"ap_int_base", metadata !"", metadata !118, i32 2465, metadata !482, i1 false, i1 false, i32 0, i32 0, null, i32 384, i1 false, null, null, i32 0, metadata !130, i32 2465} ; [ DW_TAG_subprogram ]
!482 = metadata !{i32 786453, i32 0, metadata !"", i32 0, i32 0, i64 0, i64 0, i64 0, i32 0, null, metadata !483, i32 0, i32 0} ; [ DW_TAG_subroutine_type ]
!483 = metadata !{null, metadata !448, metadata !189}
!484 = metadata !{i32 786478, i32 0, metadata !432, metadata !"ap_int_base", metadata !"ap_int_base", metadata !"", metadata !118, i32 2466, metadata !485, i1 false, i1 false, i32 0, i32 0, null, i32 384, i1 false, null, null, i32 0, metadata !130, i32 2466} ; [ DW_TAG_subprogram ]
!485 = metadata !{i32 786453, i32 0, metadata !"", i32 0, i32 0, i64 0, i64 0, i64 0, i32 0, null, metadata !486, i32 0, i32 0} ; [ DW_TAG_subroutine_type ]
!486 = metadata !{null, metadata !448, metadata !193}
!487 = metadata !{i32 786478, i32 0, metadata !432, metadata !"ap_int_base", metadata !"ap_int_base", metadata !"", metadata !118, i32 2467, metadata !488, i1 false, i1 false, i32 0, i32 0, null, i32 384, i1 false, null, null, i32 0, metadata !130, i32 2467} ; [ DW_TAG_subprogram ]
!488 = metadata !{i32 786453, i32 0, metadata !"", i32 0, i32 0, i64 0, i64 0, i64 0, i32 0, null, metadata !489, i32 0, i32 0} ; [ DW_TAG_subroutine_type ]
!489 = metadata !{null, metadata !448, metadata !197}
!490 = metadata !{i32 786478, i32 0, metadata !432, metadata !"ap_int_base", metadata !"ap_int_base", metadata !"", metadata !118, i32 2468, metadata !491, i1 false, i1 false, i32 0, i32 0, null, i32 384, i1 false, null, null, i32 0, metadata !130, i32 2468} ; [ DW_TAG_subprogram ]
!491 = metadata !{i32 786453, i32 0, metadata !"", i32 0, i32 0, i64 0, i64 0, i64 0, i32 0, null, metadata !492, i32 0, i32 0} ; [ DW_TAG_subroutine_type ]
!492 = metadata !{null, metadata !448, metadata !202}
!493 = metadata !{i32 786478, i32 0, metadata !432, metadata !"ap_int_base", metadata !"ap_int_base", metadata !"", metadata !118, i32 2469, metadata !494, i1 false, i1 false, i32 0, i32 0, null, i32 384, i1 false, null, null, i32 0, metadata !130, i32 2469} ; [ DW_TAG_subprogram ]
!494 = metadata !{i32 786453, i32 0, metadata !"", i32 0, i32 0, i64 0, i64 0, i64 0, i32 0, null, metadata !495, i32 0, i32 0} ; [ DW_TAG_subroutine_type ]
!495 = metadata !{null, metadata !448, metadata !207}
!496 = metadata !{i32 786478, i32 0, metadata !432, metadata !"ap_int_base", metadata !"ap_int_base", metadata !"", metadata !118, i32 2470, metadata !497, i1 false, i1 false, i32 0, i32 0, null, i32 384, i1 false, null, null, i32 0, metadata !130, i32 2470} ; [ DW_TAG_subprogram ]
!497 = metadata !{i32 786453, i32 0, metadata !"", i32 0, i32 0, i64 0, i64 0, i64 0, i32 0, null, metadata !498, i32 0, i32 0} ; [ DW_TAG_subroutine_type ]
!498 = metadata !{null, metadata !448, metadata !212}
!499 = metadata !{i32 786478, i32 0, metadata !432, metadata !"ap_int_base", metadata !"ap_int_base", metadata !"", metadata !118, i32 2471, metadata !500, i1 false, i1 false, i32 0, i32 0, null, i32 384, i1 false, null, null, i32 0, metadata !130, i32 2471} ; [ DW_TAG_subprogram ]
!500 = metadata !{i32 786453, i32 0, metadata !"", i32 0, i32 0, i64 0, i64 0, i64 0, i32 0, null, metadata !501, i32 0, i32 0} ; [ DW_TAG_subroutine_type ]
!501 = metadata !{null, metadata !448, metadata !216}
!502 = metadata !{i32 786478, i32 0, metadata !432, metadata !"ap_int_base", metadata !"ap_int_base", metadata !"", metadata !118, i32 2498, metadata !503, i1 false, i1 false, i32 0, i32 0, null, i32 256, i1 false, null, null, i32 0, metadata !130, i32 2498} ; [ DW_TAG_subprogram ]
!503 = metadata !{i32 786453, i32 0, metadata !"", i32 0, i32 0, i64 0, i64 0, i64 0, i32 0, null, metadata !504, i32 0, i32 0} ; [ DW_TAG_subroutine_type ]
!504 = metadata !{null, metadata !448, metadata !220}
!505 = metadata !{i32 786478, i32 0, metadata !432, metadata !"ap_int_base", metadata !"ap_int_base", metadata !"", metadata !118, i32 2505, metadata !506, i1 false, i1 false, i32 0, i32 0, null, i32 256, i1 false, null, null, i32 0, metadata !130, i32 2505} ; [ DW_TAG_subprogram ]
!506 = metadata !{i32 786453, i32 0, metadata !"", i32 0, i32 0, i64 0, i64 0, i64 0, i32 0, null, metadata !507, i32 0, i32 0} ; [ DW_TAG_subroutine_type ]
!507 = metadata !{null, metadata !448, metadata !220, metadata !166}
!508 = metadata !{i32 786478, i32 0, metadata !432, metadata !"read", metadata !"read", metadata !"_ZNV11ap_int_baseILi65ELb1ELb0EE4readEv", metadata !118, i32 2526, metadata !509, i1 false, i1 false, i32 0, i32 0, null, i32 256, i1 false, null, null, i32 0, metadata !130, i32 2526} ; [ DW_TAG_subprogram ]
!509 = metadata !{i32 786453, i32 0, metadata !"", i32 0, i32 0, i64 0, i64 0, i64 0, i32 0, null, metadata !510, i32 0, i32 0} ; [ DW_TAG_subroutine_type ]
!510 = metadata !{metadata !432, metadata !511}
!511 = metadata !{i32 786447, i32 0, metadata !"", i32 0, i32 0, i64 64, i64 64, i64 0, i32 64, metadata !459} ; [ DW_TAG_pointer_type ]
!512 = metadata !{i32 786478, i32 0, metadata !432, metadata !"write", metadata !"write", metadata !"_ZNV11ap_int_baseILi65ELb1ELb0EE5writeERKS0_", metadata !118, i32 2532, metadata !513, i1 false, i1 false, i32 0, i32 0, null, i32 256, i1 false, null, null, i32 0, metadata !130, i32 2532} ; [ DW_TAG_subprogram ]
!513 = metadata !{i32 786453, i32 0, metadata !"", i32 0, i32 0, i64 0, i64 0, i64 0, i32 0, null, metadata !514, i32 0, i32 0} ; [ DW_TAG_subroutine_type ]
!514 = metadata !{null, metadata !511, metadata !430}
!515 = metadata !{i32 786478, i32 0, metadata !432, metadata !"operator=", metadata !"operator=", metadata !"_ZNV11ap_int_baseILi65ELb1ELb0EEaSERVKS0_", metadata !118, i32 2544, metadata !516, i1 false, i1 false, i32 0, i32 0, null, i32 256, i1 false, null, null, i32 0, metadata !130, i32 2544} ; [ DW_TAG_subprogram ]
!516 = metadata !{i32 786453, i32 0, metadata !"", i32 0, i32 0, i64 0, i64 0, i64 0, i32 0, null, metadata !517, i32 0, i32 0} ; [ DW_TAG_subroutine_type ]
!517 = metadata !{null, metadata !511, metadata !457}
!518 = metadata !{i32 786478, i32 0, metadata !432, metadata !"operator=", metadata !"operator=", metadata !"_ZNV11ap_int_baseILi65ELb1ELb0EEaSERKS0_", metadata !118, i32 2553, metadata !513, i1 false, i1 false, i32 0, i32 0, null, i32 256, i1 false, null, null, i32 0, metadata !130, i32 2553} ; [ DW_TAG_subprogram ]
!519 = metadata !{i32 786478, i32 0, metadata !432, metadata !"operator=", metadata !"operator=", metadata !"_ZN11ap_int_baseILi65ELb1ELb0EEaSERVKS0_", metadata !118, i32 2576, metadata !520, i1 false, i1 false, i32 0, i32 0, null, i32 256, i1 false, null, null, i32 0, metadata !130, i32 2576} ; [ DW_TAG_subprogram ]
!520 = metadata !{i32 786453, i32 0, metadata !"", i32 0, i32 0, i64 0, i64 0, i64 0, i32 0, null, metadata !521, i32 0, i32 0} ; [ DW_TAG_subroutine_type ]
!521 = metadata !{metadata !522, metadata !448, metadata !457}
!522 = metadata !{i32 786448, null, null, null, i32 0, i64 0, i64 0, i64 0, i32 0, metadata !432} ; [ DW_TAG_reference_type ]
!523 = metadata !{i32 786478, i32 0, metadata !432, metadata !"operator=", metadata !"operator=", metadata !"_ZN11ap_int_baseILi65ELb1ELb0EEaSERKS0_", metadata !118, i32 2581, metadata !524, i1 false, i1 false, i32 0, i32 0, null, i32 256, i1 false, null, null, i32 0, metadata !130, i32 2581} ; [ DW_TAG_subprogram ]
!524 = metadata !{i32 786453, i32 0, metadata !"", i32 0, i32 0, i64 0, i64 0, i64 0, i32 0, null, metadata !525, i32 0, i32 0} ; [ DW_TAG_subroutine_type ]
!525 = metadata !{metadata !522, metadata !448, metadata !430}
!526 = metadata !{i32 786478, i32 0, metadata !432, metadata !"operator=", metadata !"operator=", metadata !"_ZN11ap_int_baseILi65ELb1ELb0EEaSEPKc", metadata !118, i32 2585, metadata !527, i1 false, i1 false, i32 0, i32 0, null, i32 256, i1 false, null, null, i32 0, metadata !130, i32 2585} ; [ DW_TAG_subprogram ]
!527 = metadata !{i32 786453, i32 0, metadata !"", i32 0, i32 0, i64 0, i64 0, i64 0, i32 0, null, metadata !528, i32 0, i32 0} ; [ DW_TAG_subroutine_type ]
!528 = metadata !{metadata !522, metadata !448, metadata !220}
!529 = metadata !{i32 786478, i32 0, metadata !432, metadata !"set", metadata !"set", metadata !"_ZN11ap_int_baseILi65ELb1ELb0EE3setEPKca", metadata !118, i32 2593, metadata !530, i1 false, i1 false, i32 0, i32 0, null, i32 256, i1 false, null, null, i32 0, metadata !130, i32 2593} ; [ DW_TAG_subprogram ]
!530 = metadata !{i32 786453, i32 0, metadata !"", i32 0, i32 0, i64 0, i64 0, i64 0, i32 0, null, metadata !531, i32 0, i32 0} ; [ DW_TAG_subroutine_type ]
!531 = metadata !{metadata !522, metadata !448, metadata !220, metadata !166}
!532 = metadata !{i32 786478, i32 0, metadata !432, metadata !"operator=", metadata !"operator=", metadata !"_ZN11ap_int_baseILi65ELb1ELb0EEaSEc", metadata !118, i32 2607, metadata !533, i1 false, i1 false, i32 0, i32 0, null, i32 256, i1 false, null, null, i32 0, metadata !130, i32 2607} ; [ DW_TAG_subprogram ]
!533 = metadata !{i32 786453, i32 0, metadata !"", i32 0, i32 0, i64 0, i64 0, i64 0, i32 0, null, metadata !534, i32 0, i32 0} ; [ DW_TAG_subroutine_type ]
!534 = metadata !{metadata !522, metadata !448, metadata !222}
!535 = metadata !{i32 786478, i32 0, metadata !432, metadata !"operator=", metadata !"operator=", metadata !"_ZN11ap_int_baseILi65ELb1ELb0EEaSEh", metadata !118, i32 2608, metadata !536, i1 false, i1 false, i32 0, i32 0, null, i32 256, i1 false, null, null, i32 0, metadata !130, i32 2608} ; [ DW_TAG_subprogram ]
!536 = metadata !{i32 786453, i32 0, metadata !"", i32 0, i32 0, i64 0, i64 0, i64 0, i32 0, null, metadata !537, i32 0, i32 0} ; [ DW_TAG_subroutine_type ]
!537 = metadata !{metadata !522, metadata !448, metadata !170}
!538 = metadata !{i32 786478, i32 0, metadata !432, metadata !"operator=", metadata !"operator=", metadata !"_ZN11ap_int_baseILi65ELb1ELb0EEaSEs", metadata !118, i32 2609, metadata !539, i1 false, i1 false, i32 0, i32 0, null, i32 256, i1 false, null, null, i32 0, metadata !130, i32 2609} ; [ DW_TAG_subprogram ]
!539 = metadata !{i32 786453, i32 0, metadata !"", i32 0, i32 0, i64 0, i64 0, i64 0, i32 0, null, metadata !540, i32 0, i32 0} ; [ DW_TAG_subroutine_type ]
!540 = metadata !{metadata !522, metadata !448, metadata !174}
!541 = metadata !{i32 786478, i32 0, metadata !432, metadata !"operator=", metadata !"operator=", metadata !"_ZN11ap_int_baseILi65ELb1ELb0EEaSEt", metadata !118, i32 2610, metadata !542, i1 false, i1 false, i32 0, i32 0, null, i32 256, i1 false, null, null, i32 0, metadata !130, i32 2610} ; [ DW_TAG_subprogram ]
!542 = metadata !{i32 786453, i32 0, metadata !"", i32 0, i32 0, i64 0, i64 0, i64 0, i32 0, null, metadata !543, i32 0, i32 0} ; [ DW_TAG_subroutine_type ]
!543 = metadata !{metadata !522, metadata !448, metadata !178}
!544 = metadata !{i32 786478, i32 0, metadata !432, metadata !"operator=", metadata !"operator=", metadata !"_ZN11ap_int_baseILi65ELb1ELb0EEaSEi", metadata !118, i32 2611, metadata !545, i1 false, i1 false, i32 0, i32 0, null, i32 256, i1 false, null, null, i32 0, metadata !130, i32 2611} ; [ DW_TAG_subprogram ]
!545 = metadata !{i32 786453, i32 0, metadata !"", i32 0, i32 0, i64 0, i64 0, i64 0, i32 0, null, metadata !546, i32 0, i32 0} ; [ DW_TAG_subroutine_type ]
!546 = metadata !{metadata !522, metadata !448, metadata !139}
!547 = metadata !{i32 786478, i32 0, metadata !432, metadata !"operator=", metadata !"operator=", metadata !"_ZN11ap_int_baseILi65ELb1ELb0EEaSEj", metadata !118, i32 2612, metadata !548, i1 false, i1 false, i32 0, i32 0, null, i32 256, i1 false, null, null, i32 0, metadata !130, i32 2612} ; [ DW_TAG_subprogram ]
!548 = metadata !{i32 786453, i32 0, metadata !"", i32 0, i32 0, i64 0, i64 0, i64 0, i32 0, null, metadata !549, i32 0, i32 0} ; [ DW_TAG_subroutine_type ]
!549 = metadata !{metadata !522, metadata !448, metadata !185}
!550 = metadata !{i32 786478, i32 0, metadata !432, metadata !"operator=", metadata !"operator=", metadata !"_ZN11ap_int_baseILi65ELb1ELb0EEaSEx", metadata !118, i32 2613, metadata !551, i1 false, i1 false, i32 0, i32 0, null, i32 256, i1 false, null, null, i32 0, metadata !130, i32 2613} ; [ DW_TAG_subprogram ]
!551 = metadata !{i32 786453, i32 0, metadata !"", i32 0, i32 0, i64 0, i64 0, i64 0, i32 0, null, metadata !552, i32 0, i32 0} ; [ DW_TAG_subroutine_type ]
!552 = metadata !{metadata !522, metadata !448, metadata !197}
!553 = metadata !{i32 786478, i32 0, metadata !432, metadata !"operator=", metadata !"operator=", metadata !"_ZN11ap_int_baseILi65ELb1ELb0EEaSEy", metadata !118, i32 2614, metadata !554, i1 false, i1 false, i32 0, i32 0, null, i32 256, i1 false, null, null, i32 0, metadata !130, i32 2614} ; [ DW_TAG_subprogram ]
!554 = metadata !{i32 786453, i32 0, metadata !"", i32 0, i32 0, i64 0, i64 0, i64 0, i32 0, null, metadata !555, i32 0, i32 0} ; [ DW_TAG_subroutine_type ]
!555 = metadata !{metadata !522, metadata !448, metadata !202}
!556 = metadata !{i32 786478, i32 0, metadata !432, metadata !"operator long long", metadata !"operator long long", metadata !"_ZNK11ap_int_baseILi65ELb1ELb0EEcvxEv", metadata !118, i32 2653, metadata !557, i1 false, i1 false, i32 0, i32 0, null, i32 256, i1 false, null, null, i32 0, metadata !130, i32 2653} ; [ DW_TAG_subprogram ]
!557 = metadata !{i32 786453, i32 0, metadata !"", i32 0, i32 0, i64 0, i64 0, i64 0, i32 0, null, metadata !558, i32 0, i32 0} ; [ DW_TAG_subroutine_type ]
!558 = metadata !{metadata !559, metadata !560}
!559 = metadata !{i32 786454, metadata !432, metadata !"RetType", metadata !118, i32 2402, i64 0, i64 0, i64 0, i32 0, metadata !278} ; [ DW_TAG_typedef ]
!560 = metadata !{i32 786447, i32 0, metadata !"", i32 0, i32 0, i64 64, i64 64, i64 0, i32 64, metadata !431} ; [ DW_TAG_pointer_type ]
!561 = metadata !{i32 786478, i32 0, metadata !432, metadata !"to_bool", metadata !"to_bool", metadata !"_ZNK11ap_int_baseILi65ELb1ELb0EE7to_boolEv", metadata !118, i32 2659, metadata !562, i1 false, i1 false, i32 0, i32 0, null, i32 256, i1 false, null, null, i32 0, metadata !130, i32 2659} ; [ DW_TAG_subprogram ]
!562 = metadata !{i32 786453, i32 0, metadata !"", i32 0, i32 0, i64 0, i64 0, i64 0, i32 0, null, metadata !563, i32 0, i32 0} ; [ DW_TAG_subroutine_type ]
!563 = metadata !{metadata !141, metadata !560}
!564 = metadata !{i32 786478, i32 0, metadata !432, metadata !"to_uchar", metadata !"to_uchar", metadata !"_ZNK11ap_int_baseILi65ELb1ELb0EE8to_ucharEv", metadata !118, i32 2660, metadata !562, i1 false, i1 false, i32 0, i32 0, null, i32 256, i1 false, null, null, i32 0, metadata !130, i32 2660} ; [ DW_TAG_subprogram ]
!565 = metadata !{i32 786478, i32 0, metadata !432, metadata !"to_char", metadata !"to_char", metadata !"_ZNK11ap_int_baseILi65ELb1ELb0EE7to_charEv", metadata !118, i32 2661, metadata !562, i1 false, i1 false, i32 0, i32 0, null, i32 256, i1 false, null, null, i32 0, metadata !130, i32 2661} ; [ DW_TAG_subprogram ]
!566 = metadata !{i32 786478, i32 0, metadata !432, metadata !"to_ushort", metadata !"to_ushort", metadata !"_ZNK11ap_int_baseILi65ELb1ELb0EE9to_ushortEv", metadata !118, i32 2662, metadata !562, i1 false, i1 false, i32 0, i32 0, null, i32 256, i1 false, null, null, i32 0, metadata !130, i32 2662} ; [ DW_TAG_subprogram ]
!567 = metadata !{i32 786478, i32 0, metadata !432, metadata !"to_short", metadata !"to_short", metadata !"_ZNK11ap_int_baseILi65ELb1ELb0EE8to_shortEv", metadata !118, i32 2663, metadata !562, i1 false, i1 false, i32 0, i32 0, null, i32 256, i1 false, null, null, i32 0, metadata !130, i32 2663} ; [ DW_TAG_subprogram ]
!568 = metadata !{i32 786478, i32 0, metadata !432, metadata !"to_int", metadata !"to_int", metadata !"_ZNK11ap_int_baseILi65ELb1ELb0EE6to_intEv", metadata !118, i32 2664, metadata !569, i1 false, i1 false, i32 0, i32 0, null, i32 256, i1 false, null, null, i32 0, metadata !130, i32 2664} ; [ DW_TAG_subprogram ]
!569 = metadata !{i32 786453, i32 0, metadata !"", i32 0, i32 0, i64 0, i64 0, i64 0, i32 0, null, metadata !570, i32 0, i32 0} ; [ DW_TAG_subroutine_type ]
!570 = metadata !{metadata !139, metadata !560}
!571 = metadata !{i32 786478, i32 0, metadata !432, metadata !"to_uint", metadata !"to_uint", metadata !"_ZNK11ap_int_baseILi65ELb1ELb0EE7to_uintEv", metadata !118, i32 2665, metadata !572, i1 false, i1 false, i32 0, i32 0, null, i32 256, i1 false, null, null, i32 0, metadata !130, i32 2665} ; [ DW_TAG_subprogram ]
!572 = metadata !{i32 786453, i32 0, metadata !"", i32 0, i32 0, i64 0, i64 0, i64 0, i32 0, null, metadata !573, i32 0, i32 0} ; [ DW_TAG_subroutine_type ]
!573 = metadata !{metadata !185, metadata !560}
!574 = metadata !{i32 786478, i32 0, metadata !432, metadata !"to_long", metadata !"to_long", metadata !"_ZNK11ap_int_baseILi65ELb1ELb0EE7to_longEv", metadata !118, i32 2666, metadata !575, i1 false, i1 false, i32 0, i32 0, null, i32 256, i1 false, null, null, i32 0, metadata !130, i32 2666} ; [ DW_TAG_subprogram ]
!575 = metadata !{i32 786453, i32 0, metadata !"", i32 0, i32 0, i64 0, i64 0, i64 0, i32 0, null, metadata !576, i32 0, i32 0} ; [ DW_TAG_subroutine_type ]
!576 = metadata !{metadata !189, metadata !560}
!577 = metadata !{i32 786478, i32 0, metadata !432, metadata !"to_ulong", metadata !"to_ulong", metadata !"_ZNK11ap_int_baseILi65ELb1ELb0EE8to_ulongEv", metadata !118, i32 2667, metadata !578, i1 false, i1 false, i32 0, i32 0, null, i32 256, i1 false, null, null, i32 0, metadata !130, i32 2667} ; [ DW_TAG_subprogram ]
!578 = metadata !{i32 786453, i32 0, metadata !"", i32 0, i32 0, i64 0, i64 0, i64 0, i32 0, null, metadata !579, i32 0, i32 0} ; [ DW_TAG_subroutine_type ]
!579 = metadata !{metadata !193, metadata !560}
!580 = metadata !{i32 786478, i32 0, metadata !432, metadata !"to_int64", metadata !"to_int64", metadata !"_ZNK11ap_int_baseILi65ELb1ELb0EE8to_int64Ev", metadata !118, i32 2668, metadata !581, i1 false, i1 false, i32 0, i32 0, null, i32 256, i1 false, null, null, i32 0, metadata !130, i32 2668} ; [ DW_TAG_subprogram ]
!581 = metadata !{i32 786453, i32 0, metadata !"", i32 0, i32 0, i64 0, i64 0, i64 0, i32 0, null, metadata !582, i32 0, i32 0} ; [ DW_TAG_subroutine_type ]
!582 = metadata !{metadata !197, metadata !560}
!583 = metadata !{i32 786478, i32 0, metadata !432, metadata !"to_uint64", metadata !"to_uint64", metadata !"_ZNK11ap_int_baseILi65ELb1ELb0EE9to_uint64Ev", metadata !118, i32 2669, metadata !584, i1 false, i1 false, i32 0, i32 0, null, i32 256, i1 false, null, null, i32 0, metadata !130, i32 2669} ; [ DW_TAG_subprogram ]
!584 = metadata !{i32 786453, i32 0, metadata !"", i32 0, i32 0, i64 0, i64 0, i64 0, i32 0, null, metadata !585, i32 0, i32 0} ; [ DW_TAG_subroutine_type ]
!585 = metadata !{metadata !202, metadata !560}
!586 = metadata !{i32 786478, i32 0, metadata !432, metadata !"to_double", metadata !"to_double", metadata !"_ZNK11ap_int_baseILi65ELb1ELb0EE9to_doubleEv", metadata !118, i32 2670, metadata !587, i1 false, i1 false, i32 0, i32 0, null, i32 256, i1 false, null, null, i32 0, metadata !130, i32 2670} ; [ DW_TAG_subprogram ]
!587 = metadata !{i32 786453, i32 0, metadata !"", i32 0, i32 0, i64 0, i64 0, i64 0, i32 0, null, metadata !588, i32 0, i32 0} ; [ DW_TAG_subroutine_type ]
!588 = metadata !{metadata !216, metadata !560}
!589 = metadata !{i32 786478, i32 0, metadata !432, metadata !"length", metadata !"length", metadata !"_ZNK11ap_int_baseILi65ELb1ELb0EE6lengthEv", metadata !118, i32 2683, metadata !569, i1 false, i1 false, i32 0, i32 0, null, i32 256, i1 false, null, null, i32 0, metadata !130, i32 2683} ; [ DW_TAG_subprogram ]
!590 = metadata !{i32 786478, i32 0, metadata !432, metadata !"length", metadata !"length", metadata !"_ZNVK11ap_int_baseILi65ELb1ELb0EE6lengthEv", metadata !118, i32 2684, metadata !591, i1 false, i1 false, i32 0, i32 0, null, i32 256, i1 false, null, null, i32 0, metadata !130, i32 2684} ; [ DW_TAG_subprogram ]
!591 = metadata !{i32 786453, i32 0, metadata !"", i32 0, i32 0, i64 0, i64 0, i64 0, i32 0, null, metadata !592, i32 0, i32 0} ; [ DW_TAG_subroutine_type ]
!592 = metadata !{metadata !139, metadata !593}
!593 = metadata !{i32 786447, i32 0, metadata !"", i32 0, i32 0, i64 64, i64 64, i64 0, i32 64, metadata !458} ; [ DW_TAG_pointer_type ]
!594 = metadata !{i32 786478, i32 0, metadata !432, metadata !"reverse", metadata !"reverse", metadata !"_ZN11ap_int_baseILi65ELb1ELb0EE7reverseEv", metadata !118, i32 2689, metadata !595, i1 false, i1 false, i32 0, i32 0, null, i32 256, i1 false, null, null, i32 0, metadata !130, i32 2689} ; [ DW_TAG_subprogram ]
!595 = metadata !{i32 786453, i32 0, metadata !"", i32 0, i32 0, i64 0, i64 0, i64 0, i32 0, null, metadata !596, i32 0, i32 0} ; [ DW_TAG_subroutine_type ]
!596 = metadata !{metadata !522, metadata !448}
!597 = metadata !{i32 786478, i32 0, metadata !432, metadata !"iszero", metadata !"iszero", metadata !"_ZNK11ap_int_baseILi65ELb1ELb0EE6iszeroEv", metadata !118, i32 2695, metadata !562, i1 false, i1 false, i32 0, i32 0, null, i32 256, i1 false, null, null, i32 0, metadata !130, i32 2695} ; [ DW_TAG_subprogram ]
!598 = metadata !{i32 786478, i32 0, metadata !432, metadata !"is_zero", metadata !"is_zero", metadata !"_ZNK11ap_int_baseILi65ELb1ELb0EE7is_zeroEv", metadata !118, i32 2700, metadata !562, i1 false, i1 false, i32 0, i32 0, null, i32 256, i1 false, null, null, i32 0, metadata !130, i32 2700} ; [ DW_TAG_subprogram ]
!599 = metadata !{i32 786478, i32 0, metadata !432, metadata !"sign", metadata !"sign", metadata !"_ZNK11ap_int_baseILi65ELb1ELb0EE4signEv", metadata !118, i32 2705, metadata !562, i1 false, i1 false, i32 0, i32 0, null, i32 256, i1 false, null, null, i32 0, metadata !130, i32 2705} ; [ DW_TAG_subprogram ]
!600 = metadata !{i32 786478, i32 0, metadata !432, metadata !"clear", metadata !"clear", metadata !"_ZN11ap_int_baseILi65ELb1ELb0EE5clearEi", metadata !118, i32 2713, metadata !476, i1 false, i1 false, i32 0, i32 0, null, i32 256, i1 false, null, null, i32 0, metadata !130, i32 2713} ; [ DW_TAG_subprogram ]
!601 = metadata !{i32 786478, i32 0, metadata !432, metadata !"invert", metadata !"invert", metadata !"_ZN11ap_int_baseILi65ELb1ELb0EE6invertEi", metadata !118, i32 2719, metadata !476, i1 false, i1 false, i32 0, i32 0, null, i32 256, i1 false, null, null, i32 0, metadata !130, i32 2719} ; [ DW_TAG_subprogram ]
!602 = metadata !{i32 786478, i32 0, metadata !432, metadata !"test", metadata !"test", metadata !"_ZNK11ap_int_baseILi65ELb1ELb0EE4testEi", metadata !118, i32 2727, metadata !603, i1 false, i1 false, i32 0, i32 0, null, i32 256, i1 false, null, null, i32 0, metadata !130, i32 2727} ; [ DW_TAG_subprogram ]
!603 = metadata !{i32 786453, i32 0, metadata !"", i32 0, i32 0, i64 0, i64 0, i64 0, i32 0, null, metadata !604, i32 0, i32 0} ; [ DW_TAG_subroutine_type ]
!604 = metadata !{metadata !141, metadata !560, metadata !139}
!605 = metadata !{i32 786478, i32 0, metadata !432, metadata !"set", metadata !"set", metadata !"_ZN11ap_int_baseILi65ELb1ELb0EE3setEi", metadata !118, i32 2733, metadata !476, i1 false, i1 false, i32 0, i32 0, null, i32 256, i1 false, null, null, i32 0, metadata !130, i32 2733} ; [ DW_TAG_subprogram ]
!606 = metadata !{i32 786478, i32 0, metadata !432, metadata !"set", metadata !"set", metadata !"_ZN11ap_int_baseILi65ELb1ELb0EE3setEib", metadata !118, i32 2739, metadata !607, i1 false, i1 false, i32 0, i32 0, null, i32 256, i1 false, null, null, i32 0, metadata !130, i32 2739} ; [ DW_TAG_subprogram ]
!607 = metadata !{i32 786453, i32 0, metadata !"", i32 0, i32 0, i64 0, i64 0, i64 0, i32 0, null, metadata !608, i32 0, i32 0} ; [ DW_TAG_subroutine_type ]
!608 = metadata !{null, metadata !448, metadata !139, metadata !141}
!609 = metadata !{i32 786478, i32 0, metadata !432, metadata !"lrotate", metadata !"lrotate", metadata !"_ZN11ap_int_baseILi65ELb1ELb0EE7lrotateEi", metadata !118, i32 2746, metadata !476, i1 false, i1 false, i32 0, i32 0, null, i32 256, i1 false, null, null, i32 0, metadata !130, i32 2746} ; [ DW_TAG_subprogram ]
!610 = metadata !{i32 786478, i32 0, metadata !432, metadata !"rrotate", metadata !"rrotate", metadata !"_ZN11ap_int_baseILi65ELb1ELb0EE7rrotateEi", metadata !118, i32 2755, metadata !476, i1 false, i1 false, i32 0, i32 0, null, i32 256, i1 false, null, null, i32 0, metadata !130, i32 2755} ; [ DW_TAG_subprogram ]
!611 = metadata !{i32 786478, i32 0, metadata !432, metadata !"set_bit", metadata !"set_bit", metadata !"_ZN11ap_int_baseILi65ELb1ELb0EE7set_bitEib", metadata !118, i32 2763, metadata !607, i1 false, i1 false, i32 0, i32 0, null, i32 256, i1 false, null, null, i32 0, metadata !130, i32 2763} ; [ DW_TAG_subprogram ]
!612 = metadata !{i32 786478, i32 0, metadata !432, metadata !"get_bit", metadata !"get_bit", metadata !"_ZNK11ap_int_baseILi65ELb1ELb0EE7get_bitEi", metadata !118, i32 2768, metadata !603, i1 false, i1 false, i32 0, i32 0, null, i32 256, i1 false, null, null, i32 0, metadata !130, i32 2768} ; [ DW_TAG_subprogram ]
!613 = metadata !{i32 786478, i32 0, metadata !432, metadata !"b_not", metadata !"b_not", metadata !"_ZN11ap_int_baseILi65ELb1ELb0EE5b_notEv", metadata !118, i32 2773, metadata !446, i1 false, i1 false, i32 0, i32 0, null, i32 256, i1 false, null, null, i32 0, metadata !130, i32 2773} ; [ DW_TAG_subprogram ]
!614 = metadata !{i32 786478, i32 0, metadata !432, metadata !"countLeadingZeros", metadata !"countLeadingZeros", metadata !"_ZN11ap_int_baseILi65ELb1ELb0EE17countLeadingZerosEv", metadata !118, i32 2780, metadata !615, i1 false, i1 false, i32 0, i32 0, null, i32 256, i1 false, null, null, i32 0, metadata !130, i32 2780} ; [ DW_TAG_subprogram ]
!615 = metadata !{i32 786453, i32 0, metadata !"", i32 0, i32 0, i64 0, i64 0, i64 0, i32 0, null, metadata !616, i32 0, i32 0} ; [ DW_TAG_subroutine_type ]
!616 = metadata !{metadata !139, metadata !448}
!617 = metadata !{i32 786478, i32 0, metadata !432, metadata !"operator++", metadata !"operator++", metadata !"_ZN11ap_int_baseILi65ELb1ELb0EEppEv", metadata !118, i32 2837, metadata !595, i1 false, i1 false, i32 0, i32 0, null, i32 256, i1 false, null, null, i32 0, metadata !130, i32 2837} ; [ DW_TAG_subprogram ]
!618 = metadata !{i32 786478, i32 0, metadata !432, metadata !"operator--", metadata !"operator--", metadata !"_ZN11ap_int_baseILi65ELb1ELb0EEmmEv", metadata !118, i32 2841, metadata !595, i1 false, i1 false, i32 0, i32 0, null, i32 256, i1 false, null, null, i32 0, metadata !130, i32 2841} ; [ DW_TAG_subprogram ]
!619 = metadata !{i32 786478, i32 0, metadata !432, metadata !"operator++", metadata !"operator++", metadata !"_ZN11ap_int_baseILi65ELb1ELb0EEppEi", metadata !118, i32 2849, metadata !620, i1 false, i1 false, i32 0, i32 0, null, i32 256, i1 false, null, null, i32 0, metadata !130, i32 2849} ; [ DW_TAG_subprogram ]
!620 = metadata !{i32 786453, i32 0, metadata !"", i32 0, i32 0, i64 0, i64 0, i64 0, i32 0, null, metadata !621, i32 0, i32 0} ; [ DW_TAG_subroutine_type ]
!621 = metadata !{metadata !431, metadata !448, metadata !139}
!622 = metadata !{i32 786478, i32 0, metadata !432, metadata !"operator--", metadata !"operator--", metadata !"_ZN11ap_int_baseILi65ELb1ELb0EEmmEi", metadata !118, i32 2854, metadata !620, i1 false, i1 false, i32 0, i32 0, null, i32 256, i1 false, null, null, i32 0, metadata !130, i32 2854} ; [ DW_TAG_subprogram ]
!623 = metadata !{i32 786478, i32 0, metadata !432, metadata !"operator+", metadata !"operator+", metadata !"_ZNK11ap_int_baseILi65ELb1ELb0EEpsEv", metadata !118, i32 2863, metadata !624, i1 false, i1 false, i32 0, i32 0, null, i32 256, i1 false, null, null, i32 0, metadata !130, i32 2863} ; [ DW_TAG_subprogram ]
!624 = metadata !{i32 786453, i32 0, metadata !"", i32 0, i32 0, i64 0, i64 0, i64 0, i32 0, null, metadata !625, i32 0, i32 0} ; [ DW_TAG_subroutine_type ]
!625 = metadata !{metadata !432, metadata !560}
!626 = metadata !{i32 786478, i32 0, metadata !432, metadata !"operator-", metadata !"operator-", metadata !"_ZNK11ap_int_baseILi65ELb1ELb0EEngEv", metadata !118, i32 2867, metadata !627, i1 false, i1 false, i32 0, i32 0, null, i32 256, i1 false, null, null, i32 0, metadata !130, i32 2867} ; [ DW_TAG_subprogram ]
!627 = metadata !{i32 786453, i32 0, metadata !"", i32 0, i32 0, i64 0, i64 0, i64 0, i32 0, null, metadata !628, i32 0, i32 0} ; [ DW_TAG_subroutine_type ]
!628 = metadata !{metadata !629, metadata !560}
!629 = metadata !{i32 786454, metadata !630, metadata !"minus", metadata !118, i32 2425, i64 0, i64 0, i64 0, i32 0, metadata !634} ; [ DW_TAG_typedef ]
!630 = metadata !{i32 786434, metadata !432, metadata !"RType<1, false>", metadata !118, i32 2407, i64 8, i64 8, i32 0, i32 0, null, metadata !280, i32 0, null, metadata !631} ; [ DW_TAG_class_type ]
!631 = metadata !{metadata !632, metadata !633}
!632 = metadata !{i32 786480, null, metadata !"_AP_W2", metadata !139, i64 1, null, i32 0, i32 0} ; [ DW_TAG_template_value_parameter ]
!633 = metadata !{i32 786480, null, metadata !"_AP_S2", metadata !141, i64 0, null, i32 0, i32 0} ; [ DW_TAG_template_value_parameter ]
!634 = metadata !{i32 786434, null, metadata !"ap_int_base<66, true, false>", metadata !118, i32 651, i64 0, i64 0, i32 0, i32 4, null, null, i32 0, null, metadata !635} ; [ DW_TAG_class_type ]
!635 = metadata !{metadata !636, metadata !140, metadata !637}
!636 = metadata !{i32 786480, null, metadata !"_AP_W", metadata !139, i64 66, null, i32 0, i32 0} ; [ DW_TAG_template_value_parameter ]
!637 = metadata !{i32 786480, null, metadata !"_AP_C", metadata !141, i64 0, null, i32 0, i32 0} ; [ DW_TAG_template_value_parameter ]
!638 = metadata !{i32 786478, i32 0, metadata !432, metadata !"operator!", metadata !"operator!", metadata !"_ZNK11ap_int_baseILi65ELb1ELb0EEntEv", metadata !118, i32 2874, metadata !562, i1 false, i1 false, i32 0, i32 0, null, i32 256, i1 false, null, null, i32 0, metadata !130, i32 2874} ; [ DW_TAG_subprogram ]
!639 = metadata !{i32 786478, i32 0, metadata !432, metadata !"operator~", metadata !"operator~", metadata !"_ZNK11ap_int_baseILi65ELb1ELb0EEcoEv", metadata !118, i32 2881, metadata !624, i1 false, i1 false, i32 0, i32 0, null, i32 256, i1 false, null, null, i32 0, metadata !130, i32 2881} ; [ DW_TAG_subprogram ]
!640 = metadata !{i32 786478, i32 0, metadata !432, metadata !"range", metadata !"range", metadata !"_ZN11ap_int_baseILi65ELb1ELb0EE5rangeEii", metadata !118, i32 3008, metadata !641, i1 false, i1 false, i32 0, i32 0, null, i32 256, i1 false, null, null, i32 0, metadata !130, i32 3008} ; [ DW_TAG_subprogram ]
!641 = metadata !{i32 786453, i32 0, metadata !"", i32 0, i32 0, i64 0, i64 0, i64 0, i32 0, null, metadata !642, i32 0, i32 0} ; [ DW_TAG_subroutine_type ]
!642 = metadata !{metadata !643, metadata !448, metadata !139, metadata !139}
!643 = metadata !{i32 786434, null, metadata !"ap_range_ref<65, true>", metadata !118, i32 925, i64 0, i64 0, i32 0, i32 4, null, null, i32 0, null, metadata !644} ; [ DW_TAG_class_type ]
!644 = metadata !{metadata !645, metadata !140}
!645 = metadata !{i32 786480, null, metadata !"_AP_W", metadata !139, i64 65, null, i32 0, i32 0} ; [ DW_TAG_template_value_parameter ]
!646 = metadata !{i32 786478, i32 0, metadata !432, metadata !"operator()", metadata !"operator()", metadata !"_ZN11ap_int_baseILi65ELb1ELb0EEclEii", metadata !118, i32 3014, metadata !641, i1 false, i1 false, i32 0, i32 0, null, i32 256, i1 false, null, null, i32 0, metadata !130, i32 3014} ; [ DW_TAG_subprogram ]
!647 = metadata !{i32 786478, i32 0, metadata !432, metadata !"range", metadata !"range", metadata !"_ZNK11ap_int_baseILi65ELb1ELb0EE5rangeEii", metadata !118, i32 3020, metadata !648, i1 false, i1 false, i32 0, i32 0, null, i32 256, i1 false, null, null, i32 0, metadata !130, i32 3020} ; [ DW_TAG_subprogram ]
!648 = metadata !{i32 786453, i32 0, metadata !"", i32 0, i32 0, i64 0, i64 0, i64 0, i32 0, null, metadata !649, i32 0, i32 0} ; [ DW_TAG_subroutine_type ]
!649 = metadata !{metadata !643, metadata !560, metadata !139, metadata !139}
!650 = metadata !{i32 786478, i32 0, metadata !432, metadata !"operator()", metadata !"operator()", metadata !"_ZNK11ap_int_baseILi65ELb1ELb0EEclEii", metadata !118, i32 3026, metadata !648, i1 false, i1 false, i32 0, i32 0, null, i32 256, i1 false, null, null, i32 0, metadata !130, i32 3026} ; [ DW_TAG_subprogram ]
!651 = metadata !{i32 786478, i32 0, metadata !432, metadata !"operator[]", metadata !"operator[]", metadata !"_ZN11ap_int_baseILi65ELb1ELb0EEixEi", metadata !118, i32 3046, metadata !652, i1 false, i1 false, i32 0, i32 0, null, i32 256, i1 false, null, null, i32 0, metadata !130, i32 3046} ; [ DW_TAG_subprogram ]
!652 = metadata !{i32 786453, i32 0, metadata !"", i32 0, i32 0, i64 0, i64 0, i64 0, i32 0, null, metadata !653, i32 0, i32 0} ; [ DW_TAG_subroutine_type ]
!653 = metadata !{metadata !654, metadata !448, metadata !139}
!654 = metadata !{i32 786434, null, metadata !"ap_bit_ref<65, true>", metadata !118, i32 1249, i64 128, i64 64, i32 0, i32 0, null, metadata !655, i32 0, null, metadata !644} ; [ DW_TAG_class_type ]
!655 = metadata !{metadata !656, metadata !657, metadata !658, metadata !664, metadata !668, metadata !672, metadata !673, metadata !677, metadata !680, metadata !681, metadata !684, metadata !685}
!656 = metadata !{i32 786445, metadata !654, metadata !"d_bv", metadata !118, i32 1250, i64 64, i64 64, i64 0, i32 0, metadata !522} ; [ DW_TAG_member ]
!657 = metadata !{i32 786445, metadata !654, metadata !"d_index", metadata !118, i32 1251, i64 32, i64 32, i64 64, i32 0, metadata !139} ; [ DW_TAG_member ]
!658 = metadata !{i32 786478, i32 0, metadata !654, metadata !"ap_bit_ref", metadata !"ap_bit_ref", metadata !"", metadata !118, i32 1254, metadata !659, i1 false, i1 false, i32 0, i32 0, null, i32 256, i1 false, null, null, i32 0, metadata !130, i32 1254} ; [ DW_TAG_subprogram ]
!659 = metadata !{i32 786453, i32 0, metadata !"", i32 0, i32 0, i64 0, i64 0, i64 0, i32 0, null, metadata !660, i32 0, i32 0} ; [ DW_TAG_subroutine_type ]
!660 = metadata !{null, metadata !661, metadata !662}
!661 = metadata !{i32 786447, i32 0, metadata !"", i32 0, i32 0, i64 64, i64 64, i64 0, i32 64, metadata !654} ; [ DW_TAG_pointer_type ]
!662 = metadata !{i32 786448, null, null, null, i32 0, i64 0, i64 0, i64 0, i32 0, metadata !663} ; [ DW_TAG_reference_type ]
!663 = metadata !{i32 786470, null, metadata !"", null, i32 0, i64 0, i64 0, i64 0, i32 0, metadata !654} ; [ DW_TAG_const_type ]
!664 = metadata !{i32 786478, i32 0, metadata !654, metadata !"ap_bit_ref", metadata !"ap_bit_ref", metadata !"", metadata !118, i32 1257, metadata !665, i1 false, i1 false, i32 0, i32 0, null, i32 256, i1 false, null, null, i32 0, metadata !130, i32 1257} ; [ DW_TAG_subprogram ]
!665 = metadata !{i32 786453, i32 0, metadata !"", i32 0, i32 0, i64 0, i64 0, i64 0, i32 0, null, metadata !666, i32 0, i32 0} ; [ DW_TAG_subroutine_type ]
!666 = metadata !{null, metadata !661, metadata !667, metadata !139}
!667 = metadata !{i32 786447, null, metadata !"", null, i32 0, i64 64, i64 64, i64 0, i32 0, metadata !432} ; [ DW_TAG_pointer_type ]
!668 = metadata !{i32 786478, i32 0, metadata !654, metadata !"operator _Bool", metadata !"operator _Bool", metadata !"_ZNK10ap_bit_refILi65ELb1EEcvbEv", metadata !118, i32 1259, metadata !669, i1 false, i1 false, i32 0, i32 0, null, i32 256, i1 false, null, null, i32 0, metadata !130, i32 1259} ; [ DW_TAG_subprogram ]
!669 = metadata !{i32 786453, i32 0, metadata !"", i32 0, i32 0, i64 0, i64 0, i64 0, i32 0, null, metadata !670, i32 0, i32 0} ; [ DW_TAG_subroutine_type ]
!670 = metadata !{metadata !141, metadata !671}
!671 = metadata !{i32 786447, i32 0, metadata !"", i32 0, i32 0, i64 64, i64 64, i64 0, i32 64, metadata !663} ; [ DW_TAG_pointer_type ]
!672 = metadata !{i32 786478, i32 0, metadata !654, metadata !"to_bool", metadata !"to_bool", metadata !"_ZNK10ap_bit_refILi65ELb1EE7to_boolEv", metadata !118, i32 1260, metadata !669, i1 false, i1 false, i32 0, i32 0, null, i32 256, i1 false, null, null, i32 0, metadata !130, i32 1260} ; [ DW_TAG_subprogram ]
!673 = metadata !{i32 786478, i32 0, metadata !654, metadata !"operator=", metadata !"operator=", metadata !"_ZN10ap_bit_refILi65ELb1EEaSEy", metadata !118, i32 1262, metadata !674, i1 false, i1 false, i32 0, i32 0, null, i32 256, i1 false, null, null, i32 0, metadata !130, i32 1262} ; [ DW_TAG_subprogram ]
!674 = metadata !{i32 786453, i32 0, metadata !"", i32 0, i32 0, i64 0, i64 0, i64 0, i32 0, null, metadata !675, i32 0, i32 0} ; [ DW_TAG_subroutine_type ]
!675 = metadata !{metadata !676, metadata !661, metadata !203}
!676 = metadata !{i32 786448, null, null, null, i32 0, i64 0, i64 0, i64 0, i32 0, metadata !654} ; [ DW_TAG_reference_type ]
!677 = metadata !{i32 786478, i32 0, metadata !654, metadata !"operator=", metadata !"operator=", metadata !"_ZN10ap_bit_refILi65ELb1EEaSERKS0_", metadata !118, i32 1282, metadata !678, i1 false, i1 false, i32 0, i32 0, null, i32 256, i1 false, null, null, i32 0, metadata !130, i32 1282} ; [ DW_TAG_subprogram ]
!678 = metadata !{i32 786453, i32 0, metadata !"", i32 0, i32 0, i64 0, i64 0, i64 0, i32 0, null, metadata !679, i32 0, i32 0} ; [ DW_TAG_subroutine_type ]
!679 = metadata !{metadata !676, metadata !661, metadata !662}
!680 = metadata !{i32 786478, i32 0, metadata !654, metadata !"get", metadata !"get", metadata !"_ZNK10ap_bit_refILi65ELb1EE3getEv", metadata !118, i32 1390, metadata !669, i1 false, i1 false, i32 0, i32 0, null, i32 256, i1 false, null, null, i32 0, metadata !130, i32 1390} ; [ DW_TAG_subprogram ]
!681 = metadata !{i32 786478, i32 0, metadata !654, metadata !"get", metadata !"get", metadata !"_ZN10ap_bit_refILi65ELb1EE3getEv", metadata !118, i32 1394, metadata !682, i1 false, i1 false, i32 0, i32 0, null, i32 256, i1 false, null, null, i32 0, metadata !130, i32 1394} ; [ DW_TAG_subprogram ]
!682 = metadata !{i32 786453, i32 0, metadata !"", i32 0, i32 0, i64 0, i64 0, i64 0, i32 0, null, metadata !683, i32 0, i32 0} ; [ DW_TAG_subroutine_type ]
!683 = metadata !{metadata !141, metadata !661}
!684 = metadata !{i32 786478, i32 0, metadata !654, metadata !"operator~", metadata !"operator~", metadata !"_ZNK10ap_bit_refILi65ELb1EEcoEv", metadata !118, i32 1403, metadata !669, i1 false, i1 false, i32 0, i32 0, null, i32 256, i1 false, null, null, i32 0, metadata !130, i32 1403} ; [ DW_TAG_subprogram ]
!685 = metadata !{i32 786478, i32 0, metadata !654, metadata !"length", metadata !"length", metadata !"_ZNK10ap_bit_refILi65ELb1EE6lengthEv", metadata !118, i32 1408, metadata !686, i1 false, i1 false, i32 0, i32 0, null, i32 256, i1 false, null, null, i32 0, metadata !130, i32 1408} ; [ DW_TAG_subprogram ]
!686 = metadata !{i32 786453, i32 0, metadata !"", i32 0, i32 0, i64 0, i64 0, i64 0, i32 0, null, metadata !687, i32 0, i32 0} ; [ DW_TAG_subroutine_type ]
!687 = metadata !{metadata !139, metadata !671}
!688 = metadata !{i32 786478, i32 0, metadata !432, metadata !"operator[]", metadata !"operator[]", metadata !"_ZNK11ap_int_baseILi65ELb1ELb0EEixEi", metadata !118, i32 3060, metadata !603, i1 false, i1 false, i32 0, i32 0, null, i32 256, i1 false, null, null, i32 0, metadata !130, i32 3060} ; [ DW_TAG_subprogram ]
!689 = metadata !{i32 786478, i32 0, metadata !432, metadata !"bit", metadata !"bit", metadata !"_ZN11ap_int_baseILi65ELb1ELb0EE3bitEi", metadata !118, i32 3074, metadata !652, i1 false, i1 false, i32 0, i32 0, null, i32 256, i1 false, null, null, i32 0, metadata !130, i32 3074} ; [ DW_TAG_subprogram ]
!690 = metadata !{i32 786478, i32 0, metadata !432, metadata !"bit", metadata !"bit", metadata !"_ZNK11ap_int_baseILi65ELb1ELb0EE3bitEi", metadata !118, i32 3088, metadata !603, i1 false, i1 false, i32 0, i32 0, null, i32 256, i1 false, null, null, i32 0, metadata !130, i32 3088} ; [ DW_TAG_subprogram ]
!691 = metadata !{i32 786478, i32 0, metadata !432, metadata !"and_reduce", metadata !"and_reduce", metadata !"_ZN11ap_int_baseILi65ELb1ELb0EE10and_reduceEv", metadata !118, i32 3268, metadata !692, i1 false, i1 false, i32 0, i32 0, null, i32 256, i1 false, null, null, i32 0, metadata !130, i32 3268} ; [ DW_TAG_subprogram ]
!692 = metadata !{i32 786453, i32 0, metadata !"", i32 0, i32 0, i64 0, i64 0, i64 0, i32 0, null, metadata !693, i32 0, i32 0} ; [ DW_TAG_subroutine_type ]
!693 = metadata !{metadata !141, metadata !448}
!694 = metadata !{i32 786478, i32 0, metadata !432, metadata !"nand_reduce", metadata !"nand_reduce", metadata !"_ZN11ap_int_baseILi65ELb1ELb0EE11nand_reduceEv", metadata !118, i32 3271, metadata !692, i1 false, i1 false, i32 0, i32 0, null, i32 256, i1 false, null, null, i32 0, metadata !130, i32 3271} ; [ DW_TAG_subprogram ]
!695 = metadata !{i32 786478, i32 0, metadata !432, metadata !"or_reduce", metadata !"or_reduce", metadata !"_ZN11ap_int_baseILi65ELb1ELb0EE9or_reduceEv", metadata !118, i32 3274, metadata !692, i1 false, i1 false, i32 0, i32 0, null, i32 256, i1 false, null, null, i32 0, metadata !130, i32 3274} ; [ DW_TAG_subprogram ]
!696 = metadata !{i32 786478, i32 0, metadata !432, metadata !"nor_reduce", metadata !"nor_reduce", metadata !"_ZN11ap_int_baseILi65ELb1ELb0EE10nor_reduceEv", metadata !118, i32 3277, metadata !692, i1 false, i1 false, i32 0, i32 0, null, i32 256, i1 false, null, null, i32 0, metadata !130, i32 3277} ; [ DW_TAG_subprogram ]
!697 = metadata !{i32 786478, i32 0, metadata !432, metadata !"xor_reduce", metadata !"xor_reduce", metadata !"_ZN11ap_int_baseILi65ELb1ELb0EE10xor_reduceEv", metadata !118, i32 3280, metadata !692, i1 false, i1 false, i32 0, i32 0, null, i32 256, i1 false, null, null, i32 0, metadata !130, i32 3280} ; [ DW_TAG_subprogram ]
!698 = metadata !{i32 786478, i32 0, metadata !432, metadata !"xnor_reduce", metadata !"xnor_reduce", metadata !"_ZN11ap_int_baseILi65ELb1ELb0EE11xnor_reduceEv", metadata !118, i32 3283, metadata !692, i1 false, i1 false, i32 0, i32 0, null, i32 256, i1 false, null, null, i32 0, metadata !130, i32 3283} ; [ DW_TAG_subprogram ]
!699 = metadata !{i32 786478, i32 0, metadata !432, metadata !"and_reduce", metadata !"and_reduce", metadata !"_ZNK11ap_int_baseILi65ELb1ELb0EE10and_reduceEv", metadata !118, i32 3287, metadata !562, i1 false, i1 false, i32 0, i32 0, null, i32 256, i1 false, null, null, i32 0, metadata !130, i32 3287} ; [ DW_TAG_subprogram ]
!700 = metadata !{i32 786478, i32 0, metadata !432, metadata !"nand_reduce", metadata !"nand_reduce", metadata !"_ZNK11ap_int_baseILi65ELb1ELb0EE11nand_reduceEv", metadata !118, i32 3290, metadata !562, i1 false, i1 false, i32 0, i32 0, null, i32 256, i1 false, null, null, i32 0, metadata !130, i32 3290} ; [ DW_TAG_subprogram ]
!701 = metadata !{i32 786478, i32 0, metadata !432, metadata !"or_reduce", metadata !"or_reduce", metadata !"_ZNK11ap_int_baseILi65ELb1ELb0EE9or_reduceEv", metadata !118, i32 3293, metadata !562, i1 false, i1 false, i32 0, i32 0, null, i32 256, i1 false, null, null, i32 0, metadata !130, i32 3293} ; [ DW_TAG_subprogram ]
!702 = metadata !{i32 786478, i32 0, metadata !432, metadata !"nor_reduce", metadata !"nor_reduce", metadata !"_ZNK11ap_int_baseILi65ELb1ELb0EE10nor_reduceEv", metadata !118, i32 3296, metadata !562, i1 false, i1 false, i32 0, i32 0, null, i32 256, i1 false, null, null, i32 0, metadata !130, i32 3296} ; [ DW_TAG_subprogram ]
!703 = metadata !{i32 786478, i32 0, metadata !432, metadata !"xor_reduce", metadata !"xor_reduce", metadata !"_ZNK11ap_int_baseILi65ELb1ELb0EE10xor_reduceEv", metadata !118, i32 3299, metadata !562, i1 false, i1 false, i32 0, i32 0, null, i32 256, i1 false, null, null, i32 0, metadata !130, i32 3299} ; [ DW_TAG_subprogram ]
!704 = metadata !{i32 786478, i32 0, metadata !432, metadata !"xnor_reduce", metadata !"xnor_reduce", metadata !"_ZNK11ap_int_baseILi65ELb1ELb0EE11xnor_reduceEv", metadata !118, i32 3302, metadata !562, i1 false, i1 false, i32 0, i32 0, null, i32 256, i1 false, null, null, i32 0, metadata !130, i32 3302} ; [ DW_TAG_subprogram ]
!705 = metadata !{i32 786478, i32 0, metadata !432, metadata !"to_string", metadata !"to_string", metadata !"_ZNK11ap_int_baseILi65ELb1ELb0EE9to_stringEPci8BaseModeb", metadata !118, i32 3309, metadata !706, i1 false, i1 false, i32 0, i32 0, null, i32 256, i1 false, null, null, i32 0, metadata !130, i32 3309} ; [ DW_TAG_subprogram ]
!706 = metadata !{i32 786453, i32 0, metadata !"", i32 0, i32 0, i64 0, i64 0, i64 0, i32 0, null, metadata !707, i32 0, i32 0} ; [ DW_TAG_subroutine_type ]
!707 = metadata !{null, metadata !560, metadata !394, metadata !139, metadata !395, metadata !141}
!708 = metadata !{i32 786478, i32 0, metadata !432, metadata !"to_string", metadata !"to_string", metadata !"_ZNK11ap_int_baseILi65ELb1ELb0EE9to_stringE8BaseModeb", metadata !118, i32 3336, metadata !709, i1 false, i1 false, i32 0, i32 0, null, i32 256, i1 false, null, null, i32 0, metadata !130, i32 3336} ; [ DW_TAG_subprogram ]
!709 = metadata !{i32 786453, i32 0, metadata !"", i32 0, i32 0, i64 0, i64 0, i64 0, i32 0, null, metadata !710, i32 0, i32 0} ; [ DW_TAG_subroutine_type ]
!710 = metadata !{metadata !394, metadata !560, metadata !395, metadata !141}
!711 = metadata !{i32 786478, i32 0, metadata !432, metadata !"to_string", metadata !"to_string", metadata !"_ZNK11ap_int_baseILi65ELb1ELb0EE9to_stringEab", metadata !118, i32 3340, metadata !712, i1 false, i1 false, i32 0, i32 0, null, i32 256, i1 false, null, null, i32 0, metadata !130, i32 3340} ; [ DW_TAG_subprogram ]
!712 = metadata !{i32 786453, i32 0, metadata !"", i32 0, i32 0, i64 0, i64 0, i64 0, i32 0, null, metadata !713, i32 0, i32 0} ; [ DW_TAG_subroutine_type ]
!713 = metadata !{metadata !394, metadata !560, metadata !166, metadata !141}
!714 = metadata !{i32 786478, i32 0, metadata !432, metadata !"~ap_int_base", metadata !"~ap_int_base", metadata !"", metadata !118, i32 2398, metadata !446, i1 false, i1 false, i32 0, i32 0, null, i32 320, i1 false, null, null, i32 0, metadata !130, i32 2398} ; [ DW_TAG_subprogram ]
!715 = metadata !{metadata !645, metadata !140, metadata !637}
!716 = metadata !{i32 786478, i32 0, metadata !113, metadata !"ap_int<64, true>", metadata !"ap_int<64, true>", metadata !"", metadata !114, i32 121, metadata !717, i1 false, i1 false, i32 0, i32 0, null, i32 256, i1 false, null, metadata !151, i32 0, metadata !130, i32 121} ; [ DW_TAG_subprogram ]
!717 = metadata !{i32 786453, i32 0, metadata !"", i32 0, i32 0, i64 0, i64 0, i64 0, i32 0, null, metadata !718, i32 0, i32 0} ; [ DW_TAG_subroutine_type ]
!718 = metadata !{null, metadata !414, metadata !149}
!719 = metadata !{i32 786478, i32 0, metadata !113, metadata !"ap_int", metadata !"ap_int", metadata !"", metadata !114, i32 140, metadata !720, i1 false, i1 false, i32 0, i32 0, null, i32 256, i1 false, null, null, i32 0, metadata !130, i32 140} ; [ DW_TAG_subprogram ]
!720 = metadata !{i32 786453, i32 0, metadata !"", i32 0, i32 0, i64 0, i64 0, i64 0, i32 0, null, metadata !721, i32 0, i32 0} ; [ DW_TAG_subroutine_type ]
!721 = metadata !{null, metadata !414, metadata !141}
!722 = metadata !{i32 786478, i32 0, metadata !113, metadata !"ap_int", metadata !"ap_int", metadata !"", metadata !114, i32 141, metadata !723, i1 false, i1 false, i32 0, i32 0, null, i32 256, i1 false, null, null, i32 0, metadata !130, i32 141} ; [ DW_TAG_subprogram ]
!723 = metadata !{i32 786453, i32 0, metadata !"", i32 0, i32 0, i64 0, i64 0, i64 0, i32 0, null, metadata !724, i32 0, i32 0} ; [ DW_TAG_subroutine_type ]
!724 = metadata !{null, metadata !414, metadata !166}
!725 = metadata !{i32 786478, i32 0, metadata !113, metadata !"ap_int", metadata !"ap_int", metadata !"", metadata !114, i32 142, metadata !726, i1 false, i1 false, i32 0, i32 0, null, i32 256, i1 false, null, null, i32 0, metadata !130, i32 142} ; [ DW_TAG_subprogram ]
!726 = metadata !{i32 786453, i32 0, metadata !"", i32 0, i32 0, i64 0, i64 0, i64 0, i32 0, null, metadata !727, i32 0, i32 0} ; [ DW_TAG_subroutine_type ]
!727 = metadata !{null, metadata !414, metadata !170}
!728 = metadata !{i32 786478, i32 0, metadata !113, metadata !"ap_int", metadata !"ap_int", metadata !"", metadata !114, i32 143, metadata !729, i1 false, i1 false, i32 0, i32 0, null, i32 256, i1 false, null, null, i32 0, metadata !130, i32 143} ; [ DW_TAG_subprogram ]
!729 = metadata !{i32 786453, i32 0, metadata !"", i32 0, i32 0, i64 0, i64 0, i64 0, i32 0, null, metadata !730, i32 0, i32 0} ; [ DW_TAG_subroutine_type ]
!730 = metadata !{null, metadata !414, metadata !174}
!731 = metadata !{i32 786478, i32 0, metadata !113, metadata !"ap_int", metadata !"ap_int", metadata !"", metadata !114, i32 144, metadata !732, i1 false, i1 false, i32 0, i32 0, null, i32 256, i1 false, null, null, i32 0, metadata !130, i32 144} ; [ DW_TAG_subprogram ]
!732 = metadata !{i32 786453, i32 0, metadata !"", i32 0, i32 0, i64 0, i64 0, i64 0, i32 0, null, metadata !733, i32 0, i32 0} ; [ DW_TAG_subroutine_type ]
!733 = metadata !{null, metadata !414, metadata !178}
!734 = metadata !{i32 786478, i32 0, metadata !113, metadata !"ap_int", metadata !"ap_int", metadata !"", metadata !114, i32 145, metadata !735, i1 false, i1 false, i32 0, i32 0, null, i32 256, i1 false, null, null, i32 0, metadata !130, i32 145} ; [ DW_TAG_subprogram ]
!735 = metadata !{i32 786453, i32 0, metadata !"", i32 0, i32 0, i64 0, i64 0, i64 0, i32 0, null, metadata !736, i32 0, i32 0} ; [ DW_TAG_subroutine_type ]
!736 = metadata !{null, metadata !414, metadata !139}
!737 = metadata !{i32 786478, i32 0, metadata !113, metadata !"ap_int", metadata !"ap_int", metadata !"", metadata !114, i32 146, metadata !738, i1 false, i1 false, i32 0, i32 0, null, i32 256, i1 false, null, null, i32 0, metadata !130, i32 146} ; [ DW_TAG_subprogram ]
!738 = metadata !{i32 786453, i32 0, metadata !"", i32 0, i32 0, i64 0, i64 0, i64 0, i32 0, null, metadata !739, i32 0, i32 0} ; [ DW_TAG_subroutine_type ]
!739 = metadata !{null, metadata !414, metadata !185}
!740 = metadata !{i32 786478, i32 0, metadata !113, metadata !"ap_int", metadata !"ap_int", metadata !"", metadata !114, i32 147, metadata !741, i1 false, i1 false, i32 0, i32 0, null, i32 256, i1 false, null, null, i32 0, metadata !130, i32 147} ; [ DW_TAG_subprogram ]
!741 = metadata !{i32 786453, i32 0, metadata !"", i32 0, i32 0, i64 0, i64 0, i64 0, i32 0, null, metadata !742, i32 0, i32 0} ; [ DW_TAG_subroutine_type ]
!742 = metadata !{null, metadata !414, metadata !189}
!743 = metadata !{i32 786478, i32 0, metadata !113, metadata !"ap_int", metadata !"ap_int", metadata !"", metadata !114, i32 148, metadata !744, i1 false, i1 false, i32 0, i32 0, null, i32 256, i1 false, null, null, i32 0, metadata !130, i32 148} ; [ DW_TAG_subprogram ]
!744 = metadata !{i32 786453, i32 0, metadata !"", i32 0, i32 0, i64 0, i64 0, i64 0, i32 0, null, metadata !745, i32 0, i32 0} ; [ DW_TAG_subroutine_type ]
!745 = metadata !{null, metadata !414, metadata !193}
!746 = metadata !{i32 786478, i32 0, metadata !113, metadata !"ap_int", metadata !"ap_int", metadata !"", metadata !114, i32 149, metadata !747, i1 false, i1 false, i32 0, i32 0, null, i32 256, i1 false, null, null, i32 0, metadata !130, i32 149} ; [ DW_TAG_subprogram ]
!747 = metadata !{i32 786453, i32 0, metadata !"", i32 0, i32 0, i64 0, i64 0, i64 0, i32 0, null, metadata !748, i32 0, i32 0} ; [ DW_TAG_subroutine_type ]
!748 = metadata !{null, metadata !414, metadata !203}
!749 = metadata !{i32 786478, i32 0, metadata !113, metadata !"ap_int", metadata !"ap_int", metadata !"", metadata !114, i32 150, metadata !750, i1 false, i1 false, i32 0, i32 0, null, i32 256, i1 false, null, null, i32 0, metadata !130, i32 150} ; [ DW_TAG_subprogram ]
!750 = metadata !{i32 786453, i32 0, metadata !"", i32 0, i32 0, i64 0, i64 0, i64 0, i32 0, null, metadata !751, i32 0, i32 0} ; [ DW_TAG_subroutine_type ]
!751 = metadata !{null, metadata !414, metadata !198}
!752 = metadata !{i32 786478, i32 0, metadata !113, metadata !"ap_int", metadata !"ap_int", metadata !"", metadata !114, i32 151, metadata !753, i1 false, i1 false, i32 0, i32 0, null, i32 256, i1 false, null, null, i32 0, metadata !130, i32 151} ; [ DW_TAG_subprogram ]
!753 = metadata !{i32 786453, i32 0, metadata !"", i32 0, i32 0, i64 0, i64 0, i64 0, i32 0, null, metadata !754, i32 0, i32 0} ; [ DW_TAG_subroutine_type ]
!754 = metadata !{null, metadata !414, metadata !207}
!755 = metadata !{i32 786478, i32 0, metadata !113, metadata !"ap_int", metadata !"ap_int", metadata !"", metadata !114, i32 152, metadata !756, i1 false, i1 false, i32 0, i32 0, null, i32 256, i1 false, null, null, i32 0, metadata !130, i32 152} ; [ DW_TAG_subprogram ]
!756 = metadata !{i32 786453, i32 0, metadata !"", i32 0, i32 0, i64 0, i64 0, i64 0, i32 0, null, metadata !757, i32 0, i32 0} ; [ DW_TAG_subroutine_type ]
!757 = metadata !{null, metadata !414, metadata !212}
!758 = metadata !{i32 786478, i32 0, metadata !113, metadata !"ap_int", metadata !"ap_int", metadata !"", metadata !114, i32 153, metadata !759, i1 false, i1 false, i32 0, i32 0, null, i32 256, i1 false, null, null, i32 0, metadata !130, i32 153} ; [ DW_TAG_subprogram ]
!759 = metadata !{i32 786453, i32 0, metadata !"", i32 0, i32 0, i64 0, i64 0, i64 0, i32 0, null, metadata !760, i32 0, i32 0} ; [ DW_TAG_subroutine_type ]
!760 = metadata !{null, metadata !414, metadata !216}
!761 = metadata !{i32 786478, i32 0, metadata !113, metadata !"ap_int", metadata !"ap_int", metadata !"", metadata !114, i32 155, metadata !762, i1 false, i1 false, i32 0, i32 0, null, i32 256, i1 false, null, null, i32 0, metadata !130, i32 155} ; [ DW_TAG_subprogram ]
!762 = metadata !{i32 786453, i32 0, metadata !"", i32 0, i32 0, i64 0, i64 0, i64 0, i32 0, null, metadata !763, i32 0, i32 0} ; [ DW_TAG_subroutine_type ]
!763 = metadata !{null, metadata !414, metadata !220}
!764 = metadata !{i32 786478, i32 0, metadata !113, metadata !"ap_int", metadata !"ap_int", metadata !"", metadata !114, i32 156, metadata !765, i1 false, i1 false, i32 0, i32 0, null, i32 256, i1 false, null, null, i32 0, metadata !130, i32 156} ; [ DW_TAG_subprogram ]
!765 = metadata !{i32 786453, i32 0, metadata !"", i32 0, i32 0, i64 0, i64 0, i64 0, i32 0, null, metadata !766, i32 0, i32 0} ; [ DW_TAG_subroutine_type ]
!766 = metadata !{null, metadata !414, metadata !220, metadata !166}
!767 = metadata !{i32 786478, i32 0, metadata !113, metadata !"operator=", metadata !"operator=", metadata !"_ZNV6ap_intILi64EEaSERKS0_", metadata !114, i32 160, metadata !768, i1 false, i1 false, i32 0, i32 0, null, i32 256, i1 false, null, null, i32 0, metadata !130, i32 160} ; [ DW_TAG_subprogram ]
!768 = metadata !{i32 786453, i32 0, metadata !"", i32 0, i32 0, i64 0, i64 0, i64 0, i32 0, null, metadata !769, i32 0, i32 0} ; [ DW_TAG_subroutine_type ]
!769 = metadata !{null, metadata !770, metadata !418}
!770 = metadata !{i32 786447, i32 0, metadata !"", i32 0, i32 0, i64 64, i64 64, i64 0, i32 64, metadata !426} ; [ DW_TAG_pointer_type ]
!771 = metadata !{i32 786478, i32 0, metadata !113, metadata !"operator=", metadata !"operator=", metadata !"_ZNV6ap_intILi64EEaSERVKS0_", metadata !114, i32 164, metadata !772, i1 false, i1 false, i32 0, i32 0, null, i32 256, i1 false, null, null, i32 0, metadata !130, i32 164} ; [ DW_TAG_subprogram ]
!772 = metadata !{i32 786453, i32 0, metadata !"", i32 0, i32 0, i64 0, i64 0, i64 0, i32 0, null, metadata !773, i32 0, i32 0} ; [ DW_TAG_subroutine_type ]
!773 = metadata !{null, metadata !770, metadata !424}
!774 = metadata !{i32 786478, i32 0, metadata !113, metadata !"operator=", metadata !"operator=", metadata !"_ZN6ap_intILi64EEaSERVKS0_", metadata !114, i32 168, metadata !775, i1 false, i1 false, i32 0, i32 0, null, i32 256, i1 false, null, null, i32 0, metadata !130, i32 168} ; [ DW_TAG_subprogram ]
!775 = metadata !{i32 786453, i32 0, metadata !"", i32 0, i32 0, i64 0, i64 0, i64 0, i32 0, null, metadata !776, i32 0, i32 0} ; [ DW_TAG_subroutine_type ]
!776 = metadata !{metadata !777, metadata !414, metadata !424}
!777 = metadata !{i32 786448, null, null, null, i32 0, i64 0, i64 0, i64 0, i32 0, metadata !113} ; [ DW_TAG_reference_type ]
!778 = metadata !{i32 786478, i32 0, metadata !113, metadata !"operator=", metadata !"operator=", metadata !"_ZN6ap_intILi64EEaSERKS0_", metadata !114, i32 173, metadata !779, i1 false, i1 false, i32 0, i32 0, null, i32 256, i1 false, null, null, i32 0, metadata !130, i32 173} ; [ DW_TAG_subprogram ]
!779 = metadata !{i32 786453, i32 0, metadata !"", i32 0, i32 0, i64 0, i64 0, i64 0, i32 0, null, metadata !780, i32 0, i32 0} ; [ DW_TAG_subroutine_type ]
!780 = metadata !{metadata !777, metadata !414, metadata !418}
!781 = metadata !{i32 786478, i32 0, metadata !113, metadata !"ap_int", metadata !"ap_int", metadata !"", metadata !114, i32 74, metadata !416, i1 false, i1 false, i32 0, i32 0, null, i32 320, i1 false, null, null, i32 0, metadata !130, i32 74} ; [ DW_TAG_subprogram ]
!782 = metadata !{i32 786478, i32 0, metadata !113, metadata !"~ap_int", metadata !"~ap_int", metadata !"", metadata !114, i32 74, metadata !412, i1 false, i1 false, i32 0, i32 0, null, i32 320, i1 false, null, null, i32 0, metadata !130, i32 74} ; [ DW_TAG_subprogram ]
!783 = metadata !{metadata !364}
!784 = metadata !{i32 786445, metadata !110, metadata !"last", metadata !101, i32 11, i64 8, i64 8, i64 64, i32 0, metadata !785} ; [ DW_TAG_member ]
!785 = metadata !{i32 786434, null, metadata !"ap_uint<1>", metadata !114, i32 183, i64 8, i64 8, i32 0, i32 0, null, metadata !786, i32 0, null, metadata !1123} ; [ DW_TAG_class_type ]
!786 = metadata !{metadata !787, metadata !1042, metadata !1046, metadata !1052, metadata !1058, metadata !1061, metadata !1064, metadata !1067, metadata !1070, metadata !1073, metadata !1076, metadata !1079, metadata !1082, metadata !1085, metadata !1088, metadata !1091, metadata !1094, metadata !1097, metadata !1100, metadata !1103, metadata !1106, metadata !1109, metadata !1113, metadata !1116, metadata !1120}
!787 = metadata !{i32 786460, metadata !785, null, metadata !114, i32 0, i64 0, i64 0, i64 0, i32 0, metadata !788} ; [ DW_TAG_inheritance ]
!788 = metadata !{i32 786434, null, metadata !"ap_int_base<1, false, true>", metadata !118, i32 1453, i64 8, i64 8, i32 0, i32 0, null, metadata !789, i32 0, null, metadata !1041} ; [ DW_TAG_class_type ]
!789 = metadata !{metadata !790, metadata !802, metadata !806, metadata !811, metadata !817, metadata !820, metadata !823, metadata !826, metadata !829, metadata !832, metadata !835, metadata !838, metadata !841, metadata !844, metadata !847, metadata !850, metadata !853, metadata !856, metadata !859, metadata !862, metadata !865, metadata !869, metadata !872, metadata !875, metadata !876, metadata !880, metadata !883, metadata !886, metadata !889, metadata !892, metadata !895, metadata !898, metadata !901, metadata !904, metadata !907, metadata !910, metadata !913, metadata !920, metadata !923, metadata !926, metadata !929, metadata !932, metadata !935, metadata !938, metadata !941, metadata !944, metadata !947, metadata !950, metadata !953, metadata !956, metadata !957, metadata !961, metadata !964, metadata !965, metadata !966, metadata !967, metadata !968, metadata !969, metadata !972, metadata !973, metadata !976, metadata !977, metadata !978, metadata !979, metadata !980, metadata !981, metadata !984, metadata !985, metadata !986, metadata !989, metadata !990, metadata !993, metadata !994, metadata !1000, metadata !1006, metadata !1007, metadata !1010, metadata !1011, metadata !1015, metadata !1016, metadata !1017, metadata !1018, metadata !1021, metadata !1022, metadata !1023, metadata !1024, metadata !1025, metadata !1026, metadata !1027, metadata !1028, metadata !1029, metadata !1030, metadata !1031, metadata !1032, metadata !1035, metadata !1038}
!790 = metadata !{i32 786460, metadata !788, null, metadata !118, i32 0, i64 0, i64 0, i64 0, i32 0, metadata !791} ; [ DW_TAG_inheritance ]
!791 = metadata !{i32 786434, null, metadata !"ssdm_int<1 + 1024 * 0, false>", metadata !122, i32 3, i64 8, i64 8, i32 0, i32 0, null, metadata !792, i32 0, null, metadata !799} ; [ DW_TAG_class_type ]
!792 = metadata !{metadata !793, metadata !795}
!793 = metadata !{i32 786445, metadata !791, metadata !"V", metadata !122, i32 3, i64 1, i64 1, i64 0, i32 0, metadata !794} ; [ DW_TAG_member ]
!794 = metadata !{i32 786468, null, metadata !"uint1", null, i32 0, i64 1, i64 1, i64 0, i32 0, i32 7} ; [ DW_TAG_base_type ]
!795 = metadata !{i32 786478, i32 0, metadata !791, metadata !"ssdm_int", metadata !"ssdm_int", metadata !"", metadata !122, i32 3, metadata !796, i1 false, i1 false, i32 0, i32 0, null, i32 256, i1 false, null, null, i32 0, metadata !130, i32 3} ; [ DW_TAG_subprogram ]
!796 = metadata !{i32 786453, i32 0, metadata !"", i32 0, i32 0, i64 0, i64 0, i64 0, i32 0, null, metadata !797, i32 0, i32 0} ; [ DW_TAG_subroutine_type ]
!797 = metadata !{null, metadata !798}
!798 = metadata !{i32 786447, i32 0, metadata !"", i32 0, i32 0, i64 64, i64 64, i64 0, i32 64, metadata !791} ; [ DW_TAG_pointer_type ]
!799 = metadata !{metadata !800, metadata !801}
!800 = metadata !{i32 786480, null, metadata !"_AP_N", metadata !139, i64 1, null, i32 0, i32 0} ; [ DW_TAG_template_value_parameter ]
!801 = metadata !{i32 786480, null, metadata !"_AP_S", metadata !141, i64 0, null, i32 0, i32 0} ; [ DW_TAG_template_value_parameter ]
!802 = metadata !{i32 786478, i32 0, metadata !788, metadata !"ap_int_base", metadata !"ap_int_base", metadata !"", metadata !118, i32 1494, metadata !803, i1 false, i1 false, i32 0, i32 0, null, i32 256, i1 false, null, null, i32 0, metadata !130, i32 1494} ; [ DW_TAG_subprogram ]
!803 = metadata !{i32 786453, i32 0, metadata !"", i32 0, i32 0, i64 0, i64 0, i64 0, i32 0, null, metadata !804, i32 0, i32 0} ; [ DW_TAG_subroutine_type ]
!804 = metadata !{null, metadata !805}
!805 = metadata !{i32 786447, i32 0, metadata !"", i32 0, i32 0, i64 64, i64 64, i64 0, i32 64, metadata !788} ; [ DW_TAG_pointer_type ]
!806 = metadata !{i32 786478, i32 0, metadata !788, metadata !"ap_int_base<1, false>", metadata !"ap_int_base<1, false>", metadata !"", metadata !118, i32 1506, metadata !807, i1 false, i1 false, i32 0, i32 0, null, i32 256, i1 false, null, metadata !631, i32 0, metadata !130, i32 1506} ; [ DW_TAG_subprogram ]
!807 = metadata !{i32 786453, i32 0, metadata !"", i32 0, i32 0, i64 0, i64 0, i64 0, i32 0, null, metadata !808, i32 0, i32 0} ; [ DW_TAG_subroutine_type ]
!808 = metadata !{null, metadata !805, metadata !809}
!809 = metadata !{i32 786448, null, null, null, i32 0, i64 0, i64 0, i64 0, i32 0, metadata !810} ; [ DW_TAG_reference_type ]
!810 = metadata !{i32 786470, null, metadata !"", null, i32 0, i64 0, i64 0, i64 0, i32 0, metadata !788} ; [ DW_TAG_const_type ]
!811 = metadata !{i32 786478, i32 0, metadata !788, metadata !"ap_int_base<1, false>", metadata !"ap_int_base<1, false>", metadata !"", metadata !118, i32 1509, metadata !812, i1 false, i1 false, i32 0, i32 0, null, i32 256, i1 false, null, metadata !631, i32 0, metadata !130, i32 1509} ; [ DW_TAG_subprogram ]
!812 = metadata !{i32 786453, i32 0, metadata !"", i32 0, i32 0, i64 0, i64 0, i64 0, i32 0, null, metadata !813, i32 0, i32 0} ; [ DW_TAG_subroutine_type ]
!813 = metadata !{null, metadata !805, metadata !814}
!814 = metadata !{i32 786448, null, null, null, i32 0, i64 0, i64 0, i64 0, i32 0, metadata !815} ; [ DW_TAG_reference_type ]
!815 = metadata !{i32 786470, null, metadata !"", null, i32 0, i64 0, i64 0, i64 0, i32 0, metadata !816} ; [ DW_TAG_const_type ]
!816 = metadata !{i32 786485, null, metadata !"", null, i32 0, i64 0, i64 0, i64 0, i32 0, metadata !788} ; [ DW_TAG_volatile_type ]
!817 = metadata !{i32 786478, i32 0, metadata !788, metadata !"ap_int_base", metadata !"ap_int_base", metadata !"", metadata !118, i32 1516, metadata !818, i1 false, i1 false, i32 0, i32 0, null, i32 384, i1 false, null, null, i32 0, metadata !130, i32 1516} ; [ DW_TAG_subprogram ]
!818 = metadata !{i32 786453, i32 0, metadata !"", i32 0, i32 0, i64 0, i64 0, i64 0, i32 0, null, metadata !819, i32 0, i32 0} ; [ DW_TAG_subroutine_type ]
!819 = metadata !{null, metadata !805, metadata !141}
!820 = metadata !{i32 786478, i32 0, metadata !788, metadata !"ap_int_base", metadata !"ap_int_base", metadata !"", metadata !118, i32 1517, metadata !821, i1 false, i1 false, i32 0, i32 0, null, i32 384, i1 false, null, null, i32 0, metadata !130, i32 1517} ; [ DW_TAG_subprogram ]
!821 = metadata !{i32 786453, i32 0, metadata !"", i32 0, i32 0, i64 0, i64 0, i64 0, i32 0, null, metadata !822, i32 0, i32 0} ; [ DW_TAG_subroutine_type ]
!822 = metadata !{null, metadata !805, metadata !166}
!823 = metadata !{i32 786478, i32 0, metadata !788, metadata !"ap_int_base", metadata !"ap_int_base", metadata !"", metadata !118, i32 1518, metadata !824, i1 false, i1 false, i32 0, i32 0, null, i32 384, i1 false, null, null, i32 0, metadata !130, i32 1518} ; [ DW_TAG_subprogram ]
!824 = metadata !{i32 786453, i32 0, metadata !"", i32 0, i32 0, i64 0, i64 0, i64 0, i32 0, null, metadata !825, i32 0, i32 0} ; [ DW_TAG_subroutine_type ]
!825 = metadata !{null, metadata !805, metadata !170}
!826 = metadata !{i32 786478, i32 0, metadata !788, metadata !"ap_int_base", metadata !"ap_int_base", metadata !"", metadata !118, i32 1519, metadata !827, i1 false, i1 false, i32 0, i32 0, null, i32 384, i1 false, null, null, i32 0, metadata !130, i32 1519} ; [ DW_TAG_subprogram ]
!827 = metadata !{i32 786453, i32 0, metadata !"", i32 0, i32 0, i64 0, i64 0, i64 0, i32 0, null, metadata !828, i32 0, i32 0} ; [ DW_TAG_subroutine_type ]
!828 = metadata !{null, metadata !805, metadata !174}
!829 = metadata !{i32 786478, i32 0, metadata !788, metadata !"ap_int_base", metadata !"ap_int_base", metadata !"", metadata !118, i32 1520, metadata !830, i1 false, i1 false, i32 0, i32 0, null, i32 384, i1 false, null, null, i32 0, metadata !130, i32 1520} ; [ DW_TAG_subprogram ]
!830 = metadata !{i32 786453, i32 0, metadata !"", i32 0, i32 0, i64 0, i64 0, i64 0, i32 0, null, metadata !831, i32 0, i32 0} ; [ DW_TAG_subroutine_type ]
!831 = metadata !{null, metadata !805, metadata !178}
!832 = metadata !{i32 786478, i32 0, metadata !788, metadata !"ap_int_base", metadata !"ap_int_base", metadata !"", metadata !118, i32 1521, metadata !833, i1 false, i1 false, i32 0, i32 0, null, i32 384, i1 false, null, null, i32 0, metadata !130, i32 1521} ; [ DW_TAG_subprogram ]
!833 = metadata !{i32 786453, i32 0, metadata !"", i32 0, i32 0, i64 0, i64 0, i64 0, i32 0, null, metadata !834, i32 0, i32 0} ; [ DW_TAG_subroutine_type ]
!834 = metadata !{null, metadata !805, metadata !139}
!835 = metadata !{i32 786478, i32 0, metadata !788, metadata !"ap_int_base", metadata !"ap_int_base", metadata !"", metadata !118, i32 1522, metadata !836, i1 false, i1 false, i32 0, i32 0, null, i32 384, i1 false, null, null, i32 0, metadata !130, i32 1522} ; [ DW_TAG_subprogram ]
!836 = metadata !{i32 786453, i32 0, metadata !"", i32 0, i32 0, i64 0, i64 0, i64 0, i32 0, null, metadata !837, i32 0, i32 0} ; [ DW_TAG_subroutine_type ]
!837 = metadata !{null, metadata !805, metadata !185}
!838 = metadata !{i32 786478, i32 0, metadata !788, metadata !"ap_int_base", metadata !"ap_int_base", metadata !"", metadata !118, i32 1523, metadata !839, i1 false, i1 false, i32 0, i32 0, null, i32 384, i1 false, null, null, i32 0, metadata !130, i32 1523} ; [ DW_TAG_subprogram ]
!839 = metadata !{i32 786453, i32 0, metadata !"", i32 0, i32 0, i64 0, i64 0, i64 0, i32 0, null, metadata !840, i32 0, i32 0} ; [ DW_TAG_subroutine_type ]
!840 = metadata !{null, metadata !805, metadata !189}
!841 = metadata !{i32 786478, i32 0, metadata !788, metadata !"ap_int_base", metadata !"ap_int_base", metadata !"", metadata !118, i32 1524, metadata !842, i1 false, i1 false, i32 0, i32 0, null, i32 384, i1 false, null, null, i32 0, metadata !130, i32 1524} ; [ DW_TAG_subprogram ]
!842 = metadata !{i32 786453, i32 0, metadata !"", i32 0, i32 0, i64 0, i64 0, i64 0, i32 0, null, metadata !843, i32 0, i32 0} ; [ DW_TAG_subroutine_type ]
!843 = metadata !{null, metadata !805, metadata !193}
!844 = metadata !{i32 786478, i32 0, metadata !788, metadata !"ap_int_base", metadata !"ap_int_base", metadata !"", metadata !118, i32 1525, metadata !845, i1 false, i1 false, i32 0, i32 0, null, i32 384, i1 false, null, null, i32 0, metadata !130, i32 1525} ; [ DW_TAG_subprogram ]
!845 = metadata !{i32 786453, i32 0, metadata !"", i32 0, i32 0, i64 0, i64 0, i64 0, i32 0, null, metadata !846, i32 0, i32 0} ; [ DW_TAG_subroutine_type ]
!846 = metadata !{null, metadata !805, metadata !197}
!847 = metadata !{i32 786478, i32 0, metadata !788, metadata !"ap_int_base", metadata !"ap_int_base", metadata !"", metadata !118, i32 1526, metadata !848, i1 false, i1 false, i32 0, i32 0, null, i32 384, i1 false, null, null, i32 0, metadata !130, i32 1526} ; [ DW_TAG_subprogram ]
!848 = metadata !{i32 786453, i32 0, metadata !"", i32 0, i32 0, i64 0, i64 0, i64 0, i32 0, null, metadata !849, i32 0, i32 0} ; [ DW_TAG_subroutine_type ]
!849 = metadata !{null, metadata !805, metadata !202}
!850 = metadata !{i32 786478, i32 0, metadata !788, metadata !"ap_int_base", metadata !"ap_int_base", metadata !"", metadata !118, i32 1527, metadata !851, i1 false, i1 false, i32 0, i32 0, null, i32 384, i1 false, null, null, i32 0, metadata !130, i32 1527} ; [ DW_TAG_subprogram ]
!851 = metadata !{i32 786453, i32 0, metadata !"", i32 0, i32 0, i64 0, i64 0, i64 0, i32 0, null, metadata !852, i32 0, i32 0} ; [ DW_TAG_subroutine_type ]
!852 = metadata !{null, metadata !805, metadata !207}
!853 = metadata !{i32 786478, i32 0, metadata !788, metadata !"ap_int_base", metadata !"ap_int_base", metadata !"", metadata !118, i32 1528, metadata !854, i1 false, i1 false, i32 0, i32 0, null, i32 384, i1 false, null, null, i32 0, metadata !130, i32 1528} ; [ DW_TAG_subprogram ]
!854 = metadata !{i32 786453, i32 0, metadata !"", i32 0, i32 0, i64 0, i64 0, i64 0, i32 0, null, metadata !855, i32 0, i32 0} ; [ DW_TAG_subroutine_type ]
!855 = metadata !{null, metadata !805, metadata !212}
!856 = metadata !{i32 786478, i32 0, metadata !788, metadata !"ap_int_base", metadata !"ap_int_base", metadata !"", metadata !118, i32 1529, metadata !857, i1 false, i1 false, i32 0, i32 0, null, i32 384, i1 false, null, null, i32 0, metadata !130, i32 1529} ; [ DW_TAG_subprogram ]
!857 = metadata !{i32 786453, i32 0, metadata !"", i32 0, i32 0, i64 0, i64 0, i64 0, i32 0, null, metadata !858, i32 0, i32 0} ; [ DW_TAG_subroutine_type ]
!858 = metadata !{null, metadata !805, metadata !216}
!859 = metadata !{i32 786478, i32 0, metadata !788, metadata !"ap_int_base", metadata !"ap_int_base", metadata !"", metadata !118, i32 1556, metadata !860, i1 false, i1 false, i32 0, i32 0, null, i32 256, i1 false, null, null, i32 0, metadata !130, i32 1556} ; [ DW_TAG_subprogram ]
!860 = metadata !{i32 786453, i32 0, metadata !"", i32 0, i32 0, i64 0, i64 0, i64 0, i32 0, null, metadata !861, i32 0, i32 0} ; [ DW_TAG_subroutine_type ]
!861 = metadata !{null, metadata !805, metadata !220}
!862 = metadata !{i32 786478, i32 0, metadata !788, metadata !"ap_int_base", metadata !"ap_int_base", metadata !"", metadata !118, i32 1563, metadata !863, i1 false, i1 false, i32 0, i32 0, null, i32 256, i1 false, null, null, i32 0, metadata !130, i32 1563} ; [ DW_TAG_subprogram ]
!863 = metadata !{i32 786453, i32 0, metadata !"", i32 0, i32 0, i64 0, i64 0, i64 0, i32 0, null, metadata !864, i32 0, i32 0} ; [ DW_TAG_subroutine_type ]
!864 = metadata !{null, metadata !805, metadata !220, metadata !166}
!865 = metadata !{i32 786478, i32 0, metadata !788, metadata !"read", metadata !"read", metadata !"_ZNV11ap_int_baseILi1ELb0ELb1EE4readEv", metadata !118, i32 1584, metadata !866, i1 false, i1 false, i32 0, i32 0, null, i32 256, i1 false, null, null, i32 0, metadata !130, i32 1584} ; [ DW_TAG_subprogram ]
!866 = metadata !{i32 786453, i32 0, metadata !"", i32 0, i32 0, i64 0, i64 0, i64 0, i32 0, null, metadata !867, i32 0, i32 0} ; [ DW_TAG_subroutine_type ]
!867 = metadata !{metadata !788, metadata !868}
!868 = metadata !{i32 786447, i32 0, metadata !"", i32 0, i32 0, i64 64, i64 64, i64 0, i32 64, metadata !816} ; [ DW_TAG_pointer_type ]
!869 = metadata !{i32 786478, i32 0, metadata !788, metadata !"write", metadata !"write", metadata !"_ZNV11ap_int_baseILi1ELb0ELb1EE5writeERKS0_", metadata !118, i32 1590, metadata !870, i1 false, i1 false, i32 0, i32 0, null, i32 256, i1 false, null, null, i32 0, metadata !130, i32 1590} ; [ DW_TAG_subprogram ]
!870 = metadata !{i32 786453, i32 0, metadata !"", i32 0, i32 0, i64 0, i64 0, i64 0, i32 0, null, metadata !871, i32 0, i32 0} ; [ DW_TAG_subroutine_type ]
!871 = metadata !{null, metadata !868, metadata !809}
!872 = metadata !{i32 786478, i32 0, metadata !788, metadata !"operator=", metadata !"operator=", metadata !"_ZNV11ap_int_baseILi1ELb0ELb1EEaSERVKS0_", metadata !118, i32 1602, metadata !873, i1 false, i1 false, i32 0, i32 0, null, i32 256, i1 false, null, null, i32 0, metadata !130, i32 1602} ; [ DW_TAG_subprogram ]
!873 = metadata !{i32 786453, i32 0, metadata !"", i32 0, i32 0, i64 0, i64 0, i64 0, i32 0, null, metadata !874, i32 0, i32 0} ; [ DW_TAG_subroutine_type ]
!874 = metadata !{null, metadata !868, metadata !814}
!875 = metadata !{i32 786478, i32 0, metadata !788, metadata !"operator=", metadata !"operator=", metadata !"_ZNV11ap_int_baseILi1ELb0ELb1EEaSERKS0_", metadata !118, i32 1611, metadata !870, i1 false, i1 false, i32 0, i32 0, null, i32 256, i1 false, null, null, i32 0, metadata !130, i32 1611} ; [ DW_TAG_subprogram ]
!876 = metadata !{i32 786478, i32 0, metadata !788, metadata !"operator=", metadata !"operator=", metadata !"_ZN11ap_int_baseILi1ELb0ELb1EEaSERVKS0_", metadata !118, i32 1634, metadata !877, i1 false, i1 false, i32 0, i32 0, null, i32 256, i1 false, null, null, i32 0, metadata !130, i32 1634} ; [ DW_TAG_subprogram ]
!877 = metadata !{i32 786453, i32 0, metadata !"", i32 0, i32 0, i64 0, i64 0, i64 0, i32 0, null, metadata !878, i32 0, i32 0} ; [ DW_TAG_subroutine_type ]
!878 = metadata !{metadata !879, metadata !805, metadata !814}
!879 = metadata !{i32 786448, null, null, null, i32 0, i64 0, i64 0, i64 0, i32 0, metadata !788} ; [ DW_TAG_reference_type ]
!880 = metadata !{i32 786478, i32 0, metadata !788, metadata !"operator=", metadata !"operator=", metadata !"_ZN11ap_int_baseILi1ELb0ELb1EEaSERKS0_", metadata !118, i32 1639, metadata !881, i1 false, i1 false, i32 0, i32 0, null, i32 256, i1 false, null, null, i32 0, metadata !130, i32 1639} ; [ DW_TAG_subprogram ]
!881 = metadata !{i32 786453, i32 0, metadata !"", i32 0, i32 0, i64 0, i64 0, i64 0, i32 0, null, metadata !882, i32 0, i32 0} ; [ DW_TAG_subroutine_type ]
!882 = metadata !{metadata !879, metadata !805, metadata !809}
!883 = metadata !{i32 786478, i32 0, metadata !788, metadata !"operator=", metadata !"operator=", metadata !"_ZN11ap_int_baseILi1ELb0ELb1EEaSEPKc", metadata !118, i32 1643, metadata !884, i1 false, i1 false, i32 0, i32 0, null, i32 256, i1 false, null, null, i32 0, metadata !130, i32 1643} ; [ DW_TAG_subprogram ]
!884 = metadata !{i32 786453, i32 0, metadata !"", i32 0, i32 0, i64 0, i64 0, i64 0, i32 0, null, metadata !885, i32 0, i32 0} ; [ DW_TAG_subroutine_type ]
!885 = metadata !{metadata !879, metadata !805, metadata !220}
!886 = metadata !{i32 786478, i32 0, metadata !788, metadata !"set", metadata !"set", metadata !"_ZN11ap_int_baseILi1ELb0ELb1EE3setEPKca", metadata !118, i32 1651, metadata !887, i1 false, i1 false, i32 0, i32 0, null, i32 256, i1 false, null, null, i32 0, metadata !130, i32 1651} ; [ DW_TAG_subprogram ]
!887 = metadata !{i32 786453, i32 0, metadata !"", i32 0, i32 0, i64 0, i64 0, i64 0, i32 0, null, metadata !888, i32 0, i32 0} ; [ DW_TAG_subroutine_type ]
!888 = metadata !{metadata !879, metadata !805, metadata !220, metadata !166}
!889 = metadata !{i32 786478, i32 0, metadata !788, metadata !"operator=", metadata !"operator=", metadata !"_ZN11ap_int_baseILi1ELb0ELb1EEaSEa", metadata !118, i32 1665, metadata !890, i1 false, i1 false, i32 0, i32 0, null, i32 256, i1 false, null, null, i32 0, metadata !130, i32 1665} ; [ DW_TAG_subprogram ]
!890 = metadata !{i32 786453, i32 0, metadata !"", i32 0, i32 0, i64 0, i64 0, i64 0, i32 0, null, metadata !891, i32 0, i32 0} ; [ DW_TAG_subroutine_type ]
!891 = metadata !{metadata !879, metadata !805, metadata !166}
!892 = metadata !{i32 786478, i32 0, metadata !788, metadata !"operator=", metadata !"operator=", metadata !"_ZN11ap_int_baseILi1ELb0ELb1EEaSEh", metadata !118, i32 1666, metadata !893, i1 false, i1 false, i32 0, i32 0, null, i32 256, i1 false, null, null, i32 0, metadata !130, i32 1666} ; [ DW_TAG_subprogram ]
!893 = metadata !{i32 786453, i32 0, metadata !"", i32 0, i32 0, i64 0, i64 0, i64 0, i32 0, null, metadata !894, i32 0, i32 0} ; [ DW_TAG_subroutine_type ]
!894 = metadata !{metadata !879, metadata !805, metadata !170}
!895 = metadata !{i32 786478, i32 0, metadata !788, metadata !"operator=", metadata !"operator=", metadata !"_ZN11ap_int_baseILi1ELb0ELb1EEaSEs", metadata !118, i32 1667, metadata !896, i1 false, i1 false, i32 0, i32 0, null, i32 256, i1 false, null, null, i32 0, metadata !130, i32 1667} ; [ DW_TAG_subprogram ]
!896 = metadata !{i32 786453, i32 0, metadata !"", i32 0, i32 0, i64 0, i64 0, i64 0, i32 0, null, metadata !897, i32 0, i32 0} ; [ DW_TAG_subroutine_type ]
!897 = metadata !{metadata !879, metadata !805, metadata !174}
!898 = metadata !{i32 786478, i32 0, metadata !788, metadata !"operator=", metadata !"operator=", metadata !"_ZN11ap_int_baseILi1ELb0ELb1EEaSEt", metadata !118, i32 1668, metadata !899, i1 false, i1 false, i32 0, i32 0, null, i32 256, i1 false, null, null, i32 0, metadata !130, i32 1668} ; [ DW_TAG_subprogram ]
!899 = metadata !{i32 786453, i32 0, metadata !"", i32 0, i32 0, i64 0, i64 0, i64 0, i32 0, null, metadata !900, i32 0, i32 0} ; [ DW_TAG_subroutine_type ]
!900 = metadata !{metadata !879, metadata !805, metadata !178}
!901 = metadata !{i32 786478, i32 0, metadata !788, metadata !"operator=", metadata !"operator=", metadata !"_ZN11ap_int_baseILi1ELb0ELb1EEaSEi", metadata !118, i32 1669, metadata !902, i1 false, i1 false, i32 0, i32 0, null, i32 256, i1 false, null, null, i32 0, metadata !130, i32 1669} ; [ DW_TAG_subprogram ]
!902 = metadata !{i32 786453, i32 0, metadata !"", i32 0, i32 0, i64 0, i64 0, i64 0, i32 0, null, metadata !903, i32 0, i32 0} ; [ DW_TAG_subroutine_type ]
!903 = metadata !{metadata !879, metadata !805, metadata !139}
!904 = metadata !{i32 786478, i32 0, metadata !788, metadata !"operator=", metadata !"operator=", metadata !"_ZN11ap_int_baseILi1ELb0ELb1EEaSEj", metadata !118, i32 1670, metadata !905, i1 false, i1 false, i32 0, i32 0, null, i32 256, i1 false, null, null, i32 0, metadata !130, i32 1670} ; [ DW_TAG_subprogram ]
!905 = metadata !{i32 786453, i32 0, metadata !"", i32 0, i32 0, i64 0, i64 0, i64 0, i32 0, null, metadata !906, i32 0, i32 0} ; [ DW_TAG_subroutine_type ]
!906 = metadata !{metadata !879, metadata !805, metadata !185}
!907 = metadata !{i32 786478, i32 0, metadata !788, metadata !"operator=", metadata !"operator=", metadata !"_ZN11ap_int_baseILi1ELb0ELb1EEaSEx", metadata !118, i32 1671, metadata !908, i1 false, i1 false, i32 0, i32 0, null, i32 256, i1 false, null, null, i32 0, metadata !130, i32 1671} ; [ DW_TAG_subprogram ]
!908 = metadata !{i32 786453, i32 0, metadata !"", i32 0, i32 0, i64 0, i64 0, i64 0, i32 0, null, metadata !909, i32 0, i32 0} ; [ DW_TAG_subroutine_type ]
!909 = metadata !{metadata !879, metadata !805, metadata !197}
!910 = metadata !{i32 786478, i32 0, metadata !788, metadata !"operator=", metadata !"operator=", metadata !"_ZN11ap_int_baseILi1ELb0ELb1EEaSEy", metadata !118, i32 1672, metadata !911, i1 false, i1 false, i32 0, i32 0, null, i32 256, i1 false, null, null, i32 0, metadata !130, i32 1672} ; [ DW_TAG_subprogram ]
!911 = metadata !{i32 786453, i32 0, metadata !"", i32 0, i32 0, i64 0, i64 0, i64 0, i32 0, null, metadata !912, i32 0, i32 0} ; [ DW_TAG_subroutine_type ]
!912 = metadata !{metadata !879, metadata !805, metadata !202}
!913 = metadata !{i32 786478, i32 0, metadata !788, metadata !"operator unsigned char", metadata !"operator unsigned char", metadata !"_ZNK11ap_int_baseILi1ELb0ELb1EEcvhEv", metadata !118, i32 1710, metadata !914, i1 false, i1 false, i32 0, i32 0, null, i32 256, i1 false, null, null, i32 0, metadata !130, i32 1710} ; [ DW_TAG_subprogram ]
!914 = metadata !{i32 786453, i32 0, metadata !"", i32 0, i32 0, i64 0, i64 0, i64 0, i32 0, null, metadata !915, i32 0, i32 0} ; [ DW_TAG_subroutine_type ]
!915 = metadata !{metadata !916, metadata !919}
!916 = metadata !{i32 786454, metadata !788, metadata !"RetType", metadata !118, i32 1458, i64 0, i64 0, i64 0, i32 0, metadata !917} ; [ DW_TAG_typedef ]
!917 = metadata !{i32 786454, metadata !918, metadata !"Type", metadata !118, i32 1426, i64 0, i64 0, i64 0, i32 0, metadata !170} ; [ DW_TAG_typedef ]
!918 = metadata !{i32 786434, null, metadata !"retval<1, false>", metadata !118, i32 1425, i64 8, i64 8, i32 0, i32 0, null, metadata !280, i32 0, null, metadata !799} ; [ DW_TAG_class_type ]
!919 = metadata !{i32 786447, i32 0, metadata !"", i32 0, i32 0, i64 64, i64 64, i64 0, i32 64, metadata !810} ; [ DW_TAG_pointer_type ]
!920 = metadata !{i32 786478, i32 0, metadata !788, metadata !"to_bool", metadata !"to_bool", metadata !"_ZNK11ap_int_baseILi1ELb0ELb1EE7to_boolEv", metadata !118, i32 1716, metadata !921, i1 false, i1 false, i32 0, i32 0, null, i32 256, i1 false, null, null, i32 0, metadata !130, i32 1716} ; [ DW_TAG_subprogram ]
!921 = metadata !{i32 786453, i32 0, metadata !"", i32 0, i32 0, i64 0, i64 0, i64 0, i32 0, null, metadata !922, i32 0, i32 0} ; [ DW_TAG_subroutine_type ]
!922 = metadata !{metadata !141, metadata !919}
!923 = metadata !{i32 786478, i32 0, metadata !788, metadata !"to_uchar", metadata !"to_uchar", metadata !"_ZNK11ap_int_baseILi1ELb0ELb1EE8to_ucharEv", metadata !118, i32 1717, metadata !924, i1 false, i1 false, i32 0, i32 0, null, i32 256, i1 false, null, null, i32 0, metadata !130, i32 1717} ; [ DW_TAG_subprogram ]
!924 = metadata !{i32 786453, i32 0, metadata !"", i32 0, i32 0, i64 0, i64 0, i64 0, i32 0, null, metadata !925, i32 0, i32 0} ; [ DW_TAG_subroutine_type ]
!925 = metadata !{metadata !170, metadata !919}
!926 = metadata !{i32 786478, i32 0, metadata !788, metadata !"to_char", metadata !"to_char", metadata !"_ZNK11ap_int_baseILi1ELb0ELb1EE7to_charEv", metadata !118, i32 1718, metadata !927, i1 false, i1 false, i32 0, i32 0, null, i32 256, i1 false, null, null, i32 0, metadata !130, i32 1718} ; [ DW_TAG_subprogram ]
!927 = metadata !{i32 786453, i32 0, metadata !"", i32 0, i32 0, i64 0, i64 0, i64 0, i32 0, null, metadata !928, i32 0, i32 0} ; [ DW_TAG_subroutine_type ]
!928 = metadata !{metadata !166, metadata !919}
!929 = metadata !{i32 786478, i32 0, metadata !788, metadata !"to_ushort", metadata !"to_ushort", metadata !"_ZNK11ap_int_baseILi1ELb0ELb1EE9to_ushortEv", metadata !118, i32 1719, metadata !930, i1 false, i1 false, i32 0, i32 0, null, i32 256, i1 false, null, null, i32 0, metadata !130, i32 1719} ; [ DW_TAG_subprogram ]
!930 = metadata !{i32 786453, i32 0, metadata !"", i32 0, i32 0, i64 0, i64 0, i64 0, i32 0, null, metadata !931, i32 0, i32 0} ; [ DW_TAG_subroutine_type ]
!931 = metadata !{metadata !178, metadata !919}
!932 = metadata !{i32 786478, i32 0, metadata !788, metadata !"to_short", metadata !"to_short", metadata !"_ZNK11ap_int_baseILi1ELb0ELb1EE8to_shortEv", metadata !118, i32 1720, metadata !933, i1 false, i1 false, i32 0, i32 0, null, i32 256, i1 false, null, null, i32 0, metadata !130, i32 1720} ; [ DW_TAG_subprogram ]
!933 = metadata !{i32 786453, i32 0, metadata !"", i32 0, i32 0, i64 0, i64 0, i64 0, i32 0, null, metadata !934, i32 0, i32 0} ; [ DW_TAG_subroutine_type ]
!934 = metadata !{metadata !174, metadata !919}
!935 = metadata !{i32 786478, i32 0, metadata !788, metadata !"to_int", metadata !"to_int", metadata !"_ZNK11ap_int_baseILi1ELb0ELb1EE6to_intEv", metadata !118, i32 1721, metadata !936, i1 false, i1 false, i32 0, i32 0, null, i32 256, i1 false, null, null, i32 0, metadata !130, i32 1721} ; [ DW_TAG_subprogram ]
!936 = metadata !{i32 786453, i32 0, metadata !"", i32 0, i32 0, i64 0, i64 0, i64 0, i32 0, null, metadata !937, i32 0, i32 0} ; [ DW_TAG_subroutine_type ]
!937 = metadata !{metadata !139, metadata !919}
!938 = metadata !{i32 786478, i32 0, metadata !788, metadata !"to_uint", metadata !"to_uint", metadata !"_ZNK11ap_int_baseILi1ELb0ELb1EE7to_uintEv", metadata !118, i32 1722, metadata !939, i1 false, i1 false, i32 0, i32 0, null, i32 256, i1 false, null, null, i32 0, metadata !130, i32 1722} ; [ DW_TAG_subprogram ]
!939 = metadata !{i32 786453, i32 0, metadata !"", i32 0, i32 0, i64 0, i64 0, i64 0, i32 0, null, metadata !940, i32 0, i32 0} ; [ DW_TAG_subroutine_type ]
!940 = metadata !{metadata !185, metadata !919}
!941 = metadata !{i32 786478, i32 0, metadata !788, metadata !"to_long", metadata !"to_long", metadata !"_ZNK11ap_int_baseILi1ELb0ELb1EE7to_longEv", metadata !118, i32 1723, metadata !942, i1 false, i1 false, i32 0, i32 0, null, i32 256, i1 false, null, null, i32 0, metadata !130, i32 1723} ; [ DW_TAG_subprogram ]
!942 = metadata !{i32 786453, i32 0, metadata !"", i32 0, i32 0, i64 0, i64 0, i64 0, i32 0, null, metadata !943, i32 0, i32 0} ; [ DW_TAG_subroutine_type ]
!943 = metadata !{metadata !189, metadata !919}
!944 = metadata !{i32 786478, i32 0, metadata !788, metadata !"to_ulong", metadata !"to_ulong", metadata !"_ZNK11ap_int_baseILi1ELb0ELb1EE8to_ulongEv", metadata !118, i32 1724, metadata !945, i1 false, i1 false, i32 0, i32 0, null, i32 256, i1 false, null, null, i32 0, metadata !130, i32 1724} ; [ DW_TAG_subprogram ]
!945 = metadata !{i32 786453, i32 0, metadata !"", i32 0, i32 0, i64 0, i64 0, i64 0, i32 0, null, metadata !946, i32 0, i32 0} ; [ DW_TAG_subroutine_type ]
!946 = metadata !{metadata !193, metadata !919}
!947 = metadata !{i32 786478, i32 0, metadata !788, metadata !"to_int64", metadata !"to_int64", metadata !"_ZNK11ap_int_baseILi1ELb0ELb1EE8to_int64Ev", metadata !118, i32 1725, metadata !948, i1 false, i1 false, i32 0, i32 0, null, i32 256, i1 false, null, null, i32 0, metadata !130, i32 1725} ; [ DW_TAG_subprogram ]
!948 = metadata !{i32 786453, i32 0, metadata !"", i32 0, i32 0, i64 0, i64 0, i64 0, i32 0, null, metadata !949, i32 0, i32 0} ; [ DW_TAG_subroutine_type ]
!949 = metadata !{metadata !197, metadata !919}
!950 = metadata !{i32 786478, i32 0, metadata !788, metadata !"to_uint64", metadata !"to_uint64", metadata !"_ZNK11ap_int_baseILi1ELb0ELb1EE9to_uint64Ev", metadata !118, i32 1726, metadata !951, i1 false, i1 false, i32 0, i32 0, null, i32 256, i1 false, null, null, i32 0, metadata !130, i32 1726} ; [ DW_TAG_subprogram ]
!951 = metadata !{i32 786453, i32 0, metadata !"", i32 0, i32 0, i64 0, i64 0, i64 0, i32 0, null, metadata !952, i32 0, i32 0} ; [ DW_TAG_subroutine_type ]
!952 = metadata !{metadata !202, metadata !919}
!953 = metadata !{i32 786478, i32 0, metadata !788, metadata !"to_double", metadata !"to_double", metadata !"_ZNK11ap_int_baseILi1ELb0ELb1EE9to_doubleEv", metadata !118, i32 1727, metadata !954, i1 false, i1 false, i32 0, i32 0, null, i32 256, i1 false, null, null, i32 0, metadata !130, i32 1727} ; [ DW_TAG_subprogram ]
!954 = metadata !{i32 786453, i32 0, metadata !"", i32 0, i32 0, i64 0, i64 0, i64 0, i32 0, null, metadata !955, i32 0, i32 0} ; [ DW_TAG_subroutine_type ]
!955 = metadata !{metadata !216, metadata !919}
!956 = metadata !{i32 786478, i32 0, metadata !788, metadata !"length", metadata !"length", metadata !"_ZNK11ap_int_baseILi1ELb0ELb1EE6lengthEv", metadata !118, i32 1741, metadata !936, i1 false, i1 false, i32 0, i32 0, null, i32 256, i1 false, null, null, i32 0, metadata !130, i32 1741} ; [ DW_TAG_subprogram ]
!957 = metadata !{i32 786478, i32 0, metadata !788, metadata !"length", metadata !"length", metadata !"_ZNVK11ap_int_baseILi1ELb0ELb1EE6lengthEv", metadata !118, i32 1742, metadata !958, i1 false, i1 false, i32 0, i32 0, null, i32 256, i1 false, null, null, i32 0, metadata !130, i32 1742} ; [ DW_TAG_subprogram ]
!958 = metadata !{i32 786453, i32 0, metadata !"", i32 0, i32 0, i64 0, i64 0, i64 0, i32 0, null, metadata !959, i32 0, i32 0} ; [ DW_TAG_subroutine_type ]
!959 = metadata !{metadata !139, metadata !960}
!960 = metadata !{i32 786447, i32 0, metadata !"", i32 0, i32 0, i64 64, i64 64, i64 0, i32 64, metadata !815} ; [ DW_TAG_pointer_type ]
!961 = metadata !{i32 786478, i32 0, metadata !788, metadata !"reverse", metadata !"reverse", metadata !"_ZN11ap_int_baseILi1ELb0ELb1EE7reverseEv", metadata !118, i32 1747, metadata !962, i1 false, i1 false, i32 0, i32 0, null, i32 256, i1 false, null, null, i32 0, metadata !130, i32 1747} ; [ DW_TAG_subprogram ]
!962 = metadata !{i32 786453, i32 0, metadata !"", i32 0, i32 0, i64 0, i64 0, i64 0, i32 0, null, metadata !963, i32 0, i32 0} ; [ DW_TAG_subroutine_type ]
!963 = metadata !{metadata !879, metadata !805}
!964 = metadata !{i32 786478, i32 0, metadata !788, metadata !"iszero", metadata !"iszero", metadata !"_ZNK11ap_int_baseILi1ELb0ELb1EE6iszeroEv", metadata !118, i32 1753, metadata !921, i1 false, i1 false, i32 0, i32 0, null, i32 256, i1 false, null, null, i32 0, metadata !130, i32 1753} ; [ DW_TAG_subprogram ]
!965 = metadata !{i32 786478, i32 0, metadata !788, metadata !"is_zero", metadata !"is_zero", metadata !"_ZNK11ap_int_baseILi1ELb0ELb1EE7is_zeroEv", metadata !118, i32 1758, metadata !921, i1 false, i1 false, i32 0, i32 0, null, i32 256, i1 false, null, null, i32 0, metadata !130, i32 1758} ; [ DW_TAG_subprogram ]
!966 = metadata !{i32 786478, i32 0, metadata !788, metadata !"sign", metadata !"sign", metadata !"_ZNK11ap_int_baseILi1ELb0ELb1EE4signEv", metadata !118, i32 1763, metadata !921, i1 false, i1 false, i32 0, i32 0, null, i32 256, i1 false, null, null, i32 0, metadata !130, i32 1763} ; [ DW_TAG_subprogram ]
!967 = metadata !{i32 786478, i32 0, metadata !788, metadata !"clear", metadata !"clear", metadata !"_ZN11ap_int_baseILi1ELb0ELb1EE5clearEi", metadata !118, i32 1771, metadata !833, i1 false, i1 false, i32 0, i32 0, null, i32 256, i1 false, null, null, i32 0, metadata !130, i32 1771} ; [ DW_TAG_subprogram ]
!968 = metadata !{i32 786478, i32 0, metadata !788, metadata !"invert", metadata !"invert", metadata !"_ZN11ap_int_baseILi1ELb0ELb1EE6invertEi", metadata !118, i32 1777, metadata !833, i1 false, i1 false, i32 0, i32 0, null, i32 256, i1 false, null, null, i32 0, metadata !130, i32 1777} ; [ DW_TAG_subprogram ]
!969 = metadata !{i32 786478, i32 0, metadata !788, metadata !"test", metadata !"test", metadata !"_ZNK11ap_int_baseILi1ELb0ELb1EE4testEi", metadata !118, i32 1785, metadata !970, i1 false, i1 false, i32 0, i32 0, null, i32 256, i1 false, null, null, i32 0, metadata !130, i32 1785} ; [ DW_TAG_subprogram ]
!970 = metadata !{i32 786453, i32 0, metadata !"", i32 0, i32 0, i64 0, i64 0, i64 0, i32 0, null, metadata !971, i32 0, i32 0} ; [ DW_TAG_subroutine_type ]
!971 = metadata !{metadata !141, metadata !919, metadata !139}
!972 = metadata !{i32 786478, i32 0, metadata !788, metadata !"set", metadata !"set", metadata !"_ZN11ap_int_baseILi1ELb0ELb1EE3setEi", metadata !118, i32 1791, metadata !833, i1 false, i1 false, i32 0, i32 0, null, i32 256, i1 false, null, null, i32 0, metadata !130, i32 1791} ; [ DW_TAG_subprogram ]
!973 = metadata !{i32 786478, i32 0, metadata !788, metadata !"set", metadata !"set", metadata !"_ZN11ap_int_baseILi1ELb0ELb1EE3setEib", metadata !118, i32 1797, metadata !974, i1 false, i1 false, i32 0, i32 0, null, i32 256, i1 false, null, null, i32 0, metadata !130, i32 1797} ; [ DW_TAG_subprogram ]
!974 = metadata !{i32 786453, i32 0, metadata !"", i32 0, i32 0, i64 0, i64 0, i64 0, i32 0, null, metadata !975, i32 0, i32 0} ; [ DW_TAG_subroutine_type ]
!975 = metadata !{null, metadata !805, metadata !139, metadata !141}
!976 = metadata !{i32 786478, i32 0, metadata !788, metadata !"lrotate", metadata !"lrotate", metadata !"_ZN11ap_int_baseILi1ELb0ELb1EE7lrotateEi", metadata !118, i32 1804, metadata !833, i1 false, i1 false, i32 0, i32 0, null, i32 256, i1 false, null, null, i32 0, metadata !130, i32 1804} ; [ DW_TAG_subprogram ]
!977 = metadata !{i32 786478, i32 0, metadata !788, metadata !"rrotate", metadata !"rrotate", metadata !"_ZN11ap_int_baseILi1ELb0ELb1EE7rrotateEi", metadata !118, i32 1813, metadata !833, i1 false, i1 false, i32 0, i32 0, null, i32 256, i1 false, null, null, i32 0, metadata !130, i32 1813} ; [ DW_TAG_subprogram ]
!978 = metadata !{i32 786478, i32 0, metadata !788, metadata !"set_bit", metadata !"set_bit", metadata !"_ZN11ap_int_baseILi1ELb0ELb1EE7set_bitEib", metadata !118, i32 1821, metadata !974, i1 false, i1 false, i32 0, i32 0, null, i32 256, i1 false, null, null, i32 0, metadata !130, i32 1821} ; [ DW_TAG_subprogram ]
!979 = metadata !{i32 786478, i32 0, metadata !788, metadata !"get_bit", metadata !"get_bit", metadata !"_ZNK11ap_int_baseILi1ELb0ELb1EE7get_bitEi", metadata !118, i32 1826, metadata !970, i1 false, i1 false, i32 0, i32 0, null, i32 256, i1 false, null, null, i32 0, metadata !130, i32 1826} ; [ DW_TAG_subprogram ]
!980 = metadata !{i32 786478, i32 0, metadata !788, metadata !"b_not", metadata !"b_not", metadata !"_ZN11ap_int_baseILi1ELb0ELb1EE5b_notEv", metadata !118, i32 1831, metadata !803, i1 false, i1 false, i32 0, i32 0, null, i32 256, i1 false, null, null, i32 0, metadata !130, i32 1831} ; [ DW_TAG_subprogram ]
!981 = metadata !{i32 786478, i32 0, metadata !788, metadata !"countLeadingZeros", metadata !"countLeadingZeros", metadata !"_ZN11ap_int_baseILi1ELb0ELb1EE17countLeadingZerosEv", metadata !118, i32 1838, metadata !982, i1 false, i1 false, i32 0, i32 0, null, i32 256, i1 false, null, null, i32 0, metadata !130, i32 1838} ; [ DW_TAG_subprogram ]
!982 = metadata !{i32 786453, i32 0, metadata !"", i32 0, i32 0, i64 0, i64 0, i64 0, i32 0, null, metadata !983, i32 0, i32 0} ; [ DW_TAG_subroutine_type ]
!983 = metadata !{metadata !139, metadata !805}
!984 = metadata !{i32 786478, i32 0, metadata !788, metadata !"operator++", metadata !"operator++", metadata !"_ZN11ap_int_baseILi1ELb0ELb1EEppEv", metadata !118, i32 1895, metadata !962, i1 false, i1 false, i32 0, i32 0, null, i32 256, i1 false, null, null, i32 0, metadata !130, i32 1895} ; [ DW_TAG_subprogram ]
!985 = metadata !{i32 786478, i32 0, metadata !788, metadata !"operator--", metadata !"operator--", metadata !"_ZN11ap_int_baseILi1ELb0ELb1EEmmEv", metadata !118, i32 1899, metadata !962, i1 false, i1 false, i32 0, i32 0, null, i32 256, i1 false, null, null, i32 0, metadata !130, i32 1899} ; [ DW_TAG_subprogram ]
!986 = metadata !{i32 786478, i32 0, metadata !788, metadata !"operator++", metadata !"operator++", metadata !"_ZN11ap_int_baseILi1ELb0ELb1EEppEi", metadata !118, i32 1907, metadata !987, i1 false, i1 false, i32 0, i32 0, null, i32 256, i1 false, null, null, i32 0, metadata !130, i32 1907} ; [ DW_TAG_subprogram ]
!987 = metadata !{i32 786453, i32 0, metadata !"", i32 0, i32 0, i64 0, i64 0, i64 0, i32 0, null, metadata !988, i32 0, i32 0} ; [ DW_TAG_subroutine_type ]
!988 = metadata !{metadata !810, metadata !805, metadata !139}
!989 = metadata !{i32 786478, i32 0, metadata !788, metadata !"operator--", metadata !"operator--", metadata !"_ZN11ap_int_baseILi1ELb0ELb1EEmmEi", metadata !118, i32 1912, metadata !987, i1 false, i1 false, i32 0, i32 0, null, i32 256, i1 false, null, null, i32 0, metadata !130, i32 1912} ; [ DW_TAG_subprogram ]
!990 = metadata !{i32 786478, i32 0, metadata !788, metadata !"operator+", metadata !"operator+", metadata !"_ZNK11ap_int_baseILi1ELb0ELb1EEpsEv", metadata !118, i32 1921, metadata !991, i1 false, i1 false, i32 0, i32 0, null, i32 256, i1 false, null, null, i32 0, metadata !130, i32 1921} ; [ DW_TAG_subprogram ]
!991 = metadata !{i32 786453, i32 0, metadata !"", i32 0, i32 0, i64 0, i64 0, i64 0, i32 0, null, metadata !992, i32 0, i32 0} ; [ DW_TAG_subroutine_type ]
!992 = metadata !{metadata !788, metadata !919}
!993 = metadata !{i32 786478, i32 0, metadata !788, metadata !"operator!", metadata !"operator!", metadata !"_ZNK11ap_int_baseILi1ELb0ELb1EEntEv", metadata !118, i32 1927, metadata !921, i1 false, i1 false, i32 0, i32 0, null, i32 256, i1 false, null, null, i32 0, metadata !130, i32 1927} ; [ DW_TAG_subprogram ]
!994 = metadata !{i32 786478, i32 0, metadata !788, metadata !"operator-", metadata !"operator-", metadata !"_ZNK11ap_int_baseILi1ELb0ELb1EEngEv", metadata !118, i32 1932, metadata !995, i1 false, i1 false, i32 0, i32 0, null, i32 256, i1 false, null, null, i32 0, metadata !130, i32 1932} ; [ DW_TAG_subprogram ]
!995 = metadata !{i32 786453, i32 0, metadata !"", i32 0, i32 0, i64 0, i64 0, i64 0, i32 0, null, metadata !996, i32 0, i32 0} ; [ DW_TAG_subroutine_type ]
!996 = metadata !{metadata !997, metadata !919}
!997 = metadata !{i32 786434, null, metadata !"ap_int_base<2, true, true>", metadata !118, i32 651, i64 0, i64 0, i32 0, i32 4, null, null, i32 0, null, metadata !998} ; [ DW_TAG_class_type ]
!998 = metadata !{metadata !999, metadata !140, metadata !410}
!999 = metadata !{i32 786480, null, metadata !"_AP_W", metadata !139, i64 2, null, i32 0, i32 0} ; [ DW_TAG_template_value_parameter ]
!1000 = metadata !{i32 786478, i32 0, metadata !788, metadata !"range", metadata !"range", metadata !"_ZN11ap_int_baseILi1ELb0ELb1EE5rangeEii", metadata !118, i32 2062, metadata !1001, i1 false, i1 false, i32 0, i32 0, null, i32 256, i1 false, null, null, i32 0, metadata !130, i32 2062} ; [ DW_TAG_subprogram ]
!1001 = metadata !{i32 786453, i32 0, metadata !"", i32 0, i32 0, i64 0, i64 0, i64 0, i32 0, null, metadata !1002, i32 0, i32 0} ; [ DW_TAG_subroutine_type ]
!1002 = metadata !{metadata !1003, metadata !805, metadata !139, metadata !139}
!1003 = metadata !{i32 786434, null, metadata !"ap_range_ref<1, false>", metadata !118, i32 925, i64 0, i64 0, i32 0, i32 4, null, null, i32 0, null, metadata !1004} ; [ DW_TAG_class_type ]
!1004 = metadata !{metadata !1005, metadata !801}
!1005 = metadata !{i32 786480, null, metadata !"_AP_W", metadata !139, i64 1, null, i32 0, i32 0} ; [ DW_TAG_template_value_parameter ]
!1006 = metadata !{i32 786478, i32 0, metadata !788, metadata !"operator()", metadata !"operator()", metadata !"_ZN11ap_int_baseILi1ELb0ELb1EEclEii", metadata !118, i32 2068, metadata !1001, i1 false, i1 false, i32 0, i32 0, null, i32 256, i1 false, null, null, i32 0, metadata !130, i32 2068} ; [ DW_TAG_subprogram ]
!1007 = metadata !{i32 786478, i32 0, metadata !788, metadata !"range", metadata !"range", metadata !"_ZNK11ap_int_baseILi1ELb0ELb1EE5rangeEii", metadata !118, i32 2074, metadata !1008, i1 false, i1 false, i32 0, i32 0, null, i32 256, i1 false, null, null, i32 0, metadata !130, i32 2074} ; [ DW_TAG_subprogram ]
!1008 = metadata !{i32 786453, i32 0, metadata !"", i32 0, i32 0, i64 0, i64 0, i64 0, i32 0, null, metadata !1009, i32 0, i32 0} ; [ DW_TAG_subroutine_type ]
!1009 = metadata !{metadata !1003, metadata !919, metadata !139, metadata !139}
!1010 = metadata !{i32 786478, i32 0, metadata !788, metadata !"operator()", metadata !"operator()", metadata !"_ZNK11ap_int_baseILi1ELb0ELb1EEclEii", metadata !118, i32 2080, metadata !1008, i1 false, i1 false, i32 0, i32 0, null, i32 256, i1 false, null, null, i32 0, metadata !130, i32 2080} ; [ DW_TAG_subprogram ]
!1011 = metadata !{i32 786478, i32 0, metadata !788, metadata !"operator[]", metadata !"operator[]", metadata !"_ZN11ap_int_baseILi1ELb0ELb1EEixEi", metadata !118, i32 2099, metadata !1012, i1 false, i1 false, i32 0, i32 0, null, i32 256, i1 false, null, null, i32 0, metadata !130, i32 2099} ; [ DW_TAG_subprogram ]
!1012 = metadata !{i32 786453, i32 0, metadata !"", i32 0, i32 0, i64 0, i64 0, i64 0, i32 0, null, metadata !1013, i32 0, i32 0} ; [ DW_TAG_subroutine_type ]
!1013 = metadata !{metadata !1014, metadata !805, metadata !139}
!1014 = metadata !{i32 786434, null, metadata !"ap_bit_ref<1, false>", metadata !118, i32 1249, i64 0, i64 0, i32 0, i32 4, null, null, i32 0, null, metadata !1004} ; [ DW_TAG_class_type ]
!1015 = metadata !{i32 786478, i32 0, metadata !788, metadata !"operator[]", metadata !"operator[]", metadata !"_ZNK11ap_int_baseILi1ELb0ELb1EEixEi", metadata !118, i32 2113, metadata !970, i1 false, i1 false, i32 0, i32 0, null, i32 256, i1 false, null, null, i32 0, metadata !130, i32 2113} ; [ DW_TAG_subprogram ]
!1016 = metadata !{i32 786478, i32 0, metadata !788, metadata !"bit", metadata !"bit", metadata !"_ZN11ap_int_baseILi1ELb0ELb1EE3bitEi", metadata !118, i32 2127, metadata !1012, i1 false, i1 false, i32 0, i32 0, null, i32 256, i1 false, null, null, i32 0, metadata !130, i32 2127} ; [ DW_TAG_subprogram ]
!1017 = metadata !{i32 786478, i32 0, metadata !788, metadata !"bit", metadata !"bit", metadata !"_ZNK11ap_int_baseILi1ELb0ELb1EE3bitEi", metadata !118, i32 2141, metadata !970, i1 false, i1 false, i32 0, i32 0, null, i32 256, i1 false, null, null, i32 0, metadata !130, i32 2141} ; [ DW_TAG_subprogram ]
!1018 = metadata !{i32 786478, i32 0, metadata !788, metadata !"and_reduce", metadata !"and_reduce", metadata !"_ZN11ap_int_baseILi1ELb0ELb1EE10and_reduceEv", metadata !118, i32 2321, metadata !1019, i1 false, i1 false, i32 0, i32 0, null, i32 256, i1 false, null, null, i32 0, metadata !130, i32 2321} ; [ DW_TAG_subprogram ]
!1019 = metadata !{i32 786453, i32 0, metadata !"", i32 0, i32 0, i64 0, i64 0, i64 0, i32 0, null, metadata !1020, i32 0, i32 0} ; [ DW_TAG_subroutine_type ]
!1020 = metadata !{metadata !141, metadata !805}
!1021 = metadata !{i32 786478, i32 0, metadata !788, metadata !"nand_reduce", metadata !"nand_reduce", metadata !"_ZN11ap_int_baseILi1ELb0ELb1EE11nand_reduceEv", metadata !118, i32 2324, metadata !1019, i1 false, i1 false, i32 0, i32 0, null, i32 256, i1 false, null, null, i32 0, metadata !130, i32 2324} ; [ DW_TAG_subprogram ]
!1022 = metadata !{i32 786478, i32 0, metadata !788, metadata !"or_reduce", metadata !"or_reduce", metadata !"_ZN11ap_int_baseILi1ELb0ELb1EE9or_reduceEv", metadata !118, i32 2327, metadata !1019, i1 false, i1 false, i32 0, i32 0, null, i32 256, i1 false, null, null, i32 0, metadata !130, i32 2327} ; [ DW_TAG_subprogram ]
!1023 = metadata !{i32 786478, i32 0, metadata !788, metadata !"nor_reduce", metadata !"nor_reduce", metadata !"_ZN11ap_int_baseILi1ELb0ELb1EE10nor_reduceEv", metadata !118, i32 2330, metadata !1019, i1 false, i1 false, i32 0, i32 0, null, i32 256, i1 false, null, null, i32 0, metadata !130, i32 2330} ; [ DW_TAG_subprogram ]
!1024 = metadata !{i32 786478, i32 0, metadata !788, metadata !"xor_reduce", metadata !"xor_reduce", metadata !"_ZN11ap_int_baseILi1ELb0ELb1EE10xor_reduceEv", metadata !118, i32 2333, metadata !1019, i1 false, i1 false, i32 0, i32 0, null, i32 256, i1 false, null, null, i32 0, metadata !130, i32 2333} ; [ DW_TAG_subprogram ]
!1025 = metadata !{i32 786478, i32 0, metadata !788, metadata !"xnor_reduce", metadata !"xnor_reduce", metadata !"_ZN11ap_int_baseILi1ELb0ELb1EE11xnor_reduceEv", metadata !118, i32 2336, metadata !1019, i1 false, i1 false, i32 0, i32 0, null, i32 256, i1 false, null, null, i32 0, metadata !130, i32 2336} ; [ DW_TAG_subprogram ]
!1026 = metadata !{i32 786478, i32 0, metadata !788, metadata !"and_reduce", metadata !"and_reduce", metadata !"_ZNK11ap_int_baseILi1ELb0ELb1EE10and_reduceEv", metadata !118, i32 2340, metadata !921, i1 false, i1 false, i32 0, i32 0, null, i32 256, i1 false, null, null, i32 0, metadata !130, i32 2340} ; [ DW_TAG_subprogram ]
!1027 = metadata !{i32 786478, i32 0, metadata !788, metadata !"nand_reduce", metadata !"nand_reduce", metadata !"_ZNK11ap_int_baseILi1ELb0ELb1EE11nand_reduceEv", metadata !118, i32 2343, metadata !921, i1 false, i1 false, i32 0, i32 0, null, i32 256, i1 false, null, null, i32 0, metadata !130, i32 2343} ; [ DW_TAG_subprogram ]
!1028 = metadata !{i32 786478, i32 0, metadata !788, metadata !"or_reduce", metadata !"or_reduce", metadata !"_ZNK11ap_int_baseILi1ELb0ELb1EE9or_reduceEv", metadata !118, i32 2346, metadata !921, i1 false, i1 false, i32 0, i32 0, null, i32 256, i1 false, null, null, i32 0, metadata !130, i32 2346} ; [ DW_TAG_subprogram ]
!1029 = metadata !{i32 786478, i32 0, metadata !788, metadata !"nor_reduce", metadata !"nor_reduce", metadata !"_ZNK11ap_int_baseILi1ELb0ELb1EE10nor_reduceEv", metadata !118, i32 2349, metadata !921, i1 false, i1 false, i32 0, i32 0, null, i32 256, i1 false, null, null, i32 0, metadata !130, i32 2349} ; [ DW_TAG_subprogram ]
!1030 = metadata !{i32 786478, i32 0, metadata !788, metadata !"xor_reduce", metadata !"xor_reduce", metadata !"_ZNK11ap_int_baseILi1ELb0ELb1EE10xor_reduceEv", metadata !118, i32 2352, metadata !921, i1 false, i1 false, i32 0, i32 0, null, i32 256, i1 false, null, null, i32 0, metadata !130, i32 2352} ; [ DW_TAG_subprogram ]
!1031 = metadata !{i32 786478, i32 0, metadata !788, metadata !"xnor_reduce", metadata !"xnor_reduce", metadata !"_ZNK11ap_int_baseILi1ELb0ELb1EE11xnor_reduceEv", metadata !118, i32 2355, metadata !921, i1 false, i1 false, i32 0, i32 0, null, i32 256, i1 false, null, null, i32 0, metadata !130, i32 2355} ; [ DW_TAG_subprogram ]
!1032 = metadata !{i32 786478, i32 0, metadata !788, metadata !"to_string", metadata !"to_string", metadata !"_ZNK11ap_int_baseILi1ELb0ELb1EE9to_stringEPci8BaseModeb", metadata !118, i32 2362, metadata !1033, i1 false, i1 false, i32 0, i32 0, null, i32 256, i1 false, null, null, i32 0, metadata !130, i32 2362} ; [ DW_TAG_subprogram ]
!1033 = metadata !{i32 786453, i32 0, metadata !"", i32 0, i32 0, i64 0, i64 0, i64 0, i32 0, null, metadata !1034, i32 0, i32 0} ; [ DW_TAG_subroutine_type ]
!1034 = metadata !{null, metadata !919, metadata !394, metadata !139, metadata !395, metadata !141}
!1035 = metadata !{i32 786478, i32 0, metadata !788, metadata !"to_string", metadata !"to_string", metadata !"_ZNK11ap_int_baseILi1ELb0ELb1EE9to_stringE8BaseModeb", metadata !118, i32 2389, metadata !1036, i1 false, i1 false, i32 0, i32 0, null, i32 256, i1 false, null, null, i32 0, metadata !130, i32 2389} ; [ DW_TAG_subprogram ]
!1036 = metadata !{i32 786453, i32 0, metadata !"", i32 0, i32 0, i64 0, i64 0, i64 0, i32 0, null, metadata !1037, i32 0, i32 0} ; [ DW_TAG_subroutine_type ]
!1037 = metadata !{metadata !394, metadata !919, metadata !395, metadata !141}
!1038 = metadata !{i32 786478, i32 0, metadata !788, metadata !"to_string", metadata !"to_string", metadata !"_ZNK11ap_int_baseILi1ELb0ELb1EE9to_stringEab", metadata !118, i32 2393, metadata !1039, i1 false, i1 false, i32 0, i32 0, null, i32 256, i1 false, null, null, i32 0, metadata !130, i32 2393} ; [ DW_TAG_subprogram ]
!1039 = metadata !{i32 786453, i32 0, metadata !"", i32 0, i32 0, i64 0, i64 0, i64 0, i32 0, null, metadata !1040, i32 0, i32 0} ; [ DW_TAG_subroutine_type ]
!1040 = metadata !{metadata !394, metadata !919, metadata !166, metadata !141}
!1041 = metadata !{metadata !1005, metadata !801, metadata !410}
!1042 = metadata !{i32 786478, i32 0, metadata !785, metadata !"ap_uint", metadata !"ap_uint", metadata !"", metadata !114, i32 186, metadata !1043, i1 false, i1 false, i32 0, i32 0, null, i32 256, i1 false, null, null, i32 0, metadata !130, i32 186} ; [ DW_TAG_subprogram ]
!1043 = metadata !{i32 786453, i32 0, metadata !"", i32 0, i32 0, i64 0, i64 0, i64 0, i32 0, null, metadata !1044, i32 0, i32 0} ; [ DW_TAG_subroutine_type ]
!1044 = metadata !{null, metadata !1045}
!1045 = metadata !{i32 786447, i32 0, metadata !"", i32 0, i32 0, i64 64, i64 64, i64 0, i32 64, metadata !785} ; [ DW_TAG_pointer_type ]
!1046 = metadata !{i32 786478, i32 0, metadata !785, metadata !"ap_uint<1>", metadata !"ap_uint<1>", metadata !"", metadata !114, i32 188, metadata !1047, i1 false, i1 false, i32 0, i32 0, null, i32 256, i1 false, null, metadata !1051, i32 0, metadata !130, i32 188} ; [ DW_TAG_subprogram ]
!1047 = metadata !{i32 786453, i32 0, metadata !"", i32 0, i32 0, i64 0, i64 0, i64 0, i32 0, null, metadata !1048, i32 0, i32 0} ; [ DW_TAG_subroutine_type ]
!1048 = metadata !{null, metadata !1045, metadata !1049}
!1049 = metadata !{i32 786448, null, null, null, i32 0, i64 0, i64 0, i64 0, i32 0, metadata !1050} ; [ DW_TAG_reference_type ]
!1050 = metadata !{i32 786470, null, metadata !"", null, i32 0, i64 0, i64 0, i64 0, i32 0, metadata !785} ; [ DW_TAG_const_type ]
!1051 = metadata !{metadata !632}
!1052 = metadata !{i32 786478, i32 0, metadata !785, metadata !"ap_uint<1>", metadata !"ap_uint<1>", metadata !"", metadata !114, i32 194, metadata !1053, i1 false, i1 false, i32 0, i32 0, null, i32 256, i1 false, null, metadata !1051, i32 0, metadata !130, i32 194} ; [ DW_TAG_subprogram ]
!1053 = metadata !{i32 786453, i32 0, metadata !"", i32 0, i32 0, i64 0, i64 0, i64 0, i32 0, null, metadata !1054, i32 0, i32 0} ; [ DW_TAG_subroutine_type ]
!1054 = metadata !{null, metadata !1045, metadata !1055}
!1055 = metadata !{i32 786448, null, null, null, i32 0, i64 0, i64 0, i64 0, i32 0, metadata !1056} ; [ DW_TAG_reference_type ]
!1056 = metadata !{i32 786470, null, metadata !"", null, i32 0, i64 0, i64 0, i64 0, i32 0, metadata !1057} ; [ DW_TAG_const_type ]
!1057 = metadata !{i32 786485, null, metadata !"", null, i32 0, i64 0, i64 0, i64 0, i32 0, metadata !785} ; [ DW_TAG_volatile_type ]
!1058 = metadata !{i32 786478, i32 0, metadata !785, metadata !"ap_uint<1, false>", metadata !"ap_uint<1, false>", metadata !"", metadata !114, i32 229, metadata !1059, i1 false, i1 false, i32 0, i32 0, null, i32 256, i1 false, null, metadata !631, i32 0, metadata !130, i32 229} ; [ DW_TAG_subprogram ]
!1059 = metadata !{i32 786453, i32 0, metadata !"", i32 0, i32 0, i64 0, i64 0, i64 0, i32 0, null, metadata !1060, i32 0, i32 0} ; [ DW_TAG_subroutine_type ]
!1060 = metadata !{null, metadata !1045, metadata !809}
!1061 = metadata !{i32 786478, i32 0, metadata !785, metadata !"ap_uint", metadata !"ap_uint", metadata !"", metadata !114, i32 248, metadata !1062, i1 false, i1 false, i32 0, i32 0, null, i32 256, i1 false, null, null, i32 0, metadata !130, i32 248} ; [ DW_TAG_subprogram ]
!1062 = metadata !{i32 786453, i32 0, metadata !"", i32 0, i32 0, i64 0, i64 0, i64 0, i32 0, null, metadata !1063, i32 0, i32 0} ; [ DW_TAG_subroutine_type ]
!1063 = metadata !{null, metadata !1045, metadata !141}
!1064 = metadata !{i32 786478, i32 0, metadata !785, metadata !"ap_uint", metadata !"ap_uint", metadata !"", metadata !114, i32 249, metadata !1065, i1 false, i1 false, i32 0, i32 0, null, i32 256, i1 false, null, null, i32 0, metadata !130, i32 249} ; [ DW_TAG_subprogram ]
!1065 = metadata !{i32 786453, i32 0, metadata !"", i32 0, i32 0, i64 0, i64 0, i64 0, i32 0, null, metadata !1066, i32 0, i32 0} ; [ DW_TAG_subroutine_type ]
!1066 = metadata !{null, metadata !1045, metadata !166}
!1067 = metadata !{i32 786478, i32 0, metadata !785, metadata !"ap_uint", metadata !"ap_uint", metadata !"", metadata !114, i32 250, metadata !1068, i1 false, i1 false, i32 0, i32 0, null, i32 256, i1 false, null, null, i32 0, metadata !130, i32 250} ; [ DW_TAG_subprogram ]
!1068 = metadata !{i32 786453, i32 0, metadata !"", i32 0, i32 0, i64 0, i64 0, i64 0, i32 0, null, metadata !1069, i32 0, i32 0} ; [ DW_TAG_subroutine_type ]
!1069 = metadata !{null, metadata !1045, metadata !170}
!1070 = metadata !{i32 786478, i32 0, metadata !785, metadata !"ap_uint", metadata !"ap_uint", metadata !"", metadata !114, i32 251, metadata !1071, i1 false, i1 false, i32 0, i32 0, null, i32 256, i1 false, null, null, i32 0, metadata !130, i32 251} ; [ DW_TAG_subprogram ]
!1071 = metadata !{i32 786453, i32 0, metadata !"", i32 0, i32 0, i64 0, i64 0, i64 0, i32 0, null, metadata !1072, i32 0, i32 0} ; [ DW_TAG_subroutine_type ]
!1072 = metadata !{null, metadata !1045, metadata !174}
!1073 = metadata !{i32 786478, i32 0, metadata !785, metadata !"ap_uint", metadata !"ap_uint", metadata !"", metadata !114, i32 252, metadata !1074, i1 false, i1 false, i32 0, i32 0, null, i32 256, i1 false, null, null, i32 0, metadata !130, i32 252} ; [ DW_TAG_subprogram ]
!1074 = metadata !{i32 786453, i32 0, metadata !"", i32 0, i32 0, i64 0, i64 0, i64 0, i32 0, null, metadata !1075, i32 0, i32 0} ; [ DW_TAG_subroutine_type ]
!1075 = metadata !{null, metadata !1045, metadata !178}
!1076 = metadata !{i32 786478, i32 0, metadata !785, metadata !"ap_uint", metadata !"ap_uint", metadata !"", metadata !114, i32 253, metadata !1077, i1 false, i1 false, i32 0, i32 0, null, i32 256, i1 false, null, null, i32 0, metadata !130, i32 253} ; [ DW_TAG_subprogram ]
!1077 = metadata !{i32 786453, i32 0, metadata !"", i32 0, i32 0, i64 0, i64 0, i64 0, i32 0, null, metadata !1078, i32 0, i32 0} ; [ DW_TAG_subroutine_type ]
!1078 = metadata !{null, metadata !1045, metadata !139}
!1079 = metadata !{i32 786478, i32 0, metadata !785, metadata !"ap_uint", metadata !"ap_uint", metadata !"", metadata !114, i32 254, metadata !1080, i1 false, i1 false, i32 0, i32 0, null, i32 256, i1 false, null, null, i32 0, metadata !130, i32 254} ; [ DW_TAG_subprogram ]
!1080 = metadata !{i32 786453, i32 0, metadata !"", i32 0, i32 0, i64 0, i64 0, i64 0, i32 0, null, metadata !1081, i32 0, i32 0} ; [ DW_TAG_subroutine_type ]
!1081 = metadata !{null, metadata !1045, metadata !185}
!1082 = metadata !{i32 786478, i32 0, metadata !785, metadata !"ap_uint", metadata !"ap_uint", metadata !"", metadata !114, i32 255, metadata !1083, i1 false, i1 false, i32 0, i32 0, null, i32 256, i1 false, null, null, i32 0, metadata !130, i32 255} ; [ DW_TAG_subprogram ]
!1083 = metadata !{i32 786453, i32 0, metadata !"", i32 0, i32 0, i64 0, i64 0, i64 0, i32 0, null, metadata !1084, i32 0, i32 0} ; [ DW_TAG_subroutine_type ]
!1084 = metadata !{null, metadata !1045, metadata !189}
!1085 = metadata !{i32 786478, i32 0, metadata !785, metadata !"ap_uint", metadata !"ap_uint", metadata !"", metadata !114, i32 256, metadata !1086, i1 false, i1 false, i32 0, i32 0, null, i32 256, i1 false, null, null, i32 0, metadata !130, i32 256} ; [ DW_TAG_subprogram ]
!1086 = metadata !{i32 786453, i32 0, metadata !"", i32 0, i32 0, i64 0, i64 0, i64 0, i32 0, null, metadata !1087, i32 0, i32 0} ; [ DW_TAG_subroutine_type ]
!1087 = metadata !{null, metadata !1045, metadata !193}
!1088 = metadata !{i32 786478, i32 0, metadata !785, metadata !"ap_uint", metadata !"ap_uint", metadata !"", metadata !114, i32 257, metadata !1089, i1 false, i1 false, i32 0, i32 0, null, i32 256, i1 false, null, null, i32 0, metadata !130, i32 257} ; [ DW_TAG_subprogram ]
!1089 = metadata !{i32 786453, i32 0, metadata !"", i32 0, i32 0, i64 0, i64 0, i64 0, i32 0, null, metadata !1090, i32 0, i32 0} ; [ DW_TAG_subroutine_type ]
!1090 = metadata !{null, metadata !1045, metadata !203}
!1091 = metadata !{i32 786478, i32 0, metadata !785, metadata !"ap_uint", metadata !"ap_uint", metadata !"", metadata !114, i32 258, metadata !1092, i1 false, i1 false, i32 0, i32 0, null, i32 256, i1 false, null, null, i32 0, metadata !130, i32 258} ; [ DW_TAG_subprogram ]
!1092 = metadata !{i32 786453, i32 0, metadata !"", i32 0, i32 0, i64 0, i64 0, i64 0, i32 0, null, metadata !1093, i32 0, i32 0} ; [ DW_TAG_subroutine_type ]
!1093 = metadata !{null, metadata !1045, metadata !198}
!1094 = metadata !{i32 786478, i32 0, metadata !785, metadata !"ap_uint", metadata !"ap_uint", metadata !"", metadata !114, i32 259, metadata !1095, i1 false, i1 false, i32 0, i32 0, null, i32 256, i1 false, null, null, i32 0, metadata !130, i32 259} ; [ DW_TAG_subprogram ]
!1095 = metadata !{i32 786453, i32 0, metadata !"", i32 0, i32 0, i64 0, i64 0, i64 0, i32 0, null, metadata !1096, i32 0, i32 0} ; [ DW_TAG_subroutine_type ]
!1096 = metadata !{null, metadata !1045, metadata !207}
!1097 = metadata !{i32 786478, i32 0, metadata !785, metadata !"ap_uint", metadata !"ap_uint", metadata !"", metadata !114, i32 260, metadata !1098, i1 false, i1 false, i32 0, i32 0, null, i32 256, i1 false, null, null, i32 0, metadata !130, i32 260} ; [ DW_TAG_subprogram ]
!1098 = metadata !{i32 786453, i32 0, metadata !"", i32 0, i32 0, i64 0, i64 0, i64 0, i32 0, null, metadata !1099, i32 0, i32 0} ; [ DW_TAG_subroutine_type ]
!1099 = metadata !{null, metadata !1045, metadata !212}
!1100 = metadata !{i32 786478, i32 0, metadata !785, metadata !"ap_uint", metadata !"ap_uint", metadata !"", metadata !114, i32 261, metadata !1101, i1 false, i1 false, i32 0, i32 0, null, i32 256, i1 false, null, null, i32 0, metadata !130, i32 261} ; [ DW_TAG_subprogram ]
!1101 = metadata !{i32 786453, i32 0, metadata !"", i32 0, i32 0, i64 0, i64 0, i64 0, i32 0, null, metadata !1102, i32 0, i32 0} ; [ DW_TAG_subroutine_type ]
!1102 = metadata !{null, metadata !1045, metadata !216}
!1103 = metadata !{i32 786478, i32 0, metadata !785, metadata !"ap_uint", metadata !"ap_uint", metadata !"", metadata !114, i32 263, metadata !1104, i1 false, i1 false, i32 0, i32 0, null, i32 256, i1 false, null, null, i32 0, metadata !130, i32 263} ; [ DW_TAG_subprogram ]
!1104 = metadata !{i32 786453, i32 0, metadata !"", i32 0, i32 0, i64 0, i64 0, i64 0, i32 0, null, metadata !1105, i32 0, i32 0} ; [ DW_TAG_subroutine_type ]
!1105 = metadata !{null, metadata !1045, metadata !220}
!1106 = metadata !{i32 786478, i32 0, metadata !785, metadata !"ap_uint", metadata !"ap_uint", metadata !"", metadata !114, i32 264, metadata !1107, i1 false, i1 false, i32 0, i32 0, null, i32 256, i1 false, null, null, i32 0, metadata !130, i32 264} ; [ DW_TAG_subprogram ]
!1107 = metadata !{i32 786453, i32 0, metadata !"", i32 0, i32 0, i64 0, i64 0, i64 0, i32 0, null, metadata !1108, i32 0, i32 0} ; [ DW_TAG_subroutine_type ]
!1108 = metadata !{null, metadata !1045, metadata !220, metadata !166}
!1109 = metadata !{i32 786478, i32 0, metadata !785, metadata !"operator=", metadata !"operator=", metadata !"_ZNV7ap_uintILi1EEaSERKS0_", metadata !114, i32 267, metadata !1110, i1 false, i1 false, i32 0, i32 0, null, i32 256, i1 false, null, null, i32 0, metadata !130, i32 267} ; [ DW_TAG_subprogram ]
!1110 = metadata !{i32 786453, i32 0, metadata !"", i32 0, i32 0, i64 0, i64 0, i64 0, i32 0, null, metadata !1111, i32 0, i32 0} ; [ DW_TAG_subroutine_type ]
!1111 = metadata !{null, metadata !1112, metadata !1049}
!1112 = metadata !{i32 786447, i32 0, metadata !"", i32 0, i32 0, i64 64, i64 64, i64 0, i32 64, metadata !1057} ; [ DW_TAG_pointer_type ]
!1113 = metadata !{i32 786478, i32 0, metadata !785, metadata !"operator=", metadata !"operator=", metadata !"_ZNV7ap_uintILi1EEaSERVKS0_", metadata !114, i32 271, metadata !1114, i1 false, i1 false, i32 0, i32 0, null, i32 256, i1 false, null, null, i32 0, metadata !130, i32 271} ; [ DW_TAG_subprogram ]
!1114 = metadata !{i32 786453, i32 0, metadata !"", i32 0, i32 0, i64 0, i64 0, i64 0, i32 0, null, metadata !1115, i32 0, i32 0} ; [ DW_TAG_subroutine_type ]
!1115 = metadata !{null, metadata !1112, metadata !1055}
!1116 = metadata !{i32 786478, i32 0, metadata !785, metadata !"operator=", metadata !"operator=", metadata !"_ZN7ap_uintILi1EEaSERVKS0_", metadata !114, i32 275, metadata !1117, i1 false, i1 false, i32 0, i32 0, null, i32 256, i1 false, null, null, i32 0, metadata !130, i32 275} ; [ DW_TAG_subprogram ]
!1117 = metadata !{i32 786453, i32 0, metadata !"", i32 0, i32 0, i64 0, i64 0, i64 0, i32 0, null, metadata !1118, i32 0, i32 0} ; [ DW_TAG_subroutine_type ]
!1118 = metadata !{metadata !1119, metadata !1045, metadata !1055}
!1119 = metadata !{i32 786448, null, null, null, i32 0, i64 0, i64 0, i64 0, i32 0, metadata !785} ; [ DW_TAG_reference_type ]
!1120 = metadata !{i32 786478, i32 0, metadata !785, metadata !"operator=", metadata !"operator=", metadata !"_ZN7ap_uintILi1EEaSERKS0_", metadata !114, i32 280, metadata !1121, i1 false, i1 false, i32 0, i32 0, null, i32 256, i1 false, null, null, i32 0, metadata !130, i32 280} ; [ DW_TAG_subprogram ]
!1121 = metadata !{i32 786453, i32 0, metadata !"", i32 0, i32 0, i64 0, i64 0, i64 0, i32 0, null, metadata !1122, i32 0, i32 0} ; [ DW_TAG_subroutine_type ]
!1122 = metadata !{metadata !1119, metadata !1045, metadata !1049}
!1123 = metadata !{metadata !1005}
!1124 = metadata !{i32 786445, metadata !110, metadata !"tkeep", metadata !101, i32 13, i64 8, i64 8, i64 72, i32 0, metadata !1125} ; [ DW_TAG_member ]
!1125 = metadata !{i32 786434, null, metadata !"ap_uint<8>", metadata !114, i32 183, i64 8, i64 8, i32 0, i32 0, null, metadata !1126, i32 0, null, metadata !1740} ; [ DW_TAG_class_type ]
!1126 = metadata !{metadata !1127, metadata !1659, metadata !1663, metadata !1669, metadata !1675, metadata !1678, metadata !1681, metadata !1684, metadata !1687, metadata !1690, metadata !1693, metadata !1696, metadata !1699, metadata !1702, metadata !1705, metadata !1708, metadata !1711, metadata !1714, metadata !1717, metadata !1720, metadata !1723, metadata !1726, metadata !1730, metadata !1733, metadata !1737}
!1127 = metadata !{i32 786460, metadata !1125, null, metadata !114, i32 0, i64 0, i64 0, i64 0, i32 0, metadata !1128} ; [ DW_TAG_inheritance ]
!1128 = metadata !{i32 786434, null, metadata !"ap_int_base<8, false, true>", metadata !118, i32 1453, i64 8, i64 8, i32 0, i32 0, null, metadata !1129, i32 0, null, metadata !1658} ; [ DW_TAG_class_type ]
!1129 = metadata !{metadata !1130, metadata !1140, metadata !1144, metadata !1151, metadata !1157, metadata !1160, metadata !1163, metadata !1166, metadata !1169, metadata !1172, metadata !1175, metadata !1178, metadata !1181, metadata !1184, metadata !1187, metadata !1190, metadata !1193, metadata !1196, metadata !1199, metadata !1202, metadata !1205, metadata !1209, metadata !1212, metadata !1215, metadata !1216, metadata !1220, metadata !1223, metadata !1226, metadata !1229, metadata !1232, metadata !1235, metadata !1238, metadata !1241, metadata !1244, metadata !1247, metadata !1250, metadata !1253, metadata !1258, metadata !1261, metadata !1264, metadata !1267, metadata !1270, metadata !1273, metadata !1276, metadata !1279, metadata !1282, metadata !1285, metadata !1288, metadata !1291, metadata !1294, metadata !1295, metadata !1299, metadata !1302, metadata !1303, metadata !1304, metadata !1305, metadata !1306, metadata !1307, metadata !1310, metadata !1311, metadata !1314, metadata !1315, metadata !1316, metadata !1317, metadata !1318, metadata !1319, metadata !1322, metadata !1323, metadata !1324, metadata !1327, metadata !1328, metadata !1331, metadata !1332, metadata !1617, metadata !1623, metadata !1624, metadata !1627, metadata !1628, metadata !1632, metadata !1633, metadata !1634, metadata !1635, metadata !1638, metadata !1639, metadata !1640, metadata !1641, metadata !1642, metadata !1643, metadata !1644, metadata !1645, metadata !1646, metadata !1647, metadata !1648, metadata !1649, metadata !1652, metadata !1655}
!1130 = metadata !{i32 786460, metadata !1128, null, metadata !118, i32 0, i64 0, i64 0, i64 0, i32 0, metadata !1131} ; [ DW_TAG_inheritance ]
!1131 = metadata !{i32 786434, null, metadata !"ssdm_int<8 + 1024 * 0, false>", metadata !122, i32 10, i64 8, i64 8, i32 0, i32 0, null, metadata !1132, i32 0, null, metadata !1139} ; [ DW_TAG_class_type ]
!1132 = metadata !{metadata !1133, metadata !1135}
!1133 = metadata !{i32 786445, metadata !1131, metadata !"V", metadata !122, i32 10, i64 8, i64 8, i64 0, i32 0, metadata !1134} ; [ DW_TAG_member ]
!1134 = metadata !{i32 786468, null, metadata !"uint8", null, i32 0, i64 8, i64 8, i64 0, i32 0, i32 7} ; [ DW_TAG_base_type ]
!1135 = metadata !{i32 786478, i32 0, metadata !1131, metadata !"ssdm_int", metadata !"ssdm_int", metadata !"", metadata !122, i32 10, metadata !1136, i1 false, i1 false, i32 0, i32 0, null, i32 256, i1 false, null, null, i32 0, metadata !130, i32 10} ; [ DW_TAG_subprogram ]
!1136 = metadata !{i32 786453, i32 0, metadata !"", i32 0, i32 0, i64 0, i64 0, i64 0, i32 0, null, metadata !1137, i32 0, i32 0} ; [ DW_TAG_subroutine_type ]
!1137 = metadata !{null, metadata !1138}
!1138 = metadata !{i32 786447, i32 0, metadata !"", i32 0, i32 0, i64 64, i64 64, i64 0, i32 64, metadata !1131} ; [ DW_TAG_pointer_type ]
!1139 = metadata !{metadata !282, metadata !801}
!1140 = metadata !{i32 786478, i32 0, metadata !1128, metadata !"ap_int_base", metadata !"ap_int_base", metadata !"", metadata !118, i32 1494, metadata !1141, i1 false, i1 false, i32 0, i32 0, null, i32 256, i1 false, null, null, i32 0, metadata !130, i32 1494} ; [ DW_TAG_subprogram ]
!1141 = metadata !{i32 786453, i32 0, metadata !"", i32 0, i32 0, i64 0, i64 0, i64 0, i32 0, null, metadata !1142, i32 0, i32 0} ; [ DW_TAG_subroutine_type ]
!1142 = metadata !{null, metadata !1143}
!1143 = metadata !{i32 786447, i32 0, metadata !"", i32 0, i32 0, i64 64, i64 64, i64 0, i32 64, metadata !1128} ; [ DW_TAG_pointer_type ]
!1144 = metadata !{i32 786478, i32 0, metadata !1128, metadata !"ap_int_base<8, false>", metadata !"ap_int_base<8, false>", metadata !"", metadata !118, i32 1506, metadata !1145, i1 false, i1 false, i32 0, i32 0, null, i32 256, i1 false, null, metadata !1149, i32 0, metadata !130, i32 1506} ; [ DW_TAG_subprogram ]
!1145 = metadata !{i32 786453, i32 0, metadata !"", i32 0, i32 0, i64 0, i64 0, i64 0, i32 0, null, metadata !1146, i32 0, i32 0} ; [ DW_TAG_subroutine_type ]
!1146 = metadata !{null, metadata !1143, metadata !1147}
!1147 = metadata !{i32 786448, null, null, null, i32 0, i64 0, i64 0, i64 0, i32 0, metadata !1148} ; [ DW_TAG_reference_type ]
!1148 = metadata !{i32 786470, null, metadata !"", null, i32 0, i64 0, i64 0, i64 0, i32 0, metadata !1128} ; [ DW_TAG_const_type ]
!1149 = metadata !{metadata !1150, metadata !633}
!1150 = metadata !{i32 786480, null, metadata !"_AP_W2", metadata !139, i64 8, null, i32 0, i32 0} ; [ DW_TAG_template_value_parameter ]
!1151 = metadata !{i32 786478, i32 0, metadata !1128, metadata !"ap_int_base<8, false>", metadata !"ap_int_base<8, false>", metadata !"", metadata !118, i32 1509, metadata !1152, i1 false, i1 false, i32 0, i32 0, null, i32 256, i1 false, null, metadata !1149, i32 0, metadata !130, i32 1509} ; [ DW_TAG_subprogram ]
!1152 = metadata !{i32 786453, i32 0, metadata !"", i32 0, i32 0, i64 0, i64 0, i64 0, i32 0, null, metadata !1153, i32 0, i32 0} ; [ DW_TAG_subroutine_type ]
!1153 = metadata !{null, metadata !1143, metadata !1154}
!1154 = metadata !{i32 786448, null, null, null, i32 0, i64 0, i64 0, i64 0, i32 0, metadata !1155} ; [ DW_TAG_reference_type ]
!1155 = metadata !{i32 786470, null, metadata !"", null, i32 0, i64 0, i64 0, i64 0, i32 0, metadata !1156} ; [ DW_TAG_const_type ]
!1156 = metadata !{i32 786485, null, metadata !"", null, i32 0, i64 0, i64 0, i64 0, i32 0, metadata !1128} ; [ DW_TAG_volatile_type ]
!1157 = metadata !{i32 786478, i32 0, metadata !1128, metadata !"ap_int_base", metadata !"ap_int_base", metadata !"", metadata !118, i32 1516, metadata !1158, i1 false, i1 false, i32 0, i32 0, null, i32 384, i1 false, null, null, i32 0, metadata !130, i32 1516} ; [ DW_TAG_subprogram ]
!1158 = metadata !{i32 786453, i32 0, metadata !"", i32 0, i32 0, i64 0, i64 0, i64 0, i32 0, null, metadata !1159, i32 0, i32 0} ; [ DW_TAG_subroutine_type ]
!1159 = metadata !{null, metadata !1143, metadata !141}
!1160 = metadata !{i32 786478, i32 0, metadata !1128, metadata !"ap_int_base", metadata !"ap_int_base", metadata !"", metadata !118, i32 1517, metadata !1161, i1 false, i1 false, i32 0, i32 0, null, i32 384, i1 false, null, null, i32 0, metadata !130, i32 1517} ; [ DW_TAG_subprogram ]
!1161 = metadata !{i32 786453, i32 0, metadata !"", i32 0, i32 0, i64 0, i64 0, i64 0, i32 0, null, metadata !1162, i32 0, i32 0} ; [ DW_TAG_subroutine_type ]
!1162 = metadata !{null, metadata !1143, metadata !166}
!1163 = metadata !{i32 786478, i32 0, metadata !1128, metadata !"ap_int_base", metadata !"ap_int_base", metadata !"", metadata !118, i32 1518, metadata !1164, i1 false, i1 false, i32 0, i32 0, null, i32 384, i1 false, null, null, i32 0, metadata !130, i32 1518} ; [ DW_TAG_subprogram ]
!1164 = metadata !{i32 786453, i32 0, metadata !"", i32 0, i32 0, i64 0, i64 0, i64 0, i32 0, null, metadata !1165, i32 0, i32 0} ; [ DW_TAG_subroutine_type ]
!1165 = metadata !{null, metadata !1143, metadata !170}
!1166 = metadata !{i32 786478, i32 0, metadata !1128, metadata !"ap_int_base", metadata !"ap_int_base", metadata !"", metadata !118, i32 1519, metadata !1167, i1 false, i1 false, i32 0, i32 0, null, i32 384, i1 false, null, null, i32 0, metadata !130, i32 1519} ; [ DW_TAG_subprogram ]
!1167 = metadata !{i32 786453, i32 0, metadata !"", i32 0, i32 0, i64 0, i64 0, i64 0, i32 0, null, metadata !1168, i32 0, i32 0} ; [ DW_TAG_subroutine_type ]
!1168 = metadata !{null, metadata !1143, metadata !174}
!1169 = metadata !{i32 786478, i32 0, metadata !1128, metadata !"ap_int_base", metadata !"ap_int_base", metadata !"", metadata !118, i32 1520, metadata !1170, i1 false, i1 false, i32 0, i32 0, null, i32 384, i1 false, null, null, i32 0, metadata !130, i32 1520} ; [ DW_TAG_subprogram ]
!1170 = metadata !{i32 786453, i32 0, metadata !"", i32 0, i32 0, i64 0, i64 0, i64 0, i32 0, null, metadata !1171, i32 0, i32 0} ; [ DW_TAG_subroutine_type ]
!1171 = metadata !{null, metadata !1143, metadata !178}
!1172 = metadata !{i32 786478, i32 0, metadata !1128, metadata !"ap_int_base", metadata !"ap_int_base", metadata !"", metadata !118, i32 1521, metadata !1173, i1 false, i1 false, i32 0, i32 0, null, i32 384, i1 false, null, null, i32 0, metadata !130, i32 1521} ; [ DW_TAG_subprogram ]
!1173 = metadata !{i32 786453, i32 0, metadata !"", i32 0, i32 0, i64 0, i64 0, i64 0, i32 0, null, metadata !1174, i32 0, i32 0} ; [ DW_TAG_subroutine_type ]
!1174 = metadata !{null, metadata !1143, metadata !139}
!1175 = metadata !{i32 786478, i32 0, metadata !1128, metadata !"ap_int_base", metadata !"ap_int_base", metadata !"", metadata !118, i32 1522, metadata !1176, i1 false, i1 false, i32 0, i32 0, null, i32 384, i1 false, null, null, i32 0, metadata !130, i32 1522} ; [ DW_TAG_subprogram ]
!1176 = metadata !{i32 786453, i32 0, metadata !"", i32 0, i32 0, i64 0, i64 0, i64 0, i32 0, null, metadata !1177, i32 0, i32 0} ; [ DW_TAG_subroutine_type ]
!1177 = metadata !{null, metadata !1143, metadata !185}
!1178 = metadata !{i32 786478, i32 0, metadata !1128, metadata !"ap_int_base", metadata !"ap_int_base", metadata !"", metadata !118, i32 1523, metadata !1179, i1 false, i1 false, i32 0, i32 0, null, i32 384, i1 false, null, null, i32 0, metadata !130, i32 1523} ; [ DW_TAG_subprogram ]
!1179 = metadata !{i32 786453, i32 0, metadata !"", i32 0, i32 0, i64 0, i64 0, i64 0, i32 0, null, metadata !1180, i32 0, i32 0} ; [ DW_TAG_subroutine_type ]
!1180 = metadata !{null, metadata !1143, metadata !189}
!1181 = metadata !{i32 786478, i32 0, metadata !1128, metadata !"ap_int_base", metadata !"ap_int_base", metadata !"", metadata !118, i32 1524, metadata !1182, i1 false, i1 false, i32 0, i32 0, null, i32 384, i1 false, null, null, i32 0, metadata !130, i32 1524} ; [ DW_TAG_subprogram ]
!1182 = metadata !{i32 786453, i32 0, metadata !"", i32 0, i32 0, i64 0, i64 0, i64 0, i32 0, null, metadata !1183, i32 0, i32 0} ; [ DW_TAG_subroutine_type ]
!1183 = metadata !{null, metadata !1143, metadata !193}
!1184 = metadata !{i32 786478, i32 0, metadata !1128, metadata !"ap_int_base", metadata !"ap_int_base", metadata !"", metadata !118, i32 1525, metadata !1185, i1 false, i1 false, i32 0, i32 0, null, i32 384, i1 false, null, null, i32 0, metadata !130, i32 1525} ; [ DW_TAG_subprogram ]
!1185 = metadata !{i32 786453, i32 0, metadata !"", i32 0, i32 0, i64 0, i64 0, i64 0, i32 0, null, metadata !1186, i32 0, i32 0} ; [ DW_TAG_subroutine_type ]
!1186 = metadata !{null, metadata !1143, metadata !197}
!1187 = metadata !{i32 786478, i32 0, metadata !1128, metadata !"ap_int_base", metadata !"ap_int_base", metadata !"", metadata !118, i32 1526, metadata !1188, i1 false, i1 false, i32 0, i32 0, null, i32 384, i1 false, null, null, i32 0, metadata !130, i32 1526} ; [ DW_TAG_subprogram ]
!1188 = metadata !{i32 786453, i32 0, metadata !"", i32 0, i32 0, i64 0, i64 0, i64 0, i32 0, null, metadata !1189, i32 0, i32 0} ; [ DW_TAG_subroutine_type ]
!1189 = metadata !{null, metadata !1143, metadata !202}
!1190 = metadata !{i32 786478, i32 0, metadata !1128, metadata !"ap_int_base", metadata !"ap_int_base", metadata !"", metadata !118, i32 1527, metadata !1191, i1 false, i1 false, i32 0, i32 0, null, i32 384, i1 false, null, null, i32 0, metadata !130, i32 1527} ; [ DW_TAG_subprogram ]
!1191 = metadata !{i32 786453, i32 0, metadata !"", i32 0, i32 0, i64 0, i64 0, i64 0, i32 0, null, metadata !1192, i32 0, i32 0} ; [ DW_TAG_subroutine_type ]
!1192 = metadata !{null, metadata !1143, metadata !207}
!1193 = metadata !{i32 786478, i32 0, metadata !1128, metadata !"ap_int_base", metadata !"ap_int_base", metadata !"", metadata !118, i32 1528, metadata !1194, i1 false, i1 false, i32 0, i32 0, null, i32 384, i1 false, null, null, i32 0, metadata !130, i32 1528} ; [ DW_TAG_subprogram ]
!1194 = metadata !{i32 786453, i32 0, metadata !"", i32 0, i32 0, i64 0, i64 0, i64 0, i32 0, null, metadata !1195, i32 0, i32 0} ; [ DW_TAG_subroutine_type ]
!1195 = metadata !{null, metadata !1143, metadata !212}
!1196 = metadata !{i32 786478, i32 0, metadata !1128, metadata !"ap_int_base", metadata !"ap_int_base", metadata !"", metadata !118, i32 1529, metadata !1197, i1 false, i1 false, i32 0, i32 0, null, i32 384, i1 false, null, null, i32 0, metadata !130, i32 1529} ; [ DW_TAG_subprogram ]
!1197 = metadata !{i32 786453, i32 0, metadata !"", i32 0, i32 0, i64 0, i64 0, i64 0, i32 0, null, metadata !1198, i32 0, i32 0} ; [ DW_TAG_subroutine_type ]
!1198 = metadata !{null, metadata !1143, metadata !216}
!1199 = metadata !{i32 786478, i32 0, metadata !1128, metadata !"ap_int_base", metadata !"ap_int_base", metadata !"", metadata !118, i32 1556, metadata !1200, i1 false, i1 false, i32 0, i32 0, null, i32 256, i1 false, null, null, i32 0, metadata !130, i32 1556} ; [ DW_TAG_subprogram ]
!1200 = metadata !{i32 786453, i32 0, metadata !"", i32 0, i32 0, i64 0, i64 0, i64 0, i32 0, null, metadata !1201, i32 0, i32 0} ; [ DW_TAG_subroutine_type ]
!1201 = metadata !{null, metadata !1143, metadata !220}
!1202 = metadata !{i32 786478, i32 0, metadata !1128, metadata !"ap_int_base", metadata !"ap_int_base", metadata !"", metadata !118, i32 1563, metadata !1203, i1 false, i1 false, i32 0, i32 0, null, i32 256, i1 false, null, null, i32 0, metadata !130, i32 1563} ; [ DW_TAG_subprogram ]
!1203 = metadata !{i32 786453, i32 0, metadata !"", i32 0, i32 0, i64 0, i64 0, i64 0, i32 0, null, metadata !1204, i32 0, i32 0} ; [ DW_TAG_subroutine_type ]
!1204 = metadata !{null, metadata !1143, metadata !220, metadata !166}
!1205 = metadata !{i32 786478, i32 0, metadata !1128, metadata !"read", metadata !"read", metadata !"_ZNV11ap_int_baseILi8ELb0ELb1EE4readEv", metadata !118, i32 1584, metadata !1206, i1 false, i1 false, i32 0, i32 0, null, i32 256, i1 false, null, null, i32 0, metadata !130, i32 1584} ; [ DW_TAG_subprogram ]
!1206 = metadata !{i32 786453, i32 0, metadata !"", i32 0, i32 0, i64 0, i64 0, i64 0, i32 0, null, metadata !1207, i32 0, i32 0} ; [ DW_TAG_subroutine_type ]
!1207 = metadata !{metadata !1128, metadata !1208}
!1208 = metadata !{i32 786447, i32 0, metadata !"", i32 0, i32 0, i64 64, i64 64, i64 0, i32 64, metadata !1156} ; [ DW_TAG_pointer_type ]
!1209 = metadata !{i32 786478, i32 0, metadata !1128, metadata !"write", metadata !"write", metadata !"_ZNV11ap_int_baseILi8ELb0ELb1EE5writeERKS0_", metadata !118, i32 1590, metadata !1210, i1 false, i1 false, i32 0, i32 0, null, i32 256, i1 false, null, null, i32 0, metadata !130, i32 1590} ; [ DW_TAG_subprogram ]
!1210 = metadata !{i32 786453, i32 0, metadata !"", i32 0, i32 0, i64 0, i64 0, i64 0, i32 0, null, metadata !1211, i32 0, i32 0} ; [ DW_TAG_subroutine_type ]
!1211 = metadata !{null, metadata !1208, metadata !1147}
!1212 = metadata !{i32 786478, i32 0, metadata !1128, metadata !"operator=", metadata !"operator=", metadata !"_ZNV11ap_int_baseILi8ELb0ELb1EEaSERVKS0_", metadata !118, i32 1602, metadata !1213, i1 false, i1 false, i32 0, i32 0, null, i32 256, i1 false, null, null, i32 0, metadata !130, i32 1602} ; [ DW_TAG_subprogram ]
!1213 = metadata !{i32 786453, i32 0, metadata !"", i32 0, i32 0, i64 0, i64 0, i64 0, i32 0, null, metadata !1214, i32 0, i32 0} ; [ DW_TAG_subroutine_type ]
!1214 = metadata !{null, metadata !1208, metadata !1154}
!1215 = metadata !{i32 786478, i32 0, metadata !1128, metadata !"operator=", metadata !"operator=", metadata !"_ZNV11ap_int_baseILi8ELb0ELb1EEaSERKS0_", metadata !118, i32 1611, metadata !1210, i1 false, i1 false, i32 0, i32 0, null, i32 256, i1 false, null, null, i32 0, metadata !130, i32 1611} ; [ DW_TAG_subprogram ]
!1216 = metadata !{i32 786478, i32 0, metadata !1128, metadata !"operator=", metadata !"operator=", metadata !"_ZN11ap_int_baseILi8ELb0ELb1EEaSERVKS0_", metadata !118, i32 1634, metadata !1217, i1 false, i1 false, i32 0, i32 0, null, i32 256, i1 false, null, null, i32 0, metadata !130, i32 1634} ; [ DW_TAG_subprogram ]
!1217 = metadata !{i32 786453, i32 0, metadata !"", i32 0, i32 0, i64 0, i64 0, i64 0, i32 0, null, metadata !1218, i32 0, i32 0} ; [ DW_TAG_subroutine_type ]
!1218 = metadata !{metadata !1219, metadata !1143, metadata !1154}
!1219 = metadata !{i32 786448, null, null, null, i32 0, i64 0, i64 0, i64 0, i32 0, metadata !1128} ; [ DW_TAG_reference_type ]
!1220 = metadata !{i32 786478, i32 0, metadata !1128, metadata !"operator=", metadata !"operator=", metadata !"_ZN11ap_int_baseILi8ELb0ELb1EEaSERKS0_", metadata !118, i32 1639, metadata !1221, i1 false, i1 false, i32 0, i32 0, null, i32 256, i1 false, null, null, i32 0, metadata !130, i32 1639} ; [ DW_TAG_subprogram ]
!1221 = metadata !{i32 786453, i32 0, metadata !"", i32 0, i32 0, i64 0, i64 0, i64 0, i32 0, null, metadata !1222, i32 0, i32 0} ; [ DW_TAG_subroutine_type ]
!1222 = metadata !{metadata !1219, metadata !1143, metadata !1147}
!1223 = metadata !{i32 786478, i32 0, metadata !1128, metadata !"operator=", metadata !"operator=", metadata !"_ZN11ap_int_baseILi8ELb0ELb1EEaSEPKc", metadata !118, i32 1643, metadata !1224, i1 false, i1 false, i32 0, i32 0, null, i32 256, i1 false, null, null, i32 0, metadata !130, i32 1643} ; [ DW_TAG_subprogram ]
!1224 = metadata !{i32 786453, i32 0, metadata !"", i32 0, i32 0, i64 0, i64 0, i64 0, i32 0, null, metadata !1225, i32 0, i32 0} ; [ DW_TAG_subroutine_type ]
!1225 = metadata !{metadata !1219, metadata !1143, metadata !220}
!1226 = metadata !{i32 786478, i32 0, metadata !1128, metadata !"set", metadata !"set", metadata !"_ZN11ap_int_baseILi8ELb0ELb1EE3setEPKca", metadata !118, i32 1651, metadata !1227, i1 false, i1 false, i32 0, i32 0, null, i32 256, i1 false, null, null, i32 0, metadata !130, i32 1651} ; [ DW_TAG_subprogram ]
!1227 = metadata !{i32 786453, i32 0, metadata !"", i32 0, i32 0, i64 0, i64 0, i64 0, i32 0, null, metadata !1228, i32 0, i32 0} ; [ DW_TAG_subroutine_type ]
!1228 = metadata !{metadata !1219, metadata !1143, metadata !220, metadata !166}
!1229 = metadata !{i32 786478, i32 0, metadata !1128, metadata !"operator=", metadata !"operator=", metadata !"_ZN11ap_int_baseILi8ELb0ELb1EEaSEa", metadata !118, i32 1665, metadata !1230, i1 false, i1 false, i32 0, i32 0, null, i32 256, i1 false, null, null, i32 0, metadata !130, i32 1665} ; [ DW_TAG_subprogram ]
!1230 = metadata !{i32 786453, i32 0, metadata !"", i32 0, i32 0, i64 0, i64 0, i64 0, i32 0, null, metadata !1231, i32 0, i32 0} ; [ DW_TAG_subroutine_type ]
!1231 = metadata !{metadata !1219, metadata !1143, metadata !166}
!1232 = metadata !{i32 786478, i32 0, metadata !1128, metadata !"operator=", metadata !"operator=", metadata !"_ZN11ap_int_baseILi8ELb0ELb1EEaSEh", metadata !118, i32 1666, metadata !1233, i1 false, i1 false, i32 0, i32 0, null, i32 256, i1 false, null, null, i32 0, metadata !130, i32 1666} ; [ DW_TAG_subprogram ]
!1233 = metadata !{i32 786453, i32 0, metadata !"", i32 0, i32 0, i64 0, i64 0, i64 0, i32 0, null, metadata !1234, i32 0, i32 0} ; [ DW_TAG_subroutine_type ]
!1234 = metadata !{metadata !1219, metadata !1143, metadata !170}
!1235 = metadata !{i32 786478, i32 0, metadata !1128, metadata !"operator=", metadata !"operator=", metadata !"_ZN11ap_int_baseILi8ELb0ELb1EEaSEs", metadata !118, i32 1667, metadata !1236, i1 false, i1 false, i32 0, i32 0, null, i32 256, i1 false, null, null, i32 0, metadata !130, i32 1667} ; [ DW_TAG_subprogram ]
!1236 = metadata !{i32 786453, i32 0, metadata !"", i32 0, i32 0, i64 0, i64 0, i64 0, i32 0, null, metadata !1237, i32 0, i32 0} ; [ DW_TAG_subroutine_type ]
!1237 = metadata !{metadata !1219, metadata !1143, metadata !174}
!1238 = metadata !{i32 786478, i32 0, metadata !1128, metadata !"operator=", metadata !"operator=", metadata !"_ZN11ap_int_baseILi8ELb0ELb1EEaSEt", metadata !118, i32 1668, metadata !1239, i1 false, i1 false, i32 0, i32 0, null, i32 256, i1 false, null, null, i32 0, metadata !130, i32 1668} ; [ DW_TAG_subprogram ]
!1239 = metadata !{i32 786453, i32 0, metadata !"", i32 0, i32 0, i64 0, i64 0, i64 0, i32 0, null, metadata !1240, i32 0, i32 0} ; [ DW_TAG_subroutine_type ]
!1240 = metadata !{metadata !1219, metadata !1143, metadata !178}
!1241 = metadata !{i32 786478, i32 0, metadata !1128, metadata !"operator=", metadata !"operator=", metadata !"_ZN11ap_int_baseILi8ELb0ELb1EEaSEi", metadata !118, i32 1669, metadata !1242, i1 false, i1 false, i32 0, i32 0, null, i32 256, i1 false, null, null, i32 0, metadata !130, i32 1669} ; [ DW_TAG_subprogram ]
!1242 = metadata !{i32 786453, i32 0, metadata !"", i32 0, i32 0, i64 0, i64 0, i64 0, i32 0, null, metadata !1243, i32 0, i32 0} ; [ DW_TAG_subroutine_type ]
!1243 = metadata !{metadata !1219, metadata !1143, metadata !139}
!1244 = metadata !{i32 786478, i32 0, metadata !1128, metadata !"operator=", metadata !"operator=", metadata !"_ZN11ap_int_baseILi8ELb0ELb1EEaSEj", metadata !118, i32 1670, metadata !1245, i1 false, i1 false, i32 0, i32 0, null, i32 256, i1 false, null, null, i32 0, metadata !130, i32 1670} ; [ DW_TAG_subprogram ]
!1245 = metadata !{i32 786453, i32 0, metadata !"", i32 0, i32 0, i64 0, i64 0, i64 0, i32 0, null, metadata !1246, i32 0, i32 0} ; [ DW_TAG_subroutine_type ]
!1246 = metadata !{metadata !1219, metadata !1143, metadata !185}
!1247 = metadata !{i32 786478, i32 0, metadata !1128, metadata !"operator=", metadata !"operator=", metadata !"_ZN11ap_int_baseILi8ELb0ELb1EEaSEx", metadata !118, i32 1671, metadata !1248, i1 false, i1 false, i32 0, i32 0, null, i32 256, i1 false, null, null, i32 0, metadata !130, i32 1671} ; [ DW_TAG_subprogram ]
!1248 = metadata !{i32 786453, i32 0, metadata !"", i32 0, i32 0, i64 0, i64 0, i64 0, i32 0, null, metadata !1249, i32 0, i32 0} ; [ DW_TAG_subroutine_type ]
!1249 = metadata !{metadata !1219, metadata !1143, metadata !197}
!1250 = metadata !{i32 786478, i32 0, metadata !1128, metadata !"operator=", metadata !"operator=", metadata !"_ZN11ap_int_baseILi8ELb0ELb1EEaSEy", metadata !118, i32 1672, metadata !1251, i1 false, i1 false, i32 0, i32 0, null, i32 256, i1 false, null, null, i32 0, metadata !130, i32 1672} ; [ DW_TAG_subprogram ]
!1251 = metadata !{i32 786453, i32 0, metadata !"", i32 0, i32 0, i64 0, i64 0, i64 0, i32 0, null, metadata !1252, i32 0, i32 0} ; [ DW_TAG_subroutine_type ]
!1252 = metadata !{metadata !1219, metadata !1143, metadata !202}
!1253 = metadata !{i32 786478, i32 0, metadata !1128, metadata !"operator unsigned char", metadata !"operator unsigned char", metadata !"_ZNK11ap_int_baseILi8ELb0ELb1EEcvhEv", metadata !118, i32 1710, metadata !1254, i1 false, i1 false, i32 0, i32 0, null, i32 256, i1 false, null, null, i32 0, metadata !130, i32 1710} ; [ DW_TAG_subprogram ]
!1254 = metadata !{i32 786453, i32 0, metadata !"", i32 0, i32 0, i64 0, i64 0, i64 0, i32 0, null, metadata !1255, i32 0, i32 0} ; [ DW_TAG_subroutine_type ]
!1255 = metadata !{metadata !1256, metadata !1257}
!1256 = metadata !{i32 786454, metadata !1128, metadata !"RetType", metadata !118, i32 1458, i64 0, i64 0, i64 0, i32 0, metadata !917} ; [ DW_TAG_typedef ]
!1257 = metadata !{i32 786447, i32 0, metadata !"", i32 0, i32 0, i64 64, i64 64, i64 0, i32 64, metadata !1148} ; [ DW_TAG_pointer_type ]
!1258 = metadata !{i32 786478, i32 0, metadata !1128, metadata !"to_bool", metadata !"to_bool", metadata !"_ZNK11ap_int_baseILi8ELb0ELb1EE7to_boolEv", metadata !118, i32 1716, metadata !1259, i1 false, i1 false, i32 0, i32 0, null, i32 256, i1 false, null, null, i32 0, metadata !130, i32 1716} ; [ DW_TAG_subprogram ]
!1259 = metadata !{i32 786453, i32 0, metadata !"", i32 0, i32 0, i64 0, i64 0, i64 0, i32 0, null, metadata !1260, i32 0, i32 0} ; [ DW_TAG_subroutine_type ]
!1260 = metadata !{metadata !141, metadata !1257}
!1261 = metadata !{i32 786478, i32 0, metadata !1128, metadata !"to_uchar", metadata !"to_uchar", metadata !"_ZNK11ap_int_baseILi8ELb0ELb1EE8to_ucharEv", metadata !118, i32 1717, metadata !1262, i1 false, i1 false, i32 0, i32 0, null, i32 256, i1 false, null, null, i32 0, metadata !130, i32 1717} ; [ DW_TAG_subprogram ]
!1262 = metadata !{i32 786453, i32 0, metadata !"", i32 0, i32 0, i64 0, i64 0, i64 0, i32 0, null, metadata !1263, i32 0, i32 0} ; [ DW_TAG_subroutine_type ]
!1263 = metadata !{metadata !170, metadata !1257}
!1264 = metadata !{i32 786478, i32 0, metadata !1128, metadata !"to_char", metadata !"to_char", metadata !"_ZNK11ap_int_baseILi8ELb0ELb1EE7to_charEv", metadata !118, i32 1718, metadata !1265, i1 false, i1 false, i32 0, i32 0, null, i32 256, i1 false, null, null, i32 0, metadata !130, i32 1718} ; [ DW_TAG_subprogram ]
!1265 = metadata !{i32 786453, i32 0, metadata !"", i32 0, i32 0, i64 0, i64 0, i64 0, i32 0, null, metadata !1266, i32 0, i32 0} ; [ DW_TAG_subroutine_type ]
!1266 = metadata !{metadata !166, metadata !1257}
!1267 = metadata !{i32 786478, i32 0, metadata !1128, metadata !"to_ushort", metadata !"to_ushort", metadata !"_ZNK11ap_int_baseILi8ELb0ELb1EE9to_ushortEv", metadata !118, i32 1719, metadata !1268, i1 false, i1 false, i32 0, i32 0, null, i32 256, i1 false, null, null, i32 0, metadata !130, i32 1719} ; [ DW_TAG_subprogram ]
!1268 = metadata !{i32 786453, i32 0, metadata !"", i32 0, i32 0, i64 0, i64 0, i64 0, i32 0, null, metadata !1269, i32 0, i32 0} ; [ DW_TAG_subroutine_type ]
!1269 = metadata !{metadata !178, metadata !1257}
!1270 = metadata !{i32 786478, i32 0, metadata !1128, metadata !"to_short", metadata !"to_short", metadata !"_ZNK11ap_int_baseILi8ELb0ELb1EE8to_shortEv", metadata !118, i32 1720, metadata !1271, i1 false, i1 false, i32 0, i32 0, null, i32 256, i1 false, null, null, i32 0, metadata !130, i32 1720} ; [ DW_TAG_subprogram ]
!1271 = metadata !{i32 786453, i32 0, metadata !"", i32 0, i32 0, i64 0, i64 0, i64 0, i32 0, null, metadata !1272, i32 0, i32 0} ; [ DW_TAG_subroutine_type ]
!1272 = metadata !{metadata !174, metadata !1257}
!1273 = metadata !{i32 786478, i32 0, metadata !1128, metadata !"to_int", metadata !"to_int", metadata !"_ZNK11ap_int_baseILi8ELb0ELb1EE6to_intEv", metadata !118, i32 1721, metadata !1274, i1 false, i1 false, i32 0, i32 0, null, i32 256, i1 false, null, null, i32 0, metadata !130, i32 1721} ; [ DW_TAG_subprogram ]
!1274 = metadata !{i32 786453, i32 0, metadata !"", i32 0, i32 0, i64 0, i64 0, i64 0, i32 0, null, metadata !1275, i32 0, i32 0} ; [ DW_TAG_subroutine_type ]
!1275 = metadata !{metadata !139, metadata !1257}
!1276 = metadata !{i32 786478, i32 0, metadata !1128, metadata !"to_uint", metadata !"to_uint", metadata !"_ZNK11ap_int_baseILi8ELb0ELb1EE7to_uintEv", metadata !118, i32 1722, metadata !1277, i1 false, i1 false, i32 0, i32 0, null, i32 256, i1 false, null, null, i32 0, metadata !130, i32 1722} ; [ DW_TAG_subprogram ]
!1277 = metadata !{i32 786453, i32 0, metadata !"", i32 0, i32 0, i64 0, i64 0, i64 0, i32 0, null, metadata !1278, i32 0, i32 0} ; [ DW_TAG_subroutine_type ]
!1278 = metadata !{metadata !185, metadata !1257}
!1279 = metadata !{i32 786478, i32 0, metadata !1128, metadata !"to_long", metadata !"to_long", metadata !"_ZNK11ap_int_baseILi8ELb0ELb1EE7to_longEv", metadata !118, i32 1723, metadata !1280, i1 false, i1 false, i32 0, i32 0, null, i32 256, i1 false, null, null, i32 0, metadata !130, i32 1723} ; [ DW_TAG_subprogram ]
!1280 = metadata !{i32 786453, i32 0, metadata !"", i32 0, i32 0, i64 0, i64 0, i64 0, i32 0, null, metadata !1281, i32 0, i32 0} ; [ DW_TAG_subroutine_type ]
!1281 = metadata !{metadata !189, metadata !1257}
!1282 = metadata !{i32 786478, i32 0, metadata !1128, metadata !"to_ulong", metadata !"to_ulong", metadata !"_ZNK11ap_int_baseILi8ELb0ELb1EE8to_ulongEv", metadata !118, i32 1724, metadata !1283, i1 false, i1 false, i32 0, i32 0, null, i32 256, i1 false, null, null, i32 0, metadata !130, i32 1724} ; [ DW_TAG_subprogram ]
!1283 = metadata !{i32 786453, i32 0, metadata !"", i32 0, i32 0, i64 0, i64 0, i64 0, i32 0, null, metadata !1284, i32 0, i32 0} ; [ DW_TAG_subroutine_type ]
!1284 = metadata !{metadata !193, metadata !1257}
!1285 = metadata !{i32 786478, i32 0, metadata !1128, metadata !"to_int64", metadata !"to_int64", metadata !"_ZNK11ap_int_baseILi8ELb0ELb1EE8to_int64Ev", metadata !118, i32 1725, metadata !1286, i1 false, i1 false, i32 0, i32 0, null, i32 256, i1 false, null, null, i32 0, metadata !130, i32 1725} ; [ DW_TAG_subprogram ]
!1286 = metadata !{i32 786453, i32 0, metadata !"", i32 0, i32 0, i64 0, i64 0, i64 0, i32 0, null, metadata !1287, i32 0, i32 0} ; [ DW_TAG_subroutine_type ]
!1287 = metadata !{metadata !197, metadata !1257}
!1288 = metadata !{i32 786478, i32 0, metadata !1128, metadata !"to_uint64", metadata !"to_uint64", metadata !"_ZNK11ap_int_baseILi8ELb0ELb1EE9to_uint64Ev", metadata !118, i32 1726, metadata !1289, i1 false, i1 false, i32 0, i32 0, null, i32 256, i1 false, null, null, i32 0, metadata !130, i32 1726} ; [ DW_TAG_subprogram ]
!1289 = metadata !{i32 786453, i32 0, metadata !"", i32 0, i32 0, i64 0, i64 0, i64 0, i32 0, null, metadata !1290, i32 0, i32 0} ; [ DW_TAG_subroutine_type ]
!1290 = metadata !{metadata !202, metadata !1257}
!1291 = metadata !{i32 786478, i32 0, metadata !1128, metadata !"to_double", metadata !"to_double", metadata !"_ZNK11ap_int_baseILi8ELb0ELb1EE9to_doubleEv", metadata !118, i32 1727, metadata !1292, i1 false, i1 false, i32 0, i32 0, null, i32 256, i1 false, null, null, i32 0, metadata !130, i32 1727} ; [ DW_TAG_subprogram ]
!1292 = metadata !{i32 786453, i32 0, metadata !"", i32 0, i32 0, i64 0, i64 0, i64 0, i32 0, null, metadata !1293, i32 0, i32 0} ; [ DW_TAG_subroutine_type ]
!1293 = metadata !{metadata !216, metadata !1257}
!1294 = metadata !{i32 786478, i32 0, metadata !1128, metadata !"length", metadata !"length", metadata !"_ZNK11ap_int_baseILi8ELb0ELb1EE6lengthEv", metadata !118, i32 1741, metadata !1274, i1 false, i1 false, i32 0, i32 0, null, i32 256, i1 false, null, null, i32 0, metadata !130, i32 1741} ; [ DW_TAG_subprogram ]
!1295 = metadata !{i32 786478, i32 0, metadata !1128, metadata !"length", metadata !"length", metadata !"_ZNVK11ap_int_baseILi8ELb0ELb1EE6lengthEv", metadata !118, i32 1742, metadata !1296, i1 false, i1 false, i32 0, i32 0, null, i32 256, i1 false, null, null, i32 0, metadata !130, i32 1742} ; [ DW_TAG_subprogram ]
!1296 = metadata !{i32 786453, i32 0, metadata !"", i32 0, i32 0, i64 0, i64 0, i64 0, i32 0, null, metadata !1297, i32 0, i32 0} ; [ DW_TAG_subroutine_type ]
!1297 = metadata !{metadata !139, metadata !1298}
!1298 = metadata !{i32 786447, i32 0, metadata !"", i32 0, i32 0, i64 64, i64 64, i64 0, i32 64, metadata !1155} ; [ DW_TAG_pointer_type ]
!1299 = metadata !{i32 786478, i32 0, metadata !1128, metadata !"reverse", metadata !"reverse", metadata !"_ZN11ap_int_baseILi8ELb0ELb1EE7reverseEv", metadata !118, i32 1747, metadata !1300, i1 false, i1 false, i32 0, i32 0, null, i32 256, i1 false, null, null, i32 0, metadata !130, i32 1747} ; [ DW_TAG_subprogram ]
!1300 = metadata !{i32 786453, i32 0, metadata !"", i32 0, i32 0, i64 0, i64 0, i64 0, i32 0, null, metadata !1301, i32 0, i32 0} ; [ DW_TAG_subroutine_type ]
!1301 = metadata !{metadata !1219, metadata !1143}
!1302 = metadata !{i32 786478, i32 0, metadata !1128, metadata !"iszero", metadata !"iszero", metadata !"_ZNK11ap_int_baseILi8ELb0ELb1EE6iszeroEv", metadata !118, i32 1753, metadata !1259, i1 false, i1 false, i32 0, i32 0, null, i32 256, i1 false, null, null, i32 0, metadata !130, i32 1753} ; [ DW_TAG_subprogram ]
!1303 = metadata !{i32 786478, i32 0, metadata !1128, metadata !"is_zero", metadata !"is_zero", metadata !"_ZNK11ap_int_baseILi8ELb0ELb1EE7is_zeroEv", metadata !118, i32 1758, metadata !1259, i1 false, i1 false, i32 0, i32 0, null, i32 256, i1 false, null, null, i32 0, metadata !130, i32 1758} ; [ DW_TAG_subprogram ]
!1304 = metadata !{i32 786478, i32 0, metadata !1128, metadata !"sign", metadata !"sign", metadata !"_ZNK11ap_int_baseILi8ELb0ELb1EE4signEv", metadata !118, i32 1763, metadata !1259, i1 false, i1 false, i32 0, i32 0, null, i32 256, i1 false, null, null, i32 0, metadata !130, i32 1763} ; [ DW_TAG_subprogram ]
!1305 = metadata !{i32 786478, i32 0, metadata !1128, metadata !"clear", metadata !"clear", metadata !"_ZN11ap_int_baseILi8ELb0ELb1EE5clearEi", metadata !118, i32 1771, metadata !1173, i1 false, i1 false, i32 0, i32 0, null, i32 256, i1 false, null, null, i32 0, metadata !130, i32 1771} ; [ DW_TAG_subprogram ]
!1306 = metadata !{i32 786478, i32 0, metadata !1128, metadata !"invert", metadata !"invert", metadata !"_ZN11ap_int_baseILi8ELb0ELb1EE6invertEi", metadata !118, i32 1777, metadata !1173, i1 false, i1 false, i32 0, i32 0, null, i32 256, i1 false, null, null, i32 0, metadata !130, i32 1777} ; [ DW_TAG_subprogram ]
!1307 = metadata !{i32 786478, i32 0, metadata !1128, metadata !"test", metadata !"test", metadata !"_ZNK11ap_int_baseILi8ELb0ELb1EE4testEi", metadata !118, i32 1785, metadata !1308, i1 false, i1 false, i32 0, i32 0, null, i32 256, i1 false, null, null, i32 0, metadata !130, i32 1785} ; [ DW_TAG_subprogram ]
!1308 = metadata !{i32 786453, i32 0, metadata !"", i32 0, i32 0, i64 0, i64 0, i64 0, i32 0, null, metadata !1309, i32 0, i32 0} ; [ DW_TAG_subroutine_type ]
!1309 = metadata !{metadata !141, metadata !1257, metadata !139}
!1310 = metadata !{i32 786478, i32 0, metadata !1128, metadata !"set", metadata !"set", metadata !"_ZN11ap_int_baseILi8ELb0ELb1EE3setEi", metadata !118, i32 1791, metadata !1173, i1 false, i1 false, i32 0, i32 0, null, i32 256, i1 false, null, null, i32 0, metadata !130, i32 1791} ; [ DW_TAG_subprogram ]
!1311 = metadata !{i32 786478, i32 0, metadata !1128, metadata !"set", metadata !"set", metadata !"_ZN11ap_int_baseILi8ELb0ELb1EE3setEib", metadata !118, i32 1797, metadata !1312, i1 false, i1 false, i32 0, i32 0, null, i32 256, i1 false, null, null, i32 0, metadata !130, i32 1797} ; [ DW_TAG_subprogram ]
!1312 = metadata !{i32 786453, i32 0, metadata !"", i32 0, i32 0, i64 0, i64 0, i64 0, i32 0, null, metadata !1313, i32 0, i32 0} ; [ DW_TAG_subroutine_type ]
!1313 = metadata !{null, metadata !1143, metadata !139, metadata !141}
!1314 = metadata !{i32 786478, i32 0, metadata !1128, metadata !"lrotate", metadata !"lrotate", metadata !"_ZN11ap_int_baseILi8ELb0ELb1EE7lrotateEi", metadata !118, i32 1804, metadata !1173, i1 false, i1 false, i32 0, i32 0, null, i32 256, i1 false, null, null, i32 0, metadata !130, i32 1804} ; [ DW_TAG_subprogram ]
!1315 = metadata !{i32 786478, i32 0, metadata !1128, metadata !"rrotate", metadata !"rrotate", metadata !"_ZN11ap_int_baseILi8ELb0ELb1EE7rrotateEi", metadata !118, i32 1813, metadata !1173, i1 false, i1 false, i32 0, i32 0, null, i32 256, i1 false, null, null, i32 0, metadata !130, i32 1813} ; [ DW_TAG_subprogram ]
!1316 = metadata !{i32 786478, i32 0, metadata !1128, metadata !"set_bit", metadata !"set_bit", metadata !"_ZN11ap_int_baseILi8ELb0ELb1EE7set_bitEib", metadata !118, i32 1821, metadata !1312, i1 false, i1 false, i32 0, i32 0, null, i32 256, i1 false, null, null, i32 0, metadata !130, i32 1821} ; [ DW_TAG_subprogram ]
!1317 = metadata !{i32 786478, i32 0, metadata !1128, metadata !"get_bit", metadata !"get_bit", metadata !"_ZNK11ap_int_baseILi8ELb0ELb1EE7get_bitEi", metadata !118, i32 1826, metadata !1308, i1 false, i1 false, i32 0, i32 0, null, i32 256, i1 false, null, null, i32 0, metadata !130, i32 1826} ; [ DW_TAG_subprogram ]
!1318 = metadata !{i32 786478, i32 0, metadata !1128, metadata !"b_not", metadata !"b_not", metadata !"_ZN11ap_int_baseILi8ELb0ELb1EE5b_notEv", metadata !118, i32 1831, metadata !1141, i1 false, i1 false, i32 0, i32 0, null, i32 256, i1 false, null, null, i32 0, metadata !130, i32 1831} ; [ DW_TAG_subprogram ]
!1319 = metadata !{i32 786478, i32 0, metadata !1128, metadata !"countLeadingZeros", metadata !"countLeadingZeros", metadata !"_ZN11ap_int_baseILi8ELb0ELb1EE17countLeadingZerosEv", metadata !118, i32 1838, metadata !1320, i1 false, i1 false, i32 0, i32 0, null, i32 256, i1 false, null, null, i32 0, metadata !130, i32 1838} ; [ DW_TAG_subprogram ]
!1320 = metadata !{i32 786453, i32 0, metadata !"", i32 0, i32 0, i64 0, i64 0, i64 0, i32 0, null, metadata !1321, i32 0, i32 0} ; [ DW_TAG_subroutine_type ]
!1321 = metadata !{metadata !139, metadata !1143}
!1322 = metadata !{i32 786478, i32 0, metadata !1128, metadata !"operator++", metadata !"operator++", metadata !"_ZN11ap_int_baseILi8ELb0ELb1EEppEv", metadata !118, i32 1895, metadata !1300, i1 false, i1 false, i32 0, i32 0, null, i32 256, i1 false, null, null, i32 0, metadata !130, i32 1895} ; [ DW_TAG_subprogram ]
!1323 = metadata !{i32 786478, i32 0, metadata !1128, metadata !"operator--", metadata !"operator--", metadata !"_ZN11ap_int_baseILi8ELb0ELb1EEmmEv", metadata !118, i32 1899, metadata !1300, i1 false, i1 false, i32 0, i32 0, null, i32 256, i1 false, null, null, i32 0, metadata !130, i32 1899} ; [ DW_TAG_subprogram ]
!1324 = metadata !{i32 786478, i32 0, metadata !1128, metadata !"operator++", metadata !"operator++", metadata !"_ZN11ap_int_baseILi8ELb0ELb1EEppEi", metadata !118, i32 1907, metadata !1325, i1 false, i1 false, i32 0, i32 0, null, i32 256, i1 false, null, null, i32 0, metadata !130, i32 1907} ; [ DW_TAG_subprogram ]
!1325 = metadata !{i32 786453, i32 0, metadata !"", i32 0, i32 0, i64 0, i64 0, i64 0, i32 0, null, metadata !1326, i32 0, i32 0} ; [ DW_TAG_subroutine_type ]
!1326 = metadata !{metadata !1148, metadata !1143, metadata !139}
!1327 = metadata !{i32 786478, i32 0, metadata !1128, metadata !"operator--", metadata !"operator--", metadata !"_ZN11ap_int_baseILi8ELb0ELb1EEmmEi", metadata !118, i32 1912, metadata !1325, i1 false, i1 false, i32 0, i32 0, null, i32 256, i1 false, null, null, i32 0, metadata !130, i32 1912} ; [ DW_TAG_subprogram ]
!1328 = metadata !{i32 786478, i32 0, metadata !1128, metadata !"operator+", metadata !"operator+", metadata !"_ZNK11ap_int_baseILi8ELb0ELb1EEpsEv", metadata !118, i32 1921, metadata !1329, i1 false, i1 false, i32 0, i32 0, null, i32 256, i1 false, null, null, i32 0, metadata !130, i32 1921} ; [ DW_TAG_subprogram ]
!1329 = metadata !{i32 786453, i32 0, metadata !"", i32 0, i32 0, i64 0, i64 0, i64 0, i32 0, null, metadata !1330, i32 0, i32 0} ; [ DW_TAG_subroutine_type ]
!1330 = metadata !{metadata !1128, metadata !1257}
!1331 = metadata !{i32 786478, i32 0, metadata !1128, metadata !"operator!", metadata !"operator!", metadata !"_ZNK11ap_int_baseILi8ELb0ELb1EEntEv", metadata !118, i32 1927, metadata !1259, i1 false, i1 false, i32 0, i32 0, null, i32 256, i1 false, null, null, i32 0, metadata !130, i32 1927} ; [ DW_TAG_subprogram ]
!1332 = metadata !{i32 786478, i32 0, metadata !1128, metadata !"operator-", metadata !"operator-", metadata !"_ZNK11ap_int_baseILi8ELb0ELb1EEngEv", metadata !118, i32 1932, metadata !1333, i1 false, i1 false, i32 0, i32 0, null, i32 256, i1 false, null, null, i32 0, metadata !130, i32 1932} ; [ DW_TAG_subprogram ]
!1333 = metadata !{i32 786453, i32 0, metadata !"", i32 0, i32 0, i64 0, i64 0, i64 0, i32 0, null, metadata !1334, i32 0, i32 0} ; [ DW_TAG_subroutine_type ]
!1334 = metadata !{metadata !1335, metadata !1257}
!1335 = metadata !{i32 786434, null, metadata !"ap_int_base<9, true, true>", metadata !118, i32 1453, i64 16, i64 16, i32 0, i32 0, null, metadata !1336, i32 0, null, metadata !1616} ; [ DW_TAG_class_type ]
