; ModuleID = '/home/tarafdar/workDir/galapagos/userIP/md1/solution1/.autopilot/db/a.o.3.bc'
target datalayout = "e-p:64:64:64-i1:8:8-i8:8:8-i16:16:16-i32:32:32-i64:64:64-f32:32:32-f64:64:64-v64:64:64-v128:128:128-a0:0:64-s0:64:64-f80:128:128-n8:16:32:64-S128"
target triple = "x86_64-unknown-linux-gnu"

@world_rank = global i32 0, align 4               ; [#uses=1 type=i32*]
@stream_out_V_user_V = global i40 0               ; [#uses=0 type=i40*]
@stream_out_V_last_V = global i1 false            ; [#uses=0 type=i1*]
@stream_out_V_id_V = global i8 0                  ; [#uses=0 type=i8*]
@stream_out_V_dest_V = global i8 0                ; [#uses=0 type=i8*]
@stream_out_V_data_V = global i64 0               ; [#uses=0 type=i64*]
@stream_out_V = global i121 0                     ; [#uses=1 type=i121*]
@stream_in_V_user_V = global i40 0                ; [#uses=0 type=i40*]
@stream_in_V_last_V = global i1 false             ; [#uses=0 type=i1*]
@stream_in_V_id_V = global i8 0                   ; [#uses=0 type=i8*]
@stream_in_V_dest_V = global i8 0                 ; [#uses=0 type=i8*]
@stream_in_V_data_V = global i64 0                ; [#uses=0 type=i64*]
@stream_in_V = global i121 0                      ; [#uses=1 type=i121*]
@start_time = global i64 0, align 8               ; [#uses=0 type=i64*]
@processorCount = global i32 0, align 4           ; [#uses=1 type=i32*]
@md1_str = internal unnamed_addr constant [4 x i8] c"md1\00" ; [#uses=1 type=[4 x i8]*]
@llvm_global_ctors_1 = appending global [4 x void ()*] [void ()* @_GLOBAL__I_a, void ()* @_GLOBAL__I_a10, void ()* @_GLOBAL__I_a16, void ()* @_GLOBAL__I_a22] ; [#uses=0 type=[4 x void ()*]*]
@llvm_global_ctors_0 = appending global [4 x i32] [i32 65535, i32 65535, i32 65535, i32 65535] ; [#uses=0 type=[4 x i32]*]
@id_in_V = global i16 0                           ; [#uses=1 type=i16*]
@end_time = global i64 0, align 8                 ; [#uses=0 type=i64*]
@p_str13 = private unnamed_addr constant [11 x i8] c"AXI4Stream\00", align 1 ; [#uses=2 type=[11 x i8]*]
@p_str12 = private unnamed_addr constant [13 x i8] c"ap_ctrl_none\00", align 1 ; [#uses=1 type=[13 x i8]*]
@p_str11 = private unnamed_addr constant [1 x i8] zeroinitializer, align 1 ; [#uses=20 type=[1 x i8]*]

; [#uses=0]
define void @md1(i16 %id_V) {
.preheader.preheader:
  call void (...)* @_ssdm_op_SpecBitsMap(i16 %id_V), !map !233
  call void (...)* @_ssdm_op_SpecTopModule([4 x i8]* @md1_str) nounwind
  call void (...)* @_ssdm_op_SpecInterface(i32 0, [13 x i8]* @p_str12, i32 0, i32 0, [1 x i8]* @p_str11, i32 0, i32 0, [1 x i8]* @p_str11, [1 x i8]* @p_str11, [1 x i8]* @p_str11, i32 0, i32 0, i32 0, i32 0, [1 x i8]* @p_str11, [1 x i8]* @p_str11) nounwind, !dbg !239 ; [debug line = 281:1]
  call void (...)* @_ssdm_op_SpecIFCore(i121* @stream_out_V, [1 x i8]* @p_str11, [11 x i8]* @p_str13, [1 x i8]* @p_str11, i32 -1, [1 x i8]* @p_str11, [1 x i8]* @p_str11, [1 x i8]* @p_str11, [1 x i8]* @p_str11, [1 x i8]* @p_str11)
  call void (...)* @_ssdm_op_SpecIFCore(i121* @stream_in_V, [1 x i8]* @p_str11, [11 x i8]* @p_str13, [1 x i8]* @p_str11, i32 -1, [1 x i8]* @p_str11, [1 x i8]* @p_str11, [1 x i8]* @p_str11, [1 x i8]* @p_str11, [1 x i8]* @p_str11)
  %id_V_read = call i16 @_ssdm_op_Read.ap_auto.i16(i16 %id_V) ; [#uses=2 type=i16]
  call void @llvm.dbg.value(metadata !{i16 %id_V_read}, i64 0, metadata !884), !dbg !894 ; [debug line = 280:84@289:2] [debug variable = op2.V]
  call void @llvm.dbg.value(metadata !{i16 %id_V}, i64 0, metadata !884), !dbg !894 ; [debug line = 280:84@289:2] [debug variable = op2.V]
  store i16 %id_V_read, i16* @id_in_V, align 2, !dbg !896 ; [debug line = 281:5@289:2]
  %tmp = zext i16 %id_V_read to i32, !dbg !898    ; [#uses=1 type=i32] [debug line = 290:18]
  store i32 %tmp, i32* @world_rank, align 4, !dbg !898 ; [debug line = 290:18]
  store i32 46, i32* @processorCount, align 4, !dbg !899 ; [debug line = 291:5]
  br label %.preheader, !dbg !900                 ; [debug line = 309:9]

.preheader:                                       ; preds = %.preheader, %.preheader.preheader
  br label %.preheader, !dbg !900                 ; [debug line = 309:9]
}

; [#uses=2]
declare void @llvm.dbg.value(metadata, i64, metadata) nounwind readnone

; [#uses=1]
define weak void @_ssdm_op_SpecTopModule(...) {
entry:
  ret void
}

; [#uses=1]
define weak void @_ssdm_op_SpecInterface(...) nounwind {
entry:
  ret void
}

; [#uses=2]
define weak void @_ssdm_op_SpecIFCore(...) {
entry:
  ret void
}

; [#uses=1]
define weak void @_ssdm_op_SpecBitsMap(...) {
entry:
  ret void
}

; [#uses=1]
define weak i16 @_ssdm_op_Read.ap_auto.i16(i16) {
entry:
  ret i16 %0
}

; [#uses=1]
declare void @_GLOBAL__I_a22() nounwind section ".text.startup"

; [#uses=1]
declare void @_GLOBAL__I_a16() nounwind section ".text.startup"

; [#uses=1]
declare void @_GLOBAL__I_a10() nounwind section ".text.startup"

; [#uses=1]
declare void @_GLOBAL__I_a() nounwind section ".text.startup"

!opencl.kernels = !{!0, !7, !10, !16, !18, !20, !21, !27, !21, !33, !37, !21, !40, !43, !21, !46, !21, !21, !21, !48, !51, !51, !21, !53, !56, !56, !21, !21, !21, !21, !59, !53, !21, !61, !64, !21, !21, !21, !66, !66, !67, !67, !69, !71, !21, !21, !21, !21, !69, !71, !66, !66, !73, !73, !75, !78, !78, !21, !21, !21, !80, !82, !21, !21, !21, !66, !66, !84, !84, !86, !53, !27, !51, !51, !21, !88, !90, !92, !93, !48, !53, !21, !21, !21, !95, !59, !53, !97, !99, !75, !78, !78, !102, !104, !104, !21, !21, !21, !110, !110, !21, !21, !110, !110, !21, !21, !110, !110, !21, !21, !110, !110, !21, !21, !21, !21, !21, !111, !111, !111, !21, !21, !21, !113, !111, !111, !111, !115, !111, !111, !111, !117, !117, !119, !110, !110, !121, !123, !123, !124, !125, !126, !126, !127, !84, !84, !128, !129, !129, !102, !130, !130, !132, !133, !135, !21, !21, !21, !21, !21, !21, !21, !21, !21, !21, !21, !21, !21, !21, !21}
!hls.encrypted.func = !{}
!llvm.map.gv = !{!137, !144, !149, !154, !159, !164, !169, !174, !179, !184, !189, !194, !199, !204, !211, !216, !221, !227}

!0 = metadata !{null, metadata !1, metadata !2, metadata !3, metadata !4, metadata !5, metadata !6}
!1 = metadata !{metadata !"kernel_arg_addr_space", i32 1, i32 1}
!2 = metadata !{metadata !"kernel_arg_access_qual", metadata !"none", metadata !"none"}
!3 = metadata !{metadata !"kernel_arg_type", metadata !"struct envelope*", metadata !"struct stream_packet*"}
!4 = metadata !{metadata !"kernel_arg_type_qual", metadata !"", metadata !""}
!5 = metadata !{metadata !"kernel_arg_name", metadata !"envlp", metadata !"packet"}
!6 = metadata !{metadata !"reqd_work_group_size", i32 1, i32 1, i32 1}
!7 = metadata !{null, metadata !1, metadata !2, metadata !8, metadata !4, metadata !9, metadata !6}
!8 = metadata !{metadata !"kernel_arg_type", metadata !"struct stream_packet*", metadata !"struct envelope*"}
!9 = metadata !{metadata !"kernel_arg_name", metadata !"packet", metadata !"envlp"}
!10 = metadata !{null, metadata !11, metadata !12, metadata !13, metadata !14, metadata !15, metadata !6}
!11 = metadata !{metadata !"kernel_arg_addr_space", i32 1, i32 0, i32 0, i32 0, i32 0, i32 0}
!12 = metadata !{metadata !"kernel_arg_access_qual", metadata !"none", metadata !"none", metadata !"none", metadata !"none", metadata !"none", metadata !"none"}
!13 = metadata !{metadata !"kernel_arg_type", metadata !"int*", metadata !"int", metadata !"enum MPI_DATA_TYPE", metadata !"int", metadata !"int", metadata !"int"}
!14 = metadata !{metadata !"kernel_arg_type_qual", metadata !"", metadata !"", metadata !"", metadata !"", metadata !"", metadata !""}
!15 = metadata !{metadata !"kernel_arg_name", metadata !"buf", metadata !"count", metadata !"dataType", metadata !"dest", metadata !"tag", metadata !"MPI_Comm"}
!16 = metadata !{null, metadata !11, metadata !12, metadata !17, metadata !14, metadata !15, metadata !6}
!17 = metadata !{metadata !"kernel_arg_type", metadata !"float*", metadata !"int", metadata !"enum MPI_DATA_TYPE", metadata !"int", metadata !"int", metadata !"int"}
!18 = metadata !{null, metadata !11, metadata !12, metadata !13, metadata !14, metadata !19, metadata !6}
!19 = metadata !{metadata !"kernel_arg_name", metadata !"buf", metadata !"count", metadata !"dataType", metadata !"source", metadata !"tag", metadata !"MPI_Comm"}
!20 = metadata !{null, metadata !11, metadata !12, metadata !17, metadata !14, metadata !19, metadata !6}
!21 = metadata !{null, metadata !22, metadata !23, metadata !24, metadata !25, metadata !26, metadata !6}
!22 = metadata !{metadata !"kernel_arg_addr_space"}
!23 = metadata !{metadata !"kernel_arg_access_qual"}
!24 = metadata !{metadata !"kernel_arg_type"}
!25 = metadata !{metadata !"kernel_arg_type_qual"}
!26 = metadata !{metadata !"kernel_arg_name"}
!27 = metadata !{null, metadata !28, metadata !29, metadata !30, metadata !31, metadata !32, metadata !6}
!28 = metadata !{metadata !"kernel_arg_addr_space", i32 0}
!29 = metadata !{metadata !"kernel_arg_access_qual", metadata !"none"}
!30 = metadata !{metadata !"kernel_arg_type", metadata !"int"}
!31 = metadata !{metadata !"kernel_arg_type_qual", metadata !""}
!32 = metadata !{metadata !"kernel_arg_name", metadata !""}
!33 = metadata !{null, metadata !34, metadata !2, metadata !35, metadata !4, metadata !36, metadata !6}
!34 = metadata !{metadata !"kernel_arg_addr_space", i32 0, i32 0}
!35 = metadata !{metadata !"kernel_arg_type", metadata !"float", metadata !"float"}
!36 = metadata !{metadata !"kernel_arg_name", metadata !"a", metadata !"b"}
!37 = metadata !{null, metadata !28, metadata !29, metadata !38, metadata !31, metadata !39, metadata !6}
!38 = metadata !{metadata !"kernel_arg_type", metadata !"float"}
!39 = metadata !{metadata !"kernel_arg_name", metadata !"x"}
!40 = metadata !{null, metadata !34, metadata !2, metadata !41, metadata !4, metadata !42, metadata !6}
!41 = metadata !{metadata !"kernel_arg_type", metadata !"int", metadata !"int"}
!42 = metadata !{metadata !"kernel_arg_name", metadata !"atomCount", metadata !"stepCount"}
!43 = metadata !{null, metadata !28, metadata !29, metadata !44, metadata !31, metadata !45, metadata !6}
!44 = metadata !{metadata !"kernel_arg_type", metadata !"ap_uint<16>"}
!45 = metadata !{metadata !"kernel_arg_name", metadata !"id"}
!46 = metadata !{null, metadata !28, metadata !29, metadata !38, metadata !31, metadata !47, metadata !6}
!47 = metadata !{metadata !"kernel_arg_name", metadata !"__f"}
!48 = metadata !{null, metadata !34, metadata !2, metadata !49, metadata !4, metadata !50, metadata !6}
!49 = metadata !{metadata !"kernel_arg_type", metadata !"const ap_range_ref<40, false> &", metadata !"int"}
!50 = metadata !{metadata !"kernel_arg_name", metadata !"op", metadata !"op2"}
!51 = metadata !{null, metadata !28, metadata !29, metadata !30, metadata !31, metadata !52, metadata !6}
!52 = metadata !{metadata !"kernel_arg_name", metadata !"op"}
!53 = metadata !{null, metadata !28, metadata !29, metadata !54, metadata !31, metadata !55, metadata !6}
!54 = metadata !{metadata !"kernel_arg_type", metadata !"const ap_int_base<32, true> &"}
!55 = metadata !{metadata !"kernel_arg_name", metadata !"op2"}
!56 = metadata !{null, metadata !28, metadata !29, metadata !57, metadata !31, metadata !58, metadata !6}
!57 = metadata !{metadata !"kernel_arg_type", metadata !"const ap_range_ref<40, false> &"}
!58 = metadata !{metadata !"kernel_arg_name", metadata !"ref"}
!59 = metadata !{null, metadata !34, metadata !2, metadata !60, metadata !4, metadata !50, metadata !6}
!60 = metadata !{metadata !"kernel_arg_type", metadata !"const ap_int_base<8, false> &", metadata !"int"}
!61 = metadata !{null, metadata !34, metadata !2, metadata !62, metadata !4, metadata !63, metadata !6}
!62 = metadata !{metadata !"kernel_arg_type", metadata !"const ap_int_base<65, true> &", metadata !"int"}
!63 = metadata !{metadata !"kernel_arg_name", metadata !"op", metadata !"i_op"}
!64 = metadata !{null, metadata !34, metadata !2, metadata !65, metadata !4, metadata !50, metadata !6}
!65 = metadata !{metadata !"kernel_arg_type", metadata !"const ap_int_base<65, true> &", metadata !"const ap_int_base<32, true> &"}
!66 = metadata !{null, metadata !28, metadata !29, metadata !54, metadata !31, metadata !52, metadata !6}
!67 = metadata !{null, metadata !28, metadata !29, metadata !68, metadata !31, metadata !52, metadata !6}
!68 = metadata !{metadata !"kernel_arg_type", metadata !"const ap_int_base<65, true> &"}
!69 = metadata !{null, metadata !34, metadata !2, metadata !70, metadata !4, metadata !63, metadata !6}
!70 = metadata !{metadata !"kernel_arg_type", metadata !"const ap_int_base<64, true> &", metadata !"int"}
!71 = metadata !{null, metadata !34, metadata !2, metadata !72, metadata !4, metadata !50, metadata !6}
!72 = metadata !{metadata !"kernel_arg_type", metadata !"const ap_int_base<64, true> &", metadata !"const ap_int_base<32, true> &"}
!73 = metadata !{null, metadata !28, metadata !29, metadata !74, metadata !31, metadata !52, metadata !6}
!74 = metadata !{metadata !"kernel_arg_type", metadata !"const ap_int_base<64, true> &"}
!75 = metadata !{null, metadata !28, metadata !29, metadata !76, metadata !31, metadata !77, metadata !6}
!76 = metadata !{metadata !"kernel_arg_type", metadata !"ulong long"}
!77 = metadata !{metadata !"kernel_arg_name", metadata !"val"}
!78 = metadata !{null, metadata !28, metadata !29, metadata !79, metadata !31, metadata !52, metadata !6}
!79 = metadata !{metadata !"kernel_arg_type", metadata !"ap_ulong"}
!80 = metadata !{null, metadata !34, metadata !2, metadata !81, metadata !4, metadata !63, metadata !6}
!81 = metadata !{metadata !"kernel_arg_type", metadata !"const ap_int_base<32, false> &", metadata !"int"}
!82 = metadata !{null, metadata !34, metadata !2, metadata !83, metadata !4, metadata !50, metadata !6}
!83 = metadata !{metadata !"kernel_arg_type", metadata !"const ap_int_base<32, false> &", metadata !"const ap_int_base<32, true> &"}
!84 = metadata !{null, metadata !28, metadata !29, metadata !85, metadata !31, metadata !52, metadata !6}
!85 = metadata !{metadata !"kernel_arg_type", metadata !"const ap_int_base<32, false> &"}
!86 = metadata !{null, metadata !34, metadata !2, metadata !87, metadata !4, metadata !50, metadata !6}
!87 = metadata !{metadata !"kernel_arg_type", metadata !"const ap_int_base<64, false> &", metadata !"int"}
!88 = metadata !{null, metadata !28, metadata !29, metadata !89, metadata !31, metadata !55, metadata !6}
!89 = metadata !{metadata !"kernel_arg_type", metadata !"const ap_int_base<1, false> &"}
!90 = metadata !{null, metadata !28, metadata !29, metadata !91, metadata !31, metadata !55, metadata !6}
!91 = metadata !{metadata !"kernel_arg_type", metadata !"const ap_int_base<4, false> &"}
!92 = metadata !{null, metadata !28, metadata !29, metadata !85, metadata !31, metadata !55, metadata !6}
!93 = metadata !{null, metadata !28, metadata !29, metadata !94, metadata !31, metadata !55, metadata !6}
!94 = metadata !{metadata !"kernel_arg_type", metadata !"const ap_int_base<8, false> &"}
!95 = metadata !{null, metadata !28, metadata !29, metadata !96, metadata !31, metadata !55, metadata !6}
!96 = metadata !{metadata !"kernel_arg_type", metadata !"const ap_int_base<16, false> &"}
!97 = metadata !{null, metadata !28, metadata !29, metadata !98, metadata !31, metadata !55, metadata !6}
!98 = metadata !{metadata !"kernel_arg_type", metadata !"const ap_uint<64> &"}
!99 = metadata !{null, metadata !28, metadata !29, metadata !100, metadata !31, metadata !101, metadata !6}
!100 = metadata !{metadata !"kernel_arg_type", metadata !"const struct stream_packet &"}
!101 = metadata !{metadata !"kernel_arg_name", metadata !"din"}
!102 = metadata !{null, metadata !34, metadata !2, metadata !41, metadata !4, metadata !103, metadata !6}
!103 = metadata !{metadata !"kernel_arg_name", metadata !"Hi", metadata !"Lo"}
!104 = metadata !{null, metadata !105, metadata !106, metadata !107, metadata !108, metadata !109, metadata !6}
!105 = metadata !{metadata !"kernel_arg_addr_space", i32 1, i32 0, i32 0}
!106 = metadata !{metadata !"kernel_arg_access_qual", metadata !"none", metadata !"none", metadata !"none"}
!107 = metadata !{metadata !"kernel_arg_type", metadata !"ap_int_base<40, false>*", metadata !"int", metadata !"int"}
!108 = metadata !{metadata !"kernel_arg_type_qual", metadata !"", metadata !"", metadata !""}
!109 = metadata !{metadata !"kernel_arg_name", metadata !"bv", metadata !"h", metadata !"l"}
!110 = metadata !{null, metadata !28, metadata !29, metadata !30, metadata !31, metadata !77, metadata !6}
!111 = metadata !{null, metadata !28, metadata !29, metadata !112, metadata !31, metadata !58, metadata !6}
!112 = metadata !{metadata !"kernel_arg_type", metadata !"const ap_range_ref<64, false> &"}
!113 = metadata !{null, metadata !28, metadata !29, metadata !114, metadata !31, metadata !55, metadata !6}
!114 = metadata !{metadata !"kernel_arg_type", metadata !"const ap_uint<4> &"}
!115 = metadata !{null, metadata !28, metadata !29, metadata !116, metadata !31, metadata !55, metadata !6}
!116 = metadata !{metadata !"kernel_arg_type", metadata !"const ap_uint<32> &"}
!117 = metadata !{null, metadata !28, metadata !29, metadata !118, metadata !31, metadata !52, metadata !6}
!118 = metadata !{metadata !"kernel_arg_type", metadata !"const ap_uint<8> &"}
!119 = metadata !{null, metadata !28, metadata !29, metadata !120, metadata !31, metadata !55, metadata !6}
!120 = metadata !{metadata !"kernel_arg_type", metadata !"const ap_uint<16> &"}
!121 = metadata !{null, metadata !28, metadata !29, metadata !122, metadata !31, metadata !55, metadata !6}
!122 = metadata !{metadata !"kernel_arg_type", metadata !"const ap_uint<1> &"}
!123 = metadata !{null, metadata !28, metadata !29, metadata !120, metadata !31, metadata !52, metadata !6}
!124 = metadata !{null, metadata !28, metadata !29, metadata !118, metadata !31, metadata !55, metadata !6}
!125 = metadata !{null, metadata !28, metadata !29, metadata !91, metadata !31, metadata !77, metadata !6}
!126 = metadata !{null, metadata !28, metadata !29, metadata !91, metadata !31, metadata !52, metadata !6}
!127 = metadata !{null, metadata !28, metadata !29, metadata !85, metadata !31, metadata !77, metadata !6}
!128 = metadata !{null, metadata !28, metadata !29, metadata !94, metadata !31, metadata !77, metadata !6}
!129 = metadata !{null, metadata !28, metadata !29, metadata !94, metadata !31, metadata !52, metadata !6}
!130 = metadata !{null, metadata !105, metadata !106, metadata !131, metadata !108, metadata !109, metadata !6}
!131 = metadata !{metadata !"kernel_arg_type", metadata !"ap_int_base<64, false>*", metadata !"int", metadata !"int"}
!132 = metadata !{null, metadata !28, metadata !29, metadata !100, metadata !31, metadata !32, metadata !6}
!133 = metadata !{null, metadata !28, metadata !29, metadata !134, metadata !31, metadata !55, metadata !6}
!134 = metadata !{metadata !"kernel_arg_type", metadata !"const ap_uint<40> &"}
!135 = metadata !{null, metadata !28, metadata !29, metadata !136, metadata !31, metadata !32, metadata !6}
!136 = metadata !{metadata !"kernel_arg_type", metadata !"const struct envelope &"}
!137 = metadata !{metadata !138, i32* @world_rank}
!138 = metadata !{metadata !139}
!139 = metadata !{i32 0, i32 31, metadata !140}
!140 = metadata !{metadata !141}
!141 = metadata !{metadata !"world_rank", metadata !142, metadata !"int", i32 0, i32 31}
!142 = metadata !{metadata !143}
!143 = metadata !{i32 0, i32 0, i32 1}
!144 = metadata !{metadata !145, i40* @stream_out_V_user_V}
!145 = metadata !{metadata !146}
!146 = metadata !{i32 0, i32 39, metadata !147}
!147 = metadata !{metadata !148}
!148 = metadata !{metadata !"stream_out.V.user.V", metadata !142, metadata !"uint40", i32 0, i32 39}
!149 = metadata !{metadata !150, i1* @stream_out_V_last_V}
!150 = metadata !{metadata !151}
!151 = metadata !{i32 0, i32 0, metadata !152}
!152 = metadata !{metadata !153}
!153 = metadata !{metadata !"stream_out.V.last.V", metadata !142, metadata !"uint1", i32 0, i32 0}
!154 = metadata !{metadata !155, i8* @stream_out_V_id_V}
!155 = metadata !{metadata !156}
!156 = metadata !{i32 0, i32 7, metadata !157}
!157 = metadata !{metadata !158}
!158 = metadata !{metadata !"stream_out.V.id.V", metadata !142, metadata !"uint8", i32 0, i32 7}
!159 = metadata !{metadata !160, i8* @stream_out_V_dest_V}
!160 = metadata !{metadata !161}
!161 = metadata !{i32 0, i32 7, metadata !162}
!162 = metadata !{metadata !163}
!163 = metadata !{metadata !"stream_out.V.dest.V", metadata !142, metadata !"uint8", i32 0, i32 7}
!164 = metadata !{metadata !165, i64* @stream_out_V_data_V}
!165 = metadata !{metadata !166}
!166 = metadata !{i32 0, i32 63, metadata !167}
!167 = metadata !{metadata !168}
!168 = metadata !{metadata !"stream_out.V.data.V", metadata !142, metadata !"uint64", i32 0, i32 63}
!169 = metadata !{metadata !170, i40* @stream_in_V_user_V}
!170 = metadata !{metadata !171}
!171 = metadata !{i32 0, i32 39, metadata !172}
!172 = metadata !{metadata !173}
!173 = metadata !{metadata !"stream_in.V.user.V", metadata !142, metadata !"uint40", i32 0, i32 39}
!174 = metadata !{metadata !175, i1* @stream_in_V_last_V}
!175 = metadata !{metadata !176}
!176 = metadata !{i32 0, i32 0, metadata !177}
!177 = metadata !{metadata !178}
!178 = metadata !{metadata !"stream_in.V.last.V", metadata !142, metadata !"uint1", i32 0, i32 0}
!179 = metadata !{metadata !180, i8* @stream_in_V_id_V}
!180 = metadata !{metadata !181}
!181 = metadata !{i32 0, i32 7, metadata !182}
!182 = metadata !{metadata !183}
!183 = metadata !{metadata !"stream_in.V.id.V", metadata !142, metadata !"uint8", i32 0, i32 7}
!184 = metadata !{metadata !185, i8* @stream_in_V_dest_V}
!185 = metadata !{metadata !186}
!186 = metadata !{i32 0, i32 7, metadata !187}
!187 = metadata !{metadata !188}
!188 = metadata !{metadata !"stream_in.V.dest.V", metadata !142, metadata !"uint8", i32 0, i32 7}
!189 = metadata !{metadata !190, i64* @stream_in_V_data_V}
!190 = metadata !{metadata !191}
!191 = metadata !{i32 0, i32 63, metadata !192}
!192 = metadata !{metadata !193}
!193 = metadata !{metadata !"stream_in.V.data.V", metadata !142, metadata !"uint64", i32 0, i32 63}
!194 = metadata !{metadata !195, i64* @start_time}
!195 = metadata !{metadata !196}
!196 = metadata !{i32 0, i32 63, metadata !197}
!197 = metadata !{metadata !198}
!198 = metadata !{metadata !"start_time", metadata !142, metadata !"long int", i32 0, i32 63}
!199 = metadata !{metadata !200, i32* @processorCount}
!200 = metadata !{metadata !201}
!201 = metadata !{i32 0, i32 31, metadata !202}
!202 = metadata !{metadata !203}
!203 = metadata !{metadata !"processorCount", metadata !142, metadata !"int", i32 0, i32 31}
!204 = metadata !{metadata !205, [4 x i32]* @llvm_global_ctors_0}
!205 = metadata !{metadata !206}
!206 = metadata !{i32 0, i32 31, metadata !207}
!207 = metadata !{metadata !208}
!208 = metadata !{metadata !"llvm.global_ctors.0", metadata !209, metadata !"", i32 0, i32 31}
!209 = metadata !{metadata !210}
!210 = metadata !{i32 0, i32 3, i32 1}
!211 = metadata !{metadata !212, i16* @id_in_V}
!212 = metadata !{metadata !213}
!213 = metadata !{i32 0, i32 15, metadata !214}
!214 = metadata !{metadata !215}
!215 = metadata !{metadata !"id_in.V", metadata !142, metadata !"uint16", i32 0, i32 15}
!216 = metadata !{metadata !217, i64* @end_time}
!217 = metadata !{metadata !218}
!218 = metadata !{i32 0, i32 63, metadata !219}
!219 = metadata !{metadata !220}
!220 = metadata !{metadata !"end_time", metadata !142, metadata !"long int", i32 0, i32 63}
!221 = metadata !{metadata !222, i121* @stream_out_V}
!222 = metadata !{metadata !166, metadata !223, metadata !224, metadata !225, metadata !226}
!223 = metadata !{i32 64, i32 71, metadata !162}
!224 = metadata !{i32 72, i32 72, metadata !152}
!225 = metadata !{i32 73, i32 80, metadata !157}
!226 = metadata !{i32 81, i32 120, metadata !147}
!227 = metadata !{metadata !228, i121* @stream_in_V}
!228 = metadata !{metadata !191, metadata !229, metadata !230, metadata !231, metadata !232}
!229 = metadata !{i32 64, i32 71, metadata !187}
!230 = metadata !{i32 72, i32 72, metadata !177}
!231 = metadata !{i32 73, i32 80, metadata !182}
!232 = metadata !{i32 81, i32 120, metadata !172}
!233 = metadata !{metadata !234}
!234 = metadata !{i32 0, i32 15, metadata !235}
!235 = metadata !{metadata !236}
!236 = metadata !{metadata !"id.V", metadata !237, metadata !"uint16", i32 0, i32 15}
!237 = metadata !{metadata !238}
!238 = metadata !{i32 0, i32 0, i32 0}
!239 = metadata !{i32 281, i32 1, metadata !240, null}
!240 = metadata !{i32 786443, metadata !241, i32 280, i32 1, metadata !242, i32 317} ; [ DW_TAG_lexical_block ]
!241 = metadata !{i32 786478, i32 0, metadata !242, metadata !"md1", metadata !"md1", metadata !"_Z3md17ap_uintILi16EE", metadata !242, i32 279, metadata !243, i1 false, i1 true, i32 0, i32 0, null, i32 256, i1 false, null, null, null, metadata !262, i32 280} ; [ DW_TAG_subprogram ]
!242 = metadata !{i32 786473, metadata !"../HMPI/mpi_app_benchmarks/HMPI_md/hls/md1.cpp", metadata !"/home/tarafdar/workDir/galapagos", null} ; [ DW_TAG_file_type ]
!243 = metadata !{i32 786453, i32 0, metadata !"", i32 0, i32 0, i64 0, i64 0, i64 0, i32 0, null, metadata !244, i32 0, i32 0} ; [ DW_TAG_subroutine_type ]
!244 = metadata !{null, metadata !245}
!245 = metadata !{i32 786434, null, metadata !"ap_uint<16>", metadata !246, i32 183, i64 16, i64 16, i32 0, i32 0, null, metadata !247, i32 0, null, metadata !883} ; [ DW_TAG_class_type ]
!246 = metadata !{i32 786473, metadata !"/opt/Xilinx/Vivado/2018.1/common/technology/autopilot/ap_int.h", metadata !"/home/tarafdar/workDir/galapagos", null} ; [ DW_TAG_file_type ]
!247 = metadata !{metadata !248, metadata !812, metadata !816, metadata !819, metadata !822, metadata !825, metadata !828, metadata !831, metadata !834, metadata !837, metadata !840, metadata !843, metadata !846, metadata !849, metadata !852, metadata !855, metadata !858, metadata !861, metadata !864, metadata !871, metadata !876, metadata !880}
!248 = metadata !{i32 786460, metadata !245, null, metadata !246, i32 0, i64 0, i64 0, i64 0, i32 0, metadata !249} ; [ DW_TAG_inheritance ]
!249 = metadata !{i32 786434, null, metadata !"ap_int_base<16, false, true>", metadata !250, i32 1453, i64 16, i64 16, i32 0, i32 0, null, metadata !251, i32 0, null, metadata !811} ; [ DW_TAG_class_type ]
!250 = metadata !{i32 786473, metadata !"/opt/Xilinx/Vivado/2018.1/common/technology/autopilot/ap_int_syn.h", metadata !"/home/tarafdar/workDir/galapagos", null} ; [ DW_TAG_file_type ]
!251 = metadata !{metadata !252, metadata !269, metadata !273, metadata !276, metadata !280, metadata !284, metadata !288, metadata !292, metadata !295, metadata !299, metadata !303, metadata !307, metadata !312, metadata !317, metadata !322, metadata !326, metadata !330, metadata !336, metadata !339, metadata !344, metadata !349, metadata !354, metadata !355, metadata !359, metadata !362, metadata !365, metadata !368, metadata !371, metadata !374, metadata !377, metadata !380, metadata !383, metadata !386, metadata !389, metadata !392, metadata !402, metadata !405, metadata !408, metadata !411, metadata !414, metadata !417, metadata !420, metadata !423, metadata !426, metadata !429, metadata !432, metadata !435, metadata !438, metadata !439, metadata !443, metadata !446, metadata !447, metadata !448, metadata !449, metadata !450, metadata !451, metadata !454, metadata !455, metadata !458, metadata !459, metadata !460, metadata !461, metadata !462, metadata !463, metadata !466, metadata !467, metadata !468, metadata !471, metadata !472, metadata !475, metadata !476, metadata !770, metadata !776, metadata !777, metadata !780, metadata !781, metadata !785, metadata !786, metadata !787, metadata !788, metadata !791, metadata !792, metadata !793, metadata !794, metadata !795, metadata !796, metadata !797, metadata !798, metadata !799, metadata !800, metadata !801, metadata !802, metadata !805, metadata !808}
!252 = metadata !{i32 786460, metadata !249, null, metadata !250, i32 0, i64 0, i64 0, i64 0, i32 0, metadata !253} ; [ DW_TAG_inheritance ]
!253 = metadata !{i32 786434, null, metadata !"ssdm_int<16 + 1024 * 0, false>", metadata !254, i32 18, i64 16, i64 16, i32 0, i32 0, null, metadata !255, i32 0, null, metadata !264} ; [ DW_TAG_class_type ]
!254 = metadata !{i32 786473, metadata !"/opt/Xilinx/Vivado/2018.1/common/technology/autopilot/etc/autopilot_dt.def", metadata !"/home/tarafdar/workDir/galapagos", null} ; [ DW_TAG_file_type ]
!255 = metadata !{metadata !256, metadata !258}
!256 = metadata !{i32 786445, metadata !253, metadata !"V", metadata !254, i32 18, i64 16, i64 16, i64 0, i32 0, metadata !257} ; [ DW_TAG_member ]
!257 = metadata !{i32 786468, null, metadata !"uint16", null, i32 0, i64 16, i64 16, i64 0, i32 0, i32 7} ; [ DW_TAG_base_type ]
!258 = metadata !{i32 786478, i32 0, metadata !253, metadata !"ssdm_int", metadata !"ssdm_int", metadata !"", metadata !254, i32 18, metadata !259, i1 false, i1 false, i32 0, i32 0, null, i32 256, i1 false, null, null, i32 0, metadata !262, i32 18} ; [ DW_TAG_subprogram ]
!259 = metadata !{i32 786453, i32 0, metadata !"", i32 0, i32 0, i64 0, i64 0, i64 0, i32 0, null, metadata !260, i32 0, i32 0} ; [ DW_TAG_subroutine_type ]
!260 = metadata !{null, metadata !261}
!261 = metadata !{i32 786447, i32 0, metadata !"", i32 0, i32 0, i64 64, i64 64, i64 0, i32 64, metadata !253} ; [ DW_TAG_pointer_type ]
!262 = metadata !{metadata !263}
!263 = metadata !{i32 786468}                     ; [ DW_TAG_base_type ]
!264 = metadata !{metadata !265, metadata !267}
!265 = metadata !{i32 786480, null, metadata !"_AP_N", metadata !266, i64 16, null, i32 0, i32 0} ; [ DW_TAG_template_value_parameter ]
!266 = metadata !{i32 786468, null, metadata !"int", null, i32 0, i64 32, i64 32, i64 0, i32 0, i32 5} ; [ DW_TAG_base_type ]
!267 = metadata !{i32 786480, null, metadata !"_AP_S", metadata !268, i64 0, null, i32 0, i32 0} ; [ DW_TAG_template_value_parameter ]
!268 = metadata !{i32 786468, null, metadata !"bool", null, i32 0, i64 8, i64 8, i64 0, i32 0, i32 2} ; [ DW_TAG_base_type ]
!269 = metadata !{i32 786478, i32 0, metadata !249, metadata !"ap_int_base", metadata !"ap_int_base", metadata !"", metadata !250, i32 1494, metadata !270, i1 false, i1 false, i32 0, i32 0, null, i32 256, i1 false, null, null, i32 0, metadata !262, i32 1494} ; [ DW_TAG_subprogram ]
!270 = metadata !{i32 786453, i32 0, metadata !"", i32 0, i32 0, i64 0, i64 0, i64 0, i32 0, null, metadata !271, i32 0, i32 0} ; [ DW_TAG_subroutine_type ]
!271 = metadata !{null, metadata !272}
!272 = metadata !{i32 786447, i32 0, metadata !"", i32 0, i32 0, i64 64, i64 64, i64 0, i32 64, metadata !249} ; [ DW_TAG_pointer_type ]
!273 = metadata !{i32 786478, i32 0, metadata !249, metadata !"ap_int_base", metadata !"ap_int_base", metadata !"", metadata !250, i32 1516, metadata !274, i1 false, i1 false, i32 0, i32 0, null, i32 384, i1 false, null, null, i32 0, metadata !262, i32 1516} ; [ DW_TAG_subprogram ]
!274 = metadata !{i32 786453, i32 0, metadata !"", i32 0, i32 0, i64 0, i64 0, i64 0, i32 0, null, metadata !275, i32 0, i32 0} ; [ DW_TAG_subroutine_type ]
!275 = metadata !{null, metadata !272, metadata !268}
!276 = metadata !{i32 786478, i32 0, metadata !249, metadata !"ap_int_base", metadata !"ap_int_base", metadata !"", metadata !250, i32 1517, metadata !277, i1 false, i1 false, i32 0, i32 0, null, i32 384, i1 false, null, null, i32 0, metadata !262, i32 1517} ; [ DW_TAG_subprogram ]
!277 = metadata !{i32 786453, i32 0, metadata !"", i32 0, i32 0, i64 0, i64 0, i64 0, i32 0, null, metadata !278, i32 0, i32 0} ; [ DW_TAG_subroutine_type ]
!278 = metadata !{null, metadata !272, metadata !279}
!279 = metadata !{i32 786468, null, metadata !"signed char", null, i32 0, i64 8, i64 8, i64 0, i32 0, i32 6} ; [ DW_TAG_base_type ]
!280 = metadata !{i32 786478, i32 0, metadata !249, metadata !"ap_int_base", metadata !"ap_int_base", metadata !"", metadata !250, i32 1518, metadata !281, i1 false, i1 false, i32 0, i32 0, null, i32 384, i1 false, null, null, i32 0, metadata !262, i32 1518} ; [ DW_TAG_subprogram ]
!281 = metadata !{i32 786453, i32 0, metadata !"", i32 0, i32 0, i64 0, i64 0, i64 0, i32 0, null, metadata !282, i32 0, i32 0} ; [ DW_TAG_subroutine_type ]
!282 = metadata !{null, metadata !272, metadata !283}
!283 = metadata !{i32 786468, null, metadata !"unsigned char", null, i32 0, i64 8, i64 8, i64 0, i32 0, i32 8} ; [ DW_TAG_base_type ]
!284 = metadata !{i32 786478, i32 0, metadata !249, metadata !"ap_int_base", metadata !"ap_int_base", metadata !"", metadata !250, i32 1519, metadata !285, i1 false, i1 false, i32 0, i32 0, null, i32 384, i1 false, null, null, i32 0, metadata !262, i32 1519} ; [ DW_TAG_subprogram ]
!285 = metadata !{i32 786453, i32 0, metadata !"", i32 0, i32 0, i64 0, i64 0, i64 0, i32 0, null, metadata !286, i32 0, i32 0} ; [ DW_TAG_subroutine_type ]
!286 = metadata !{null, metadata !272, metadata !287}
!287 = metadata !{i32 786468, null, metadata !"short", null, i32 0, i64 16, i64 16, i64 0, i32 0, i32 5} ; [ DW_TAG_base_type ]
!288 = metadata !{i32 786478, i32 0, metadata !249, metadata !"ap_int_base", metadata !"ap_int_base", metadata !"", metadata !250, i32 1520, metadata !289, i1 false, i1 false, i32 0, i32 0, null, i32 384, i1 false, null, null, i32 0, metadata !262, i32 1520} ; [ DW_TAG_subprogram ]
!289 = metadata !{i32 786453, i32 0, metadata !"", i32 0, i32 0, i64 0, i64 0, i64 0, i32 0, null, metadata !290, i32 0, i32 0} ; [ DW_TAG_subroutine_type ]
!290 = metadata !{null, metadata !272, metadata !291}
!291 = metadata !{i32 786468, null, metadata !"unsigned short", null, i32 0, i64 16, i64 16, i64 0, i32 0, i32 7} ; [ DW_TAG_base_type ]
!292 = metadata !{i32 786478, i32 0, metadata !249, metadata !"ap_int_base", metadata !"ap_int_base", metadata !"", metadata !250, i32 1521, metadata !293, i1 false, i1 false, i32 0, i32 0, null, i32 384, i1 false, null, null, i32 0, metadata !262, i32 1521} ; [ DW_TAG_subprogram ]
!293 = metadata !{i32 786453, i32 0, metadata !"", i32 0, i32 0, i64 0, i64 0, i64 0, i32 0, null, metadata !294, i32 0, i32 0} ; [ DW_TAG_subroutine_type ]
!294 = metadata !{null, metadata !272, metadata !266}
!295 = metadata !{i32 786478, i32 0, metadata !249, metadata !"ap_int_base", metadata !"ap_int_base", metadata !"", metadata !250, i32 1522, metadata !296, i1 false, i1 false, i32 0, i32 0, null, i32 384, i1 false, null, null, i32 0, metadata !262, i32 1522} ; [ DW_TAG_subprogram ]
!296 = metadata !{i32 786453, i32 0, metadata !"", i32 0, i32 0, i64 0, i64 0, i64 0, i32 0, null, metadata !297, i32 0, i32 0} ; [ DW_TAG_subroutine_type ]
!297 = metadata !{null, metadata !272, metadata !298}
!298 = metadata !{i32 786468, null, metadata !"unsigned int", null, i32 0, i64 32, i64 32, i64 0, i32 0, i32 7} ; [ DW_TAG_base_type ]
!299 = metadata !{i32 786478, i32 0, metadata !249, metadata !"ap_int_base", metadata !"ap_int_base", metadata !"", metadata !250, i32 1523, metadata !300, i1 false, i1 false, i32 0, i32 0, null, i32 384, i1 false, null, null, i32 0, metadata !262, i32 1523} ; [ DW_TAG_subprogram ]
!300 = metadata !{i32 786453, i32 0, metadata !"", i32 0, i32 0, i64 0, i64 0, i64 0, i32 0, null, metadata !301, i32 0, i32 0} ; [ DW_TAG_subroutine_type ]
!301 = metadata !{null, metadata !272, metadata !302}
!302 = metadata !{i32 786468, null, metadata !"long int", null, i32 0, i64 64, i64 64, i64 0, i32 0, i32 5} ; [ DW_TAG_base_type ]
!303 = metadata !{i32 786478, i32 0, metadata !249, metadata !"ap_int_base", metadata !"ap_int_base", metadata !"", metadata !250, i32 1524, metadata !304, i1 false, i1 false, i32 0, i32 0, null, i32 384, i1 false, null, null, i32 0, metadata !262, i32 1524} ; [ DW_TAG_subprogram ]
!304 = metadata !{i32 786453, i32 0, metadata !"", i32 0, i32 0, i64 0, i64 0, i64 0, i32 0, null, metadata !305, i32 0, i32 0} ; [ DW_TAG_subroutine_type ]
!305 = metadata !{null, metadata !272, metadata !306}
!306 = metadata !{i32 786468, null, metadata !"long unsigned int", null, i32 0, i64 64, i64 64, i64 0, i32 0, i32 7} ; [ DW_TAG_base_type ]
!307 = metadata !{i32 786478, i32 0, metadata !249, metadata !"ap_int_base", metadata !"ap_int_base", metadata !"", metadata !250, i32 1525, metadata !308, i1 false, i1 false, i32 0, i32 0, null, i32 384, i1 false, null, null, i32 0, metadata !262, i32 1525} ; [ DW_TAG_subprogram ]
!308 = metadata !{i32 786453, i32 0, metadata !"", i32 0, i32 0, i64 0, i64 0, i64 0, i32 0, null, metadata !309, i32 0, i32 0} ; [ DW_TAG_subroutine_type ]
!309 = metadata !{null, metadata !272, metadata !310}
!310 = metadata !{i32 786454, null, metadata !"ap_slong", metadata !250, i32 112, i64 0, i64 0, i64 0, i32 0, metadata !311} ; [ DW_TAG_typedef ]
!311 = metadata !{i32 786468, null, metadata !"long long int", null, i32 0, i64 64, i64 64, i64 0, i32 0, i32 5} ; [ DW_TAG_base_type ]
!312 = metadata !{i32 786478, i32 0, metadata !249, metadata !"ap_int_base", metadata !"ap_int_base", metadata !"", metadata !250, i32 1526, metadata !313, i1 false, i1 false, i32 0, i32 0, null, i32 384, i1 false, null, null, i32 0, metadata !262, i32 1526} ; [ DW_TAG_subprogram ]
!313 = metadata !{i32 786453, i32 0, metadata !"", i32 0, i32 0, i64 0, i64 0, i64 0, i32 0, null, metadata !314, i32 0, i32 0} ; [ DW_TAG_subroutine_type ]
!314 = metadata !{null, metadata !272, metadata !315}
!315 = metadata !{i32 786454, null, metadata !"ap_ulong", metadata !250, i32 111, i64 0, i64 0, i64 0, i32 0, metadata !316} ; [ DW_TAG_typedef ]
!316 = metadata !{i32 786468, null, metadata !"long long unsigned int", null, i32 0, i64 64, i64 64, i64 0, i32 0, i32 7} ; [ DW_TAG_base_type ]
!317 = metadata !{i32 786478, i32 0, metadata !249, metadata !"ap_int_base", metadata !"ap_int_base", metadata !"", metadata !250, i32 1527, metadata !318, i1 false, i1 false, i32 0, i32 0, null, i32 384, i1 false, null, null, i32 0, metadata !262, i32 1527} ; [ DW_TAG_subprogram ]
!318 = metadata !{i32 786453, i32 0, metadata !"", i32 0, i32 0, i64 0, i64 0, i64 0, i32 0, null, metadata !319, i32 0, i32 0} ; [ DW_TAG_subroutine_type ]
!319 = metadata !{null, metadata !272, metadata !320}
!320 = metadata !{i32 786454, null, metadata !"half", metadata !250, i32 54, i64 0, i64 0, i64 0, i32 0, metadata !321} ; [ DW_TAG_typedef ]
!321 = metadata !{i32 786468, null, metadata !"half", null, i32 0, i64 16, i64 16, i64 0, i32 0, i32 4} ; [ DW_TAG_base_type ]
!322 = metadata !{i32 786478, i32 0, metadata !249, metadata !"ap_int_base", metadata !"ap_int_base", metadata !"", metadata !250, i32 1528, metadata !323, i1 false, i1 false, i32 0, i32 0, null, i32 384, i1 false, null, null, i32 0, metadata !262, i32 1528} ; [ DW_TAG_subprogram ]
!323 = metadata !{i32 786453, i32 0, metadata !"", i32 0, i32 0, i64 0, i64 0, i64 0, i32 0, null, metadata !324, i32 0, i32 0} ; [ DW_TAG_subroutine_type ]
!324 = metadata !{null, metadata !272, metadata !325}
!325 = metadata !{i32 786468, null, metadata !"float", null, i32 0, i64 32, i64 32, i64 0, i32 0, i32 4} ; [ DW_TAG_base_type ]
!326 = metadata !{i32 786478, i32 0, metadata !249, metadata !"ap_int_base", metadata !"ap_int_base", metadata !"", metadata !250, i32 1529, metadata !327, i1 false, i1 false, i32 0, i32 0, null, i32 384, i1 false, null, null, i32 0, metadata !262, i32 1529} ; [ DW_TAG_subprogram ]
!327 = metadata !{i32 786453, i32 0, metadata !"", i32 0, i32 0, i64 0, i64 0, i64 0, i32 0, null, metadata !328, i32 0, i32 0} ; [ DW_TAG_subroutine_type ]
!328 = metadata !{null, metadata !272, metadata !329}
!329 = metadata !{i32 786468, null, metadata !"double", null, i32 0, i64 64, i64 64, i64 0, i32 0, i32 4} ; [ DW_TAG_base_type ]
!330 = metadata !{i32 786478, i32 0, metadata !249, metadata !"ap_int_base", metadata !"ap_int_base", metadata !"", metadata !250, i32 1556, metadata !331, i1 false, i1 false, i32 0, i32 0, null, i32 256, i1 false, null, null, i32 0, metadata !262, i32 1556} ; [ DW_TAG_subprogram ]
!331 = metadata !{i32 786453, i32 0, metadata !"", i32 0, i32 0, i64 0, i64 0, i64 0, i32 0, null, metadata !332, i32 0, i32 0} ; [ DW_TAG_subroutine_type ]
!332 = metadata !{null, metadata !272, metadata !333}
!333 = metadata !{i32 786447, null, metadata !"", null, i32 0, i64 64, i64 64, i64 0, i32 0, metadata !334} ; [ DW_TAG_pointer_type ]
!334 = metadata !{i32 786470, null, metadata !"", null, i32 0, i64 0, i64 0, i64 0, i32 0, metadata !335} ; [ DW_TAG_const_type ]
!335 = metadata !{i32 786468, null, metadata !"char", null, i32 0, i64 8, i64 8, i64 0, i32 0, i32 6} ; [ DW_TAG_base_type ]
!336 = metadata !{i32 786478, i32 0, metadata !249, metadata !"ap_int_base", metadata !"ap_int_base", metadata !"", metadata !250, i32 1563, metadata !337, i1 false, i1 false, i32 0, i32 0, null, i32 256, i1 false, null, null, i32 0, metadata !262, i32 1563} ; [ DW_TAG_subprogram ]
!337 = metadata !{i32 786453, i32 0, metadata !"", i32 0, i32 0, i64 0, i64 0, i64 0, i32 0, null, metadata !338, i32 0, i32 0} ; [ DW_TAG_subroutine_type ]
!338 = metadata !{null, metadata !272, metadata !333, metadata !279}
!339 = metadata !{i32 786478, i32 0, metadata !249, metadata !"read", metadata !"read", metadata !"_ZNV11ap_int_baseILi16ELb0ELb1EE4readEv", metadata !250, i32 1584, metadata !340, i1 false, i1 false, i32 0, i32 0, null, i32 256, i1 false, null, null, i32 0, metadata !262, i32 1584} ; [ DW_TAG_subprogram ]
!340 = metadata !{i32 786453, i32 0, metadata !"", i32 0, i32 0, i64 0, i64 0, i64 0, i32 0, null, metadata !341, i32 0, i32 0} ; [ DW_TAG_subroutine_type ]
!341 = metadata !{metadata !249, metadata !342}
!342 = metadata !{i32 786447, i32 0, metadata !"", i32 0, i32 0, i64 64, i64 64, i64 0, i32 64, metadata !343} ; [ DW_TAG_pointer_type ]
!343 = metadata !{i32 786485, null, metadata !"", null, i32 0, i64 0, i64 0, i64 0, i32 0, metadata !249} ; [ DW_TAG_volatile_type ]
!344 = metadata !{i32 786478, i32 0, metadata !249, metadata !"write", metadata !"write", metadata !"_ZNV11ap_int_baseILi16ELb0ELb1EE5writeERKS0_", metadata !250, i32 1590, metadata !345, i1 false, i1 false, i32 0, i32 0, null, i32 256, i1 false, null, null, i32 0, metadata !262, i32 1590} ; [ DW_TAG_subprogram ]
!345 = metadata !{i32 786453, i32 0, metadata !"", i32 0, i32 0, i64 0, i64 0, i64 0, i32 0, null, metadata !346, i32 0, i32 0} ; [ DW_TAG_subroutine_type ]
!346 = metadata !{null, metadata !342, metadata !347}
!347 = metadata !{i32 786448, null, null, null, i32 0, i64 0, i64 0, i64 0, i32 0, metadata !348} ; [ DW_TAG_reference_type ]
!348 = metadata !{i32 786470, null, metadata !"", null, i32 0, i64 0, i64 0, i64 0, i32 0, metadata !249} ; [ DW_TAG_const_type ]
!349 = metadata !{i32 786478, i32 0, metadata !249, metadata !"operator=", metadata !"operator=", metadata !"_ZNV11ap_int_baseILi16ELb0ELb1EEaSERVKS0_", metadata !250, i32 1602, metadata !350, i1 false, i1 false, i32 0, i32 0, null, i32 256, i1 false, null, null, i32 0, metadata !262, i32 1602} ; [ DW_TAG_subprogram ]
!350 = metadata !{i32 786453, i32 0, metadata !"", i32 0, i32 0, i64 0, i64 0, i64 0, i32 0, null, metadata !351, i32 0, i32 0} ; [ DW_TAG_subroutine_type ]
!351 = metadata !{null, metadata !342, metadata !352}
!352 = metadata !{i32 786448, null, null, null, i32 0, i64 0, i64 0, i64 0, i32 0, metadata !353} ; [ DW_TAG_reference_type ]
!353 = metadata !{i32 786470, null, metadata !"", null, i32 0, i64 0, i64 0, i64 0, i32 0, metadata !343} ; [ DW_TAG_const_type ]
!354 = metadata !{i32 786478, i32 0, metadata !249, metadata !"operator=", metadata !"operator=", metadata !"_ZNV11ap_int_baseILi16ELb0ELb1EEaSERKS0_", metadata !250, i32 1611, metadata !345, i1 false, i1 false, i32 0, i32 0, null, i32 256, i1 false, null, null, i32 0, metadata !262, i32 1611} ; [ DW_TAG_subprogram ]
!355 = metadata !{i32 786478, i32 0, metadata !249, metadata !"operator=", metadata !"operator=", metadata !"_ZN11ap_int_baseILi16ELb0ELb1EEaSERVKS0_", metadata !250, i32 1634, metadata !356, i1 false, i1 false, i32 0, i32 0, null, i32 256, i1 false, null, null, i32 0, metadata !262, i32 1634} ; [ DW_TAG_subprogram ]
!356 = metadata !{i32 786453, i32 0, metadata !"", i32 0, i32 0, i64 0, i64 0, i64 0, i32 0, null, metadata !357, i32 0, i32 0} ; [ DW_TAG_subroutine_type ]
!357 = metadata !{metadata !358, metadata !272, metadata !352}
!358 = metadata !{i32 786448, null, null, null, i32 0, i64 0, i64 0, i64 0, i32 0, metadata !249} ; [ DW_TAG_reference_type ]
!359 = metadata !{i32 786478, i32 0, metadata !249, metadata !"operator=", metadata !"operator=", metadata !"_ZN11ap_int_baseILi16ELb0ELb1EEaSERKS0_", metadata !250, i32 1639, metadata !360, i1 false, i1 false, i32 0, i32 0, null, i32 256, i1 false, null, null, i32 0, metadata !262, i32 1639} ; [ DW_TAG_subprogram ]
!360 = metadata !{i32 786453, i32 0, metadata !"", i32 0, i32 0, i64 0, i64 0, i64 0, i32 0, null, metadata !361, i32 0, i32 0} ; [ DW_TAG_subroutine_type ]
!361 = metadata !{metadata !358, metadata !272, metadata !347}
!362 = metadata !{i32 786478, i32 0, metadata !249, metadata !"operator=", metadata !"operator=", metadata !"_ZN11ap_int_baseILi16ELb0ELb1EEaSEPKc", metadata !250, i32 1643, metadata !363, i1 false, i1 false, i32 0, i32 0, null, i32 256, i1 false, null, null, i32 0, metadata !262, i32 1643} ; [ DW_TAG_subprogram ]
!363 = metadata !{i32 786453, i32 0, metadata !"", i32 0, i32 0, i64 0, i64 0, i64 0, i32 0, null, metadata !364, i32 0, i32 0} ; [ DW_TAG_subroutine_type ]
!364 = metadata !{metadata !358, metadata !272, metadata !333}
!365 = metadata !{i32 786478, i32 0, metadata !249, metadata !"set", metadata !"set", metadata !"_ZN11ap_int_baseILi16ELb0ELb1EE3setEPKca", metadata !250, i32 1651, metadata !366, i1 false, i1 false, i32 0, i32 0, null, i32 256, i1 false, null, null, i32 0, metadata !262, i32 1651} ; [ DW_TAG_subprogram ]
!366 = metadata !{i32 786453, i32 0, metadata !"", i32 0, i32 0, i64 0, i64 0, i64 0, i32 0, null, metadata !367, i32 0, i32 0} ; [ DW_TAG_subroutine_type ]
!367 = metadata !{metadata !358, metadata !272, metadata !333, metadata !279}
!368 = metadata !{i32 786478, i32 0, metadata !249, metadata !"operator=", metadata !"operator=", metadata !"_ZN11ap_int_baseILi16ELb0ELb1EEaSEa", metadata !250, i32 1665, metadata !369, i1 false, i1 false, i32 0, i32 0, null, i32 256, i1 false, null, null, i32 0, metadata !262, i32 1665} ; [ DW_TAG_subprogram ]
!369 = metadata !{i32 786453, i32 0, metadata !"", i32 0, i32 0, i64 0, i64 0, i64 0, i32 0, null, metadata !370, i32 0, i32 0} ; [ DW_TAG_subroutine_type ]
!370 = metadata !{metadata !358, metadata !272, metadata !279}
!371 = metadata !{i32 786478, i32 0, metadata !249, metadata !"operator=", metadata !"operator=", metadata !"_ZN11ap_int_baseILi16ELb0ELb1EEaSEh", metadata !250, i32 1666, metadata !372, i1 false, i1 false, i32 0, i32 0, null, i32 256, i1 false, null, null, i32 0, metadata !262, i32 1666} ; [ DW_TAG_subprogram ]
!372 = metadata !{i32 786453, i32 0, metadata !"", i32 0, i32 0, i64 0, i64 0, i64 0, i32 0, null, metadata !373, i32 0, i32 0} ; [ DW_TAG_subroutine_type ]
!373 = metadata !{metadata !358, metadata !272, metadata !283}
!374 = metadata !{i32 786478, i32 0, metadata !249, metadata !"operator=", metadata !"operator=", metadata !"_ZN11ap_int_baseILi16ELb0ELb1EEaSEs", metadata !250, i32 1667, metadata !375, i1 false, i1 false, i32 0, i32 0, null, i32 256, i1 false, null, null, i32 0, metadata !262, i32 1667} ; [ DW_TAG_subprogram ]
!375 = metadata !{i32 786453, i32 0, metadata !"", i32 0, i32 0, i64 0, i64 0, i64 0, i32 0, null, metadata !376, i32 0, i32 0} ; [ DW_TAG_subroutine_type ]
!376 = metadata !{metadata !358, metadata !272, metadata !287}
!377 = metadata !{i32 786478, i32 0, metadata !249, metadata !"operator=", metadata !"operator=", metadata !"_ZN11ap_int_baseILi16ELb0ELb1EEaSEt", metadata !250, i32 1668, metadata !378, i1 false, i1 false, i32 0, i32 0, null, i32 256, i1 false, null, null, i32 0, metadata !262, i32 1668} ; [ DW_TAG_subprogram ]
!378 = metadata !{i32 786453, i32 0, metadata !"", i32 0, i32 0, i64 0, i64 0, i64 0, i32 0, null, metadata !379, i32 0, i32 0} ; [ DW_TAG_subroutine_type ]
!379 = metadata !{metadata !358, metadata !272, metadata !291}
!380 = metadata !{i32 786478, i32 0, metadata !249, metadata !"operator=", metadata !"operator=", metadata !"_ZN11ap_int_baseILi16ELb0ELb1EEaSEi", metadata !250, i32 1669, metadata !381, i1 false, i1 false, i32 0, i32 0, null, i32 256, i1 false, null, null, i32 0, metadata !262, i32 1669} ; [ DW_TAG_subprogram ]
!381 = metadata !{i32 786453, i32 0, metadata !"", i32 0, i32 0, i64 0, i64 0, i64 0, i32 0, null, metadata !382, i32 0, i32 0} ; [ DW_TAG_subroutine_type ]
!382 = metadata !{metadata !358, metadata !272, metadata !266}
!383 = metadata !{i32 786478, i32 0, metadata !249, metadata !"operator=", metadata !"operator=", metadata !"_ZN11ap_int_baseILi16ELb0ELb1EEaSEj", metadata !250, i32 1670, metadata !384, i1 false, i1 false, i32 0, i32 0, null, i32 256, i1 false, null, null, i32 0, metadata !262, i32 1670} ; [ DW_TAG_subprogram ]
!384 = metadata !{i32 786453, i32 0, metadata !"", i32 0, i32 0, i64 0, i64 0, i64 0, i32 0, null, metadata !385, i32 0, i32 0} ; [ DW_TAG_subroutine_type ]
!385 = metadata !{metadata !358, metadata !272, metadata !298}
!386 = metadata !{i32 786478, i32 0, metadata !249, metadata !"operator=", metadata !"operator=", metadata !"_ZN11ap_int_baseILi16ELb0ELb1EEaSEx", metadata !250, i32 1671, metadata !387, i1 false, i1 false, i32 0, i32 0, null, i32 256, i1 false, null, null, i32 0, metadata !262, i32 1671} ; [ DW_TAG_subprogram ]
!387 = metadata !{i32 786453, i32 0, metadata !"", i32 0, i32 0, i64 0, i64 0, i64 0, i32 0, null, metadata !388, i32 0, i32 0} ; [ DW_TAG_subroutine_type ]
!388 = metadata !{metadata !358, metadata !272, metadata !310}
!389 = metadata !{i32 786478, i32 0, metadata !249, metadata !"operator=", metadata !"operator=", metadata !"_ZN11ap_int_baseILi16ELb0ELb1EEaSEy", metadata !250, i32 1672, metadata !390, i1 false, i1 false, i32 0, i32 0, null, i32 256, i1 false, null, null, i32 0, metadata !262, i32 1672} ; [ DW_TAG_subprogram ]
!390 = metadata !{i32 786453, i32 0, metadata !"", i32 0, i32 0, i64 0, i64 0, i64 0, i32 0, null, metadata !391, i32 0, i32 0} ; [ DW_TAG_subroutine_type ]
!391 = metadata !{metadata !358, metadata !272, metadata !315}
!392 = metadata !{i32 786478, i32 0, metadata !249, metadata !"operator unsigned short", metadata !"operator unsigned short", metadata !"_ZNK11ap_int_baseILi16ELb0ELb1EEcvtEv", metadata !250, i32 1710, metadata !393, i1 false, i1 false, i32 0, i32 0, null, i32 256, i1 false, null, null, i32 0, metadata !262, i32 1710} ; [ DW_TAG_subprogram ]
!393 = metadata !{i32 786453, i32 0, metadata !"", i32 0, i32 0, i64 0, i64 0, i64 0, i32 0, null, metadata !394, i32 0, i32 0} ; [ DW_TAG_subroutine_type ]
!394 = metadata !{metadata !395, metadata !401}
!395 = metadata !{i32 786454, metadata !249, metadata !"RetType", metadata !250, i32 1458, i64 0, i64 0, i64 0, i32 0, metadata !396} ; [ DW_TAG_typedef ]
!396 = metadata !{i32 786454, metadata !397, metadata !"Type", metadata !250, i32 1432, i64 0, i64 0, i64 0, i32 0, metadata !291} ; [ DW_TAG_typedef ]
!397 = metadata !{i32 786434, null, metadata !"retval<2, false>", metadata !250, i32 1431, i64 8, i64 8, i32 0, i32 0, null, metadata !398, i32 0, null, metadata !399} ; [ DW_TAG_class_type ]
!398 = metadata !{i32 0}
!399 = metadata !{metadata !400, metadata !267}
!400 = metadata !{i32 786480, null, metadata !"_AP_N", metadata !266, i64 2, null, i32 0, i32 0} ; [ DW_TAG_template_value_parameter ]
!401 = metadata !{i32 786447, i32 0, metadata !"", i32 0, i32 0, i64 64, i64 64, i64 0, i32 64, metadata !348} ; [ DW_TAG_pointer_type ]
!402 = metadata !{i32 786478, i32 0, metadata !249, metadata !"to_bool", metadata !"to_bool", metadata !"_ZNK11ap_int_baseILi16ELb0ELb1EE7to_boolEv", metadata !250, i32 1716, metadata !403, i1 false, i1 false, i32 0, i32 0, null, i32 256, i1 false, null, null, i32 0, metadata !262, i32 1716} ; [ DW_TAG_subprogram ]
!403 = metadata !{i32 786453, i32 0, metadata !"", i32 0, i32 0, i64 0, i64 0, i64 0, i32 0, null, metadata !404, i32 0, i32 0} ; [ DW_TAG_subroutine_type ]
!404 = metadata !{metadata !268, metadata !401}
!405 = metadata !{i32 786478, i32 0, metadata !249, metadata !"to_uchar", metadata !"to_uchar", metadata !"_ZNK11ap_int_baseILi16ELb0ELb1EE8to_ucharEv", metadata !250, i32 1717, metadata !406, i1 false, i1 false, i32 0, i32 0, null, i32 256, i1 false, null, null, i32 0, metadata !262, i32 1717} ; [ DW_TAG_subprogram ]
!406 = metadata !{i32 786453, i32 0, metadata !"", i32 0, i32 0, i64 0, i64 0, i64 0, i32 0, null, metadata !407, i32 0, i32 0} ; [ DW_TAG_subroutine_type ]
!407 = metadata !{metadata !283, metadata !401}
!408 = metadata !{i32 786478, i32 0, metadata !249, metadata !"to_char", metadata !"to_char", metadata !"_ZNK11ap_int_baseILi16ELb0ELb1EE7to_charEv", metadata !250, i32 1718, metadata !409, i1 false, i1 false, i32 0, i32 0, null, i32 256, i1 false, null, null, i32 0, metadata !262, i32 1718} ; [ DW_TAG_subprogram ]
!409 = metadata !{i32 786453, i32 0, metadata !"", i32 0, i32 0, i64 0, i64 0, i64 0, i32 0, null, metadata !410, i32 0, i32 0} ; [ DW_TAG_subroutine_type ]
!410 = metadata !{metadata !279, metadata !401}
!411 = metadata !{i32 786478, i32 0, metadata !249, metadata !"to_ushort", metadata !"to_ushort", metadata !"_ZNK11ap_int_baseILi16ELb0ELb1EE9to_ushortEv", metadata !250, i32 1719, metadata !412, i1 false, i1 false, i32 0, i32 0, null, i32 256, i1 false, null, null, i32 0, metadata !262, i32 1719} ; [ DW_TAG_subprogram ]
!412 = metadata !{i32 786453, i32 0, metadata !"", i32 0, i32 0, i64 0, i64 0, i64 0, i32 0, null, metadata !413, i32 0, i32 0} ; [ DW_TAG_subroutine_type ]
!413 = metadata !{metadata !291, metadata !401}
!414 = metadata !{i32 786478, i32 0, metadata !249, metadata !"to_short", metadata !"to_short", metadata !"_ZNK11ap_int_baseILi16ELb0ELb1EE8to_shortEv", metadata !250, i32 1720, metadata !415, i1 false, i1 false, i32 0, i32 0, null, i32 256, i1 false, null, null, i32 0, metadata !262, i32 1720} ; [ DW_TAG_subprogram ]
!415 = metadata !{i32 786453, i32 0, metadata !"", i32 0, i32 0, i64 0, i64 0, i64 0, i32 0, null, metadata !416, i32 0, i32 0} ; [ DW_TAG_subroutine_type ]
!416 = metadata !{metadata !287, metadata !401}
!417 = metadata !{i32 786478, i32 0, metadata !249, metadata !"to_int", metadata !"to_int", metadata !"_ZNK11ap_int_baseILi16ELb0ELb1EE6to_intEv", metadata !250, i32 1721, metadata !418, i1 false, i1 false, i32 0, i32 0, null, i32 256, i1 false, null, null, i32 0, metadata !262, i32 1721} ; [ DW_TAG_subprogram ]
!418 = metadata !{i32 786453, i32 0, metadata !"", i32 0, i32 0, i64 0, i64 0, i64 0, i32 0, null, metadata !419, i32 0, i32 0} ; [ DW_TAG_subroutine_type ]
!419 = metadata !{metadata !266, metadata !401}
!420 = metadata !{i32 786478, i32 0, metadata !249, metadata !"to_uint", metadata !"to_uint", metadata !"_ZNK11ap_int_baseILi16ELb0ELb1EE7to_uintEv", metadata !250, i32 1722, metadata !421, i1 false, i1 false, i32 0, i32 0, null, i32 256, i1 false, null, null, i32 0, metadata !262, i32 1722} ; [ DW_TAG_subprogram ]
!421 = metadata !{i32 786453, i32 0, metadata !"", i32 0, i32 0, i64 0, i64 0, i64 0, i32 0, null, metadata !422, i32 0, i32 0} ; [ DW_TAG_subroutine_type ]
!422 = metadata !{metadata !298, metadata !401}
!423 = metadata !{i32 786478, i32 0, metadata !249, metadata !"to_long", metadata !"to_long", metadata !"_ZNK11ap_int_baseILi16ELb0ELb1EE7to_longEv", metadata !250, i32 1723, metadata !424, i1 false, i1 false, i32 0, i32 0, null, i32 256, i1 false, null, null, i32 0, metadata !262, i32 1723} ; [ DW_TAG_subprogram ]
!424 = metadata !{i32 786453, i32 0, metadata !"", i32 0, i32 0, i64 0, i64 0, i64 0, i32 0, null, metadata !425, i32 0, i32 0} ; [ DW_TAG_subroutine_type ]
!425 = metadata !{metadata !302, metadata !401}
!426 = metadata !{i32 786478, i32 0, metadata !249, metadata !"to_ulong", metadata !"to_ulong", metadata !"_ZNK11ap_int_baseILi16ELb0ELb1EE8to_ulongEv", metadata !250, i32 1724, metadata !427, i1 false, i1 false, i32 0, i32 0, null, i32 256, i1 false, null, null, i32 0, metadata !262, i32 1724} ; [ DW_TAG_subprogram ]
!427 = metadata !{i32 786453, i32 0, metadata !"", i32 0, i32 0, i64 0, i64 0, i64 0, i32 0, null, metadata !428, i32 0, i32 0} ; [ DW_TAG_subroutine_type ]
!428 = metadata !{metadata !306, metadata !401}
!429 = metadata !{i32 786478, i32 0, metadata !249, metadata !"to_int64", metadata !"to_int64", metadata !"_ZNK11ap_int_baseILi16ELb0ELb1EE8to_int64Ev", metadata !250, i32 1725, metadata !430, i1 false, i1 false, i32 0, i32 0, null, i32 256, i1 false, null, null, i32 0, metadata !262, i32 1725} ; [ DW_TAG_subprogram ]
!430 = metadata !{i32 786453, i32 0, metadata !"", i32 0, i32 0, i64 0, i64 0, i64 0, i32 0, null, metadata !431, i32 0, i32 0} ; [ DW_TAG_subroutine_type ]
!431 = metadata !{metadata !310, metadata !401}
!432 = metadata !{i32 786478, i32 0, metadata !249, metadata !"to_uint64", metadata !"to_uint64", metadata !"_ZNK11ap_int_baseILi16ELb0ELb1EE9to_uint64Ev", metadata !250, i32 1726, metadata !433, i1 false, i1 false, i32 0, i32 0, null, i32 256, i1 false, null, null, i32 0, metadata !262, i32 1726} ; [ DW_TAG_subprogram ]
!433 = metadata !{i32 786453, i32 0, metadata !"", i32 0, i32 0, i64 0, i64 0, i64 0, i32 0, null, metadata !434, i32 0, i32 0} ; [ DW_TAG_subroutine_type ]
!434 = metadata !{metadata !315, metadata !401}
!435 = metadata !{i32 786478, i32 0, metadata !249, metadata !"to_double", metadata !"to_double", metadata !"_ZNK11ap_int_baseILi16ELb0ELb1EE9to_doubleEv", metadata !250, i32 1727, metadata !436, i1 false, i1 false, i32 0, i32 0, null, i32 256, i1 false, null, null, i32 0, metadata !262, i32 1727} ; [ DW_TAG_subprogram ]
!436 = metadata !{i32 786453, i32 0, metadata !"", i32 0, i32 0, i64 0, i64 0, i64 0, i32 0, null, metadata !437, i32 0, i32 0} ; [ DW_TAG_subroutine_type ]
!437 = metadata !{metadata !329, metadata !401}
!438 = metadata !{i32 786478, i32 0, metadata !249, metadata !"length", metadata !"length", metadata !"_ZNK11ap_int_baseILi16ELb0ELb1EE6lengthEv", metadata !250, i32 1741, metadata !418, i1 false, i1 false, i32 0, i32 0, null, i32 256, i1 false, null, null, i32 0, metadata !262, i32 1741} ; [ DW_TAG_subprogram ]
!439 = metadata !{i32 786478, i32 0, metadata !249, metadata !"length", metadata !"length", metadata !"_ZNVK11ap_int_baseILi16ELb0ELb1EE6lengthEv", metadata !250, i32 1742, metadata !440, i1 false, i1 false, i32 0, i32 0, null, i32 256, i1 false, null, null, i32 0, metadata !262, i32 1742} ; [ DW_TAG_subprogram ]
!440 = metadata !{i32 786453, i32 0, metadata !"", i32 0, i32 0, i64 0, i64 0, i64 0, i32 0, null, metadata !441, i32 0, i32 0} ; [ DW_TAG_subroutine_type ]
!441 = metadata !{metadata !266, metadata !442}
!442 = metadata !{i32 786447, i32 0, metadata !"", i32 0, i32 0, i64 64, i64 64, i64 0, i32 64, metadata !353} ; [ DW_TAG_pointer_type ]
!443 = metadata !{i32 786478, i32 0, metadata !249, metadata !"reverse", metadata !"reverse", metadata !"_ZN11ap_int_baseILi16ELb0ELb1EE7reverseEv", metadata !250, i32 1747, metadata !444, i1 false, i1 false, i32 0, i32 0, null, i32 256, i1 false, null, null, i32 0, metadata !262, i32 1747} ; [ DW_TAG_subprogram ]
!444 = metadata !{i32 786453, i32 0, metadata !"", i32 0, i32 0, i64 0, i64 0, i64 0, i32 0, null, metadata !445, i32 0, i32 0} ; [ DW_TAG_subroutine_type ]
!445 = metadata !{metadata !358, metadata !272}
!446 = metadata !{i32 786478, i32 0, metadata !249, metadata !"iszero", metadata !"iszero", metadata !"_ZNK11ap_int_baseILi16ELb0ELb1EE6iszeroEv", metadata !250, i32 1753, metadata !403, i1 false, i1 false, i32 0, i32 0, null, i32 256, i1 false, null, null, i32 0, metadata !262, i32 1753} ; [ DW_TAG_subprogram ]
!447 = metadata !{i32 786478, i32 0, metadata !249, metadata !"is_zero", metadata !"is_zero", metadata !"_ZNK11ap_int_baseILi16ELb0ELb1EE7is_zeroEv", metadata !250, i32 1758, metadata !403, i1 false, i1 false, i32 0, i32 0, null, i32 256, i1 false, null, null, i32 0, metadata !262, i32 1758} ; [ DW_TAG_subprogram ]
!448 = metadata !{i32 786478, i32 0, metadata !249, metadata !"sign", metadata !"sign", metadata !"_ZNK11ap_int_baseILi16ELb0ELb1EE4signEv", metadata !250, i32 1763, metadata !403, i1 false, i1 false, i32 0, i32 0, null, i32 256, i1 false, null, null, i32 0, metadata !262, i32 1763} ; [ DW_TAG_subprogram ]
!449 = metadata !{i32 786478, i32 0, metadata !249, metadata !"clear", metadata !"clear", metadata !"_ZN11ap_int_baseILi16ELb0ELb1EE5clearEi", metadata !250, i32 1771, metadata !293, i1 false, i1 false, i32 0, i32 0, null, i32 256, i1 false, null, null, i32 0, metadata !262, i32 1771} ; [ DW_TAG_subprogram ]
!450 = metadata !{i32 786478, i32 0, metadata !249, metadata !"invert", metadata !"invert", metadata !"_ZN11ap_int_baseILi16ELb0ELb1EE6invertEi", metadata !250, i32 1777, metadata !293, i1 false, i1 false, i32 0, i32 0, null, i32 256, i1 false, null, null, i32 0, metadata !262, i32 1777} ; [ DW_TAG_subprogram ]
!451 = metadata !{i32 786478, i32 0, metadata !249, metadata !"test", metadata !"test", metadata !"_ZNK11ap_int_baseILi16ELb0ELb1EE4testEi", metadata !250, i32 1785, metadata !452, i1 false, i1 false, i32 0, i32 0, null, i32 256, i1 false, null, null, i32 0, metadata !262, i32 1785} ; [ DW_TAG_subprogram ]
!452 = metadata !{i32 786453, i32 0, metadata !"", i32 0, i32 0, i64 0, i64 0, i64 0, i32 0, null, metadata !453, i32 0, i32 0} ; [ DW_TAG_subroutine_type ]
!453 = metadata !{metadata !268, metadata !401, metadata !266}
!454 = metadata !{i32 786478, i32 0, metadata !249, metadata !"set", metadata !"set", metadata !"_ZN11ap_int_baseILi16ELb0ELb1EE3setEi", metadata !250, i32 1791, metadata !293, i1 false, i1 false, i32 0, i32 0, null, i32 256, i1 false, null, null, i32 0, metadata !262, i32 1791} ; [ DW_TAG_subprogram ]
!455 = metadata !{i32 786478, i32 0, metadata !249, metadata !"set", metadata !"set", metadata !"_ZN11ap_int_baseILi16ELb0ELb1EE3setEib", metadata !250, i32 1797, metadata !456, i1 false, i1 false, i32 0, i32 0, null, i32 256, i1 false, null, null, i32 0, metadata !262, i32 1797} ; [ DW_TAG_subprogram ]
!456 = metadata !{i32 786453, i32 0, metadata !"", i32 0, i32 0, i64 0, i64 0, i64 0, i32 0, null, metadata !457, i32 0, i32 0} ; [ DW_TAG_subroutine_type ]
!457 = metadata !{null, metadata !272, metadata !266, metadata !268}
!458 = metadata !{i32 786478, i32 0, metadata !249, metadata !"lrotate", metadata !"lrotate", metadata !"_ZN11ap_int_baseILi16ELb0ELb1EE7lrotateEi", metadata !250, i32 1804, metadata !293, i1 false, i1 false, i32 0, i32 0, null, i32 256, i1 false, null, null, i32 0, metadata !262, i32 1804} ; [ DW_TAG_subprogram ]
!459 = metadata !{i32 786478, i32 0, metadata !249, metadata !"rrotate", metadata !"rrotate", metadata !"_ZN11ap_int_baseILi16ELb0ELb1EE7rrotateEi", metadata !250, i32 1813, metadata !293, i1 false, i1 false, i32 0, i32 0, null, i32 256, i1 false, null, null, i32 0, metadata !262, i32 1813} ; [ DW_TAG_subprogram ]
!460 = metadata !{i32 786478, i32 0, metadata !249, metadata !"set_bit", metadata !"set_bit", metadata !"_ZN11ap_int_baseILi16ELb0ELb1EE7set_bitEib", metadata !250, i32 1821, metadata !456, i1 false, i1 false, i32 0, i32 0, null, i32 256, i1 false, null, null, i32 0, metadata !262, i32 1821} ; [ DW_TAG_subprogram ]
!461 = metadata !{i32 786478, i32 0, metadata !249, metadata !"get_bit", metadata !"get_bit", metadata !"_ZNK11ap_int_baseILi16ELb0ELb1EE7get_bitEi", metadata !250, i32 1826, metadata !452, i1 false, i1 false, i32 0, i32 0, null, i32 256, i1 false, null, null, i32 0, metadata !262, i32 1826} ; [ DW_TAG_subprogram ]
!462 = metadata !{i32 786478, i32 0, metadata !249, metadata !"b_not", metadata !"b_not", metadata !"_ZN11ap_int_baseILi16ELb0ELb1EE5b_notEv", metadata !250, i32 1831, metadata !270, i1 false, i1 false, i32 0, i32 0, null, i32 256, i1 false, null, null, i32 0, metadata !262, i32 1831} ; [ DW_TAG_subprogram ]
!463 = metadata !{i32 786478, i32 0, metadata !249, metadata !"countLeadingZeros", metadata !"countLeadingZeros", metadata !"_ZN11ap_int_baseILi16ELb0ELb1EE17countLeadingZerosEv", metadata !250, i32 1838, metadata !464, i1 false, i1 false, i32 0, i32 0, null, i32 256, i1 false, null, null, i32 0, metadata !262, i32 1838} ; [ DW_TAG_subprogram ]
!464 = metadata !{i32 786453, i32 0, metadata !"", i32 0, i32 0, i64 0, i64 0, i64 0, i32 0, null, metadata !465, i32 0, i32 0} ; [ DW_TAG_subroutine_type ]
!465 = metadata !{metadata !266, metadata !272}
!466 = metadata !{i32 786478, i32 0, metadata !249, metadata !"operator++", metadata !"operator++", metadata !"_ZN11ap_int_baseILi16ELb0ELb1EEppEv", metadata !250, i32 1895, metadata !444, i1 false, i1 false, i32 0, i32 0, null, i32 256, i1 false, null, null, i32 0, metadata !262, i32 1895} ; [ DW_TAG_subprogram ]
!467 = metadata !{i32 786478, i32 0, metadata !249, metadata !"operator--", metadata !"operator--", metadata !"_ZN11ap_int_baseILi16ELb0ELb1EEmmEv", metadata !250, i32 1899, metadata !444, i1 false, i1 false, i32 0, i32 0, null, i32 256, i1 false, null, null, i32 0, metadata !262, i32 1899} ; [ DW_TAG_subprogram ]
!468 = metadata !{i32 786478, i32 0, metadata !249, metadata !"operator++", metadata !"operator++", metadata !"_ZN11ap_int_baseILi16ELb0ELb1EEppEi", metadata !250, i32 1907, metadata !469, i1 false, i1 false, i32 0, i32 0, null, i32 256, i1 false, null, null, i32 0, metadata !262, i32 1907} ; [ DW_TAG_subprogram ]
!469 = metadata !{i32 786453, i32 0, metadata !"", i32 0, i32 0, i64 0, i64 0, i64 0, i32 0, null, metadata !470, i32 0, i32 0} ; [ DW_TAG_subroutine_type ]
!470 = metadata !{metadata !348, metadata !272, metadata !266}
!471 = metadata !{i32 786478, i32 0, metadata !249, metadata !"operator--", metadata !"operator--", metadata !"_ZN11ap_int_baseILi16ELb0ELb1EEmmEi", metadata !250, i32 1912, metadata !469, i1 false, i1 false, i32 0, i32 0, null, i32 256, i1 false, null, null, i32 0, metadata !262, i32 1912} ; [ DW_TAG_subprogram ]
!472 = metadata !{i32 786478, i32 0, metadata !249, metadata !"operator+", metadata !"operator+", metadata !"_ZNK11ap_int_baseILi16ELb0ELb1EEpsEv", metadata !250, i32 1921, metadata !473, i1 false, i1 false, i32 0, i32 0, null, i32 256, i1 false, null, null, i32 0, metadata !262, i32 1921} ; [ DW_TAG_subprogram ]
!473 = metadata !{i32 786453, i32 0, metadata !"", i32 0, i32 0, i64 0, i64 0, i64 0, i32 0, null, metadata !474, i32 0, i32 0} ; [ DW_TAG_subroutine_type ]
!474 = metadata !{metadata !249, metadata !401}
!475 = metadata !{i32 786478, i32 0, metadata !249, metadata !"operator!", metadata !"operator!", metadata !"_ZNK11ap_int_baseILi16ELb0ELb1EEntEv", metadata !250, i32 1927, metadata !403, i1 false, i1 false, i32 0, i32 0, null, i32 256, i1 false, null, null, i32 0, metadata !262, i32 1927} ; [ DW_TAG_subprogram ]
!476 = metadata !{i32 786478, i32 0, metadata !249, metadata !"operator-", metadata !"operator-", metadata !"_ZNK11ap_int_baseILi16ELb0ELb1EEngEv", metadata !250, i32 1932, metadata !477, i1 false, i1 false, i32 0, i32 0, null, i32 256, i1 false, null, null, i32 0, metadata !262, i32 1932} ; [ DW_TAG_subprogram ]
!477 = metadata !{i32 786453, i32 0, metadata !"", i32 0, i32 0, i64 0, i64 0, i64 0, i32 0, null, metadata !478, i32 0, i32 0} ; [ DW_TAG_subroutine_type ]
!478 = metadata !{metadata !479, metadata !401}
!479 = metadata !{i32 786434, null, metadata !"ap_int_base<17, true, true>", metadata !250, i32 1453, i64 32, i64 32, i32 0, i32 0, null, metadata !480, i32 0, null, metadata !769} ; [ DW_TAG_class_type ]
!480 = metadata !{metadata !481, metadata !493, metadata !497, metadata !500, metadata !503, metadata !506, metadata !509, metadata !512, metadata !515, metadata !518, metadata !521, metadata !524, metadata !527, metadata !530, metadata !533, metadata !536, metadata !539, metadata !542, metadata !545, metadata !550, metadata !555, metadata !560, metadata !561, metadata !565, metadata !568, metadata !571, metadata !574, metadata !577, metadata !580, metadata !583, metadata !586, metadata !589, metadata !592, metadata !595, metadata !598, metadata !607, metadata !610, metadata !613, metadata !616, metadata !619, metadata !622, metadata !625, metadata !628, metadata !631, metadata !634, metadata !637, metadata !640, metadata !643, metadata !644, metadata !648, metadata !651, metadata !652, metadata !653, metadata !654, metadata !655, metadata !656, metadata !659, metadata !660, metadata !663, metadata !664, metadata !665, metadata !666, metadata !667, metadata !668, metadata !671, metadata !672, metadata !673, metadata !676, metadata !677, metadata !680, metadata !681, metadata !688, metadata !694, metadata !695, metadata !698, metadata !699, metadata !736, metadata !737, metadata !738, metadata !739, metadata !742, metadata !743, metadata !744, metadata !745, metadata !746, metadata !747, metadata !748, metadata !749, metadata !750, metadata !751, metadata !752, metadata !753, metadata !763, metadata !766}
!481 = metadata !{i32 786460, metadata !479, null, metadata !250, i32 0, i64 0, i64 0, i64 0, i32 0, metadata !482} ; [ DW_TAG_inheritance ]
!482 = metadata !{i32 786434, null, metadata !"ssdm_int<17 + 1024 * 0, true>", metadata !254, i32 19, i64 32, i64 32, i32 0, i32 0, null, metadata !483, i32 0, null, metadata !490} ; [ DW_TAG_class_type ]
!483 = metadata !{metadata !484, metadata !486}
!484 = metadata !{i32 786445, metadata !482, metadata !"V", metadata !254, i32 19, i64 17, i64 32, i64 0, i32 0, metadata !485} ; [ DW_TAG_member ]
!485 = metadata !{i32 786468, null, metadata !"int17", null, i32 0, i64 17, i64 32, i64 0, i32 0, i32 5} ; [ DW_TAG_base_type ]
!486 = metadata !{i32 786478, i32 0, metadata !482, metadata !"ssdm_int", metadata !"ssdm_int", metadata !"", metadata !254, i32 19, metadata !487, i1 false, i1 false, i32 0, i32 0, null, i32 256, i1 false, null, null, i32 0, metadata !262, i32 19} ; [ DW_TAG_subprogram ]
!487 = metadata !{i32 786453, i32 0, metadata !"", i32 0, i32 0, i64 0, i64 0, i64 0, i32 0, null, metadata !488, i32 0, i32 0} ; [ DW_TAG_subroutine_type ]
!488 = metadata !{null, metadata !489}
!489 = metadata !{i32 786447, i32 0, metadata !"", i32 0, i32 0, i64 64, i64 64, i64 0, i32 64, metadata !482} ; [ DW_TAG_pointer_type ]
!490 = metadata !{metadata !491, metadata !492}
!491 = metadata !{i32 786480, null, metadata !"_AP_N", metadata !266, i64 17, null, i32 0, i32 0} ; [ DW_TAG_template_value_parameter ]
!492 = metadata !{i32 786480, null, metadata !"_AP_S", metadata !268, i64 1, null, i32 0, i32 0} ; [ DW_TAG_template_value_parameter ]
!493 = metadata !{i32 786478, i32 0, metadata !479, metadata !"ap_int_base", metadata !"ap_int_base", metadata !"", metadata !250, i32 1494, metadata !494, i1 false, i1 false, i32 0, i32 0, null, i32 256, i1 false, null, null, i32 0, metadata !262, i32 1494} ; [ DW_TAG_subprogram ]
!494 = metadata !{i32 786453, i32 0, metadata !"", i32 0, i32 0, i64 0, i64 0, i64 0, i32 0, null, metadata !495, i32 0, i32 0} ; [ DW_TAG_subroutine_type ]
!495 = metadata !{null, metadata !496}
!496 = metadata !{i32 786447, i32 0, metadata !"", i32 0, i32 0, i64 64, i64 64, i64 0, i32 64, metadata !479} ; [ DW_TAG_pointer_type ]
!497 = metadata !{i32 786478, i32 0, metadata !479, metadata !"ap_int_base", metadata !"ap_int_base", metadata !"", metadata !250, i32 1516, metadata !498, i1 false, i1 false, i32 0, i32 0, null, i32 384, i1 false, null, null, i32 0, metadata !262, i32 1516} ; [ DW_TAG_subprogram ]
!498 = metadata !{i32 786453, i32 0, metadata !"", i32 0, i32 0, i64 0, i64 0, i64 0, i32 0, null, metadata !499, i32 0, i32 0} ; [ DW_TAG_subroutine_type ]
!499 = metadata !{null, metadata !496, metadata !268}
!500 = metadata !{i32 786478, i32 0, metadata !479, metadata !"ap_int_base", metadata !"ap_int_base", metadata !"", metadata !250, i32 1517, metadata !501, i1 false, i1 false, i32 0, i32 0, null, i32 384, i1 false, null, null, i32 0, metadata !262, i32 1517} ; [ DW_TAG_subprogram ]
!501 = metadata !{i32 786453, i32 0, metadata !"", i32 0, i32 0, i64 0, i64 0, i64 0, i32 0, null, metadata !502, i32 0, i32 0} ; [ DW_TAG_subroutine_type ]
!502 = metadata !{null, metadata !496, metadata !279}
!503 = metadata !{i32 786478, i32 0, metadata !479, metadata !"ap_int_base", metadata !"ap_int_base", metadata !"", metadata !250, i32 1518, metadata !504, i1 false, i1 false, i32 0, i32 0, null, i32 384, i1 false, null, null, i32 0, metadata !262, i32 1518} ; [ DW_TAG_subprogram ]
!504 = metadata !{i32 786453, i32 0, metadata !"", i32 0, i32 0, i64 0, i64 0, i64 0, i32 0, null, metadata !505, i32 0, i32 0} ; [ DW_TAG_subroutine_type ]
!505 = metadata !{null, metadata !496, metadata !283}
!506 = metadata !{i32 786478, i32 0, metadata !479, metadata !"ap_int_base", metadata !"ap_int_base", metadata !"", metadata !250, i32 1519, metadata !507, i1 false, i1 false, i32 0, i32 0, null, i32 384, i1 false, null, null, i32 0, metadata !262, i32 1519} ; [ DW_TAG_subprogram ]
!507 = metadata !{i32 786453, i32 0, metadata !"", i32 0, i32 0, i64 0, i64 0, i64 0, i32 0, null, metadata !508, i32 0, i32 0} ; [ DW_TAG_subroutine_type ]
!508 = metadata !{null, metadata !496, metadata !287}
!509 = metadata !{i32 786478, i32 0, metadata !479, metadata !"ap_int_base", metadata !"ap_int_base", metadata !"", metadata !250, i32 1520, metadata !510, i1 false, i1 false, i32 0, i32 0, null, i32 384, i1 false, null, null, i32 0, metadata !262, i32 1520} ; [ DW_TAG_subprogram ]
!510 = metadata !{i32 786453, i32 0, metadata !"", i32 0, i32 0, i64 0, i64 0, i64 0, i32 0, null, metadata !511, i32 0, i32 0} ; [ DW_TAG_subroutine_type ]
!511 = metadata !{null, metadata !496, metadata !291}
!512 = metadata !{i32 786478, i32 0, metadata !479, metadata !"ap_int_base", metadata !"ap_int_base", metadata !"", metadata !250, i32 1521, metadata !513, i1 false, i1 false, i32 0, i32 0, null, i32 384, i1 false, null, null, i32 0, metadata !262, i32 1521} ; [ DW_TAG_subprogram ]
!513 = metadata !{i32 786453, i32 0, metadata !"", i32 0, i32 0, i64 0, i64 0, i64 0, i32 0, null, metadata !514, i32 0, i32 0} ; [ DW_TAG_subroutine_type ]
!514 = metadata !{null, metadata !496, metadata !266}
!515 = metadata !{i32 786478, i32 0, metadata !479, metadata !"ap_int_base", metadata !"ap_int_base", metadata !"", metadata !250, i32 1522, metadata !516, i1 false, i1 false, i32 0, i32 0, null, i32 384, i1 false, null, null, i32 0, metadata !262, i32 1522} ; [ DW_TAG_subprogram ]
!516 = metadata !{i32 786453, i32 0, metadata !"", i32 0, i32 0, i64 0, i64 0, i64 0, i32 0, null, metadata !517, i32 0, i32 0} ; [ DW_TAG_subroutine_type ]
!517 = metadata !{null, metadata !496, metadata !298}
!518 = metadata !{i32 786478, i32 0, metadata !479, metadata !"ap_int_base", metadata !"ap_int_base", metadata !"", metadata !250, i32 1523, metadata !519, i1 false, i1 false, i32 0, i32 0, null, i32 384, i1 false, null, null, i32 0, metadata !262, i32 1523} ; [ DW_TAG_subprogram ]
!519 = metadata !{i32 786453, i32 0, metadata !"", i32 0, i32 0, i64 0, i64 0, i64 0, i32 0, null, metadata !520, i32 0, i32 0} ; [ DW_TAG_subroutine_type ]
!520 = metadata !{null, metadata !496, metadata !302}
!521 = metadata !{i32 786478, i32 0, metadata !479, metadata !"ap_int_base", metadata !"ap_int_base", metadata !"", metadata !250, i32 1524, metadata !522, i1 false, i1 false, i32 0, i32 0, null, i32 384, i1 false, null, null, i32 0, metadata !262, i32 1524} ; [ DW_TAG_subprogram ]
!522 = metadata !{i32 786453, i32 0, metadata !"", i32 0, i32 0, i64 0, i64 0, i64 0, i32 0, null, metadata !523, i32 0, i32 0} ; [ DW_TAG_subroutine_type ]
!523 = metadata !{null, metadata !496, metadata !306}
!524 = metadata !{i32 786478, i32 0, metadata !479, metadata !"ap_int_base", metadata !"ap_int_base", metadata !"", metadata !250, i32 1525, metadata !525, i1 false, i1 false, i32 0, i32 0, null, i32 384, i1 false, null, null, i32 0, metadata !262, i32 1525} ; [ DW_TAG_subprogram ]
!525 = metadata !{i32 786453, i32 0, metadata !"", i32 0, i32 0, i64 0, i64 0, i64 0, i32 0, null, metadata !526, i32 0, i32 0} ; [ DW_TAG_subroutine_type ]
!526 = metadata !{null, metadata !496, metadata !310}
!527 = metadata !{i32 786478, i32 0, metadata !479, metadata !"ap_int_base", metadata !"ap_int_base", metadata !"", metadata !250, i32 1526, metadata !528, i1 false, i1 false, i32 0, i32 0, null, i32 384, i1 false, null, null, i32 0, metadata !262, i32 1526} ; [ DW_TAG_subprogram ]
!528 = metadata !{i32 786453, i32 0, metadata !"", i32 0, i32 0, i64 0, i64 0, i64 0, i32 0, null, metadata !529, i32 0, i32 0} ; [ DW_TAG_subroutine_type ]
!529 = metadata !{null, metadata !496, metadata !315}
!530 = metadata !{i32 786478, i32 0, metadata !479, metadata !"ap_int_base", metadata !"ap_int_base", metadata !"", metadata !250, i32 1527, metadata !531, i1 false, i1 false, i32 0, i32 0, null, i32 384, i1 false, null, null, i32 0, metadata !262, i32 1527} ; [ DW_TAG_subprogram ]
!531 = metadata !{i32 786453, i32 0, metadata !"", i32 0, i32 0, i64 0, i64 0, i64 0, i32 0, null, metadata !532, i32 0, i32 0} ; [ DW_TAG_subroutine_type ]
!532 = metadata !{null, metadata !496, metadata !320}
!533 = metadata !{i32 786478, i32 0, metadata !479, metadata !"ap_int_base", metadata !"ap_int_base", metadata !"", metadata !250, i32 1528, metadata !534, i1 false, i1 false, i32 0, i32 0, null, i32 384, i1 false, null, null, i32 0, metadata !262, i32 1528} ; [ DW_TAG_subprogram ]
!534 = metadata !{i32 786453, i32 0, metadata !"", i32 0, i32 0, i64 0, i64 0, i64 0, i32 0, null, metadata !535, i32 0, i32 0} ; [ DW_TAG_subroutine_type ]
!535 = metadata !{null, metadata !496, metadata !325}
!536 = metadata !{i32 786478, i32 0, metadata !479, metadata !"ap_int_base", metadata !"ap_int_base", metadata !"", metadata !250, i32 1529, metadata !537, i1 false, i1 false, i32 0, i32 0, null, i32 384, i1 false, null, null, i32 0, metadata !262, i32 1529} ; [ DW_TAG_subprogram ]
!537 = metadata !{i32 786453, i32 0, metadata !"", i32 0, i32 0, i64 0, i64 0, i64 0, i32 0, null, metadata !538, i32 0, i32 0} ; [ DW_TAG_subroutine_type ]
!538 = metadata !{null, metadata !496, metadata !329}
!539 = metadata !{i32 786478, i32 0, metadata !479, metadata !"ap_int_base", metadata !"ap_int_base", metadata !"", metadata !250, i32 1556, metadata !540, i1 false, i1 false, i32 0, i32 0, null, i32 256, i1 false, null, null, i32 0, metadata !262, i32 1556} ; [ DW_TAG_subprogram ]
!540 = metadata !{i32 786453, i32 0, metadata !"", i32 0, i32 0, i64 0, i64 0, i64 0, i32 0, null, metadata !541, i32 0, i32 0} ; [ DW_TAG_subroutine_type ]
!541 = metadata !{null, metadata !496, metadata !333}
!542 = metadata !{i32 786478, i32 0, metadata !479, metadata !"ap_int_base", metadata !"ap_int_base", metadata !"", metadata !250, i32 1563, metadata !543, i1 false, i1 false, i32 0, i32 0, null, i32 256, i1 false, null, null, i32 0, metadata !262, i32 1563} ; [ DW_TAG_subprogram ]
!543 = metadata !{i32 786453, i32 0, metadata !"", i32 0, i32 0, i64 0, i64 0, i64 0, i32 0, null, metadata !544, i32 0, i32 0} ; [ DW_TAG_subroutine_type ]
!544 = metadata !{null, metadata !496, metadata !333, metadata !279}
!545 = metadata !{i32 786478, i32 0, metadata !479, metadata !"read", metadata !"read", metadata !"_ZNV11ap_int_baseILi17ELb1ELb1EE4readEv", metadata !250, i32 1584, metadata !546, i1 false, i1 false, i32 0, i32 0, null, i32 256, i1 false, null, null, i32 0, metadata !262, i32 1584} ; [ DW_TAG_subprogram ]
!546 = metadata !{i32 786453, i32 0, metadata !"", i32 0, i32 0, i64 0, i64 0, i64 0, i32 0, null, metadata !547, i32 0, i32 0} ; [ DW_TAG_subroutine_type ]
!547 = metadata !{metadata !479, metadata !548}
!548 = metadata !{i32 786447, i32 0, metadata !"", i32 0, i32 0, i64 64, i64 64, i64 0, i32 64, metadata !549} ; [ DW_TAG_pointer_type ]
!549 = metadata !{i32 786485, null, metadata !"", null, i32 0, i64 0, i64 0, i64 0, i32 0, metadata !479} ; [ DW_TAG_volatile_type ]
!550 = metadata !{i32 786478, i32 0, metadata !479, metadata !"write", metadata !"write", metadata !"_ZNV11ap_int_baseILi17ELb1ELb1EE5writeERKS0_", metadata !250, i32 1590, metadata !551, i1 false, i1 false, i32 0, i32 0, null, i32 256, i1 false, null, null, i32 0, metadata !262, i32 1590} ; [ DW_TAG_subprogram ]
!551 = metadata !{i32 786453, i32 0, metadata !"", i32 0, i32 0, i64 0, i64 0, i64 0, i32 0, null, metadata !552, i32 0, i32 0} ; [ DW_TAG_subroutine_type ]
!552 = metadata !{null, metadata !548, metadata !553}
!553 = metadata !{i32 786448, null, null, null, i32 0, i64 0, i64 0, i64 0, i32 0, metadata !554} ; [ DW_TAG_reference_type ]
!554 = metadata !{i32 786470, null, metadata !"", null, i32 0, i64 0, i64 0, i64 0, i32 0, metadata !479} ; [ DW_TAG_const_type ]
!555 = metadata !{i32 786478, i32 0, metadata !479, metadata !"operator=", metadata !"operator=", metadata !"_ZNV11ap_int_baseILi17ELb1ELb1EEaSERVKS0_", metadata !250, i32 1602, metadata !556, i1 false, i1 false, i32 0, i32 0, null, i32 256, i1 false, null, null, i32 0, metadata !262, i32 1602} ; [ DW_TAG_subprogram ]
!556 = metadata !{i32 786453, i32 0, metadata !"", i32 0, i32 0, i64 0, i64 0, i64 0, i32 0, null, metadata !557, i32 0, i32 0} ; [ DW_TAG_subroutine_type ]
!557 = metadata !{null, metadata !548, metadata !558}
!558 = metadata !{i32 786448, null, null, null, i32 0, i64 0, i64 0, i64 0, i32 0, metadata !559} ; [ DW_TAG_reference_type ]
!559 = metadata !{i32 786470, null, metadata !"", null, i32 0, i64 0, i64 0, i64 0, i32 0, metadata !549} ; [ DW_TAG_const_type ]
!560 = metadata !{i32 786478, i32 0, metadata !479, metadata !"operator=", metadata !"operator=", metadata !"_ZNV11ap_int_baseILi17ELb1ELb1EEaSERKS0_", metadata !250, i32 1611, metadata !551, i1 false, i1 false, i32 0, i32 0, null, i32 256, i1 false, null, null, i32 0, metadata !262, i32 1611} ; [ DW_TAG_subprogram ]
!561 = metadata !{i32 786478, i32 0, metadata !479, metadata !"operator=", metadata !"operator=", metadata !"_ZN11ap_int_baseILi17ELb1ELb1EEaSERVKS0_", metadata !250, i32 1634, metadata !562, i1 false, i1 false, i32 0, i32 0, null, i32 256, i1 false, null, null, i32 0, metadata !262, i32 1634} ; [ DW_TAG_subprogram ]
!562 = metadata !{i32 786453, i32 0, metadata !"", i32 0, i32 0, i64 0, i64 0, i64 0, i32 0, null, metadata !563, i32 0, i32 0} ; [ DW_TAG_subroutine_type ]
!563 = metadata !{metadata !564, metadata !496, metadata !558}
!564 = metadata !{i32 786448, null, null, null, i32 0, i64 0, i64 0, i64 0, i32 0, metadata !479} ; [ DW_TAG_reference_type ]
!565 = metadata !{i32 786478, i32 0, metadata !479, metadata !"operator=", metadata !"operator=", metadata !"_ZN11ap_int_baseILi17ELb1ELb1EEaSERKS0_", metadata !250, i32 1639, metadata !566, i1 false, i1 false, i32 0, i32 0, null, i32 256, i1 false, null, null, i32 0, metadata !262, i32 1639} ; [ DW_TAG_subprogram ]
!566 = metadata !{i32 786453, i32 0, metadata !"", i32 0, i32 0, i64 0, i64 0, i64 0, i32 0, null, metadata !567, i32 0, i32 0} ; [ DW_TAG_subroutine_type ]
!567 = metadata !{metadata !564, metadata !496, metadata !553}
!568 = metadata !{i32 786478, i32 0, metadata !479, metadata !"operator=", metadata !"operator=", metadata !"_ZN11ap_int_baseILi17ELb1ELb1EEaSEPKc", metadata !250, i32 1643, metadata !569, i1 false, i1 false, i32 0, i32 0, null, i32 256, i1 false, null, null, i32 0, metadata !262, i32 1643} ; [ DW_TAG_subprogram ]
!569 = metadata !{i32 786453, i32 0, metadata !"", i32 0, i32 0, i64 0, i64 0, i64 0, i32 0, null, metadata !570, i32 0, i32 0} ; [ DW_TAG_subroutine_type ]
!570 = metadata !{metadata !564, metadata !496, metadata !333}
!571 = metadata !{i32 786478, i32 0, metadata !479, metadata !"set", metadata !"set", metadata !"_ZN11ap_int_baseILi17ELb1ELb1EE3setEPKca", metadata !250, i32 1651, metadata !572, i1 false, i1 false, i32 0, i32 0, null, i32 256, i1 false, null, null, i32 0, metadata !262, i32 1651} ; [ DW_TAG_subprogram ]
!572 = metadata !{i32 786453, i32 0, metadata !"", i32 0, i32 0, i64 0, i64 0, i64 0, i32 0, null, metadata !573, i32 0, i32 0} ; [ DW_TAG_subroutine_type ]
!573 = metadata !{metadata !564, metadata !496, metadata !333, metadata !279}
!574 = metadata !{i32 786478, i32 0, metadata !479, metadata !"operator=", metadata !"operator=", metadata !"_ZN11ap_int_baseILi17ELb1ELb1EEaSEa", metadata !250, i32 1665, metadata !575, i1 false, i1 false, i32 0, i32 0, null, i32 256, i1 false, null, null, i32 0, metadata !262, i32 1665} ; [ DW_TAG_subprogram ]
!575 = metadata !{i32 786453, i32 0, metadata !"", i32 0, i32 0, i64 0, i64 0, i64 0, i32 0, null, metadata !576, i32 0, i32 0} ; [ DW_TAG_subroutine_type ]
!576 = metadata !{metadata !564, metadata !496, metadata !279}
!577 = metadata !{i32 786478, i32 0, metadata !479, metadata !"operator=", metadata !"operator=", metadata !"_ZN11ap_int_baseILi17ELb1ELb1EEaSEh", metadata !250, i32 1666, metadata !578, i1 false, i1 false, i32 0, i32 0, null, i32 256, i1 false, null, null, i32 0, metadata !262, i32 1666} ; [ DW_TAG_subprogram ]
!578 = metadata !{i32 786453, i32 0, metadata !"", i32 0, i32 0, i64 0, i64 0, i64 0, i32 0, null, metadata !579, i32 0, i32 0} ; [ DW_TAG_subroutine_type ]
!579 = metadata !{metadata !564, metadata !496, metadata !283}
!580 = metadata !{i32 786478, i32 0, metadata !479, metadata !"operator=", metadata !"operator=", metadata !"_ZN11ap_int_baseILi17ELb1ELb1EEaSEs", metadata !250, i32 1667, metadata !581, i1 false, i1 false, i32 0, i32 0, null, i32 256, i1 false, null, null, i32 0, metadata !262, i32 1667} ; [ DW_TAG_subprogram ]
!581 = metadata !{i32 786453, i32 0, metadata !"", i32 0, i32 0, i64 0, i64 0, i64 0, i32 0, null, metadata !582, i32 0, i32 0} ; [ DW_TAG_subroutine_type ]
!582 = metadata !{metadata !564, metadata !496, metadata !287}
!583 = metadata !{i32 786478, i32 0, metadata !479, metadata !"operator=", metadata !"operator=", metadata !"_ZN11ap_int_baseILi17ELb1ELb1EEaSEt", metadata !250, i32 1668, metadata !584, i1 false, i1 false, i32 0, i32 0, null, i32 256, i1 false, null, null, i32 0, metadata !262, i32 1668} ; [ DW_TAG_subprogram ]
!584 = metadata !{i32 786453, i32 0, metadata !"", i32 0, i32 0, i64 0, i64 0, i64 0, i32 0, null, metadata !585, i32 0, i32 0} ; [ DW_TAG_subroutine_type ]
!585 = metadata !{metadata !564, metadata !496, metadata !291}
!586 = metadata !{i32 786478, i32 0, metadata !479, metadata !"operator=", metadata !"operator=", metadata !"_ZN11ap_int_baseILi17ELb1ELb1EEaSEi", metadata !250, i32 1669, metadata !587, i1 false, i1 false, i32 0, i32 0, null, i32 256, i1 false, null, null, i32 0, metadata !262, i32 1669} ; [ DW_TAG_subprogram ]
!587 = metadata !{i32 786453, i32 0, metadata !"", i32 0, i32 0, i64 0, i64 0, i64 0, i32 0, null, metadata !588, i32 0, i32 0} ; [ DW_TAG_subroutine_type ]
!588 = metadata !{metadata !564, metadata !496, metadata !266}
!589 = metadata !{i32 786478, i32 0, metadata !479, metadata !"operator=", metadata !"operator=", metadata !"_ZN11ap_int_baseILi17ELb1ELb1EEaSEj", metadata !250, i32 1670, metadata !590, i1 false, i1 false, i32 0, i32 0, null, i32 256, i1 false, null, null, i32 0, metadata !262, i32 1670} ; [ DW_TAG_subprogram ]
!590 = metadata !{i32 786453, i32 0, metadata !"", i32 0, i32 0, i64 0, i64 0, i64 0, i32 0, null, metadata !591, i32 0, i32 0} ; [ DW_TAG_subroutine_type ]
!591 = metadata !{metadata !564, metadata !496, metadata !298}
!592 = metadata !{i32 786478, i32 0, metadata !479, metadata !"operator=", metadata !"operator=", metadata !"_ZN11ap_int_baseILi17ELb1ELb1EEaSEx", metadata !250, i32 1671, metadata !593, i1 false, i1 false, i32 0, i32 0, null, i32 256, i1 false, null, null, i32 0, metadata !262, i32 1671} ; [ DW_TAG_subprogram ]
!593 = metadata !{i32 786453, i32 0, metadata !"", i32 0, i32 0, i64 0, i64 0, i64 0, i32 0, null, metadata !594, i32 0, i32 0} ; [ DW_TAG_subroutine_type ]
!594 = metadata !{metadata !564, metadata !496, metadata !310}
!595 = metadata !{i32 786478, i32 0, metadata !479, metadata !"operator=", metadata !"operator=", metadata !"_ZN11ap_int_baseILi17ELb1ELb1EEaSEy", metadata !250, i32 1672, metadata !596, i1 false, i1 false, i32 0, i32 0, null, i32 256, i1 false, null, null, i32 0, metadata !262, i32 1672} ; [ DW_TAG_subprogram ]
!596 = metadata !{i32 786453, i32 0, metadata !"", i32 0, i32 0, i64 0, i64 0, i64 0, i32 0, null, metadata !597, i32 0, i32 0} ; [ DW_TAG_subroutine_type ]
!597 = metadata !{metadata !564, metadata !496, metadata !315}
!598 = metadata !{i32 786478, i32 0, metadata !479, metadata !"operator int", metadata !"operator int", metadata !"_ZNK11ap_int_baseILi17ELb1ELb1EEcviEv", metadata !250, i32 1710, metadata !599, i1 false, i1 false, i32 0, i32 0, null, i32 256, i1 false, null, null, i32 0, metadata !262, i32 1710} ; [ DW_TAG_subprogram ]
!599 = metadata !{i32 786453, i32 0, metadata !"", i32 0, i32 0, i64 0, i64 0, i64 0, i32 0, null, metadata !600, i32 0, i32 0} ; [ DW_TAG_subroutine_type ]
!600 = metadata !{metadata !601, metadata !606}
!601 = metadata !{i32 786454, metadata !479, metadata !"RetType", metadata !250, i32 1458, i64 0, i64 0, i64 0, i32 0, metadata !602} ; [ DW_TAG_typedef ]
!602 = metadata !{i32 786454, metadata !603, metadata !"Type", metadata !250, i32 1435, i64 0, i64 0, i64 0, i32 0, metadata !266} ; [ DW_TAG_typedef ]
!603 = metadata !{i32 786434, null, metadata !"retval<3, true>", metadata !250, i32 1434, i64 8, i64 8, i32 0, i32 0, null, metadata !398, i32 0, null, metadata !604} ; [ DW_TAG_class_type ]
!604 = metadata !{metadata !605, metadata !492}
!605 = metadata !{i32 786480, null, metadata !"_AP_N", metadata !266, i64 3, null, i32 0, i32 0} ; [ DW_TAG_template_value_parameter ]
!606 = metadata !{i32 786447, i32 0, metadata !"", i32 0, i32 0, i64 64, i64 64, i64 0, i32 64, metadata !554} ; [ DW_TAG_pointer_type ]
!607 = metadata !{i32 786478, i32 0, metadata !479, metadata !"to_bool", metadata !"to_bool", metadata !"_ZNK11ap_int_baseILi17ELb1ELb1EE7to_boolEv", metadata !250, i32 1716, metadata !608, i1 false, i1 false, i32 0, i32 0, null, i32 256, i1 false, null, null, i32 0, metadata !262, i32 1716} ; [ DW_TAG_subprogram ]
!608 = metadata !{i32 786453, i32 0, metadata !"", i32 0, i32 0, i64 0, i64 0, i64 0, i32 0, null, metadata !609, i32 0, i32 0} ; [ DW_TAG_subroutine_type ]
!609 = metadata !{metadata !268, metadata !606}
!610 = metadata !{i32 786478, i32 0, metadata !479, metadata !"to_uchar", metadata !"to_uchar", metadata !"_ZNK11ap_int_baseILi17ELb1ELb1EE8to_ucharEv", metadata !250, i32 1717, metadata !611, i1 false, i1 false, i32 0, i32 0, null, i32 256, i1 false, null, null, i32 0, metadata !262, i32 1717} ; [ DW_TAG_subprogram ]
!611 = metadata !{i32 786453, i32 0, metadata !"", i32 0, i32 0, i64 0, i64 0, i64 0, i32 0, null, metadata !612, i32 0, i32 0} ; [ DW_TAG_subroutine_type ]
!612 = metadata !{metadata !283, metadata !606}
!613 = metadata !{i32 786478, i32 0, metadata !479, metadata !"to_char", metadata !"to_char", metadata !"_ZNK11ap_int_baseILi17ELb1ELb1EE7to_charEv", metadata !250, i32 1718, metadata !614, i1 false, i1 false, i32 0, i32 0, null, i32 256, i1 false, null, null, i32 0, metadata !262, i32 1718} ; [ DW_TAG_subprogram ]
!614 = metadata !{i32 786453, i32 0, metadata !"", i32 0, i32 0, i64 0, i64 0, i64 0, i32 0, null, metadata !615, i32 0, i32 0} ; [ DW_TAG_subroutine_type ]
!615 = metadata !{metadata !279, metadata !606}
!616 = metadata !{i32 786478, i32 0, metadata !479, metadata !"to_ushort", metadata !"to_ushort", metadata !"_ZNK11ap_int_baseILi17ELb1ELb1EE9to_ushortEv", metadata !250, i32 1719, metadata !617, i1 false, i1 false, i32 0, i32 0, null, i32 256, i1 false, null, null, i32 0, metadata !262, i32 1719} ; [ DW_TAG_subprogram ]
!617 = metadata !{i32 786453, i32 0, metadata !"", i32 0, i32 0, i64 0, i64 0, i64 0, i32 0, null, metadata !618, i32 0, i32 0} ; [ DW_TAG_subroutine_type ]
!618 = metadata !{metadata !291, metadata !606}
!619 = metadata !{i32 786478, i32 0, metadata !479, metadata !"to_short", metadata !"to_short", metadata !"_ZNK11ap_int_baseILi17ELb1ELb1EE8to_shortEv", metadata !250, i32 1720, metadata !620, i1 false, i1 false, i32 0, i32 0, null, i32 256, i1 false, null, null, i32 0, metadata !262, i32 1720} ; [ DW_TAG_subprogram ]
!620 = metadata !{i32 786453, i32 0, metadata !"", i32 0, i32 0, i64 0, i64 0, i64 0, i32 0, null, metadata !621, i32 0, i32 0} ; [ DW_TAG_subroutine_type ]
!621 = metadata !{metadata !287, metadata !606}
!622 = metadata !{i32 786478, i32 0, metadata !479, metadata !"to_int", metadata !"to_int", metadata !"_ZNK11ap_int_baseILi17ELb1ELb1EE6to_intEv", metadata !250, i32 1721, metadata !623, i1 false, i1 false, i32 0, i32 0, null, i32 256, i1 false, null, null, i32 0, metadata !262, i32 1721} ; [ DW_TAG_subprogram ]
!623 = metadata !{i32 786453, i32 0, metadata !"", i32 0, i32 0, i64 0, i64 0, i64 0, i32 0, null, metadata !624, i32 0, i32 0} ; [ DW_TAG_subroutine_type ]
!624 = metadata !{metadata !266, metadata !606}
!625 = metadata !{i32 786478, i32 0, metadata !479, metadata !"to_uint", metadata !"to_uint", metadata !"_ZNK11ap_int_baseILi17ELb1ELb1EE7to_uintEv", metadata !250, i32 1722, metadata !626, i1 false, i1 false, i32 0, i32 0, null, i32 256, i1 false, null, null, i32 0, metadata !262, i32 1722} ; [ DW_TAG_subprogram ]
!626 = metadata !{i32 786453, i32 0, metadata !"", i32 0, i32 0, i64 0, i64 0, i64 0, i32 0, null, metadata !627, i32 0, i32 0} ; [ DW_TAG_subroutine_type ]
!627 = metadata !{metadata !298, metadata !606}
!628 = metadata !{i32 786478, i32 0, metadata !479, metadata !"to_long", metadata !"to_long", metadata !"_ZNK11ap_int_baseILi17ELb1ELb1EE7to_longEv", metadata !250, i32 1723, metadata !629, i1 false, i1 false, i32 0, i32 0, null, i32 256, i1 false, null, null, i32 0, metadata !262, i32 1723} ; [ DW_TAG_subprogram ]
!629 = metadata !{i32 786453, i32 0, metadata !"", i32 0, i32 0, i64 0, i64 0, i64 0, i32 0, null, metadata !630, i32 0, i32 0} ; [ DW_TAG_subroutine_type ]
!630 = metadata !{metadata !302, metadata !606}
!631 = metadata !{i32 786478, i32 0, metadata !479, metadata !"to_ulong", metadata !"to_ulong", metadata !"_ZNK11ap_int_baseILi17ELb1ELb1EE8to_ulongEv", metadata !250, i32 1724, metadata !632, i1 false, i1 false, i32 0, i32 0, null, i32 256, i1 false, null, null, i32 0, metadata !262, i32 1724} ; [ DW_TAG_subprogram ]
!632 = metadata !{i32 786453, i32 0, metadata !"", i32 0, i32 0, i64 0, i64 0, i64 0, i32 0, null, metadata !633, i32 0, i32 0} ; [ DW_TAG_subroutine_type ]
!633 = metadata !{metadata !306, metadata !606}
!634 = metadata !{i32 786478, i32 0, metadata !479, metadata !"to_int64", metadata !"to_int64", metadata !"_ZNK11ap_int_baseILi17ELb1ELb1EE8to_int64Ev", metadata !250, i32 1725, metadata !635, i1 false, i1 false, i32 0, i32 0, null, i32 256, i1 false, null, null, i32 0, metadata !262, i32 1725} ; [ DW_TAG_subprogram ]
!635 = metadata !{i32 786453, i32 0, metadata !"", i32 0, i32 0, i64 0, i64 0, i64 0, i32 0, null, metadata !636, i32 0, i32 0} ; [ DW_TAG_subroutine_type ]
!636 = metadata !{metadata !310, metadata !606}
!637 = metadata !{i32 786478, i32 0, metadata !479, metadata !"to_uint64", metadata !"to_uint64", metadata !"_ZNK11ap_int_baseILi17ELb1ELb1EE9to_uint64Ev", metadata !250, i32 1726, metadata !638, i1 false, i1 false, i32 0, i32 0, null, i32 256, i1 false, null, null, i32 0, metadata !262, i32 1726} ; [ DW_TAG_subprogram ]
!638 = metadata !{i32 786453, i32 0, metadata !"", i32 0, i32 0, i64 0, i64 0, i64 0, i32 0, null, metadata !639, i32 0, i32 0} ; [ DW_TAG_subroutine_type ]
!639 = metadata !{metadata !315, metadata !606}
!640 = metadata !{i32 786478, i32 0, metadata !479, metadata !"to_double", metadata !"to_double", metadata !"_ZNK11ap_int_baseILi17ELb1ELb1EE9to_doubleEv", metadata !250, i32 1727, metadata !641, i1 false, i1 false, i32 0, i32 0, null, i32 256, i1 false, null, null, i32 0, metadata !262, i32 1727} ; [ DW_TAG_subprogram ]
!641 = metadata !{i32 786453, i32 0, metadata !"", i32 0, i32 0, i64 0, i64 0, i64 0, i32 0, null, metadata !642, i32 0, i32 0} ; [ DW_TAG_subroutine_type ]
!642 = metadata !{metadata !329, metadata !606}
!643 = metadata !{i32 786478, i32 0, metadata !479, metadata !"length", metadata !"length", metadata !"_ZNK11ap_int_baseILi17ELb1ELb1EE6lengthEv", metadata !250, i32 1741, metadata !623, i1 false, i1 false, i32 0, i32 0, null, i32 256, i1 false, null, null, i32 0, metadata !262, i32 1741} ; [ DW_TAG_subprogram ]
!644 = metadata !{i32 786478, i32 0, metadata !479, metadata !"length", metadata !"length", metadata !"_ZNVK11ap_int_baseILi17ELb1ELb1EE6lengthEv", metadata !250, i32 1742, metadata !645, i1 false, i1 false, i32 0, i32 0, null, i32 256, i1 false, null, null, i32 0, metadata !262, i32 1742} ; [ DW_TAG_subprogram ]
!645 = metadata !{i32 786453, i32 0, metadata !"", i32 0, i32 0, i64 0, i64 0, i64 0, i32 0, null, metadata !646, i32 0, i32 0} ; [ DW_TAG_subroutine_type ]
!646 = metadata !{metadata !266, metadata !647}
!647 = metadata !{i32 786447, i32 0, metadata !"", i32 0, i32 0, i64 64, i64 64, i64 0, i32 64, metadata !559} ; [ DW_TAG_pointer_type ]
!648 = metadata !{i32 786478, i32 0, metadata !479, metadata !"reverse", metadata !"reverse", metadata !"_ZN11ap_int_baseILi17ELb1ELb1EE7reverseEv", metadata !250, i32 1747, metadata !649, i1 false, i1 false, i32 0, i32 0, null, i32 256, i1 false, null, null, i32 0, metadata !262, i32 1747} ; [ DW_TAG_subprogram ]
!649 = metadata !{i32 786453, i32 0, metadata !"", i32 0, i32 0, i64 0, i64 0, i64 0, i32 0, null, metadata !650, i32 0, i32 0} ; [ DW_TAG_subroutine_type ]
!650 = metadata !{metadata !564, metadata !496}
!651 = metadata !{i32 786478, i32 0, metadata !479, metadata !"iszero", metadata !"iszero", metadata !"_ZNK11ap_int_baseILi17ELb1ELb1EE6iszeroEv", metadata !250, i32 1753, metadata !608, i1 false, i1 false, i32 0, i32 0, null, i32 256, i1 false, null, null, i32 0, metadata !262, i32 1753} ; [ DW_TAG_subprogram ]
!652 = metadata !{i32 786478, i32 0, metadata !479, metadata !"is_zero", metadata !"is_zero", metadata !"_ZNK11ap_int_baseILi17ELb1ELb1EE7is_zeroEv", metadata !250, i32 1758, metadata !608, i1 false, i1 false, i32 0, i32 0, null, i32 256, i1 false, null, null, i32 0, metadata !262, i32 1758} ; [ DW_TAG_subprogram ]
!653 = metadata !{i32 786478, i32 0, metadata !479, metadata !"sign", metadata !"sign", metadata !"_ZNK11ap_int_baseILi17ELb1ELb1EE4signEv", metadata !250, i32 1763, metadata !608, i1 false, i1 false, i32 0, i32 0, null, i32 256, i1 false, null, null, i32 0, metadata !262, i32 1763} ; [ DW_TAG_subprogram ]
!654 = metadata !{i32 786478, i32 0, metadata !479, metadata !"clear", metadata !"clear", metadata !"_ZN11ap_int_baseILi17ELb1ELb1EE5clearEi", metadata !250, i32 1771, metadata !513, i1 false, i1 false, i32 0, i32 0, null, i32 256, i1 false, null, null, i32 0, metadata !262, i32 1771} ; [ DW_TAG_subprogram ]
!655 = metadata !{i32 786478, i32 0, metadata !479, metadata !"invert", metadata !"invert", metadata !"_ZN11ap_int_baseILi17ELb1ELb1EE6invertEi", metadata !250, i32 1777, metadata !513, i1 false, i1 false, i32 0, i32 0, null, i32 256, i1 false, null, null, i32 0, metadata !262, i32 1777} ; [ DW_TAG_subprogram ]
!656 = metadata !{i32 786478, i32 0, metadata !479, metadata !"test", metadata !"test", metadata !"_ZNK11ap_int_baseILi17ELb1ELb1EE4testEi", metadata !250, i32 1785, metadata !657, i1 false, i1 false, i32 0, i32 0, null, i32 256, i1 false, null, null, i32 0, metadata !262, i32 1785} ; [ DW_TAG_subprogram ]
!657 = metadata !{i32 786453, i32 0, metadata !"", i32 0, i32 0, i64 0, i64 0, i64 0, i32 0, null, metadata !658, i32 0, i32 0} ; [ DW_TAG_subroutine_type ]
!658 = metadata !{metadata !268, metadata !606, metadata !266}
!659 = metadata !{i32 786478, i32 0, metadata !479, metadata !"set", metadata !"set", metadata !"_ZN11ap_int_baseILi17ELb1ELb1EE3setEi", metadata !250, i32 1791, metadata !513, i1 false, i1 false, i32 0, i32 0, null, i32 256, i1 false, null, null, i32 0, metadata !262, i32 1791} ; [ DW_TAG_subprogram ]
!660 = metadata !{i32 786478, i32 0, metadata !479, metadata !"set", metadata !"set", metadata !"_ZN11ap_int_baseILi17ELb1ELb1EE3setEib", metadata !250, i32 1797, metadata !661, i1 false, i1 false, i32 0, i32 0, null, i32 256, i1 false, null, null, i32 0, metadata !262, i32 1797} ; [ DW_TAG_subprogram ]
!661 = metadata !{i32 786453, i32 0, metadata !"", i32 0, i32 0, i64 0, i64 0, i64 0, i32 0, null, metadata !662, i32 0, i32 0} ; [ DW_TAG_subroutine_type ]
!662 = metadata !{null, metadata !496, metadata !266, metadata !268}
!663 = metadata !{i32 786478, i32 0, metadata !479, metadata !"lrotate", metadata !"lrotate", metadata !"_ZN11ap_int_baseILi17ELb1ELb1EE7lrotateEi", metadata !250, i32 1804, metadata !513, i1 false, i1 false, i32 0, i32 0, null, i32 256, i1 false, null, null, i32 0, metadata !262, i32 1804} ; [ DW_TAG_subprogram ]
!664 = metadata !{i32 786478, i32 0, metadata !479, metadata !"rrotate", metadata !"rrotate", metadata !"_ZN11ap_int_baseILi17ELb1ELb1EE7rrotateEi", metadata !250, i32 1813, metadata !513, i1 false, i1 false, i32 0, i32 0, null, i32 256, i1 false, null, null, i32 0, metadata !262, i32 1813} ; [ DW_TAG_subprogram ]
!665 = metadata !{i32 786478, i32 0, metadata !479, metadata !"set_bit", metadata !"set_bit", metadata !"_ZN11ap_int_baseILi17ELb1ELb1EE7set_bitEib", metadata !250, i32 1821, metadata !661, i1 false, i1 false, i32 0, i32 0, null, i32 256, i1 false, null, null, i32 0, metadata !262, i32 1821} ; [ DW_TAG_subprogram ]
!666 = metadata !{i32 786478, i32 0, metadata !479, metadata !"get_bit", metadata !"get_bit", metadata !"_ZNK11ap_int_baseILi17ELb1ELb1EE7get_bitEi", metadata !250, i32 1826, metadata !657, i1 false, i1 false, i32 0, i32 0, null, i32 256, i1 false, null, null, i32 0, metadata !262, i32 1826} ; [ DW_TAG_subprogram ]
!667 = metadata !{i32 786478, i32 0, metadata !479, metadata !"b_not", metadata !"b_not", metadata !"_ZN11ap_int_baseILi17ELb1ELb1EE5b_notEv", metadata !250, i32 1831, metadata !494, i1 false, i1 false, i32 0, i32 0, null, i32 256, i1 false, null, null, i32 0, metadata !262, i32 1831} ; [ DW_TAG_subprogram ]
!668 = metadata !{i32 786478, i32 0, metadata !479, metadata !"countLeadingZeros", metadata !"countLeadingZeros", metadata !"_ZN11ap_int_baseILi17ELb1ELb1EE17countLeadingZerosEv", metadata !250, i32 1838, metadata !669, i1 false, i1 false, i32 0, i32 0, null, i32 256, i1 false, null, null, i32 0, metadata !262, i32 1838} ; [ DW_TAG_subprogram ]
!669 = metadata !{i32 786453, i32 0, metadata !"", i32 0, i32 0, i64 0, i64 0, i64 0, i32 0, null, metadata !670, i32 0, i32 0} ; [ DW_TAG_subroutine_type ]
!670 = metadata !{metadata !266, metadata !496}
!671 = metadata !{i32 786478, i32 0, metadata !479, metadata !"operator++", metadata !"operator++", metadata !"_ZN11ap_int_baseILi17ELb1ELb1EEppEv", metadata !250, i32 1895, metadata !649, i1 false, i1 false, i32 0, i32 0, null, i32 256, i1 false, null, null, i32 0, metadata !262, i32 1895} ; [ DW_TAG_subprogram ]
!672 = metadata !{i32 786478, i32 0, metadata !479, metadata !"operator--", metadata !"operator--", metadata !"_ZN11ap_int_baseILi17ELb1ELb1EEmmEv", metadata !250, i32 1899, metadata !649, i1 false, i1 false, i32 0, i32 0, null, i32 256, i1 false, null, null, i32 0, metadata !262, i32 1899} ; [ DW_TAG_subprogram ]
!673 = metadata !{i32 786478, i32 0, metadata !479, metadata !"operator++", metadata !"operator++", metadata !"_ZN11ap_int_baseILi17ELb1ELb1EEppEi", metadata !250, i32 1907, metadata !674, i1 false, i1 false, i32 0, i32 0, null, i32 256, i1 false, null, null, i32 0, metadata !262, i32 1907} ; [ DW_TAG_subprogram ]
!674 = metadata !{i32 786453, i32 0, metadata !"", i32 0, i32 0, i64 0, i64 0, i64 0, i32 0, null, metadata !675, i32 0, i32 0} ; [ DW_TAG_subroutine_type ]
!675 = metadata !{metadata !554, metadata !496, metadata !266}
!676 = metadata !{i32 786478, i32 0, metadata !479, metadata !"operator--", metadata !"operator--", metadata !"_ZN11ap_int_baseILi17ELb1ELb1EEmmEi", metadata !250, i32 1912, metadata !674, i1 false, i1 false, i32 0, i32 0, null, i32 256, i1 false, null, null, i32 0, metadata !262, i32 1912} ; [ DW_TAG_subprogram ]
!677 = metadata !{i32 786478, i32 0, metadata !479, metadata !"operator+", metadata !"operator+", metadata !"_ZNK11ap_int_baseILi17ELb1ELb1EEpsEv", metadata !250, i32 1921, metadata !678, i1 false, i1 false, i32 0, i32 0, null, i32 256, i1 false, null, null, i32 0, metadata !262, i32 1921} ; [ DW_TAG_subprogram ]
!678 = metadata !{i32 786453, i32 0, metadata !"", i32 0, i32 0, i64 0, i64 0, i64 0, i32 0, null, metadata !679, i32 0, i32 0} ; [ DW_TAG_subroutine_type ]
!679 = metadata !{metadata !479, metadata !606}
!680 = metadata !{i32 786478, i32 0, metadata !479, metadata !"operator!", metadata !"operator!", metadata !"_ZNK11ap_int_baseILi17ELb1ELb1EEntEv", metadata !250, i32 1927, metadata !608, i1 false, i1 false, i32 0, i32 0, null, i32 256, i1 false, null, null, i32 0, metadata !262, i32 1927} ; [ DW_TAG_subprogram ]
!681 = metadata !{i32 786478, i32 0, metadata !479, metadata !"operator-", metadata !"operator-", metadata !"_ZNK11ap_int_baseILi17ELb1ELb1EEngEv", metadata !250, i32 1932, metadata !682, i1 false, i1 false, i32 0, i32 0, null, i32 256, i1 false, null, null, i32 0, metadata !262, i32 1932} ; [ DW_TAG_subprogram ]
!682 = metadata !{i32 786453, i32 0, metadata !"", i32 0, i32 0, i64 0, i64 0, i64 0, i32 0, null, metadata !683, i32 0, i32 0} ; [ DW_TAG_subroutine_type ]
!683 = metadata !{metadata !684, metadata !606}
!684 = metadata !{i32 786434, null, metadata !"ap_int_base<18, true, true>", metadata !250, i32 651, i64 0, i64 0, i32 0, i32 4, null, null, i32 0, null, metadata !685} ; [ DW_TAG_class_type ]
!685 = metadata !{metadata !686, metadata !492, metadata !687}
!686 = metadata !{i32 786480, null, metadata !"_AP_W", metadata !266, i64 18, null, i32 0, i32 0} ; [ DW_TAG_template_value_parameter ]
!687 = metadata !{i32 786480, null, metadata !"_AP_C", metadata !268, i64 1, null, i32 0, i32 0} ; [ DW_TAG_template_value_parameter ]
!688 = metadata !{i32 786478, i32 0, metadata !479, metadata !"range", metadata !"range", metadata !"_ZN11ap_int_baseILi17ELb1ELb1EE5rangeEii", metadata !250, i32 2062, metadata !689, i1 false, i1 false, i32 0, i32 0, null, i32 256, i1 false, null, null, i32 0, metadata !262, i32 2062} ; [ DW_TAG_subprogram ]
!689 = metadata !{i32 786453, i32 0, metadata !"", i32 0, i32 0, i64 0, i64 0, i64 0, i32 0, null, metadata !690, i32 0, i32 0} ; [ DW_TAG_subroutine_type ]
!690 = metadata !{metadata !691, metadata !496, metadata !266, metadata !266}
!691 = metadata !{i32 786434, null, metadata !"ap_range_ref<17, true>", metadata !250, i32 925, i64 0, i64 0, i32 0, i32 4, null, null, i32 0, null, metadata !692} ; [ DW_TAG_class_type ]
!692 = metadata !{metadata !693, metadata !492}
!693 = metadata !{i32 786480, null, metadata !"_AP_W", metadata !266, i64 17, null, i32 0, i32 0} ; [ DW_TAG_template_value_parameter ]
!694 = metadata !{i32 786478, i32 0, metadata !479, metadata !"operator()", metadata !"operator()", metadata !"_ZN11ap_int_baseILi17ELb1ELb1EEclEii", metadata !250, i32 2068, metadata !689, i1 false, i1 false, i32 0, i32 0, null, i32 256, i1 false, null, null, i32 0, metadata !262, i32 2068} ; [ DW_TAG_subprogram ]
!695 = metadata !{i32 786478, i32 0, metadata !479, metadata !"range", metadata !"range", metadata !"_ZNK11ap_int_baseILi17ELb1ELb1EE5rangeEii", metadata !250, i32 2074, metadata !696, i1 false, i1 false, i32 0, i32 0, null, i32 256, i1 false, null, null, i32 0, metadata !262, i32 2074} ; [ DW_TAG_subprogram ]
!696 = metadata !{i32 786453, i32 0, metadata !"", i32 0, i32 0, i64 0, i64 0, i64 0, i32 0, null, metadata !697, i32 0, i32 0} ; [ DW_TAG_subroutine_type ]
!697 = metadata !{metadata !691, metadata !606, metadata !266, metadata !266}
!698 = metadata !{i32 786478, i32 0, metadata !479, metadata !"operator()", metadata !"operator()", metadata !"_ZNK11ap_int_baseILi17ELb1ELb1EEclEii", metadata !250, i32 2080, metadata !696, i1 false, i1 false, i32 0, i32 0, null, i32 256, i1 false, null, null, i32 0, metadata !262, i32 2080} ; [ DW_TAG_subprogram ]
!699 = metadata !{i32 786478, i32 0, metadata !479, metadata !"operator[]", metadata !"operator[]", metadata !"_ZN11ap_int_baseILi17ELb1ELb1EEixEi", metadata !250, i32 2099, metadata !700, i1 false, i1 false, i32 0, i32 0, null, i32 256, i1 false, null, null, i32 0, metadata !262, i32 2099} ; [ DW_TAG_subprogram ]
!700 = metadata !{i32 786453, i32 0, metadata !"", i32 0, i32 0, i64 0, i64 0, i64 0, i32 0, null, metadata !701, i32 0, i32 0} ; [ DW_TAG_subroutine_type ]
!701 = metadata !{metadata !702, metadata !496, metadata !266}
!702 = metadata !{i32 786434, null, metadata !"ap_bit_ref<17, true>", metadata !250, i32 1249, i64 128, i64 64, i32 0, i32 0, null, metadata !703, i32 0, null, metadata !692} ; [ DW_TAG_class_type ]
!703 = metadata !{metadata !704, metadata !705, metadata !706, metadata !712, metadata !716, metadata !720, metadata !721, metadata !725, metadata !728, metadata !729, metadata !732, metadata !733}
!704 = metadata !{i32 786445, metadata !702, metadata !"d_bv", metadata !250, i32 1250, i64 64, i64 64, i64 0, i32 0, metadata !564} ; [ DW_TAG_member ]
!705 = metadata !{i32 786445, metadata !702, metadata !"d_index", metadata !250, i32 1251, i64 32, i64 32, i64 64, i32 0, metadata !266} ; [ DW_TAG_member ]
!706 = metadata !{i32 786478, i32 0, metadata !702, metadata !"ap_bit_ref", metadata !"ap_bit_ref", metadata !"", metadata !250, i32 1254, metadata !707, i1 false, i1 false, i32 0, i32 0, null, i32 256, i1 false, null, null, i32 0, metadata !262, i32 1254} ; [ DW_TAG_subprogram ]
!707 = metadata !{i32 786453, i32 0, metadata !"", i32 0, i32 0, i64 0, i64 0, i64 0, i32 0, null, metadata !708, i32 0, i32 0} ; [ DW_TAG_subroutine_type ]
!708 = metadata !{null, metadata !709, metadata !710}
!709 = metadata !{i32 786447, i32 0, metadata !"", i32 0, i32 0, i64 64, i64 64, i64 0, i32 64, metadata !702} ; [ DW_TAG_pointer_type ]
!710 = metadata !{i32 786448, null, null, null, i32 0, i64 0, i64 0, i64 0, i32 0, metadata !711} ; [ DW_TAG_reference_type ]
!711 = metadata !{i32 786470, null, metadata !"", null, i32 0, i64 0, i64 0, i64 0, i32 0, metadata !702} ; [ DW_TAG_const_type ]
!712 = metadata !{i32 786478, i32 0, metadata !702, metadata !"ap_bit_ref", metadata !"ap_bit_ref", metadata !"", metadata !250, i32 1257, metadata !713, i1 false, i1 false, i32 0, i32 0, null, i32 256, i1 false, null, null, i32 0, metadata !262, i32 1257} ; [ DW_TAG_subprogram ]
!713 = metadata !{i32 786453, i32 0, metadata !"", i32 0, i32 0, i64 0, i64 0, i64 0, i32 0, null, metadata !714, i32 0, i32 0} ; [ DW_TAG_subroutine_type ]
!714 = metadata !{null, metadata !709, metadata !715, metadata !266}
!715 = metadata !{i32 786447, null, metadata !"", null, i32 0, i64 64, i64 64, i64 0, i32 0, metadata !479} ; [ DW_TAG_pointer_type ]
!716 = metadata !{i32 786478, i32 0, metadata !702, metadata !"operator _Bool", metadata !"operator _Bool", metadata !"_ZNK10ap_bit_refILi17ELb1EEcvbEv", metadata !250, i32 1259, metadata !717, i1 false, i1 false, i32 0, i32 0, null, i32 256, i1 false, null, null, i32 0, metadata !262, i32 1259} ; [ DW_TAG_subprogram ]
!717 = metadata !{i32 786453, i32 0, metadata !"", i32 0, i32 0, i64 0, i64 0, i64 0, i32 0, null, metadata !718, i32 0, i32 0} ; [ DW_TAG_subroutine_type ]
!718 = metadata !{metadata !268, metadata !719}
!719 = metadata !{i32 786447, i32 0, metadata !"", i32 0, i32 0, i64 64, i64 64, i64 0, i32 64, metadata !711} ; [ DW_TAG_pointer_type ]
!720 = metadata !{i32 786478, i32 0, metadata !702, metadata !"to_bool", metadata !"to_bool", metadata !"_ZNK10ap_bit_refILi17ELb1EE7to_boolEv", metadata !250, i32 1260, metadata !717, i1 false, i1 false, i32 0, i32 0, null, i32 256, i1 false, null, null, i32 0, metadata !262, i32 1260} ; [ DW_TAG_subprogram ]
!721 = metadata !{i32 786478, i32 0, metadata !702, metadata !"operator=", metadata !"operator=", metadata !"_ZN10ap_bit_refILi17ELb1EEaSEy", metadata !250, i32 1262, metadata !722, i1 false, i1 false, i32 0, i32 0, null, i32 256, i1 false, null, null, i32 0, metadata !262, i32 1262} ; [ DW_TAG_subprogram ]
!722 = metadata !{i32 786453, i32 0, metadata !"", i32 0, i32 0, i64 0, i64 0, i64 0, i32 0, null, metadata !723, i32 0, i32 0} ; [ DW_TAG_subroutine_type ]
!723 = metadata !{metadata !724, metadata !709, metadata !316}
!724 = metadata !{i32 786448, null, null, null, i32 0, i64 0, i64 0, i64 0, i32 0, metadata !702} ; [ DW_TAG_reference_type ]
!725 = metadata !{i32 786478, i32 0, metadata !702, metadata !"operator=", metadata !"operator=", metadata !"_ZN10ap_bit_refILi17ELb1EEaSERKS0_", metadata !250, i32 1282, metadata !726, i1 false, i1 false, i32 0, i32 0, null, i32 256, i1 false, null, null, i32 0, metadata !262, i32 1282} ; [ DW_TAG_subprogram ]
!726 = metadata !{i32 786453, i32 0, metadata !"", i32 0, i32 0, i64 0, i64 0, i64 0, i32 0, null, metadata !727, i32 0, i32 0} ; [ DW_TAG_subroutine_type ]
!727 = metadata !{metadata !724, metadata !709, metadata !710}
!728 = metadata !{i32 786478, i32 0, metadata !702, metadata !"get", metadata !"get", metadata !"_ZNK10ap_bit_refILi17ELb1EE3getEv", metadata !250, i32 1390, metadata !717, i1 false, i1 false, i32 0, i32 0, null, i32 256, i1 false, null, null, i32 0, metadata !262, i32 1390} ; [ DW_TAG_subprogram ]
!729 = metadata !{i32 786478, i32 0, metadata !702, metadata !"get", metadata !"get", metadata !"_ZN10ap_bit_refILi17ELb1EE3getEv", metadata !250, i32 1394, metadata !730, i1 false, i1 false, i32 0, i32 0, null, i32 256, i1 false, null, null, i32 0, metadata !262, i32 1394} ; [ DW_TAG_subprogram ]
!730 = metadata !{i32 786453, i32 0, metadata !"", i32 0, i32 0, i64 0, i64 0, i64 0, i32 0, null, metadata !731, i32 0, i32 0} ; [ DW_TAG_subroutine_type ]
!731 = metadata !{metadata !268, metadata !709}
!732 = metadata !{i32 786478, i32 0, metadata !702, metadata !"operator~", metadata !"operator~", metadata !"_ZNK10ap_bit_refILi17ELb1EEcoEv", metadata !250, i32 1403, metadata !717, i1 false, i1 false, i32 0, i32 0, null, i32 256, i1 false, null, null, i32 0, metadata !262, i32 1403} ; [ DW_TAG_subprogram ]
!733 = metadata !{i32 786478, i32 0, metadata !702, metadata !"length", metadata !"length", metadata !"_ZNK10ap_bit_refILi17ELb1EE6lengthEv", metadata !250, i32 1408, metadata !734, i1 false, i1 false, i32 0, i32 0, null, i32 256, i1 false, null, null, i32 0, metadata !262, i32 1408} ; [ DW_TAG_subprogram ]
!734 = metadata !{i32 786453, i32 0, metadata !"", i32 0, i32 0, i64 0, i64 0, i64 0, i32 0, null, metadata !735, i32 0, i32 0} ; [ DW_TAG_subroutine_type ]
!735 = metadata !{metadata !266, metadata !719}
!736 = metadata !{i32 786478, i32 0, metadata !479, metadata !"operator[]", metadata !"operator[]", metadata !"_ZNK11ap_int_baseILi17ELb1ELb1EEixEi", metadata !250, i32 2113, metadata !657, i1 false, i1 false, i32 0, i32 0, null, i32 256, i1 false, null, null, i32 0, metadata !262, i32 2113} ; [ DW_TAG_subprogram ]
!737 = metadata !{i32 786478, i32 0, metadata !479, metadata !"bit", metadata !"bit", metadata !"_ZN11ap_int_baseILi17ELb1ELb1EE3bitEi", metadata !250, i32 2127, metadata !700, i1 false, i1 false, i32 0, i32 0, null, i32 256, i1 false, null, null, i32 0, metadata !262, i32 2127} ; [ DW_TAG_subprogram ]
!738 = metadata !{i32 786478, i32 0, metadata !479, metadata !"bit", metadata !"bit", metadata !"_ZNK11ap_int_baseILi17ELb1ELb1EE3bitEi", metadata !250, i32 2141, metadata !657, i1 false, i1 false, i32 0, i32 0, null, i32 256, i1 false, null, null, i32 0, metadata !262, i32 2141} ; [ DW_TAG_subprogram ]
!739 = metadata !{i32 786478, i32 0, metadata !479, metadata !"and_reduce", metadata !"and_reduce", metadata !"_ZN11ap_int_baseILi17ELb1ELb1EE10and_reduceEv", metadata !250, i32 2321, metadata !740, i1 false, i1 false, i32 0, i32 0, null, i32 256, i1 false, null, null, i32 0, metadata !262, i32 2321} ; [ DW_TAG_subprogram ]
!740 = metadata !{i32 786453, i32 0, metadata !"", i32 0, i32 0, i64 0, i64 0, i64 0, i32 0, null, metadata !741, i32 0, i32 0} ; [ DW_TAG_subroutine_type ]
!741 = metadata !{metadata !268, metadata !496}
!742 = metadata !{i32 786478, i32 0, metadata !479, metadata !"nand_reduce", metadata !"nand_reduce", metadata !"_ZN11ap_int_baseILi17ELb1ELb1EE11nand_reduceEv", metadata !250, i32 2324, metadata !740, i1 false, i1 false, i32 0, i32 0, null, i32 256, i1 false, null, null, i32 0, metadata !262, i32 2324} ; [ DW_TAG_subprogram ]
!743 = metadata !{i32 786478, i32 0, metadata !479, metadata !"or_reduce", metadata !"or_reduce", metadata !"_ZN11ap_int_baseILi17ELb1ELb1EE9or_reduceEv", metadata !250, i32 2327, metadata !740, i1 false, i1 false, i32 0, i32 0, null, i32 256, i1 false, null, null, i32 0, metadata !262, i32 2327} ; [ DW_TAG_subprogram ]
!744 = metadata !{i32 786478, i32 0, metadata !479, metadata !"nor_reduce", metadata !"nor_reduce", metadata !"_ZN11ap_int_baseILi17ELb1ELb1EE10nor_reduceEv", metadata !250, i32 2330, metadata !740, i1 false, i1 false, i32 0, i32 0, null, i32 256, i1 false, null, null, i32 0, metadata !262, i32 2330} ; [ DW_TAG_subprogram ]
!745 = metadata !{i32 786478, i32 0, metadata !479, metadata !"xor_reduce", metadata !"xor_reduce", metadata !"_ZN11ap_int_baseILi17ELb1ELb1EE10xor_reduceEv", metadata !250, i32 2333, metadata !740, i1 false, i1 false, i32 0, i32 0, null, i32 256, i1 false, null, null, i32 0, metadata !262, i32 2333} ; [ DW_TAG_subprogram ]
!746 = metadata !{i32 786478, i32 0, metadata !479, metadata !"xnor_reduce", metadata !"xnor_reduce", metadata !"_ZN11ap_int_baseILi17ELb1ELb1EE11xnor_reduceEv", metadata !250, i32 2336, metadata !740, i1 false, i1 false, i32 0, i32 0, null, i32 256, i1 false, null, null, i32 0, metadata !262, i32 2336} ; [ DW_TAG_subprogram ]
!747 = metadata !{i32 786478, i32 0, metadata !479, metadata !"and_reduce", metadata !"and_reduce", metadata !"_ZNK11ap_int_baseILi17ELb1ELb1EE10and_reduceEv", metadata !250, i32 2340, metadata !608, i1 false, i1 false, i32 0, i32 0, null, i32 256, i1 false, null, null, i32 0, metadata !262, i32 2340} ; [ DW_TAG_subprogram ]
!748 = metadata !{i32 786478, i32 0, metadata !479, metadata !"nand_reduce", metadata !"nand_reduce", metadata !"_ZNK11ap_int_baseILi17ELb1ELb1EE11nand_reduceEv", metadata !250, i32 2343, metadata !608, i1 false, i1 false, i32 0, i32 0, null, i32 256, i1 false, null, null, i32 0, metadata !262, i32 2343} ; [ DW_TAG_subprogram ]
!749 = metadata !{i32 786478, i32 0, metadata !479, metadata !"or_reduce", metadata !"or_reduce", metadata !"_ZNK11ap_int_baseILi17ELb1ELb1EE9or_reduceEv", metadata !250, i32 2346, metadata !608, i1 false, i1 false, i32 0, i32 0, null, i32 256, i1 false, null, null, i32 0, metadata !262, i32 2346} ; [ DW_TAG_subprogram ]
!750 = metadata !{i32 786478, i32 0, metadata !479, metadata !"nor_reduce", metadata !"nor_reduce", metadata !"_ZNK11ap_int_baseILi17ELb1ELb1EE10nor_reduceEv", metadata !250, i32 2349, metadata !608, i1 false, i1 false, i32 0, i32 0, null, i32 256, i1 false, null, null, i32 0, metadata !262, i32 2349} ; [ DW_TAG_subprogram ]
!751 = metadata !{i32 786478, i32 0, metadata !479, metadata !"xor_reduce", metadata !"xor_reduce", metadata !"_ZNK11ap_int_baseILi17ELb1ELb1EE10xor_reduceEv", metadata !250, i32 2352, metadata !608, i1 false, i1 false, i32 0, i32 0, null, i32 256, i1 false, null, null, i32 0, metadata !262, i32 2352} ; [ DW_TAG_subprogram ]
!752 = metadata !{i32 786478, i32 0, metadata !479, metadata !"xnor_reduce", metadata !"xnor_reduce", metadata !"_ZNK11ap_int_baseILi17ELb1ELb1EE11xnor_reduceEv", metadata !250, i32 2355, metadata !608, i1 false, i1 false, i32 0, i32 0, null, i32 256, i1 false, null, null, i32 0, metadata !262, i32 2355} ; [ DW_TAG_subprogram ]
!753 = metadata !{i32 786478, i32 0, metadata !479, metadata !"to_string", metadata !"to_string", metadata !"_ZNK11ap_int_baseILi17ELb1ELb1EE9to_stringEPci8BaseModeb", metadata !250, i32 2362, metadata !754, i1 false, i1 false, i32 0, i32 0, null, i32 256, i1 false, null, null, i32 0, metadata !262, i32 2362} ; [ DW_TAG_subprogram ]
!754 = metadata !{i32 786453, i32 0, metadata !"", i32 0, i32 0, i64 0, i64 0, i64 0, i32 0, null, metadata !755, i32 0, i32 0} ; [ DW_TAG_subroutine_type ]
!755 = metadata !{null, metadata !606, metadata !756, metadata !266, metadata !757, metadata !268}
!756 = metadata !{i32 786447, null, metadata !"", null, i32 0, i64 64, i64 64, i64 0, i32 0, metadata !335} ; [ DW_TAG_pointer_type ]
!757 = metadata !{i32 786436, null, metadata !"BaseMode", metadata !250, i32 603, i64 5, i64 8, i32 0, i32 0, null, metadata !758, i32 0, i32 0} ; [ DW_TAG_enumeration_type ]
!758 = metadata !{metadata !759, metadata !760, metadata !761, metadata !762}
!759 = metadata !{i32 786472, metadata !"SC_BIN", i64 2} ; [ DW_TAG_enumerator ]
!760 = metadata !{i32 786472, metadata !"SC_OCT", i64 8} ; [ DW_TAG_enumerator ]
!761 = metadata !{i32 786472, metadata !"SC_DEC", i64 10} ; [ DW_TAG_enumerator ]
!762 = metadata !{i32 786472, metadata !"SC_HEX", i64 16} ; [ DW_TAG_enumerator ]
!763 = metadata !{i32 786478, i32 0, metadata !479, metadata !"to_string", metadata !"to_string", metadata !"_ZNK11ap_int_baseILi17ELb1ELb1EE9to_stringE8BaseModeb", metadata !250, i32 2389, metadata !764, i1 false, i1 false, i32 0, i32 0, null, i32 256, i1 false, null, null, i32 0, metadata !262, i32 2389} ; [ DW_TAG_subprogram ]
!764 = metadata !{i32 786453, i32 0, metadata !"", i32 0, i32 0, i64 0, i64 0, i64 0, i32 0, null, metadata !765, i32 0, i32 0} ; [ DW_TAG_subroutine_type ]
!765 = metadata !{metadata !756, metadata !606, metadata !757, metadata !268}
!766 = metadata !{i32 786478, i32 0, metadata !479, metadata !"to_string", metadata !"to_string", metadata !"_ZNK11ap_int_baseILi17ELb1ELb1EE9to_stringEab", metadata !250, i32 2393, metadata !767, i1 false, i1 false, i32 0, i32 0, null, i32 256, i1 false, null, null, i32 0, metadata !262, i32 2393} ; [ DW_TAG_subprogram ]
!767 = metadata !{i32 786453, i32 0, metadata !"", i32 0, i32 0, i64 0, i64 0, i64 0, i32 0, null, metadata !768, i32 0, i32 0} ; [ DW_TAG_subroutine_type ]
!768 = metadata !{metadata !756, metadata !606, metadata !279, metadata !268}
!769 = metadata !{metadata !693, metadata !492, metadata !687}
!770 = metadata !{i32 786478, i32 0, metadata !249, metadata !"range", metadata !"range", metadata !"_ZN11ap_int_baseILi16ELb0ELb1EE5rangeEii", metadata !250, i32 2062, metadata !771, i1 false, i1 false, i32 0, i32 0, null, i32 256, i1 false, null, null, i32 0, metadata !262, i32 2062} ; [ DW_TAG_subprogram ]
!771 = metadata !{i32 786453, i32 0, metadata !"", i32 0, i32 0, i64 0, i64 0, i64 0, i32 0, null, metadata !772, i32 0, i32 0} ; [ DW_TAG_subroutine_type ]
!772 = metadata !{metadata !773, metadata !272, metadata !266, metadata !266}
!773 = metadata !{i32 786434, null, metadata !"ap_range_ref<16, false>", metadata !250, i32 925, i64 0, i64 0, i32 0, i32 4, null, null, i32 0, null, metadata !774} ; [ DW_TAG_class_type ]
!774 = metadata !{metadata !775, metadata !267}
!775 = metadata !{i32 786480, null, metadata !"_AP_W", metadata !266, i64 16, null, i32 0, i32 0} ; [ DW_TAG_template_value_parameter ]
!776 = metadata !{i32 786478, i32 0, metadata !249, metadata !"operator()", metadata !"operator()", metadata !"_ZN11ap_int_baseILi16ELb0ELb1EEclEii", metadata !250, i32 2068, metadata !771, i1 false, i1 false, i32 0, i32 0, null, i32 256, i1 false, null, null, i32 0, metadata !262, i32 2068} ; [ DW_TAG_subprogram ]
!777 = metadata !{i32 786478, i32 0, metadata !249, metadata !"range", metadata !"range", metadata !"_ZNK11ap_int_baseILi16ELb0ELb1EE5rangeEii", metadata !250, i32 2074, metadata !778, i1 false, i1 false, i32 0, i32 0, null, i32 256, i1 false, null, null, i32 0, metadata !262, i32 2074} ; [ DW_TAG_subprogram ]
!778 = metadata !{i32 786453, i32 0, metadata !"", i32 0, i32 0, i64 0, i64 0, i64 0, i32 0, null, metadata !779, i32 0, i32 0} ; [ DW_TAG_subroutine_type ]
!779 = metadata !{metadata !773, metadata !401, metadata !266, metadata !266}
!780 = metadata !{i32 786478, i32 0, metadata !249, metadata !"operator()", metadata !"operator()", metadata !"_ZNK11ap_int_baseILi16ELb0ELb1EEclEii", metadata !250, i32 2080, metadata !778, i1 false, i1 false, i32 0, i32 0, null, i32 256, i1 false, null, null, i32 0, metadata !262, i32 2080} ; [ DW_TAG_subprogram ]
!781 = metadata !{i32 786478, i32 0, metadata !249, metadata !"operator[]", metadata !"operator[]", metadata !"_ZN11ap_int_baseILi16ELb0ELb1EEixEi", metadata !250, i32 2099, metadata !782, i1 false, i1 false, i32 0, i32 0, null, i32 256, i1 false, null, null, i32 0, metadata !262, i32 2099} ; [ DW_TAG_subprogram ]
!782 = metadata !{i32 786453, i32 0, metadata !"", i32 0, i32 0, i64 0, i64 0, i64 0, i32 0, null, metadata !783, i32 0, i32 0} ; [ DW_TAG_subroutine_type ]
!783 = metadata !{metadata !784, metadata !272, metadata !266}
!784 = metadata !{i32 786434, null, metadata !"ap_bit_ref<16, false>", metadata !250, i32 1249, i64 0, i64 0, i32 0, i32 4, null, null, i32 0, null, metadata !774} ; [ DW_TAG_class_type ]
!785 = metadata !{i32 786478, i32 0, metadata !249, metadata !"operator[]", metadata !"operator[]", metadata !"_ZNK11ap_int_baseILi16ELb0ELb1EEixEi", metadata !250, i32 2113, metadata !452, i1 false, i1 false, i32 0, i32 0, null, i32 256, i1 false, null, null, i32 0, metadata !262, i32 2113} ; [ DW_TAG_subprogram ]
!786 = metadata !{i32 786478, i32 0, metadata !249, metadata !"bit", metadata !"bit", metadata !"_ZN11ap_int_baseILi16ELb0ELb1EE3bitEi", metadata !250, i32 2127, metadata !782, i1 false, i1 false, i32 0, i32 0, null, i32 256, i1 false, null, null, i32 0, metadata !262, i32 2127} ; [ DW_TAG_subprogram ]
!787 = metadata !{i32 786478, i32 0, metadata !249, metadata !"bit", metadata !"bit", metadata !"_ZNK11ap_int_baseILi16ELb0ELb1EE3bitEi", metadata !250, i32 2141, metadata !452, i1 false, i1 false, i32 0, i32 0, null, i32 256, i1 false, null, null, i32 0, metadata !262, i32 2141} ; [ DW_TAG_subprogram ]
!788 = metadata !{i32 786478, i32 0, metadata !249, metadata !"and_reduce", metadata !"and_reduce", metadata !"_ZN11ap_int_baseILi16ELb0ELb1EE10and_reduceEv", metadata !250, i32 2321, metadata !789, i1 false, i1 false, i32 0, i32 0, null, i32 256, i1 false, null, null, i32 0, metadata !262, i32 2321} ; [ DW_TAG_subprogram ]
!789 = metadata !{i32 786453, i32 0, metadata !"", i32 0, i32 0, i64 0, i64 0, i64 0, i32 0, null, metadata !790, i32 0, i32 0} ; [ DW_TAG_subroutine_type ]
!790 = metadata !{metadata !268, metadata !272}
!791 = metadata !{i32 786478, i32 0, metadata !249, metadata !"nand_reduce", metadata !"nand_reduce", metadata !"_ZN11ap_int_baseILi16ELb0ELb1EE11nand_reduceEv", metadata !250, i32 2324, metadata !789, i1 false, i1 false, i32 0, i32 0, null, i32 256, i1 false, null, null, i32 0, metadata !262, i32 2324} ; [ DW_TAG_subprogram ]
!792 = metadata !{i32 786478, i32 0, metadata !249, metadata !"or_reduce", metadata !"or_reduce", metadata !"_ZN11ap_int_baseILi16ELb0ELb1EE9or_reduceEv", metadata !250, i32 2327, metadata !789, i1 false, i1 false, i32 0, i32 0, null, i32 256, i1 false, null, null, i32 0, metadata !262, i32 2327} ; [ DW_TAG_subprogram ]
!793 = metadata !{i32 786478, i32 0, metadata !249, metadata !"nor_reduce", metadata !"nor_reduce", metadata !"_ZN11ap_int_baseILi16ELb0ELb1EE10nor_reduceEv", metadata !250, i32 2330, metadata !789, i1 false, i1 false, i32 0, i32 0, null, i32 256, i1 false, null, null, i32 0, metadata !262, i32 2330} ; [ DW_TAG_subprogram ]
!794 = metadata !{i32 786478, i32 0, metadata !249, metadata !"xor_reduce", metadata !"xor_reduce", metadata !"_ZN11ap_int_baseILi16ELb0ELb1EE10xor_reduceEv", metadata !250, i32 2333, metadata !789, i1 false, i1 false, i32 0, i32 0, null, i32 256, i1 false, null, null, i32 0, metadata !262, i32 2333} ; [ DW_TAG_subprogram ]
!795 = metadata !{i32 786478, i32 0, metadata !249, metadata !"xnor_reduce", metadata !"xnor_reduce", metadata !"_ZN11ap_int_baseILi16ELb0ELb1EE11xnor_reduceEv", metadata !250, i32 2336, metadata !789, i1 false, i1 false, i32 0, i32 0, null, i32 256, i1 false, null, null, i32 0, metadata !262, i32 2336} ; [ DW_TAG_subprogram ]
!796 = metadata !{i32 786478, i32 0, metadata !249, metadata !"and_reduce", metadata !"and_reduce", metadata !"_ZNK11ap_int_baseILi16ELb0ELb1EE10and_reduceEv", metadata !250, i32 2340, metadata !403, i1 false, i1 false, i32 0, i32 0, null, i32 256, i1 false, null, null, i32 0, metadata !262, i32 2340} ; [ DW_TAG_subprogram ]
!797 = metadata !{i32 786478, i32 0, metadata !249, metadata !"nand_reduce", metadata !"nand_reduce", metadata !"_ZNK11ap_int_baseILi16ELb0ELb1EE11nand_reduceEv", metadata !250, i32 2343, metadata !403, i1 false, i1 false, i32 0, i32 0, null, i32 256, i1 false, null, null, i32 0, metadata !262, i32 2343} ; [ DW_TAG_subprogram ]
!798 = metadata !{i32 786478, i32 0, metadata !249, metadata !"or_reduce", metadata !"or_reduce", metadata !"_ZNK11ap_int_baseILi16ELb0ELb1EE9or_reduceEv", metadata !250, i32 2346, metadata !403, i1 false, i1 false, i32 0, i32 0, null, i32 256, i1 false, null, null, i32 0, metadata !262, i32 2346} ; [ DW_TAG_subprogram ]
!799 = metadata !{i32 786478, i32 0, metadata !249, metadata !"nor_reduce", metadata !"nor_reduce", metadata !"_ZNK11ap_int_baseILi16ELb0ELb1EE10nor_reduceEv", metadata !250, i32 2349, metadata !403, i1 false, i1 false, i32 0, i32 0, null, i32 256, i1 false, null, null, i32 0, metadata !262, i32 2349} ; [ DW_TAG_subprogram ]
!800 = metadata !{i32 786478, i32 0, metadata !249, metadata !"xor_reduce", metadata !"xor_reduce", metadata !"_ZNK11ap_int_baseILi16ELb0ELb1EE10xor_reduceEv", metadata !250, i32 2352, metadata !403, i1 false, i1 false, i32 0, i32 0, null, i32 256, i1 false, null, null, i32 0, metadata !262, i32 2352} ; [ DW_TAG_subprogram ]
!801 = metadata !{i32 786478, i32 0, metadata !249, metadata !"xnor_reduce", metadata !"xnor_reduce", metadata !"_ZNK11ap_int_baseILi16ELb0ELb1EE11xnor_reduceEv", metadata !250, i32 2355, metadata !403, i1 false, i1 false, i32 0, i32 0, null, i32 256, i1 false, null, null, i32 0, metadata !262, i32 2355} ; [ DW_TAG_subprogram ]
!802 = metadata !{i32 786478, i32 0, metadata !249, metadata !"to_string", metadata !"to_string", metadata !"_ZNK11ap_int_baseILi16ELb0ELb1EE9to_stringEPci8BaseModeb", metadata !250, i32 2362, metadata !803, i1 false, i1 false, i32 0, i32 0, null, i32 256, i1 false, null, null, i32 0, metadata !262, i32 2362} ; [ DW_TAG_subprogram ]
!803 = metadata !{i32 786453, i32 0, metadata !"", i32 0, i32 0, i64 0, i64 0, i64 0, i32 0, null, metadata !804, i32 0, i32 0} ; [ DW_TAG_subroutine_type ]
!804 = metadata !{null, metadata !401, metadata !756, metadata !266, metadata !757, metadata !268}
!805 = metadata !{i32 786478, i32 0, metadata !249, metadata !"to_string", metadata !"to_string", metadata !"_ZNK11ap_int_baseILi16ELb0ELb1EE9to_stringE8BaseModeb", metadata !250, i32 2389, metadata !806, i1 false, i1 false, i32 0, i32 0, null, i32 256, i1 false, null, null, i32 0, metadata !262, i32 2389} ; [ DW_TAG_subprogram ]
!806 = metadata !{i32 786453, i32 0, metadata !"", i32 0, i32 0, i64 0, i64 0, i64 0, i32 0, null, metadata !807, i32 0, i32 0} ; [ DW_TAG_subroutine_type ]
!807 = metadata !{metadata !756, metadata !401, metadata !757, metadata !268}
!808 = metadata !{i32 786478, i32 0, metadata !249, metadata !"to_string", metadata !"to_string", metadata !"_ZNK11ap_int_baseILi16ELb0ELb1EE9to_stringEab", metadata !250, i32 2393, metadata !809, i1 false, i1 false, i32 0, i32 0, null, i32 256, i1 false, null, null, i32 0, metadata !262, i32 2393} ; [ DW_TAG_subprogram ]
!809 = metadata !{i32 786453, i32 0, metadata !"", i32 0, i32 0, i64 0, i64 0, i64 0, i32 0, null, metadata !810, i32 0, i32 0} ; [ DW_TAG_subroutine_type ]
!810 = metadata !{metadata !756, metadata !401, metadata !279, metadata !268}
!811 = metadata !{metadata !775, metadata !267, metadata !687}
!812 = metadata !{i32 786478, i32 0, metadata !245, metadata !"ap_uint", metadata !"ap_uint", metadata !"", metadata !246, i32 186, metadata !813, i1 false, i1 false, i32 0, i32 0, null, i32 256, i1 false, null, null, i32 0, metadata !262, i32 186} ; [ DW_TAG_subprogram ]
!813 = metadata !{i32 786453, i32 0, metadata !"", i32 0, i32 0, i64 0, i64 0, i64 0, i32 0, null, metadata !814, i32 0, i32 0} ; [ DW_TAG_subroutine_type ]
!814 = metadata !{null, metadata !815}
!815 = metadata !{i32 786447, i32 0, metadata !"", i32 0, i32 0, i64 64, i64 64, i64 0, i32 64, metadata !245} ; [ DW_TAG_pointer_type ]
!816 = metadata !{i32 786478, i32 0, metadata !245, metadata !"ap_uint", metadata !"ap_uint", metadata !"", metadata !246, i32 248, metadata !817, i1 false, i1 false, i32 0, i32 0, null, i32 256, i1 false, null, null, i32 0, metadata !262, i32 248} ; [ DW_TAG_subprogram ]
!817 = metadata !{i32 786453, i32 0, metadata !"", i32 0, i32 0, i64 0, i64 0, i64 0, i32 0, null, metadata !818, i32 0, i32 0} ; [ DW_TAG_subroutine_type ]
!818 = metadata !{null, metadata !815, metadata !268}
!819 = metadata !{i32 786478, i32 0, metadata !245, metadata !"ap_uint", metadata !"ap_uint", metadata !"", metadata !246, i32 249, metadata !820, i1 false, i1 false, i32 0, i32 0, null, i32 256, i1 false, null, null, i32 0, metadata !262, i32 249} ; [ DW_TAG_subprogram ]
!820 = metadata !{i32 786453, i32 0, metadata !"", i32 0, i32 0, i64 0, i64 0, i64 0, i32 0, null, metadata !821, i32 0, i32 0} ; [ DW_TAG_subroutine_type ]
!821 = metadata !{null, metadata !815, metadata !279}
!822 = metadata !{i32 786478, i32 0, metadata !245, metadata !"ap_uint", metadata !"ap_uint", metadata !"", metadata !246, i32 250, metadata !823, i1 false, i1 false, i32 0, i32 0, null, i32 256, i1 false, null, null, i32 0, metadata !262, i32 250} ; [ DW_TAG_subprogram ]
!823 = metadata !{i32 786453, i32 0, metadata !"", i32 0, i32 0, i64 0, i64 0, i64 0, i32 0, null, metadata !824, i32 0, i32 0} ; [ DW_TAG_subroutine_type ]
!824 = metadata !{null, metadata !815, metadata !283}
!825 = metadata !{i32 786478, i32 0, metadata !245, metadata !"ap_uint", metadata !"ap_uint", metadata !"", metadata !246, i32 251, metadata !826, i1 false, i1 false, i32 0, i32 0, null, i32 256, i1 false, null, null, i32 0, metadata !262, i32 251} ; [ DW_TAG_subprogram ]
!826 = metadata !{i32 786453, i32 0, metadata !"", i32 0, i32 0, i64 0, i64 0, i64 0, i32 0, null, metadata !827, i32 0, i32 0} ; [ DW_TAG_subroutine_type ]
!827 = metadata !{null, metadata !815, metadata !287}
!828 = metadata !{i32 786478, i32 0, metadata !245, metadata !"ap_uint", metadata !"ap_uint", metadata !"", metadata !246, i32 252, metadata !829, i1 false, i1 false, i32 0, i32 0, null, i32 256, i1 false, null, null, i32 0, metadata !262, i32 252} ; [ DW_TAG_subprogram ]
!829 = metadata !{i32 786453, i32 0, metadata !"", i32 0, i32 0, i64 0, i64 0, i64 0, i32 0, null, metadata !830, i32 0, i32 0} ; [ DW_TAG_subroutine_type ]
!830 = metadata !{null, metadata !815, metadata !291}
!831 = metadata !{i32 786478, i32 0, metadata !245, metadata !"ap_uint", metadata !"ap_uint", metadata !"", metadata !246, i32 253, metadata !832, i1 false, i1 false, i32 0, i32 0, null, i32 256, i1 false, null, null, i32 0, metadata !262, i32 253} ; [ DW_TAG_subprogram ]
!832 = metadata !{i32 786453, i32 0, metadata !"", i32 0, i32 0, i64 0, i64 0, i64 0, i32 0, null, metadata !833, i32 0, i32 0} ; [ DW_TAG_subroutine_type ]
!833 = metadata !{null, metadata !815, metadata !266}
!834 = metadata !{i32 786478, i32 0, metadata !245, metadata !"ap_uint", metadata !"ap_uint", metadata !"", metadata !246, i32 254, metadata !835, i1 false, i1 false, i32 0, i32 0, null, i32 256, i1 false, null, null, i32 0, metadata !262, i32 254} ; [ DW_TAG_subprogram ]
!835 = metadata !{i32 786453, i32 0, metadata !"", i32 0, i32 0, i64 0, i64 0, i64 0, i32 0, null, metadata !836, i32 0, i32 0} ; [ DW_TAG_subroutine_type ]
!836 = metadata !{null, metadata !815, metadata !298}
!837 = metadata !{i32 786478, i32 0, metadata !245, metadata !"ap_uint", metadata !"ap_uint", metadata !"", metadata !246, i32 255, metadata !838, i1 false, i1 false, i32 0, i32 0, null, i32 256, i1 false, null, null, i32 0, metadata !262, i32 255} ; [ DW_TAG_subprogram ]
!838 = metadata !{i32 786453, i32 0, metadata !"", i32 0, i32 0, i64 0, i64 0, i64 0, i32 0, null, metadata !839, i32 0, i32 0} ; [ DW_TAG_subroutine_type ]
!839 = metadata !{null, metadata !815, metadata !302}
!840 = metadata !{i32 786478, i32 0, metadata !245, metadata !"ap_uint", metadata !"ap_uint", metadata !"", metadata !246, i32 256, metadata !841, i1 false, i1 false, i32 0, i32 0, null, i32 256, i1 false, null, null, i32 0, metadata !262, i32 256} ; [ DW_TAG_subprogram ]
!841 = metadata !{i32 786453, i32 0, metadata !"", i32 0, i32 0, i64 0, i64 0, i64 0, i32 0, null, metadata !842, i32 0, i32 0} ; [ DW_TAG_subroutine_type ]
!842 = metadata !{null, metadata !815, metadata !306}
!843 = metadata !{i32 786478, i32 0, metadata !245, metadata !"ap_uint", metadata !"ap_uint", metadata !"", metadata !246, i32 257, metadata !844, i1 false, i1 false, i32 0, i32 0, null, i32 256, i1 false, null, null, i32 0, metadata !262, i32 257} ; [ DW_TAG_subprogram ]
!844 = metadata !{i32 786453, i32 0, metadata !"", i32 0, i32 0, i64 0, i64 0, i64 0, i32 0, null, metadata !845, i32 0, i32 0} ; [ DW_TAG_subroutine_type ]
!845 = metadata !{null, metadata !815, metadata !316}
!846 = metadata !{i32 786478, i32 0, metadata !245, metadata !"ap_uint", metadata !"ap_uint", metadata !"", metadata !246, i32 258, metadata !847, i1 false, i1 false, i32 0, i32 0, null, i32 256, i1 false, null, null, i32 0, metadata !262, i32 258} ; [ DW_TAG_subprogram ]
!847 = metadata !{i32 786453, i32 0, metadata !"", i32 0, i32 0, i64 0, i64 0, i64 0, i32 0, null, metadata !848, i32 0, i32 0} ; [ DW_TAG_subroutine_type ]
!848 = metadata !{null, metadata !815, metadata !311}
!849 = metadata !{i32 786478, i32 0, metadata !245, metadata !"ap_uint", metadata !"ap_uint", metadata !"", metadata !246, i32 259, metadata !850, i1 false, i1 false, i32 0, i32 0, null, i32 256, i1 false, null, null, i32 0, metadata !262, i32 259} ; [ DW_TAG_subprogram ]
!850 = metadata !{i32 786453, i32 0, metadata !"", i32 0, i32 0, i64 0, i64 0, i64 0, i32 0, null, metadata !851, i32 0, i32 0} ; [ DW_TAG_subroutine_type ]
!851 = metadata !{null, metadata !815, metadata !320}
!852 = metadata !{i32 786478, i32 0, metadata !245, metadata !"ap_uint", metadata !"ap_uint", metadata !"", metadata !246, i32 260, metadata !853, i1 false, i1 false, i32 0, i32 0, null, i32 256, i1 false, null, null, i32 0, metadata !262, i32 260} ; [ DW_TAG_subprogram ]
!853 = metadata !{i32 786453, i32 0, metadata !"", i32 0, i32 0, i64 0, i64 0, i64 0, i32 0, null, metadata !854, i32 0, i32 0} ; [ DW_TAG_subroutine_type ]
!854 = metadata !{null, metadata !815, metadata !325}
!855 = metadata !{i32 786478, i32 0, metadata !245, metadata !"ap_uint", metadata !"ap_uint", metadata !"", metadata !246, i32 261, metadata !856, i1 false, i1 false, i32 0, i32 0, null, i32 256, i1 false, null, null, i32 0, metadata !262, i32 261} ; [ DW_TAG_subprogram ]
!856 = metadata !{i32 786453, i32 0, metadata !"", i32 0, i32 0, i64 0, i64 0, i64 0, i32 0, null, metadata !857, i32 0, i32 0} ; [ DW_TAG_subroutine_type ]
!857 = metadata !{null, metadata !815, metadata !329}
!858 = metadata !{i32 786478, i32 0, metadata !245, metadata !"ap_uint", metadata !"ap_uint", metadata !"", metadata !246, i32 263, metadata !859, i1 false, i1 false, i32 0, i32 0, null, i32 256, i1 false, null, null, i32 0, metadata !262, i32 263} ; [ DW_TAG_subprogram ]
!859 = metadata !{i32 786453, i32 0, metadata !"", i32 0, i32 0, i64 0, i64 0, i64 0, i32 0, null, metadata !860, i32 0, i32 0} ; [ DW_TAG_subroutine_type ]
!860 = metadata !{null, metadata !815, metadata !333}
!861 = metadata !{i32 786478, i32 0, metadata !245, metadata !"ap_uint", metadata !"ap_uint", metadata !"", metadata !246, i32 264, metadata !862, i1 false, i1 false, i32 0, i32 0, null, i32 256, i1 false, null, null, i32 0, metadata !262, i32 264} ; [ DW_TAG_subprogram ]
!862 = metadata !{i32 786453, i32 0, metadata !"", i32 0, i32 0, i64 0, i64 0, i64 0, i32 0, null, metadata !863, i32 0, i32 0} ; [ DW_TAG_subroutine_type ]
!863 = metadata !{null, metadata !815, metadata !333, metadata !279}
!864 = metadata !{i32 786478, i32 0, metadata !245, metadata !"operator=", metadata !"operator=", metadata !"_ZNV7ap_uintILi16EEaSERKS0_", metadata !246, i32 267, metadata !865, i1 false, i1 false, i32 0, i32 0, null, i32 256, i1 false, null, null, i32 0, metadata !262, i32 267} ; [ DW_TAG_subprogram ]
!865 = metadata !{i32 786453, i32 0, metadata !"", i32 0, i32 0, i64 0, i64 0, i64 0, i32 0, null, metadata !866, i32 0, i32 0} ; [ DW_TAG_subroutine_type ]
!866 = metadata !{null, metadata !867, metadata !869}
!867 = metadata !{i32 786447, i32 0, metadata !"", i32 0, i32 0, i64 64, i64 64, i64 0, i32 64, metadata !868} ; [ DW_TAG_pointer_type ]
!868 = metadata !{i32 786485, null, metadata !"", null, i32 0, i64 0, i64 0, i64 0, i32 0, metadata !245} ; [ DW_TAG_volatile_type ]
!869 = metadata !{i32 786448, null, null, null, i32 0, i64 0, i64 0, i64 0, i32 0, metadata !870} ; [ DW_TAG_reference_type ]
!870 = metadata !{i32 786470, null, metadata !"", null, i32 0, i64 0, i64 0, i64 0, i32 0, metadata !245} ; [ DW_TAG_const_type ]
!871 = metadata !{i32 786478, i32 0, metadata !245, metadata !"operator=", metadata !"operator=", metadata !"_ZNV7ap_uintILi16EEaSERVKS0_", metadata !246, i32 271, metadata !872, i1 false, i1 false, i32 0, i32 0, null, i32 256, i1 false, null, null, i32 0, metadata !262, i32 271} ; [ DW_TAG_subprogram ]
!872 = metadata !{i32 786453, i32 0, metadata !"", i32 0, i32 0, i64 0, i64 0, i64 0, i32 0, null, metadata !873, i32 0, i32 0} ; [ DW_TAG_subroutine_type ]
!873 = metadata !{null, metadata !867, metadata !874}
!874 = metadata !{i32 786448, null, null, null, i32 0, i64 0, i64 0, i64 0, i32 0, metadata !875} ; [ DW_TAG_reference_type ]
!875 = metadata !{i32 786470, null, metadata !"", null, i32 0, i64 0, i64 0, i64 0, i32 0, metadata !868} ; [ DW_TAG_const_type ]
!876 = metadata !{i32 786478, i32 0, metadata !245, metadata !"operator=", metadata !"operator=", metadata !"_ZN7ap_uintILi16EEaSERVKS0_", metadata !246, i32 275, metadata !877, i1 false, i1 false, i32 0, i32 0, null, i32 256, i1 false, null, null, i32 0, metadata !262, i32 275} ; [ DW_TAG_subprogram ]
!877 = metadata !{i32 786453, i32 0, metadata !"", i32 0, i32 0, i64 0, i64 0, i64 0, i32 0, null, metadata !878, i32 0, i32 0} ; [ DW_TAG_subroutine_type ]
!878 = metadata !{metadata !879, metadata !815, metadata !874}
!879 = metadata !{i32 786448, null, null, null, i32 0, i64 0, i64 0, i64 0, i32 0, metadata !245} ; [ DW_TAG_reference_type ]
!880 = metadata !{i32 786478, i32 0, metadata !245, metadata !"operator=", metadata !"operator=", metadata !"_ZN7ap_uintILi16EEaSERKS0_", metadata !246, i32 280, metadata !881, i1 false, i1 false, i32 0, i32 0, null, i32 256, i1 false, null, null, i32 0, metadata !262, i32 280} ; [ DW_TAG_subprogram ]
!881 = metadata !{i32 786453, i32 0, metadata !"", i32 0, i32 0, i64 0, i64 0, i64 0, i32 0, null, metadata !882, i32 0, i32 0} ; [ DW_TAG_subroutine_type ]
!882 = metadata !{metadata !879, metadata !815, metadata !869}
!883 = metadata !{metadata !775}
!884 = metadata !{i32 790533, metadata !885, metadata !"op2.V", null, i32 280, metadata !887, i32 0, i32 0} ; [ DW_TAG_arg_variable_field_ro ]
!885 = metadata !{i32 786689, metadata !886, metadata !"op2", metadata !246, i32 33554712, metadata !869, i32 0, i32 0} ; [ DW_TAG_arg_variable ]
!886 = metadata !{i32 786478, i32 0, null, metadata !"operator=", metadata !"operator=", metadata !"_ZN7ap_uintILi16EEaSERKS0_", metadata !246, i32 280, metadata !881, i1 false, i1 true, i32 0, i32 0, null, i32 256, i1 false, null, null, metadata !880, metadata !262, i32 280} ; [ DW_TAG_subprogram ]
!887 = metadata !{i32 786447, null, metadata !"", null, i32 0, i64 0, i64 0, i64 0, i32 0, metadata !888} ; [ DW_TAG_pointer_type ]
!888 = metadata !{i32 786438, null, metadata !"ap_uint<16>", metadata !246, i32 183, i64 16, i64 16, i32 0, i32 0, null, metadata !889, i32 0, null, metadata !883} ; [ DW_TAG_class_field_type ]
!889 = metadata !{metadata !890}
!890 = metadata !{i32 786438, null, metadata !"ap_int_base<16, false, true>", metadata !250, i32 1453, i64 16, i64 16, i32 0, i32 0, null, metadata !891, i32 0, null, metadata !811} ; [ DW_TAG_class_field_type ]
!891 = metadata !{metadata !892}
!892 = metadata !{i32 786438, null, metadata !"ssdm_int<16 + 1024 * 0, false>", metadata !254, i32 18, i64 16, i64 16, i32 0, i32 0, null, metadata !893, i32 0, null, metadata !264} ; [ DW_TAG_class_field_type ]
!893 = metadata !{metadata !256}
!894 = metadata !{i32 280, i32 84, metadata !886, metadata !895}
!895 = metadata !{i32 289, i32 2, metadata !240, null}
!896 = metadata !{i32 281, i32 5, metadata !897, metadata !895}
!897 = metadata !{i32 786443, metadata !886, i32 280, i32 89, metadata !246, i32 416} ; [ DW_TAG_lexical_block ]
!898 = metadata !{i32 290, i32 18, metadata !240, null}
!899 = metadata !{i32 291, i32 5, metadata !240, null}
!900 = metadata !{i32 309, i32 9, metadata !901, null}
!901 = metadata !{i32 786443, metadata !240, i32 306, i32 5, metadata !242, i32 318} ; [ DW_TAG_lexical_block ]
