; ModuleID = '/home/tarafdar/thesis/gitStuff/hlsIP_8k5/heartBeat/solution1/.autopilot/db/a.o.3.bc'
target datalayout = "e-p:64:64:64-i1:8:8-i8:8:8-i16:16:16-i32:32:32-i64:64:64-f32:32:32-f64:64:64-v64:64:64-v128:128:128-a0:0:64-s0:64:64-f80:128:128-n8:16:32:64-S128"
target triple = "x86_64-unknown-linux-gnu"

@llvm_global_ctors_1 = appending global [1 x void ()*] [void ()* @_GLOBAL__I_a] ; [#uses=0 type=[1 x void ()*]*]
@llvm_global_ctors_0 = appending global [1 x i32] [i32 65535] ; [#uses=0 type=[1 x i32]*]
@heartBeat_str = internal unnamed_addr constant [10 x i8] c"heartBeat\00" ; [#uses=1 type=[10 x i8]*]
@p_str4 = private unnamed_addr constant [13 x i8] c"ap_ctrl_none\00", align 1 ; [#uses=1 type=[13 x i8]*]
@p_str3 = private unnamed_addr constant [8 x i8] c"ap_none\00", align 1 ; [#uses=1 type=[8 x i8]*]
@p_str2 = private unnamed_addr constant [1 x i8] zeroinitializer, align 1 ; [#uses=17 type=[1 x i8]*]
@p_str1 = private unnamed_addr constant [5 x i8] c"both\00", align 1 ; [#uses=1 type=[5 x i8]*]
@p_str = private unnamed_addr constant [5 x i8] c"axis\00", align 1 ; [#uses=1 type=[5 x i8]*]

; [#uses=1]
declare i48 @llvm.part.select.i48(i48, i32, i32) nounwind readnone

; [#uses=10]
declare void @llvm.dbg.value(metadata, i64, metadata) nounwind readnone

; [#uses=3]
declare void @llvm.dbg.declare(metadata, metadata) nounwind readnone

; [#uses=0]
define void @heartBeat(i48 %eth_address_V, i64* %stream_out_V_data_V, i1* %stream_out_V_last_V, i8* %stream_out_V_keep_V) {
  call void (...)* @_ssdm_op_SpecBitsMap(i48 %eth_address_V), !map !84
  call void (...)* @_ssdm_op_SpecBitsMap(i64* %stream_out_V_data_V), !map !90
  call void (...)* @_ssdm_op_SpecBitsMap(i1* %stream_out_V_last_V), !map !94
  call void (...)* @_ssdm_op_SpecBitsMap(i8* %stream_out_V_keep_V), !map !98
  call void (...)* @_ssdm_op_SpecTopModule([10 x i8]* @heartBeat_str) nounwind
  %eth_address_V_read = call i48 @_ssdm_op_Read.ap_none.i48(i48 %eth_address_V) ; [#uses=2 type=i48]
  call void @llvm.dbg.declare(metadata !{i64* %stream_out_V_data_V}, metadata !102), !dbg !4360 ; [debug line = 30:26] [debug variable = stream_out.V.data.V]
  call void @llvm.dbg.declare(metadata !{i1* %stream_out_V_last_V}, metadata !4361), !dbg !4360 ; [debug line = 30:26] [debug variable = stream_out.V.last.V]
  call void @llvm.dbg.declare(metadata !{i8* %stream_out_V_keep_V}, metadata !4372), !dbg !4360 ; [debug line = 30:26] [debug variable = stream_out.V.keep.V]
  call void (...)* @_ssdm_op_SpecInterface(i64* %stream_out_V_data_V, i1* %stream_out_V_last_V, i8* %stream_out_V_keep_V, [5 x i8]* @p_str, i32 1, i32 1, [5 x i8]* @p_str1, i32 0, i32 0, [1 x i8]* @p_str2, [1 x i8]* @p_str2, [1 x i8]* @p_str2, i32 0, i32 0, i32 0, i32 0, [1 x i8]* @p_str2, [1 x i8]* @p_str2) nounwind, !dbg !4383 ; [debug line = 37:1]
  call void (...)* @_ssdm_op_SpecInterface(i48 %eth_address_V, [8 x i8]* @p_str3, i32 0, i32 0, [1 x i8]* @p_str2, i32 0, i32 0, [1 x i8]* @p_str2, [1 x i8]* @p_str2, [1 x i8]* @p_str2, i32 0, i32 0, i32 0, i32 0, [1 x i8]* @p_str2, [1 x i8]* @p_str2) nounwind, !dbg !4383 ; [debug line = 37:1]
  call void (...)* @_ssdm_op_SpecInterface(i32 0, [13 x i8]* @p_str4, i32 0, i32 0, [1 x i8]* @p_str2, i32 0, i32 0, [1 x i8]* @p_str2, [1 x i8]* @p_str2, [1 x i8]* @p_str2, i32 0, i32 0, i32 0, i32 0, [1 x i8]* @p_str2, [1 x i8]* @p_str2) nounwind, !dbg !4383 ; [debug line = 37:1]
  call void @llvm.dbg.value(metadata !{i48 %eth_address_V}, i64 0, metadata !4385), !dbg !4389 ; [debug line = 884:185@2432:91@96:118@96:119@48:16] [debug variable = __Repl2__]
  %tmp = call i16 @_ssdm_op_PartSelect.i16.i48.i32.i32(i48 %eth_address_V_read, i32 32, i32 47) ; [#uses=1 type=i16]
  %tmp_data_V = call i64 @_ssdm_op_BitConcatenate.i64.i48.i16(i48 -1, i16 %tmp), !dbg !4479 ; [#uses=1 type=i64] [debug line = 939:85@1481:19@90:101@90:102@50:23]
  %temp_V = trunc i48 %eth_address_V_read to i32, !dbg !4493 ; [#uses=1 type=i32] [debug line = 939:85@1481:19@90:101@90:102@54:21]
  call void @llvm.dbg.value(metadata !{i32 %temp_V}, i64 0, metadata !4591), !dbg !4494 ; [debug line = 1481:19@90:101@90:102@54:21] [debug variable = temp.V]
  call void @llvm.dbg.value(metadata !{i32 %temp_V}, i64 0, metadata !4599), !dbg !4604 ; [debug line = 886:185@1491:91@96:118@96:119@56:22] [debug variable = __Repl2__]
  %p_Result_s = call i64 @_ssdm_op_BitConcatenate.i64.i32.i32(i32 %temp_V, i32 1946157056), !dbg !4615 ; [#uses=1 type=i64] [debug line = 886:187@1491:91@96:118@96:119@64:23]
  call void @llvm.dbg.value(metadata !{i64 %p_Result_s}, i64 0, metadata !4629), !dbg !4615 ; [debug line = 886:187@1491:91@96:118@96:119@64:23] [debug variable = __Result__]
  call void @llvm.dbg.value(metadata !{i64 %p_Result_s}, i64 0, metadata !4630), !dbg !4636 ; [debug line = 886:0@1491:91@96:118@96:119@64:23] [debug variable = tmpVal.V]
  call void @llvm.dbg.value(metadata !{i64* %stream_out_V_data_V}, i64 0, metadata !4637), !dbg !4642 ; [debug line = 144:48@70:2] [debug variable = stream<ap_axis>.V.data.V]
  call void @llvm.dbg.value(metadata !{i1* %stream_out_V_last_V}, i64 0, metadata !4644), !dbg !4642 ; [debug line = 144:48@70:2] [debug variable = stream<ap_axis>.V.last.V]
  call void @llvm.dbg.value(metadata !{i8* %stream_out_V_keep_V}, i64 0, metadata !4646), !dbg !4642 ; [debug line = 144:48@70:2] [debug variable = stream<ap_axis>.V.keep.V]
  call void @llvm.dbg.value(metadata !{i64 %tmp_data_V}, i64 0, metadata !4648), !dbg !4651 ; [debug line = 145:31@70:2] [debug variable = tmp.data.V]
  call void @_ssdm_op_Write.axis.volatile.i64P.i1P.i8P(i64* %stream_out_V_data_V, i1* %stream_out_V_last_V, i8* %stream_out_V_keep_V, i64 %tmp_data_V, i1 undef, i8 -1), !dbg !4652 ; [debug line = 146:9@70:2]
  call void @llvm.dbg.value(metadata !{i64 %p_Result_s}, i64 0, metadata !4648), !dbg !4653 ; [debug line = 145:31@71:2] [debug variable = tmp.data.V]
  call void @_ssdm_op_Write.axis.volatile.i64P.i1P.i8P(i64* %stream_out_V_data_V, i1* %stream_out_V_last_V, i8* %stream_out_V_keep_V, i64 %p_Result_s, i1 undef, i8 -1), !dbg !4655 ; [debug line = 146:9@71:2]
  call void @_ssdm_op_Write.axis.volatile.i64P.i1P.i8P(i64* %stream_out_V_data_V, i1* %stream_out_V_last_V, i8* %stream_out_V_keep_V, i64 -1, i1 false, i8 -1), !dbg !4656 ; [debug line = 146:9@77:2]
  call void @_ssdm_op_Write.axis.volatile.i64P.i1P.i8P(i64* %stream_out_V_data_V, i1* %stream_out_V_last_V, i8* %stream_out_V_keep_V, i64 -1, i1 true, i8 -1), !dbg !4658 ; [debug line = 146:9@82:2]
  ret void, !dbg !4660                            ; [debug line = 85:1]
}

; [#uses=4]
define weak void @_ssdm_op_Write.axis.volatile.i64P.i1P.i8P(i64*, i1*, i8*, i64, i1, i8) {
entry:
  store i64 %3, i64* %0
  store i1 %4, i1* %1
  store i8 %5, i8* %2
  ret void
}

; [#uses=1]
define weak void @_ssdm_op_SpecTopModule(...) {
entry:
  ret void
}

; [#uses=3]
define weak void @_ssdm_op_SpecInterface(...) nounwind {
entry:
  ret void
}

; [#uses=4]
define weak void @_ssdm_op_SpecBitsMap(...) {
entry:
  ret void
}

; [#uses=1]
define weak i48 @_ssdm_op_Read.ap_none.i48(i48) {
entry:
  ret i48 %0
}

; [#uses=0]
declare i32 @_ssdm_op_PartSelect.i32.i48.i32.i32(i48, i32, i32) nounwind readnone

; [#uses=1]
define weak i16 @_ssdm_op_PartSelect.i16.i48.i32.i32(i48, i32, i32) nounwind readnone {
entry:
  %empty = call i48 @llvm.part.select.i48(i48 %0, i32 %1, i32 %2) ; [#uses=1 type=i48]
  %empty_5 = trunc i48 %empty to i16              ; [#uses=1 type=i16]
  ret i16 %empty_5
}

; [#uses=1]
define weak i64 @_ssdm_op_BitConcatenate.i64.i48.i16(i48, i16) nounwind readnone {
entry:
  %empty = zext i48 %0 to i64                     ; [#uses=1 type=i64]
  %empty_6 = zext i16 %1 to i64                   ; [#uses=1 type=i64]
  %empty_7 = shl i64 %empty, 16                   ; [#uses=1 type=i64]
  %empty_8 = or i64 %empty_7, %empty_6            ; [#uses=1 type=i64]
  ret i64 %empty_8
}

; [#uses=1]
define weak i64 @_ssdm_op_BitConcatenate.i64.i32.i32(i32, i32) nounwind readnone {
entry:
  %empty = zext i32 %0 to i64                     ; [#uses=1 type=i64]
  %empty_9 = zext i32 %1 to i64                   ; [#uses=1 type=i64]
  %empty_10 = shl i64 %empty, 32                  ; [#uses=1 type=i64]
  %empty_11 = or i64 %empty_10, %empty_9          ; [#uses=1 type=i64]
  ret i64 %empty_11
}

; [#uses=1]
declare void @_GLOBAL__I_a() nounwind section ".text.startup"

!opencl.kernels = !{!0, !7, !7, !13, !13, !19, !22, !22, !13, !13, !24, !7, !7, !13, !13, !27, !29, !29, !29, !13, !32, !32, !13, !13, !13, !35, !35, !13, !36, !39, !39, !7, !7, !13, !13, !42, !42, !42, !13, !44, !44, !13, !46, !46, !13, !13, !35, !35, !13, !48, !50, !50, !7, !7, !13, !13, !52, !52, !52, !13, !13, !13, !13, !13, !52, !52, !52, !54, !56, !59, !59, !65, !65, !65, !13, !35, !35, !13, !67, !69, !71, !71, !13, !13, !13, !13, !13, !13, !13, !73, !73, !13, !75, !13, !13, !13, !13, !13, !13, !13, !13, !13, !13, !13, !13}
!hls.encrypted.func = !{}
!llvm.map.gv = !{!77}

!0 = metadata !{null, metadata !1, metadata !2, metadata !3, metadata !4, metadata !5, metadata !6}
!1 = metadata !{metadata !"kernel_arg_addr_space", i32 0, i32 0}
!2 = metadata !{metadata !"kernel_arg_access_qual", metadata !"none", metadata !"none"}
!3 = metadata !{metadata !"kernel_arg_type", metadata !"ap_int<48>", metadata !"hls::stream<ap_axis>"}
!4 = metadata !{metadata !"kernel_arg_type_qual", metadata !"", metadata !""}
!5 = metadata !{metadata !"kernel_arg_name", metadata !"eth_address", metadata !"stream_out"}
!6 = metadata !{metadata !"reqd_work_group_size", i32 1, i32 1, i32 1}
!7 = metadata !{null, metadata !8, metadata !9, metadata !10, metadata !11, metadata !12, metadata !6}
!8 = metadata !{metadata !"kernel_arg_addr_space", i32 0}
!9 = metadata !{metadata !"kernel_arg_access_qual", metadata !"none"}
!10 = metadata !{metadata !"kernel_arg_type", metadata !"int"}
!11 = metadata !{metadata !"kernel_arg_type_qual", metadata !""}
!12 = metadata !{metadata !"kernel_arg_name", metadata !"val"}
!13 = metadata !{null, metadata !14, metadata !15, metadata !16, metadata !17, metadata !18, metadata !6}
!14 = metadata !{metadata !"kernel_arg_addr_space"}
!15 = metadata !{metadata !"kernel_arg_access_qual"}
!16 = metadata !{metadata !"kernel_arg_type"}
!17 = metadata !{metadata !"kernel_arg_type_qual"}
!18 = metadata !{metadata !"kernel_arg_name"}
!19 = metadata !{null, metadata !8, metadata !9, metadata !20, metadata !11, metadata !21, metadata !6}
!20 = metadata !{metadata !"kernel_arg_type", metadata !"const ap_uint<1> &"}
!21 = metadata !{metadata !"kernel_arg_name", metadata !"op2"}
!22 = metadata !{null, metadata !8, metadata !9, metadata !23, metadata !11, metadata !12, metadata !6}
!23 = metadata !{metadata !"kernel_arg_type", metadata !"ulong"}
!24 = metadata !{null, metadata !8, metadata !9, metadata !25, metadata !11, metadata !26, metadata !6}
!25 = metadata !{metadata !"kernel_arg_type", metadata !"const struct ap_axis &"}
!26 = metadata !{metadata !"kernel_arg_name", metadata !"din"}
!27 = metadata !{null, metadata !8, metadata !9, metadata !28, metadata !11, metadata !21, metadata !6}
!28 = metadata !{metadata !"kernel_arg_type", metadata !"const ap_uint<8> &"}
!29 = metadata !{null, metadata !8, metadata !9, metadata !30, metadata !11, metadata !31, metadata !6}
!30 = metadata !{metadata !"kernel_arg_type", metadata !"const ap_concat_ref<48, struct ap_int_base<48, true, true>, 16, struct ap_int_base<16, false, true> > &"}
!31 = metadata !{metadata !"kernel_arg_name", metadata !"ref"}
!32 = metadata !{null, metadata !8, metadata !9, metadata !33, metadata !11, metadata !34, metadata !6}
!33 = metadata !{metadata !"kernel_arg_type", metadata !"const ap_int_base<48, true> &"}
!34 = metadata !{metadata !"kernel_arg_name", metadata !"op"}
!35 = metadata !{null, metadata !8, metadata !9, metadata !10, metadata !11, metadata !34, metadata !6}
!36 = metadata !{null, metadata !8, metadata !9, metadata !37, metadata !11, metadata !38, metadata !6}
!37 = metadata !{metadata !"kernel_arg_type", metadata !"ap_int_base<16, false> &"}
!38 = metadata !{metadata !"kernel_arg_name", metadata !"a2"}
!39 = metadata !{null, metadata !1, metadata !2, metadata !40, metadata !4, metadata !41, metadata !6}
!40 = metadata !{metadata !"kernel_arg_type", metadata !"struct ap_int_base<48, true, true> &", metadata !"struct ap_int_base<16, false, true> &"}
!41 = metadata !{metadata !"kernel_arg_name", metadata !"bv1", metadata !"bv2"}
!42 = metadata !{null, metadata !8, metadata !9, metadata !43, metadata !11, metadata !31, metadata !6}
!43 = metadata !{metadata !"kernel_arg_type", metadata !"const ap_concat_ref<32, struct ap_int_base<32, true, true>, 16, struct ap_int_base<16, true, true> > &"}
!44 = metadata !{null, metadata !8, metadata !9, metadata !45, metadata !11, metadata !34, metadata !6}
!45 = metadata !{metadata !"kernel_arg_type", metadata !"const ap_int_base<32, true> &"}
!46 = metadata !{null, metadata !8, metadata !9, metadata !47, metadata !11, metadata !34, metadata !6}
!47 = metadata !{metadata !"kernel_arg_type", metadata !"const ap_int_base<16, true> &"}
!48 = metadata !{null, metadata !8, metadata !9, metadata !49, metadata !11, metadata !38, metadata !6}
!49 = metadata !{metadata !"kernel_arg_type", metadata !"ap_int_base<16, true> &"}
!50 = metadata !{null, metadata !1, metadata !2, metadata !51, metadata !4, metadata !41, metadata !6}
!51 = metadata !{metadata !"kernel_arg_type", metadata !"struct ap_int_base<32, true, true> &", metadata !"struct ap_int_base<16, true, true> &"}
!52 = metadata !{null, metadata !8, metadata !9, metadata !53, metadata !11, metadata !31, metadata !6}
!53 = metadata !{metadata !"kernel_arg_type", metadata !"const ap_range_ref<96, true> &"}
!54 = metadata !{null, metadata !8, metadata !9, metadata !55, metadata !11, metadata !21, metadata !6}
!55 = metadata !{metadata !"kernel_arg_type", metadata !"const ap_int<64> &"}
!56 = metadata !{null, metadata !1, metadata !2, metadata !57, metadata !4, metadata !58, metadata !6}
!57 = metadata !{metadata !"kernel_arg_type", metadata !"int", metadata !"int"}
!58 = metadata !{metadata !"kernel_arg_name", metadata !"Hi", metadata !"Lo"}
!59 = metadata !{null, metadata !60, metadata !61, metadata !62, metadata !63, metadata !64, metadata !6}
!60 = metadata !{metadata !"kernel_arg_addr_space", i32 1, i32 0, i32 0}
!61 = metadata !{metadata !"kernel_arg_access_qual", metadata !"none", metadata !"none", metadata !"none"}
!62 = metadata !{metadata !"kernel_arg_type", metadata !"ap_int_base<96, true>*", metadata !"int", metadata !"int"}
!63 = metadata !{metadata !"kernel_arg_type_qual", metadata !"", metadata !"", metadata !""}
!64 = metadata !{metadata !"kernel_arg_name", metadata !"bv", metadata !"h", metadata !"l"}
!65 = metadata !{null, metadata !8, metadata !9, metadata !66, metadata !11, metadata !31, metadata !6}
!66 = metadata !{metadata !"kernel_arg_type", metadata !"const ap_concat_ref<48, struct ap_int_base<48, true, true>, 48, struct ap_int_base<48, true, true> > &"}
!67 = metadata !{null, metadata !8, metadata !9, metadata !68, metadata !11, metadata !21, metadata !6}
!68 = metadata !{metadata !"kernel_arg_type", metadata !"const ap_int<96> &"}
!69 = metadata !{null, metadata !8, metadata !9, metadata !70, metadata !11, metadata !38, metadata !6}
!70 = metadata !{metadata !"kernel_arg_type", metadata !"ap_int_base<48, true> &"}
!71 = metadata !{null, metadata !1, metadata !2, metadata !72, metadata !4, metadata !41, metadata !6}
!72 = metadata !{metadata !"kernel_arg_type", metadata !"struct ap_int_base<48, true, true> &", metadata !"struct ap_int_base<48, true, true> &"}
!73 = metadata !{null, metadata !8, metadata !9, metadata !74, metadata !11, metadata !12, metadata !6}
!74 = metadata !{metadata !"kernel_arg_type", metadata !"long"}
!75 = metadata !{null, metadata !8, metadata !9, metadata !76, metadata !11, metadata !21, metadata !6}
!76 = metadata !{metadata !"kernel_arg_type", metadata !"const ap_int<48> &"}
!77 = metadata !{metadata !78, [1 x i32]* @llvm_global_ctors_0}
!78 = metadata !{metadata !79}
!79 = metadata !{i32 0, i32 31, metadata !80}
!80 = metadata !{metadata !81}
!81 = metadata !{metadata !"llvm.global_ctors.0", metadata !82, metadata !"", i32 0, i32 31}
!82 = metadata !{metadata !83}
!83 = metadata !{i32 0, i32 0, i32 1}
!84 = metadata !{metadata !85}
!85 = metadata !{i32 0, i32 47, metadata !86}
!86 = metadata !{metadata !87}
!87 = metadata !{metadata !"eth_address.V", metadata !88, metadata !"int48", i32 0, i32 47}
!88 = metadata !{metadata !89}
!89 = metadata !{i32 0, i32 0, i32 0}
!90 = metadata !{metadata !91}
!91 = metadata !{i32 0, i32 63, metadata !92}
!92 = metadata !{metadata !93}
!93 = metadata !{metadata !"stream_out.V.data.V", metadata !82, metadata !"int64", i32 0, i32 63}
!94 = metadata !{metadata !95}
!95 = metadata !{i32 0, i32 0, metadata !96}
!96 = metadata !{metadata !97}
!97 = metadata !{metadata !"stream_out.V.last.V", metadata !82, metadata !"uint1", i32 0, i32 0}
!98 = metadata !{metadata !99}
!99 = metadata !{i32 0, i32 7, metadata !100}
!100 = metadata !{metadata !101}
!101 = metadata !{metadata !"stream_out.V.keep.V", metadata !82, metadata !"uint8", i32 0, i32 7}
!102 = metadata !{i32 790531, metadata !103, metadata !"stream_out.V.data.V", null, i32 30, metadata !4350, i32 0, i32 0} ; [ DW_TAG_arg_variable_field ]
!103 = metadata !{i32 786689, metadata !104, metadata !"stream_out", metadata !105, i32 33554462, metadata !4319, i32 0, i32 0} ; [ DW_TAG_arg_variable ]
!104 = metadata !{i32 786478, i32 0, metadata !105, metadata !"heartBeat", metadata !"heartBeat", metadata !"_Z9heartBeat6ap_intILi48EEN3hls6streamI7ap_axisEE", metadata !105, i32 24, metadata !106, i1 false, i1 true, i32 0, i32 0, null, i32 256, i1 false, null, null, null, metadata !125, i32 36} ; [ DW_TAG_subprogram ]
!105 = metadata !{i32 786473, metadata !"../hlsSources/srcs/heartBeat.cpp", metadata !"/home/tarafdar/thesis/gitStuff", null} ; [ DW_TAG_file_type ]
!106 = metadata !{i32 786453, i32 0, metadata !"", i32 0, i32 0, i64 0, i64 0, i64 0, i32 0, null, metadata !107, i32 0, i32 0} ; [ DW_TAG_subroutine_type ]
!107 = metadata !{null, metadata !108, metadata !2970}
!108 = metadata !{i32 786434, null, metadata !"ap_int<48>", metadata !109, i32 73, i64 64, i64 64, i32 0, i32 0, null, metadata !110, i32 0, null, metadata !2969} ; [ DW_TAG_class_type ]
!109 = metadata !{i32 786473, metadata !"/opt/Xilinx/Vivado_HLS/2016.4/common/technology/autopilot/ap_int.h", metadata !"/home/tarafdar/thesis/gitStuff", null} ; [ DW_TAG_file_type ]
!110 = metadata !{metadata !111, metadata !1806, metadata !1810, metadata !1816, metadata !1822, metadata !2905, metadata !2908, metadata !2911, metadata !2914, metadata !2917, metadata !2920, metadata !2923, metadata !2926, metadata !2929, metadata !2932, metadata !2935, metadata !2938, metadata !2941, metadata !2944, metadata !2947, metadata !2950, metadata !2953, metadata !2957, metadata !2960, metadata !2964, metadata !2967, metadata !2968}
!111 = metadata !{i32 786460, metadata !108, null, metadata !109, i32 0, i64 0, i64 0, i64 0, i32 0, metadata !112} ; [ DW_TAG_inheritance ]
!112 = metadata !{i32 786434, null, metadata !"ap_int_base<48, true, true>", metadata !113, i32 1397, i64 64, i64 64, i32 0, i32 0, null, metadata !114, i32 0, null, metadata !1804} ; [ DW_TAG_class_type ]
!113 = metadata !{i32 786473, metadata !"/opt/Xilinx/Vivado_HLS/2016.4/common/technology/autopilot/ap_int_syn.h", metadata !"/home/tarafdar/thesis/gitStuff", null} ; [ DW_TAG_file_type ]
!114 = metadata !{metadata !115, metadata !137, metadata !141, metadata !149, metadata !155, metadata !158, metadata !162, metadata !166, metadata !170, metadata !174, metadata !177, metadata !181, metadata !185, metadata !189, metadata !194, metadata !199, metadata !203, metadata !207, metadata !213, metadata !216, metadata !220, metadata !223, metadata !226, metadata !227, metadata !231, metadata !234, metadata !237, metadata !240, metadata !243, metadata !246, metadata !249, metadata !252, metadata !255, metadata !258, metadata !261, metadata !264, metadata !274, metadata !277, metadata !280, metadata !283, metadata !286, metadata !289, metadata !292, metadata !295, metadata !298, metadata !301, metadata !304, metadata !307, metadata !310, metadata !311, metadata !315, metadata !318, metadata !319, metadata !320, metadata !321, metadata !322, metadata !323, metadata !326, metadata !327, metadata !330, metadata !331, metadata !332, metadata !333, metadata !334, metadata !335, metadata !338, metadata !339, metadata !340, metadata !343, metadata !344, metadata !347, metadata !348, metadata !352, metadata !356, metadata !357, metadata !360, metadata !361, metadata !365, metadata !366, metadata !367, metadata !368, metadata !1496, metadata !1774, metadata !1777, metadata !1780, metadata !1783, metadata !1784, metadata !1785, metadata !1786, metadata !1787, metadata !1788, metadata !1789, metadata !1790, metadata !1791, metadata !1792, metadata !1793, metadata !1794, metadata !1797, metadata !1800, metadata !1803}
!115 = metadata !{i32 786460, metadata !112, null, metadata !113, i32 0, i64 0, i64 0, i64 0, i32 0, metadata !116} ; [ DW_TAG_inheritance ]
!116 = metadata !{i32 786434, null, metadata !"ssdm_int<48 + 1024 * 0, true>", metadata !117, i32 50, i64 64, i64 64, i32 0, i32 0, null, metadata !118, i32 0, null, metadata !132} ; [ DW_TAG_class_type ]
!117 = metadata !{i32 786473, metadata !"/opt/Xilinx/Vivado_HLS/2016.4/common/technology/autopilot/etc/autopilot_dt.def", metadata !"/home/tarafdar/thesis/gitStuff", null} ; [ DW_TAG_file_type ]
!118 = metadata !{metadata !119, metadata !121, metadata !127}
!119 = metadata !{i32 786445, metadata !116, metadata !"V", metadata !117, i32 50, i64 48, i64 64, i64 0, i32 0, metadata !120} ; [ DW_TAG_member ]
!120 = metadata !{i32 786468, null, metadata !"int48", null, i32 0, i64 48, i64 64, i64 0, i32 0, i32 5} ; [ DW_TAG_base_type ]
!121 = metadata !{i32 786478, i32 0, metadata !116, metadata !"ssdm_int", metadata !"ssdm_int", metadata !"", metadata !117, i32 50, metadata !122, i1 false, i1 false, i32 0, i32 0, null, i32 256, i1 false, null, null, i32 0, metadata !125, i32 50} ; [ DW_TAG_subprogram ]
!122 = metadata !{i32 786453, i32 0, metadata !"", i32 0, i32 0, i64 0, i64 0, i64 0, i32 0, null, metadata !123, i32 0, i32 0} ; [ DW_TAG_subroutine_type ]
!123 = metadata !{null, metadata !124}
!124 = metadata !{i32 786447, i32 0, metadata !"", i32 0, i32 0, i64 64, i64 64, i64 0, i32 64, metadata !116} ; [ DW_TAG_pointer_type ]
!125 = metadata !{metadata !126}
!126 = metadata !{i32 786468}                     ; [ DW_TAG_base_type ]
!127 = metadata !{i32 786478, i32 0, metadata !116, metadata !"ssdm_int", metadata !"ssdm_int", metadata !"", metadata !117, i32 50, metadata !128, i1 false, i1 false, i32 0, i32 0, null, i32 320, i1 false, null, null, i32 0, metadata !125, i32 50} ; [ DW_TAG_subprogram ]
!128 = metadata !{i32 786453, i32 0, metadata !"", i32 0, i32 0, i64 0, i64 0, i64 0, i32 0, null, metadata !129, i32 0, i32 0} ; [ DW_TAG_subroutine_type ]
!129 = metadata !{null, metadata !124, metadata !130}
!130 = metadata !{i32 786448, null, null, null, i32 0, i64 0, i64 0, i64 0, i32 0, metadata !131} ; [ DW_TAG_reference_type ]
!131 = metadata !{i32 786470, null, metadata !"", null, i32 0, i64 0, i64 0, i64 0, i32 0, metadata !116} ; [ DW_TAG_const_type ]
!132 = metadata !{metadata !133, metadata !135}
!133 = metadata !{i32 786480, null, metadata !"_AP_N", metadata !134, i64 48, null, i32 0, i32 0} ; [ DW_TAG_template_value_parameter ]
!134 = metadata !{i32 786468, null, metadata !"int", null, i32 0, i64 32, i64 32, i64 0, i32 0, i32 5} ; [ DW_TAG_base_type ]
!135 = metadata !{i32 786480, null, metadata !"_AP_S", metadata !136, i64 1, null, i32 0, i32 0} ; [ DW_TAG_template_value_parameter ]
!136 = metadata !{i32 786468, null, metadata !"bool", null, i32 0, i64 8, i64 8, i64 0, i32 0, i32 2} ; [ DW_TAG_base_type ]
!137 = metadata !{i32 786478, i32 0, metadata !112, metadata !"ap_int_base", metadata !"ap_int_base", metadata !"", metadata !113, i32 1438, metadata !138, i1 false, i1 false, i32 0, i32 0, null, i32 256, i1 false, null, null, i32 0, metadata !125, i32 1438} ; [ DW_TAG_subprogram ]
!138 = metadata !{i32 786453, i32 0, metadata !"", i32 0, i32 0, i64 0, i64 0, i64 0, i32 0, null, metadata !139, i32 0, i32 0} ; [ DW_TAG_subroutine_type ]
!139 = metadata !{null, metadata !140}
!140 = metadata !{i32 786447, i32 0, metadata !"", i32 0, i32 0, i64 64, i64 64, i64 0, i32 64, metadata !112} ; [ DW_TAG_pointer_type ]
!141 = metadata !{i32 786478, i32 0, metadata !112, metadata !"ap_int_base<48, true>", metadata !"ap_int_base<48, true>", metadata !"", metadata !113, i32 1450, metadata !142, i1 false, i1 false, i32 0, i32 0, null, i32 256, i1 false, null, metadata !146, i32 0, metadata !125, i32 1450} ; [ DW_TAG_subprogram ]
!142 = metadata !{i32 786453, i32 0, metadata !"", i32 0, i32 0, i64 0, i64 0, i64 0, i32 0, null, metadata !143, i32 0, i32 0} ; [ DW_TAG_subroutine_type ]
!143 = metadata !{null, metadata !140, metadata !144}
!144 = metadata !{i32 786448, null, null, null, i32 0, i64 0, i64 0, i64 0, i32 0, metadata !145} ; [ DW_TAG_reference_type ]
!145 = metadata !{i32 786470, null, metadata !"", null, i32 0, i64 0, i64 0, i64 0, i32 0, metadata !112} ; [ DW_TAG_const_type ]
!146 = metadata !{metadata !147, metadata !148}
!147 = metadata !{i32 786480, null, metadata !"_AP_W2", metadata !134, i64 48, null, i32 0, i32 0} ; [ DW_TAG_template_value_parameter ]
!148 = metadata !{i32 786480, null, metadata !"_AP_S2", metadata !136, i64 1, null, i32 0, i32 0} ; [ DW_TAG_template_value_parameter ]
!149 = metadata !{i32 786478, i32 0, metadata !112, metadata !"ap_int_base<48, true>", metadata !"ap_int_base<48, true>", metadata !"", metadata !113, i32 1453, metadata !150, i1 false, i1 false, i32 0, i32 0, null, i32 256, i1 false, null, metadata !146, i32 0, metadata !125, i32 1453} ; [ DW_TAG_subprogram ]
!150 = metadata !{i32 786453, i32 0, metadata !"", i32 0, i32 0, i64 0, i64 0, i64 0, i32 0, null, metadata !151, i32 0, i32 0} ; [ DW_TAG_subroutine_type ]
!151 = metadata !{null, metadata !140, metadata !152}
!152 = metadata !{i32 786448, null, null, null, i32 0, i64 0, i64 0, i64 0, i32 0, metadata !153} ; [ DW_TAG_reference_type ]
!153 = metadata !{i32 786470, null, metadata !"", null, i32 0, i64 0, i64 0, i64 0, i32 0, metadata !154} ; [ DW_TAG_const_type ]
!154 = metadata !{i32 786485, null, metadata !"", null, i32 0, i64 0, i64 0, i64 0, i32 0, metadata !112} ; [ DW_TAG_volatile_type ]
!155 = metadata !{i32 786478, i32 0, metadata !112, metadata !"ap_int_base", metadata !"ap_int_base", metadata !"", metadata !113, i32 1460, metadata !156, i1 false, i1 false, i32 0, i32 0, null, i32 384, i1 false, null, null, i32 0, metadata !125, i32 1460} ; [ DW_TAG_subprogram ]
!156 = metadata !{i32 786453, i32 0, metadata !"", i32 0, i32 0, i64 0, i64 0, i64 0, i32 0, null, metadata !157, i32 0, i32 0} ; [ DW_TAG_subroutine_type ]
!157 = metadata !{null, metadata !140, metadata !136}
!158 = metadata !{i32 786478, i32 0, metadata !112, metadata !"ap_int_base", metadata !"ap_int_base", metadata !"", metadata !113, i32 1461, metadata !159, i1 false, i1 false, i32 0, i32 0, null, i32 384, i1 false, null, null, i32 0, metadata !125, i32 1461} ; [ DW_TAG_subprogram ]
!159 = metadata !{i32 786453, i32 0, metadata !"", i32 0, i32 0, i64 0, i64 0, i64 0, i32 0, null, metadata !160, i32 0, i32 0} ; [ DW_TAG_subroutine_type ]
!160 = metadata !{null, metadata !140, metadata !161}
!161 = metadata !{i32 786468, null, metadata !"signed char", null, i32 0, i64 8, i64 8, i64 0, i32 0, i32 6} ; [ DW_TAG_base_type ]
!162 = metadata !{i32 786478, i32 0, metadata !112, metadata !"ap_int_base", metadata !"ap_int_base", metadata !"", metadata !113, i32 1462, metadata !163, i1 false, i1 false, i32 0, i32 0, null, i32 384, i1 false, null, null, i32 0, metadata !125, i32 1462} ; [ DW_TAG_subprogram ]
!163 = metadata !{i32 786453, i32 0, metadata !"", i32 0, i32 0, i64 0, i64 0, i64 0, i32 0, null, metadata !164, i32 0, i32 0} ; [ DW_TAG_subroutine_type ]
!164 = metadata !{null, metadata !140, metadata !165}
!165 = metadata !{i32 786468, null, metadata !"unsigned char", null, i32 0, i64 8, i64 8, i64 0, i32 0, i32 8} ; [ DW_TAG_base_type ]
!166 = metadata !{i32 786478, i32 0, metadata !112, metadata !"ap_int_base", metadata !"ap_int_base", metadata !"", metadata !113, i32 1463, metadata !167, i1 false, i1 false, i32 0, i32 0, null, i32 384, i1 false, null, null, i32 0, metadata !125, i32 1463} ; [ DW_TAG_subprogram ]
!167 = metadata !{i32 786453, i32 0, metadata !"", i32 0, i32 0, i64 0, i64 0, i64 0, i32 0, null, metadata !168, i32 0, i32 0} ; [ DW_TAG_subroutine_type ]
!168 = metadata !{null, metadata !140, metadata !169}
!169 = metadata !{i32 786468, null, metadata !"short", null, i32 0, i64 16, i64 16, i64 0, i32 0, i32 5} ; [ DW_TAG_base_type ]
!170 = metadata !{i32 786478, i32 0, metadata !112, metadata !"ap_int_base", metadata !"ap_int_base", metadata !"", metadata !113, i32 1464, metadata !171, i1 false, i1 false, i32 0, i32 0, null, i32 384, i1 false, null, null, i32 0, metadata !125, i32 1464} ; [ DW_TAG_subprogram ]
!171 = metadata !{i32 786453, i32 0, metadata !"", i32 0, i32 0, i64 0, i64 0, i64 0, i32 0, null, metadata !172, i32 0, i32 0} ; [ DW_TAG_subroutine_type ]
!172 = metadata !{null, metadata !140, metadata !173}
!173 = metadata !{i32 786468, null, metadata !"unsigned short", null, i32 0, i64 16, i64 16, i64 0, i32 0, i32 7} ; [ DW_TAG_base_type ]
!174 = metadata !{i32 786478, i32 0, metadata !112, metadata !"ap_int_base", metadata !"ap_int_base", metadata !"", metadata !113, i32 1465, metadata !175, i1 false, i1 false, i32 0, i32 0, null, i32 384, i1 false, null, null, i32 0, metadata !125, i32 1465} ; [ DW_TAG_subprogram ]
!175 = metadata !{i32 786453, i32 0, metadata !"", i32 0, i32 0, i64 0, i64 0, i64 0, i32 0, null, metadata !176, i32 0, i32 0} ; [ DW_TAG_subroutine_type ]
!176 = metadata !{null, metadata !140, metadata !134}
!177 = metadata !{i32 786478, i32 0, metadata !112, metadata !"ap_int_base", metadata !"ap_int_base", metadata !"", metadata !113, i32 1466, metadata !178, i1 false, i1 false, i32 0, i32 0, null, i32 384, i1 false, null, null, i32 0, metadata !125, i32 1466} ; [ DW_TAG_subprogram ]
!178 = metadata !{i32 786453, i32 0, metadata !"", i32 0, i32 0, i64 0, i64 0, i64 0, i32 0, null, metadata !179, i32 0, i32 0} ; [ DW_TAG_subroutine_type ]
!179 = metadata !{null, metadata !140, metadata !180}
!180 = metadata !{i32 786468, null, metadata !"unsigned int", null, i32 0, i64 32, i64 32, i64 0, i32 0, i32 7} ; [ DW_TAG_base_type ]
!181 = metadata !{i32 786478, i32 0, metadata !112, metadata !"ap_int_base", metadata !"ap_int_base", metadata !"", metadata !113, i32 1467, metadata !182, i1 false, i1 false, i32 0, i32 0, null, i32 384, i1 false, null, null, i32 0, metadata !125, i32 1467} ; [ DW_TAG_subprogram ]
!182 = metadata !{i32 786453, i32 0, metadata !"", i32 0, i32 0, i64 0, i64 0, i64 0, i32 0, null, metadata !183, i32 0, i32 0} ; [ DW_TAG_subroutine_type ]
!183 = metadata !{null, metadata !140, metadata !184}
!184 = metadata !{i32 786468, null, metadata !"long int", null, i32 0, i64 64, i64 64, i64 0, i32 0, i32 5} ; [ DW_TAG_base_type ]
!185 = metadata !{i32 786478, i32 0, metadata !112, metadata !"ap_int_base", metadata !"ap_int_base", metadata !"", metadata !113, i32 1468, metadata !186, i1 false, i1 false, i32 0, i32 0, null, i32 384, i1 false, null, null, i32 0, metadata !125, i32 1468} ; [ DW_TAG_subprogram ]
!186 = metadata !{i32 786453, i32 0, metadata !"", i32 0, i32 0, i64 0, i64 0, i64 0, i32 0, null, metadata !187, i32 0, i32 0} ; [ DW_TAG_subroutine_type ]
!187 = metadata !{null, metadata !140, metadata !188}
!188 = metadata !{i32 786468, null, metadata !"long unsigned int", null, i32 0, i64 64, i64 64, i64 0, i32 0, i32 7} ; [ DW_TAG_base_type ]
!189 = metadata !{i32 786478, i32 0, metadata !112, metadata !"ap_int_base", metadata !"ap_int_base", metadata !"", metadata !113, i32 1469, metadata !190, i1 false, i1 false, i32 0, i32 0, null, i32 384, i1 false, null, null, i32 0, metadata !125, i32 1469} ; [ DW_TAG_subprogram ]
!190 = metadata !{i32 786453, i32 0, metadata !"", i32 0, i32 0, i64 0, i64 0, i64 0, i32 0, null, metadata !191, i32 0, i32 0} ; [ DW_TAG_subroutine_type ]
!191 = metadata !{null, metadata !140, metadata !192}
!192 = metadata !{i32 786454, null, metadata !"ap_slong", metadata !113, i32 111, i64 0, i64 0, i64 0, i32 0, metadata !193} ; [ DW_TAG_typedef ]
!193 = metadata !{i32 786468, null, metadata !"long long int", null, i32 0, i64 64, i64 64, i64 0, i32 0, i32 5} ; [ DW_TAG_base_type ]
!194 = metadata !{i32 786478, i32 0, metadata !112, metadata !"ap_int_base", metadata !"ap_int_base", metadata !"", metadata !113, i32 1470, metadata !195, i1 false, i1 false, i32 0, i32 0, null, i32 384, i1 false, null, null, i32 0, metadata !125, i32 1470} ; [ DW_TAG_subprogram ]
!195 = metadata !{i32 786453, i32 0, metadata !"", i32 0, i32 0, i64 0, i64 0, i64 0, i32 0, null, metadata !196, i32 0, i32 0} ; [ DW_TAG_subroutine_type ]
!196 = metadata !{null, metadata !140, metadata !197}
!197 = metadata !{i32 786454, null, metadata !"ap_ulong", metadata !113, i32 110, i64 0, i64 0, i64 0, i32 0, metadata !198} ; [ DW_TAG_typedef ]
!198 = metadata !{i32 786468, null, metadata !"long long unsigned int", null, i32 0, i64 64, i64 64, i64 0, i32 0, i32 7} ; [ DW_TAG_base_type ]
!199 = metadata !{i32 786478, i32 0, metadata !112, metadata !"ap_int_base", metadata !"ap_int_base", metadata !"", metadata !113, i32 1471, metadata !200, i1 false, i1 false, i32 0, i32 0, null, i32 384, i1 false, null, null, i32 0, metadata !125, i32 1471} ; [ DW_TAG_subprogram ]
!200 = metadata !{i32 786453, i32 0, metadata !"", i32 0, i32 0, i64 0, i64 0, i64 0, i32 0, null, metadata !201, i32 0, i32 0} ; [ DW_TAG_subroutine_type ]
!201 = metadata !{null, metadata !140, metadata !202}
!202 = metadata !{i32 786468, null, metadata !"float", null, i32 0, i64 32, i64 32, i64 0, i32 0, i32 4} ; [ DW_TAG_base_type ]
!203 = metadata !{i32 786478, i32 0, metadata !112, metadata !"ap_int_base", metadata !"ap_int_base", metadata !"", metadata !113, i32 1472, metadata !204, i1 false, i1 false, i32 0, i32 0, null, i32 384, i1 false, null, null, i32 0, metadata !125, i32 1472} ; [ DW_TAG_subprogram ]
!204 = metadata !{i32 786453, i32 0, metadata !"", i32 0, i32 0, i64 0, i64 0, i64 0, i32 0, null, metadata !205, i32 0, i32 0} ; [ DW_TAG_subroutine_type ]
!205 = metadata !{null, metadata !140, metadata !206}
!206 = metadata !{i32 786468, null, metadata !"double", null, i32 0, i64 64, i64 64, i64 0, i32 0, i32 4} ; [ DW_TAG_base_type ]
!207 = metadata !{i32 786478, i32 0, metadata !112, metadata !"ap_int_base", metadata !"ap_int_base", metadata !"", metadata !113, i32 1499, metadata !208, i1 false, i1 false, i32 0, i32 0, null, i32 256, i1 false, null, null, i32 0, metadata !125, i32 1499} ; [ DW_TAG_subprogram ]
!208 = metadata !{i32 786453, i32 0, metadata !"", i32 0, i32 0, i64 0, i64 0, i64 0, i32 0, null, metadata !209, i32 0, i32 0} ; [ DW_TAG_subroutine_type ]
!209 = metadata !{null, metadata !140, metadata !210}
!210 = metadata !{i32 786447, null, metadata !"", null, i32 0, i64 64, i64 64, i64 0, i32 0, metadata !211} ; [ DW_TAG_pointer_type ]
!211 = metadata !{i32 786470, null, metadata !"", null, i32 0, i64 0, i64 0, i64 0, i32 0, metadata !212} ; [ DW_TAG_const_type ]
!212 = metadata !{i32 786468, null, metadata !"char", null, i32 0, i64 8, i64 8, i64 0, i32 0, i32 6} ; [ DW_TAG_base_type ]
!213 = metadata !{i32 786478, i32 0, metadata !112, metadata !"ap_int_base", metadata !"ap_int_base", metadata !"", metadata !113, i32 1506, metadata !214, i1 false, i1 false, i32 0, i32 0, null, i32 256, i1 false, null, null, i32 0, metadata !125, i32 1506} ; [ DW_TAG_subprogram ]
!214 = metadata !{i32 786453, i32 0, metadata !"", i32 0, i32 0, i64 0, i64 0, i64 0, i32 0, null, metadata !215, i32 0, i32 0} ; [ DW_TAG_subroutine_type ]
!215 = metadata !{null, metadata !140, metadata !210, metadata !161}
!216 = metadata !{i32 786478, i32 0, metadata !112, metadata !"read", metadata !"read", metadata !"_ZNV11ap_int_baseILi48ELb1ELb1EE4readEv", metadata !113, i32 1527, metadata !217, i1 false, i1 false, i32 0, i32 0, null, i32 256, i1 false, null, null, i32 0, metadata !125, i32 1527} ; [ DW_TAG_subprogram ]
!217 = metadata !{i32 786453, i32 0, metadata !"", i32 0, i32 0, i64 0, i64 0, i64 0, i32 0, null, metadata !218, i32 0, i32 0} ; [ DW_TAG_subroutine_type ]
!218 = metadata !{metadata !112, metadata !219}
!219 = metadata !{i32 786447, i32 0, metadata !"", i32 0, i32 0, i64 64, i64 64, i64 0, i32 64, metadata !154} ; [ DW_TAG_pointer_type ]
!220 = metadata !{i32 786478, i32 0, metadata !112, metadata !"write", metadata !"write", metadata !"_ZNV11ap_int_baseILi48ELb1ELb1EE5writeERKS0_", metadata !113, i32 1533, metadata !221, i1 false, i1 false, i32 0, i32 0, null, i32 256, i1 false, null, null, i32 0, metadata !125, i32 1533} ; [ DW_TAG_subprogram ]
!221 = metadata !{i32 786453, i32 0, metadata !"", i32 0, i32 0, i64 0, i64 0, i64 0, i32 0, null, metadata !222, i32 0, i32 0} ; [ DW_TAG_subroutine_type ]
!222 = metadata !{null, metadata !219, metadata !144}
!223 = metadata !{i32 786478, i32 0, metadata !112, metadata !"operator=", metadata !"operator=", metadata !"_ZNV11ap_int_baseILi48ELb1ELb1EEaSERVKS0_", metadata !113, i32 1545, metadata !224, i1 false, i1 false, i32 0, i32 0, null, i32 256, i1 false, null, null, i32 0, metadata !125, i32 1545} ; [ DW_TAG_subprogram ]
!224 = metadata !{i32 786453, i32 0, metadata !"", i32 0, i32 0, i64 0, i64 0, i64 0, i32 0, null, metadata !225, i32 0, i32 0} ; [ DW_TAG_subroutine_type ]
!225 = metadata !{null, metadata !219, metadata !152}
!226 = metadata !{i32 786478, i32 0, metadata !112, metadata !"operator=", metadata !"operator=", metadata !"_ZNV11ap_int_baseILi48ELb1ELb1EEaSERKS0_", metadata !113, i32 1554, metadata !221, i1 false, i1 false, i32 0, i32 0, null, i32 256, i1 false, null, null, i32 0, metadata !125, i32 1554} ; [ DW_TAG_subprogram ]
!227 = metadata !{i32 786478, i32 0, metadata !112, metadata !"operator=", metadata !"operator=", metadata !"_ZN11ap_int_baseILi48ELb1ELb1EEaSERVKS0_", metadata !113, i32 1577, metadata !228, i1 false, i1 false, i32 0, i32 0, null, i32 256, i1 false, null, null, i32 0, metadata !125, i32 1577} ; [ DW_TAG_subprogram ]
!228 = metadata !{i32 786453, i32 0, metadata !"", i32 0, i32 0, i64 0, i64 0, i64 0, i32 0, null, metadata !229, i32 0, i32 0} ; [ DW_TAG_subroutine_type ]
!229 = metadata !{metadata !230, metadata !140, metadata !152}
!230 = metadata !{i32 786448, null, null, null, i32 0, i64 0, i64 0, i64 0, i32 0, metadata !112} ; [ DW_TAG_reference_type ]
!231 = metadata !{i32 786478, i32 0, metadata !112, metadata !"operator=", metadata !"operator=", metadata !"_ZN11ap_int_baseILi48ELb1ELb1EEaSERKS0_", metadata !113, i32 1582, metadata !232, i1 false, i1 false, i32 0, i32 0, null, i32 256, i1 false, null, null, i32 0, metadata !125, i32 1582} ; [ DW_TAG_subprogram ]
!232 = metadata !{i32 786453, i32 0, metadata !"", i32 0, i32 0, i64 0, i64 0, i64 0, i32 0, null, metadata !233, i32 0, i32 0} ; [ DW_TAG_subroutine_type ]
!233 = metadata !{metadata !230, metadata !140, metadata !144}
!234 = metadata !{i32 786478, i32 0, metadata !112, metadata !"operator=", metadata !"operator=", metadata !"_ZN11ap_int_baseILi48ELb1ELb1EEaSEPKc", metadata !113, i32 1586, metadata !235, i1 false, i1 false, i32 0, i32 0, null, i32 256, i1 false, null, null, i32 0, metadata !125, i32 1586} ; [ DW_TAG_subprogram ]
!235 = metadata !{i32 786453, i32 0, metadata !"", i32 0, i32 0, i64 0, i64 0, i64 0, i32 0, null, metadata !236, i32 0, i32 0} ; [ DW_TAG_subroutine_type ]
!236 = metadata !{metadata !230, metadata !140, metadata !210}
!237 = metadata !{i32 786478, i32 0, metadata !112, metadata !"set", metadata !"set", metadata !"_ZN11ap_int_baseILi48ELb1ELb1EE3setEPKca", metadata !113, i32 1594, metadata !238, i1 false, i1 false, i32 0, i32 0, null, i32 256, i1 false, null, null, i32 0, metadata !125, i32 1594} ; [ DW_TAG_subprogram ]
!238 = metadata !{i32 786453, i32 0, metadata !"", i32 0, i32 0, i64 0, i64 0, i64 0, i32 0, null, metadata !239, i32 0, i32 0} ; [ DW_TAG_subroutine_type ]
!239 = metadata !{metadata !230, metadata !140, metadata !210, metadata !161}
!240 = metadata !{i32 786478, i32 0, metadata !112, metadata !"operator=", metadata !"operator=", metadata !"_ZN11ap_int_baseILi48ELb1ELb1EEaSEa", metadata !113, i32 1608, metadata !241, i1 false, i1 false, i32 0, i32 0, null, i32 256, i1 false, null, null, i32 0, metadata !125, i32 1608} ; [ DW_TAG_subprogram ]
!241 = metadata !{i32 786453, i32 0, metadata !"", i32 0, i32 0, i64 0, i64 0, i64 0, i32 0, null, metadata !242, i32 0, i32 0} ; [ DW_TAG_subroutine_type ]
!242 = metadata !{metadata !230, metadata !140, metadata !161}
!243 = metadata !{i32 786478, i32 0, metadata !112, metadata !"operator=", metadata !"operator=", metadata !"_ZN11ap_int_baseILi48ELb1ELb1EEaSEh", metadata !113, i32 1609, metadata !244, i1 false, i1 false, i32 0, i32 0, null, i32 256, i1 false, null, null, i32 0, metadata !125, i32 1609} ; [ DW_TAG_subprogram ]
!244 = metadata !{i32 786453, i32 0, metadata !"", i32 0, i32 0, i64 0, i64 0, i64 0, i32 0, null, metadata !245, i32 0, i32 0} ; [ DW_TAG_subroutine_type ]
!245 = metadata !{metadata !230, metadata !140, metadata !165}
!246 = metadata !{i32 786478, i32 0, metadata !112, metadata !"operator=", metadata !"operator=", metadata !"_ZN11ap_int_baseILi48ELb1ELb1EEaSEs", metadata !113, i32 1610, metadata !247, i1 false, i1 false, i32 0, i32 0, null, i32 256, i1 false, null, null, i32 0, metadata !125, i32 1610} ; [ DW_TAG_subprogram ]
!247 = metadata !{i32 786453, i32 0, metadata !"", i32 0, i32 0, i64 0, i64 0, i64 0, i32 0, null, metadata !248, i32 0, i32 0} ; [ DW_TAG_subroutine_type ]
!248 = metadata !{metadata !230, metadata !140, metadata !169}
!249 = metadata !{i32 786478, i32 0, metadata !112, metadata !"operator=", metadata !"operator=", metadata !"_ZN11ap_int_baseILi48ELb1ELb1EEaSEt", metadata !113, i32 1611, metadata !250, i1 false, i1 false, i32 0, i32 0, null, i32 256, i1 false, null, null, i32 0, metadata !125, i32 1611} ; [ DW_TAG_subprogram ]
!250 = metadata !{i32 786453, i32 0, metadata !"", i32 0, i32 0, i64 0, i64 0, i64 0, i32 0, null, metadata !251, i32 0, i32 0} ; [ DW_TAG_subroutine_type ]
!251 = metadata !{metadata !230, metadata !140, metadata !173}
!252 = metadata !{i32 786478, i32 0, metadata !112, metadata !"operator=", metadata !"operator=", metadata !"_ZN11ap_int_baseILi48ELb1ELb1EEaSEi", metadata !113, i32 1612, metadata !253, i1 false, i1 false, i32 0, i32 0, null, i32 256, i1 false, null, null, i32 0, metadata !125, i32 1612} ; [ DW_TAG_subprogram ]
!253 = metadata !{i32 786453, i32 0, metadata !"", i32 0, i32 0, i64 0, i64 0, i64 0, i32 0, null, metadata !254, i32 0, i32 0} ; [ DW_TAG_subroutine_type ]
!254 = metadata !{metadata !230, metadata !140, metadata !134}
!255 = metadata !{i32 786478, i32 0, metadata !112, metadata !"operator=", metadata !"operator=", metadata !"_ZN11ap_int_baseILi48ELb1ELb1EEaSEj", metadata !113, i32 1613, metadata !256, i1 false, i1 false, i32 0, i32 0, null, i32 256, i1 false, null, null, i32 0, metadata !125, i32 1613} ; [ DW_TAG_subprogram ]
!256 = metadata !{i32 786453, i32 0, metadata !"", i32 0, i32 0, i64 0, i64 0, i64 0, i32 0, null, metadata !257, i32 0, i32 0} ; [ DW_TAG_subroutine_type ]
!257 = metadata !{metadata !230, metadata !140, metadata !180}
!258 = metadata !{i32 786478, i32 0, metadata !112, metadata !"operator=", metadata !"operator=", metadata !"_ZN11ap_int_baseILi48ELb1ELb1EEaSEx", metadata !113, i32 1614, metadata !259, i1 false, i1 false, i32 0, i32 0, null, i32 256, i1 false, null, null, i32 0, metadata !125, i32 1614} ; [ DW_TAG_subprogram ]
!259 = metadata !{i32 786453, i32 0, metadata !"", i32 0, i32 0, i64 0, i64 0, i64 0, i32 0, null, metadata !260, i32 0, i32 0} ; [ DW_TAG_subroutine_type ]
!260 = metadata !{metadata !230, metadata !140, metadata !192}
!261 = metadata !{i32 786478, i32 0, metadata !112, metadata !"operator=", metadata !"operator=", metadata !"_ZN11ap_int_baseILi48ELb1ELb1EEaSEy", metadata !113, i32 1615, metadata !262, i1 false, i1 false, i32 0, i32 0, null, i32 256, i1 false, null, null, i32 0, metadata !125, i32 1615} ; [ DW_TAG_subprogram ]
!262 = metadata !{i32 786453, i32 0, metadata !"", i32 0, i32 0, i64 0, i64 0, i64 0, i32 0, null, metadata !263, i32 0, i32 0} ; [ DW_TAG_subroutine_type ]
!263 = metadata !{metadata !230, metadata !140, metadata !197}
!264 = metadata !{i32 786478, i32 0, metadata !112, metadata !"operator long long", metadata !"operator long long", metadata !"_ZNK11ap_int_baseILi48ELb1ELb1EEcvxEv", metadata !113, i32 1653, metadata !265, i1 false, i1 false, i32 0, i32 0, null, i32 256, i1 false, null, null, i32 0, metadata !125, i32 1653} ; [ DW_TAG_subprogram ]
!265 = metadata !{i32 786453, i32 0, metadata !"", i32 0, i32 0, i64 0, i64 0, i64 0, i32 0, null, metadata !266, i32 0, i32 0} ; [ DW_TAG_subroutine_type ]
!266 = metadata !{metadata !267, metadata !273}
!267 = metadata !{i32 786454, metadata !112, metadata !"RetType", metadata !113, i32 1402, i64 0, i64 0, i64 0, i32 0, metadata !268} ; [ DW_TAG_typedef ]
!268 = metadata !{i32 786454, metadata !269, metadata !"Type", metadata !113, i32 1359, i64 0, i64 0, i64 0, i32 0, metadata !192} ; [ DW_TAG_typedef ]
!269 = metadata !{i32 786434, null, metadata !"retval<6, true>", metadata !113, i32 1358, i64 8, i64 8, i32 0, i32 0, null, metadata !270, i32 0, null, metadata !271} ; [ DW_TAG_class_type ]
!270 = metadata !{i32 0}
!271 = metadata !{metadata !272, metadata !135}
!272 = metadata !{i32 786480, null, metadata !"_AP_N", metadata !134, i64 6, null, i32 0, i32 0} ; [ DW_TAG_template_value_parameter ]
!273 = metadata !{i32 786447, i32 0, metadata !"", i32 0, i32 0, i64 64, i64 64, i64 0, i32 64, metadata !145} ; [ DW_TAG_pointer_type ]
!274 = metadata !{i32 786478, i32 0, metadata !112, metadata !"to_bool", metadata !"to_bool", metadata !"_ZNK11ap_int_baseILi48ELb1ELb1EE7to_boolEv", metadata !113, i32 1659, metadata !275, i1 false, i1 false, i32 0, i32 0, null, i32 256, i1 false, null, null, i32 0, metadata !125, i32 1659} ; [ DW_TAG_subprogram ]
!275 = metadata !{i32 786453, i32 0, metadata !"", i32 0, i32 0, i64 0, i64 0, i64 0, i32 0, null, metadata !276, i32 0, i32 0} ; [ DW_TAG_subroutine_type ]
!276 = metadata !{metadata !136, metadata !273}
!277 = metadata !{i32 786478, i32 0, metadata !112, metadata !"to_uchar", metadata !"to_uchar", metadata !"_ZNK11ap_int_baseILi48ELb1ELb1EE8to_ucharEv", metadata !113, i32 1660, metadata !278, i1 false, i1 false, i32 0, i32 0, null, i32 256, i1 false, null, null, i32 0, metadata !125, i32 1660} ; [ DW_TAG_subprogram ]
!278 = metadata !{i32 786453, i32 0, metadata !"", i32 0, i32 0, i64 0, i64 0, i64 0, i32 0, null, metadata !279, i32 0, i32 0} ; [ DW_TAG_subroutine_type ]
!279 = metadata !{metadata !165, metadata !273}
!280 = metadata !{i32 786478, i32 0, metadata !112, metadata !"to_char", metadata !"to_char", metadata !"_ZNK11ap_int_baseILi48ELb1ELb1EE7to_charEv", metadata !113, i32 1661, metadata !281, i1 false, i1 false, i32 0, i32 0, null, i32 256, i1 false, null, null, i32 0, metadata !125, i32 1661} ; [ DW_TAG_subprogram ]
!281 = metadata !{i32 786453, i32 0, metadata !"", i32 0, i32 0, i64 0, i64 0, i64 0, i32 0, null, metadata !282, i32 0, i32 0} ; [ DW_TAG_subroutine_type ]
!282 = metadata !{metadata !161, metadata !273}
!283 = metadata !{i32 786478, i32 0, metadata !112, metadata !"to_ushort", metadata !"to_ushort", metadata !"_ZNK11ap_int_baseILi48ELb1ELb1EE9to_ushortEv", metadata !113, i32 1662, metadata !284, i1 false, i1 false, i32 0, i32 0, null, i32 256, i1 false, null, null, i32 0, metadata !125, i32 1662} ; [ DW_TAG_subprogram ]
!284 = metadata !{i32 786453, i32 0, metadata !"", i32 0, i32 0, i64 0, i64 0, i64 0, i32 0, null, metadata !285, i32 0, i32 0} ; [ DW_TAG_subroutine_type ]
!285 = metadata !{metadata !173, metadata !273}
!286 = metadata !{i32 786478, i32 0, metadata !112, metadata !"to_short", metadata !"to_short", metadata !"_ZNK11ap_int_baseILi48ELb1ELb1EE8to_shortEv", metadata !113, i32 1663, metadata !287, i1 false, i1 false, i32 0, i32 0, null, i32 256, i1 false, null, null, i32 0, metadata !125, i32 1663} ; [ DW_TAG_subprogram ]
!287 = metadata !{i32 786453, i32 0, metadata !"", i32 0, i32 0, i64 0, i64 0, i64 0, i32 0, null, metadata !288, i32 0, i32 0} ; [ DW_TAG_subroutine_type ]
!288 = metadata !{metadata !169, metadata !273}
!289 = metadata !{i32 786478, i32 0, metadata !112, metadata !"to_int", metadata !"to_int", metadata !"_ZNK11ap_int_baseILi48ELb1ELb1EE6to_intEv", metadata !113, i32 1664, metadata !290, i1 false, i1 false, i32 0, i32 0, null, i32 256, i1 false, null, null, i32 0, metadata !125, i32 1664} ; [ DW_TAG_subprogram ]
!290 = metadata !{i32 786453, i32 0, metadata !"", i32 0, i32 0, i64 0, i64 0, i64 0, i32 0, null, metadata !291, i32 0, i32 0} ; [ DW_TAG_subroutine_type ]
!291 = metadata !{metadata !134, metadata !273}
!292 = metadata !{i32 786478, i32 0, metadata !112, metadata !"to_uint", metadata !"to_uint", metadata !"_ZNK11ap_int_baseILi48ELb1ELb1EE7to_uintEv", metadata !113, i32 1665, metadata !293, i1 false, i1 false, i32 0, i32 0, null, i32 256, i1 false, null, null, i32 0, metadata !125, i32 1665} ; [ DW_TAG_subprogram ]
!293 = metadata !{i32 786453, i32 0, metadata !"", i32 0, i32 0, i64 0, i64 0, i64 0, i32 0, null, metadata !294, i32 0, i32 0} ; [ DW_TAG_subroutine_type ]
!294 = metadata !{metadata !180, metadata !273}
!295 = metadata !{i32 786478, i32 0, metadata !112, metadata !"to_long", metadata !"to_long", metadata !"_ZNK11ap_int_baseILi48ELb1ELb1EE7to_longEv", metadata !113, i32 1666, metadata !296, i1 false, i1 false, i32 0, i32 0, null, i32 256, i1 false, null, null, i32 0, metadata !125, i32 1666} ; [ DW_TAG_subprogram ]
!296 = metadata !{i32 786453, i32 0, metadata !"", i32 0, i32 0, i64 0, i64 0, i64 0, i32 0, null, metadata !297, i32 0, i32 0} ; [ DW_TAG_subroutine_type ]
!297 = metadata !{metadata !184, metadata !273}
!298 = metadata !{i32 786478, i32 0, metadata !112, metadata !"to_ulong", metadata !"to_ulong", metadata !"_ZNK11ap_int_baseILi48ELb1ELb1EE8to_ulongEv", metadata !113, i32 1667, metadata !299, i1 false, i1 false, i32 0, i32 0, null, i32 256, i1 false, null, null, i32 0, metadata !125, i32 1667} ; [ DW_TAG_subprogram ]
!299 = metadata !{i32 786453, i32 0, metadata !"", i32 0, i32 0, i64 0, i64 0, i64 0, i32 0, null, metadata !300, i32 0, i32 0} ; [ DW_TAG_subroutine_type ]
!300 = metadata !{metadata !188, metadata !273}
!301 = metadata !{i32 786478, i32 0, metadata !112, metadata !"to_int64", metadata !"to_int64", metadata !"_ZNK11ap_int_baseILi48ELb1ELb1EE8to_int64Ev", metadata !113, i32 1668, metadata !302, i1 false, i1 false, i32 0, i32 0, null, i32 256, i1 false, null, null, i32 0, metadata !125, i32 1668} ; [ DW_TAG_subprogram ]
!302 = metadata !{i32 786453, i32 0, metadata !"", i32 0, i32 0, i64 0, i64 0, i64 0, i32 0, null, metadata !303, i32 0, i32 0} ; [ DW_TAG_subroutine_type ]
!303 = metadata !{metadata !192, metadata !273}
!304 = metadata !{i32 786478, i32 0, metadata !112, metadata !"to_uint64", metadata !"to_uint64", metadata !"_ZNK11ap_int_baseILi48ELb1ELb1EE9to_uint64Ev", metadata !113, i32 1669, metadata !305, i1 false, i1 false, i32 0, i32 0, null, i32 256, i1 false, null, null, i32 0, metadata !125, i32 1669} ; [ DW_TAG_subprogram ]
!305 = metadata !{i32 786453, i32 0, metadata !"", i32 0, i32 0, i64 0, i64 0, i64 0, i32 0, null, metadata !306, i32 0, i32 0} ; [ DW_TAG_subroutine_type ]
!306 = metadata !{metadata !197, metadata !273}
!307 = metadata !{i32 786478, i32 0, metadata !112, metadata !"to_double", metadata !"to_double", metadata !"_ZNK11ap_int_baseILi48ELb1ELb1EE9to_doubleEv", metadata !113, i32 1670, metadata !308, i1 false, i1 false, i32 0, i32 0, null, i32 256, i1 false, null, null, i32 0, metadata !125, i32 1670} ; [ DW_TAG_subprogram ]
!308 = metadata !{i32 786453, i32 0, metadata !"", i32 0, i32 0, i64 0, i64 0, i64 0, i32 0, null, metadata !309, i32 0, i32 0} ; [ DW_TAG_subroutine_type ]
!309 = metadata !{metadata !206, metadata !273}
!310 = metadata !{i32 786478, i32 0, metadata !112, metadata !"length", metadata !"length", metadata !"_ZNK11ap_int_baseILi48ELb1ELb1EE6lengthEv", metadata !113, i32 1684, metadata !290, i1 false, i1 false, i32 0, i32 0, null, i32 256, i1 false, null, null, i32 0, metadata !125, i32 1684} ; [ DW_TAG_subprogram ]
!311 = metadata !{i32 786478, i32 0, metadata !112, metadata !"length", metadata !"length", metadata !"_ZNVK11ap_int_baseILi48ELb1ELb1EE6lengthEv", metadata !113, i32 1685, metadata !312, i1 false, i1 false, i32 0, i32 0, null, i32 256, i1 false, null, null, i32 0, metadata !125, i32 1685} ; [ DW_TAG_subprogram ]
!312 = metadata !{i32 786453, i32 0, metadata !"", i32 0, i32 0, i64 0, i64 0, i64 0, i32 0, null, metadata !313, i32 0, i32 0} ; [ DW_TAG_subroutine_type ]
!313 = metadata !{metadata !134, metadata !314}
!314 = metadata !{i32 786447, i32 0, metadata !"", i32 0, i32 0, i64 64, i64 64, i64 0, i32 64, metadata !153} ; [ DW_TAG_pointer_type ]
!315 = metadata !{i32 786478, i32 0, metadata !112, metadata !"reverse", metadata !"reverse", metadata !"_ZN11ap_int_baseILi48ELb1ELb1EE7reverseEv", metadata !113, i32 1690, metadata !316, i1 false, i1 false, i32 0, i32 0, null, i32 256, i1 false, null, null, i32 0, metadata !125, i32 1690} ; [ DW_TAG_subprogram ]
!316 = metadata !{i32 786453, i32 0, metadata !"", i32 0, i32 0, i64 0, i64 0, i64 0, i32 0, null, metadata !317, i32 0, i32 0} ; [ DW_TAG_subroutine_type ]
!317 = metadata !{metadata !230, metadata !140}
!318 = metadata !{i32 786478, i32 0, metadata !112, metadata !"iszero", metadata !"iszero", metadata !"_ZNK11ap_int_baseILi48ELb1ELb1EE6iszeroEv", metadata !113, i32 1696, metadata !275, i1 false, i1 false, i32 0, i32 0, null, i32 256, i1 false, null, null, i32 0, metadata !125, i32 1696} ; [ DW_TAG_subprogram ]
!319 = metadata !{i32 786478, i32 0, metadata !112, metadata !"is_zero", metadata !"is_zero", metadata !"_ZNK11ap_int_baseILi48ELb1ELb1EE7is_zeroEv", metadata !113, i32 1701, metadata !275, i1 false, i1 false, i32 0, i32 0, null, i32 256, i1 false, null, null, i32 0, metadata !125, i32 1701} ; [ DW_TAG_subprogram ]
!320 = metadata !{i32 786478, i32 0, metadata !112, metadata !"sign", metadata !"sign", metadata !"_ZNK11ap_int_baseILi48ELb1ELb1EE4signEv", metadata !113, i32 1706, metadata !275, i1 false, i1 false, i32 0, i32 0, null, i32 256, i1 false, null, null, i32 0, metadata !125, i32 1706} ; [ DW_TAG_subprogram ]
!321 = metadata !{i32 786478, i32 0, metadata !112, metadata !"clear", metadata !"clear", metadata !"_ZN11ap_int_baseILi48ELb1ELb1EE5clearEi", metadata !113, i32 1714, metadata !175, i1 false, i1 false, i32 0, i32 0, null, i32 256, i1 false, null, null, i32 0, metadata !125, i32 1714} ; [ DW_TAG_subprogram ]
!322 = metadata !{i32 786478, i32 0, metadata !112, metadata !"invert", metadata !"invert", metadata !"_ZN11ap_int_baseILi48ELb1ELb1EE6invertEi", metadata !113, i32 1720, metadata !175, i1 false, i1 false, i32 0, i32 0, null, i32 256, i1 false, null, null, i32 0, metadata !125, i32 1720} ; [ DW_TAG_subprogram ]
!323 = metadata !{i32 786478, i32 0, metadata !112, metadata !"test", metadata !"test", metadata !"_ZNK11ap_int_baseILi48ELb1ELb1EE4testEi", metadata !113, i32 1728, metadata !324, i1 false, i1 false, i32 0, i32 0, null, i32 256, i1 false, null, null, i32 0, metadata !125, i32 1728} ; [ DW_TAG_subprogram ]
!324 = metadata !{i32 786453, i32 0, metadata !"", i32 0, i32 0, i64 0, i64 0, i64 0, i32 0, null, metadata !325, i32 0, i32 0} ; [ DW_TAG_subroutine_type ]
!325 = metadata !{metadata !136, metadata !273, metadata !134}
!326 = metadata !{i32 786478, i32 0, metadata !112, metadata !"set", metadata !"set", metadata !"_ZN11ap_int_baseILi48ELb1ELb1EE3setEi", metadata !113, i32 1734, metadata !175, i1 false, i1 false, i32 0, i32 0, null, i32 256, i1 false, null, null, i32 0, metadata !125, i32 1734} ; [ DW_TAG_subprogram ]
!327 = metadata !{i32 786478, i32 0, metadata !112, metadata !"set", metadata !"set", metadata !"_ZN11ap_int_baseILi48ELb1ELb1EE3setEib", metadata !113, i32 1740, metadata !328, i1 false, i1 false, i32 0, i32 0, null, i32 256, i1 false, null, null, i32 0, metadata !125, i32 1740} ; [ DW_TAG_subprogram ]
!328 = metadata !{i32 786453, i32 0, metadata !"", i32 0, i32 0, i64 0, i64 0, i64 0, i32 0, null, metadata !329, i32 0, i32 0} ; [ DW_TAG_subroutine_type ]
!329 = metadata !{null, metadata !140, metadata !134, metadata !136}
!330 = metadata !{i32 786478, i32 0, metadata !112, metadata !"lrotate", metadata !"lrotate", metadata !"_ZN11ap_int_baseILi48ELb1ELb1EE7lrotateEi", metadata !113, i32 1747, metadata !175, i1 false, i1 false, i32 0, i32 0, null, i32 256, i1 false, null, null, i32 0, metadata !125, i32 1747} ; [ DW_TAG_subprogram ]
!331 = metadata !{i32 786478, i32 0, metadata !112, metadata !"rrotate", metadata !"rrotate", metadata !"_ZN11ap_int_baseILi48ELb1ELb1EE7rrotateEi", metadata !113, i32 1756, metadata !175, i1 false, i1 false, i32 0, i32 0, null, i32 256, i1 false, null, null, i32 0, metadata !125, i32 1756} ; [ DW_TAG_subprogram ]
!332 = metadata !{i32 786478, i32 0, metadata !112, metadata !"set_bit", metadata !"set_bit", metadata !"_ZN11ap_int_baseILi48ELb1ELb1EE7set_bitEib", metadata !113, i32 1764, metadata !328, i1 false, i1 false, i32 0, i32 0, null, i32 256, i1 false, null, null, i32 0, metadata !125, i32 1764} ; [ DW_TAG_subprogram ]
!333 = metadata !{i32 786478, i32 0, metadata !112, metadata !"get_bit", metadata !"get_bit", metadata !"_ZNK11ap_int_baseILi48ELb1ELb1EE7get_bitEi", metadata !113, i32 1769, metadata !324, i1 false, i1 false, i32 0, i32 0, null, i32 256, i1 false, null, null, i32 0, metadata !125, i32 1769} ; [ DW_TAG_subprogram ]
!334 = metadata !{i32 786478, i32 0, metadata !112, metadata !"b_not", metadata !"b_not", metadata !"_ZN11ap_int_baseILi48ELb1ELb1EE5b_notEv", metadata !113, i32 1774, metadata !138, i1 false, i1 false, i32 0, i32 0, null, i32 256, i1 false, null, null, i32 0, metadata !125, i32 1774} ; [ DW_TAG_subprogram ]
!335 = metadata !{i32 786478, i32 0, metadata !112, metadata !"countLeadingZeros", metadata !"countLeadingZeros", metadata !"_ZN11ap_int_baseILi48ELb1ELb1EE17countLeadingZerosEv", metadata !113, i32 1781, metadata !336, i1 false, i1 false, i32 0, i32 0, null, i32 256, i1 false, null, null, i32 0, metadata !125, i32 1781} ; [ DW_TAG_subprogram ]
!336 = metadata !{i32 786453, i32 0, metadata !"", i32 0, i32 0, i64 0, i64 0, i64 0, i32 0, null, metadata !337, i32 0, i32 0} ; [ DW_TAG_subroutine_type ]
!337 = metadata !{metadata !134, metadata !140}
!338 = metadata !{i32 786478, i32 0, metadata !112, metadata !"operator++", metadata !"operator++", metadata !"_ZN11ap_int_baseILi48ELb1ELb1EEppEv", metadata !113, i32 1838, metadata !316, i1 false, i1 false, i32 0, i32 0, null, i32 256, i1 false, null, null, i32 0, metadata !125, i32 1838} ; [ DW_TAG_subprogram ]
!339 = metadata !{i32 786478, i32 0, metadata !112, metadata !"operator--", metadata !"operator--", metadata !"_ZN11ap_int_baseILi48ELb1ELb1EEmmEv", metadata !113, i32 1842, metadata !316, i1 false, i1 false, i32 0, i32 0, null, i32 256, i1 false, null, null, i32 0, metadata !125, i32 1842} ; [ DW_TAG_subprogram ]
!340 = metadata !{i32 786478, i32 0, metadata !112, metadata !"operator++", metadata !"operator++", metadata !"_ZN11ap_int_baseILi48ELb1ELb1EEppEi", metadata !113, i32 1850, metadata !341, i1 false, i1 false, i32 0, i32 0, null, i32 256, i1 false, null, null, i32 0, metadata !125, i32 1850} ; [ DW_TAG_subprogram ]
!341 = metadata !{i32 786453, i32 0, metadata !"", i32 0, i32 0, i64 0, i64 0, i64 0, i32 0, null, metadata !342, i32 0, i32 0} ; [ DW_TAG_subroutine_type ]
!342 = metadata !{metadata !145, metadata !140, metadata !134}
!343 = metadata !{i32 786478, i32 0, metadata !112, metadata !"operator--", metadata !"operator--", metadata !"_ZN11ap_int_baseILi48ELb1ELb1EEmmEi", metadata !113, i32 1855, metadata !341, i1 false, i1 false, i32 0, i32 0, null, i32 256, i1 false, null, null, i32 0, metadata !125, i32 1855} ; [ DW_TAG_subprogram ]
!344 = metadata !{i32 786478, i32 0, metadata !112, metadata !"operator+", metadata !"operator+", metadata !"_ZNK11ap_int_baseILi48ELb1ELb1EEpsEv", metadata !113, i32 1864, metadata !345, i1 false, i1 false, i32 0, i32 0, null, i32 256, i1 false, null, null, i32 0, metadata !125, i32 1864} ; [ DW_TAG_subprogram ]
!345 = metadata !{i32 786453, i32 0, metadata !"", i32 0, i32 0, i64 0, i64 0, i64 0, i32 0, null, metadata !346, i32 0, i32 0} ; [ DW_TAG_subroutine_type ]
!346 = metadata !{metadata !112, metadata !273}
!347 = metadata !{i32 786478, i32 0, metadata !112, metadata !"operator!", metadata !"operator!", metadata !"_ZNK11ap_int_baseILi48ELb1ELb1EEntEv", metadata !113, i32 1870, metadata !275, i1 false, i1 false, i32 0, i32 0, null, i32 256, i1 false, null, null, i32 0, metadata !125, i32 1870} ; [ DW_TAG_subprogram ]
!348 = metadata !{i32 786478, i32 0, metadata !112, metadata !"operator-", metadata !"operator-", metadata !"_ZNK11ap_int_baseILi48ELb1ELb1EEngEv", metadata !113, i32 1875, metadata !349, i1 false, i1 false, i32 0, i32 0, null, i32 256, i1 false, null, null, i32 0, metadata !125, i32 1875} ; [ DW_TAG_subprogram ]
!349 = metadata !{i32 786453, i32 0, metadata !"", i32 0, i32 0, i64 0, i64 0, i64 0, i32 0, null, metadata !350, i32 0, i32 0} ; [ DW_TAG_subroutine_type ]
!350 = metadata !{metadata !351, metadata !273}
!351 = metadata !{i32 786434, null, metadata !"ap_int_base<49, true, true>", metadata !113, i32 650, i32 0, i32 0, i32 0, i32 4, null, null, i32 0} ; [ DW_TAG_class_type ]
!352 = metadata !{i32 786478, i32 0, metadata !112, metadata !"range", metadata !"range", metadata !"_ZN11ap_int_baseILi48ELb1ELb1EE5rangeEii", metadata !113, i32 2005, metadata !353, i1 false, i1 false, i32 0, i32 0, null, i32 256, i1 false, null, null, i32 0, metadata !125, i32 2005} ; [ DW_TAG_subprogram ]
!353 = metadata !{i32 786453, i32 0, metadata !"", i32 0, i32 0, i64 0, i64 0, i64 0, i32 0, null, metadata !354, i32 0, i32 0} ; [ DW_TAG_subroutine_type ]
!354 = metadata !{metadata !355, metadata !140, metadata !134, metadata !134}
!355 = metadata !{i32 786434, null, metadata !"ap_range_ref<48, true>", metadata !113, i32 923, i32 0, i32 0, i32 0, i32 4, null, null, i32 0} ; [ DW_TAG_class_type ]
!356 = metadata !{i32 786478, i32 0, metadata !112, metadata !"operator()", metadata !"operator()", metadata !"_ZN11ap_int_baseILi48ELb1ELb1EEclEii", metadata !113, i32 2011, metadata !353, i1 false, i1 false, i32 0, i32 0, null, i32 256, i1 false, null, null, i32 0, metadata !125, i32 2011} ; [ DW_TAG_subprogram ]
!357 = metadata !{i32 786478, i32 0, metadata !112, metadata !"range", metadata !"range", metadata !"_ZNK11ap_int_baseILi48ELb1ELb1EE5rangeEii", metadata !113, i32 2017, metadata !358, i1 false, i1 false, i32 0, i32 0, null, i32 256, i1 false, null, null, i32 0, metadata !125, i32 2017} ; [ DW_TAG_subprogram ]
!358 = metadata !{i32 786453, i32 0, metadata !"", i32 0, i32 0, i64 0, i64 0, i64 0, i32 0, null, metadata !359, i32 0, i32 0} ; [ DW_TAG_subroutine_type ]
!359 = metadata !{metadata !355, metadata !273, metadata !134, metadata !134}
!360 = metadata !{i32 786478, i32 0, metadata !112, metadata !"operator()", metadata !"operator()", metadata !"_ZNK11ap_int_baseILi48ELb1ELb1EEclEii", metadata !113, i32 2023, metadata !358, i1 false, i1 false, i32 0, i32 0, null, i32 256, i1 false, null, null, i32 0, metadata !125, i32 2023} ; [ DW_TAG_subprogram ]
!361 = metadata !{i32 786478, i32 0, metadata !112, metadata !"operator[]", metadata !"operator[]", metadata !"_ZN11ap_int_baseILi48ELb1ELb1EEixEi", metadata !113, i32 2042, metadata !362, i1 false, i1 false, i32 0, i32 0, null, i32 256, i1 false, null, null, i32 0, metadata !125, i32 2042} ; [ DW_TAG_subprogram ]
!362 = metadata !{i32 786453, i32 0, metadata !"", i32 0, i32 0, i64 0, i64 0, i64 0, i32 0, null, metadata !363, i32 0, i32 0} ; [ DW_TAG_subroutine_type ]
!363 = metadata !{metadata !364, metadata !140, metadata !134}
!364 = metadata !{i32 786434, null, metadata !"ap_bit_ref<48, true>", metadata !113, i32 1193, i32 0, i32 0, i32 0, i32 4, null, null, i32 0} ; [ DW_TAG_class_type ]
!365 = metadata !{i32 786478, i32 0, metadata !112, metadata !"operator[]", metadata !"operator[]", metadata !"_ZNK11ap_int_baseILi48ELb1ELb1EEixEi", metadata !113, i32 2056, metadata !324, i1 false, i1 false, i32 0, i32 0, null, i32 256, i1 false, null, null, i32 0, metadata !125, i32 2056} ; [ DW_TAG_subprogram ]
!366 = metadata !{i32 786478, i32 0, metadata !112, metadata !"bit", metadata !"bit", metadata !"_ZN11ap_int_baseILi48ELb1ELb1EE3bitEi", metadata !113, i32 2070, metadata !362, i1 false, i1 false, i32 0, i32 0, null, i32 256, i1 false, null, null, i32 0, metadata !125, i32 2070} ; [ DW_TAG_subprogram ]
!367 = metadata !{i32 786478, i32 0, metadata !112, metadata !"bit", metadata !"bit", metadata !"_ZNK11ap_int_baseILi48ELb1ELb1EE3bitEi", metadata !113, i32 2084, metadata !324, i1 false, i1 false, i32 0, i32 0, null, i32 256, i1 false, null, null, i32 0, metadata !125, i32 2084} ; [ DW_TAG_subprogram ]
!368 = metadata !{i32 786478, i32 0, metadata !112, metadata !"concat<16, false>", metadata !"concat<16, false>", metadata !"_ZNK11ap_int_baseILi48ELb1ELb1EE6concatILi16ELb0EEE13ap_concat_refILi48ES0_XT_ES_IXT_EXT0_EXleT_Li64EEEERKS3_", metadata !113, i32 2106, metadata !369, i1 false, i1 false, i32 0, i32 0, null, i32 256, i1 false, null, metadata !404, i32 0, metadata !125, i32 2106} ; [ DW_TAG_subprogram ]
!369 = metadata !{i32 786453, i32 0, metadata !"", i32 0, i32 0, i64 0, i64 0, i64 0, i32 0, null, metadata !370, i32 0, i32 0} ; [ DW_TAG_subroutine_type ]
!370 = metadata !{metadata !371, metadata !273, metadata !402}
!371 = metadata !{i32 786434, null, metadata !"ap_concat_ref<48, ap_int_base<48, true, true>, 16, ap_int_base<16, false, true> >", metadata !113, i32 686, i64 128, i64 64, i32 0, i32 0, null, metadata !372, i32 0, null, metadata !1492} ; [ DW_TAG_class_type ]
!372 = metadata !{metadata !373, metadata !374, metadata !918, metadata !924, metadata !927, metadata !931, metadata !934, metadata !1482, metadata !1485, metadata !1486, metadata !1489}
!373 = metadata !{i32 786445, metadata !371, metadata !"mbv1", metadata !113, i32 689, i64 64, i64 64, i64 0, i32 0, metadata !230} ; [ DW_TAG_member ]
!374 = metadata !{i32 786445, metadata !371, metadata !"mbv2", metadata !113, i32 690, i64 64, i64 64, i64 64, i32 0, metadata !375} ; [ DW_TAG_member ]
!375 = metadata !{i32 786448, null, null, null, i32 0, i64 0, i64 0, i64 0, i32 0, metadata !376} ; [ DW_TAG_reference_type ]
!376 = metadata !{i32 786434, null, metadata !"ap_int_base<16, false, true>", metadata !113, i32 1397, i64 16, i64 16, i32 0, i32 0, null, metadata !377, i32 0, null, metadata !916} ; [ DW_TAG_class_type ]
!377 = metadata !{metadata !378, metadata !395, metadata !399, metadata !407, metadata !413, metadata !416, metadata !419, metadata !422, metadata !425, metadata !428, metadata !431, metadata !434, metadata !437, metadata !440, metadata !443, metadata !446, metadata !449, metadata !452, metadata !455, metadata !458, metadata !462, metadata !465, metadata !468, metadata !469, metadata !472, metadata !475, metadata !478, metadata !481, metadata !484, metadata !487, metadata !490, metadata !493, metadata !496, metadata !499, metadata !502, metadata !505, metadata !514, metadata !517, metadata !520, metadata !523, metadata !526, metadata !529, metadata !532, metadata !535, metadata !538, metadata !541, metadata !544, metadata !547, metadata !550, metadata !551, metadata !555, metadata !558, metadata !559, metadata !560, metadata !561, metadata !562, metadata !563, metadata !566, metadata !567, metadata !570, metadata !571, metadata !572, metadata !573, metadata !574, metadata !575, metadata !578, metadata !579, metadata !580, metadata !583, metadata !584, metadata !587, metadata !588, metadata !876, metadata !880, metadata !881, metadata !884, metadata !885, metadata !889, metadata !890, metadata !891, metadata !892, metadata !895, metadata !896, metadata !897, metadata !898, metadata !899, metadata !900, metadata !901, metadata !902, metadata !903, metadata !904, metadata !905, metadata !906, metadata !909, metadata !912, metadata !915}
!378 = metadata !{i32 786460, metadata !376, null, metadata !113, i32 0, i64 0, i64 0, i64 0, i32 0, metadata !379} ; [ DW_TAG_inheritance ]
!379 = metadata !{i32 786434, null, metadata !"ssdm_int<16 + 1024 * 0, false>", metadata !117, i32 18, i64 16, i64 16, i32 0, i32 0, null, metadata !380, i32 0, null, metadata !392} ; [ DW_TAG_class_type ]
!380 = metadata !{metadata !381, metadata !383, metadata !387}
!381 = metadata !{i32 786445, metadata !379, metadata !"V", metadata !117, i32 18, i64 16, i64 16, i64 0, i32 0, metadata !382} ; [ DW_TAG_member ]
!382 = metadata !{i32 786468, null, metadata !"uint16", null, i32 0, i64 16, i64 16, i64 0, i32 0, i32 7} ; [ DW_TAG_base_type ]
!383 = metadata !{i32 786478, i32 0, metadata !379, metadata !"ssdm_int", metadata !"ssdm_int", metadata !"", metadata !117, i32 18, metadata !384, i1 false, i1 false, i32 0, i32 0, null, i32 256, i1 false, null, null, i32 0, metadata !125, i32 18} ; [ DW_TAG_subprogram ]
!384 = metadata !{i32 786453, i32 0, metadata !"", i32 0, i32 0, i64 0, i64 0, i64 0, i32 0, null, metadata !385, i32 0, i32 0} ; [ DW_TAG_subroutine_type ]
!385 = metadata !{null, metadata !386}
!386 = metadata !{i32 786447, i32 0, metadata !"", i32 0, i32 0, i64 64, i64 64, i64 0, i32 64, metadata !379} ; [ DW_TAG_pointer_type ]
!387 = metadata !{i32 786478, i32 0, metadata !379, metadata !"ssdm_int", metadata !"ssdm_int", metadata !"", metadata !117, i32 18, metadata !388, i1 false, i1 false, i32 0, i32 0, null, i32 320, i1 false, null, null, i32 0, metadata !125, i32 18} ; [ DW_TAG_subprogram ]
!388 = metadata !{i32 786453, i32 0, metadata !"", i32 0, i32 0, i64 0, i64 0, i64 0, i32 0, null, metadata !389, i32 0, i32 0} ; [ DW_TAG_subroutine_type ]
!389 = metadata !{null, metadata !386, metadata !390}
!390 = metadata !{i32 786448, null, null, null, i32 0, i64 0, i64 0, i64 0, i32 0, metadata !391} ; [ DW_TAG_reference_type ]
!391 = metadata !{i32 786470, null, metadata !"", null, i32 0, i64 0, i64 0, i64 0, i32 0, metadata !379} ; [ DW_TAG_const_type ]
!392 = metadata !{metadata !393, metadata !394}
!393 = metadata !{i32 786480, null, metadata !"_AP_N", metadata !134, i64 16, null, i32 0, i32 0} ; [ DW_TAG_template_value_parameter ]
!394 = metadata !{i32 786480, null, metadata !"_AP_S", metadata !136, i64 0, null, i32 0, i32 0} ; [ DW_TAG_template_value_parameter ]
!395 = metadata !{i32 786478, i32 0, metadata !376, metadata !"ap_int_base", metadata !"ap_int_base", metadata !"", metadata !113, i32 1438, metadata !396, i1 false, i1 false, i32 0, i32 0, null, i32 256, i1 false, null, null, i32 0, metadata !125, i32 1438} ; [ DW_TAG_subprogram ]
!396 = metadata !{i32 786453, i32 0, metadata !"", i32 0, i32 0, i64 0, i64 0, i64 0, i32 0, null, metadata !397, i32 0, i32 0} ; [ DW_TAG_subroutine_type ]
!397 = metadata !{null, metadata !398}
!398 = metadata !{i32 786447, i32 0, metadata !"", i32 0, i32 0, i64 64, i64 64, i64 0, i32 64, metadata !376} ; [ DW_TAG_pointer_type ]
!399 = metadata !{i32 786478, i32 0, metadata !376, metadata !"ap_int_base<16, false>", metadata !"ap_int_base<16, false>", metadata !"", metadata !113, i32 1450, metadata !400, i1 false, i1 false, i32 0, i32 0, null, i32 256, i1 false, null, metadata !404, i32 0, metadata !125, i32 1450} ; [ DW_TAG_subprogram ]
!400 = metadata !{i32 786453, i32 0, metadata !"", i32 0, i32 0, i64 0, i64 0, i64 0, i32 0, null, metadata !401, i32 0, i32 0} ; [ DW_TAG_subroutine_type ]
!401 = metadata !{null, metadata !398, metadata !402}
!402 = metadata !{i32 786448, null, null, null, i32 0, i64 0, i64 0, i64 0, i32 0, metadata !403} ; [ DW_TAG_reference_type ]
!403 = metadata !{i32 786470, null, metadata !"", null, i32 0, i64 0, i64 0, i64 0, i32 0, metadata !376} ; [ DW_TAG_const_type ]
!404 = metadata !{metadata !405, metadata !406}
!405 = metadata !{i32 786480, null, metadata !"_AP_W2", metadata !134, i64 16, null, i32 0, i32 0} ; [ DW_TAG_template_value_parameter ]
!406 = metadata !{i32 786480, null, metadata !"_AP_S2", metadata !136, i64 0, null, i32 0, i32 0} ; [ DW_TAG_template_value_parameter ]
!407 = metadata !{i32 786478, i32 0, metadata !376, metadata !"ap_int_base<16, false>", metadata !"ap_int_base<16, false>", metadata !"", metadata !113, i32 1453, metadata !408, i1 false, i1 false, i32 0, i32 0, null, i32 256, i1 false, null, metadata !404, i32 0, metadata !125, i32 1453} ; [ DW_TAG_subprogram ]
!408 = metadata !{i32 786453, i32 0, metadata !"", i32 0, i32 0, i64 0, i64 0, i64 0, i32 0, null, metadata !409, i32 0, i32 0} ; [ DW_TAG_subroutine_type ]
!409 = metadata !{null, metadata !398, metadata !410}
!410 = metadata !{i32 786448, null, null, null, i32 0, i64 0, i64 0, i64 0, i32 0, metadata !411} ; [ DW_TAG_reference_type ]
!411 = metadata !{i32 786470, null, metadata !"", null, i32 0, i64 0, i64 0, i64 0, i32 0, metadata !412} ; [ DW_TAG_const_type ]
!412 = metadata !{i32 786485, null, metadata !"", null, i32 0, i64 0, i64 0, i64 0, i32 0, metadata !376} ; [ DW_TAG_volatile_type ]
!413 = metadata !{i32 786478, i32 0, metadata !376, metadata !"ap_int_base", metadata !"ap_int_base", metadata !"", metadata !113, i32 1460, metadata !414, i1 false, i1 false, i32 0, i32 0, null, i32 384, i1 false, null, null, i32 0, metadata !125, i32 1460} ; [ DW_TAG_subprogram ]
!414 = metadata !{i32 786453, i32 0, metadata !"", i32 0, i32 0, i64 0, i64 0, i64 0, i32 0, null, metadata !415, i32 0, i32 0} ; [ DW_TAG_subroutine_type ]
!415 = metadata !{null, metadata !398, metadata !136}
!416 = metadata !{i32 786478, i32 0, metadata !376, metadata !"ap_int_base", metadata !"ap_int_base", metadata !"", metadata !113, i32 1461, metadata !417, i1 false, i1 false, i32 0, i32 0, null, i32 384, i1 false, null, null, i32 0, metadata !125, i32 1461} ; [ DW_TAG_subprogram ]
!417 = metadata !{i32 786453, i32 0, metadata !"", i32 0, i32 0, i64 0, i64 0, i64 0, i32 0, null, metadata !418, i32 0, i32 0} ; [ DW_TAG_subroutine_type ]
!418 = metadata !{null, metadata !398, metadata !161}
!419 = metadata !{i32 786478, i32 0, metadata !376, metadata !"ap_int_base", metadata !"ap_int_base", metadata !"", metadata !113, i32 1462, metadata !420, i1 false, i1 false, i32 0, i32 0, null, i32 384, i1 false, null, null, i32 0, metadata !125, i32 1462} ; [ DW_TAG_subprogram ]
!420 = metadata !{i32 786453, i32 0, metadata !"", i32 0, i32 0, i64 0, i64 0, i64 0, i32 0, null, metadata !421, i32 0, i32 0} ; [ DW_TAG_subroutine_type ]
!421 = metadata !{null, metadata !398, metadata !165}
!422 = metadata !{i32 786478, i32 0, metadata !376, metadata !"ap_int_base", metadata !"ap_int_base", metadata !"", metadata !113, i32 1463, metadata !423, i1 false, i1 false, i32 0, i32 0, null, i32 384, i1 false, null, null, i32 0, metadata !125, i32 1463} ; [ DW_TAG_subprogram ]
!423 = metadata !{i32 786453, i32 0, metadata !"", i32 0, i32 0, i64 0, i64 0, i64 0, i32 0, null, metadata !424, i32 0, i32 0} ; [ DW_TAG_subroutine_type ]
!424 = metadata !{null, metadata !398, metadata !169}
!425 = metadata !{i32 786478, i32 0, metadata !376, metadata !"ap_int_base", metadata !"ap_int_base", metadata !"", metadata !113, i32 1464, metadata !426, i1 false, i1 false, i32 0, i32 0, null, i32 384, i1 false, null, null, i32 0, metadata !125, i32 1464} ; [ DW_TAG_subprogram ]
!426 = metadata !{i32 786453, i32 0, metadata !"", i32 0, i32 0, i64 0, i64 0, i64 0, i32 0, null, metadata !427, i32 0, i32 0} ; [ DW_TAG_subroutine_type ]
!427 = metadata !{null, metadata !398, metadata !173}
!428 = metadata !{i32 786478, i32 0, metadata !376, metadata !"ap_int_base", metadata !"ap_int_base", metadata !"", metadata !113, i32 1465, metadata !429, i1 false, i1 false, i32 0, i32 0, null, i32 384, i1 false, null, null, i32 0, metadata !125, i32 1465} ; [ DW_TAG_subprogram ]
!429 = metadata !{i32 786453, i32 0, metadata !"", i32 0, i32 0, i64 0, i64 0, i64 0, i32 0, null, metadata !430, i32 0, i32 0} ; [ DW_TAG_subroutine_type ]
!430 = metadata !{null, metadata !398, metadata !134}
!431 = metadata !{i32 786478, i32 0, metadata !376, metadata !"ap_int_base", metadata !"ap_int_base", metadata !"", metadata !113, i32 1466, metadata !432, i1 false, i1 false, i32 0, i32 0, null, i32 384, i1 false, null, null, i32 0, metadata !125, i32 1466} ; [ DW_TAG_subprogram ]
!432 = metadata !{i32 786453, i32 0, metadata !"", i32 0, i32 0, i64 0, i64 0, i64 0, i32 0, null, metadata !433, i32 0, i32 0} ; [ DW_TAG_subroutine_type ]
!433 = metadata !{null, metadata !398, metadata !180}
!434 = metadata !{i32 786478, i32 0, metadata !376, metadata !"ap_int_base", metadata !"ap_int_base", metadata !"", metadata !113, i32 1467, metadata !435, i1 false, i1 false, i32 0, i32 0, null, i32 384, i1 false, null, null, i32 0, metadata !125, i32 1467} ; [ DW_TAG_subprogram ]
!435 = metadata !{i32 786453, i32 0, metadata !"", i32 0, i32 0, i64 0, i64 0, i64 0, i32 0, null, metadata !436, i32 0, i32 0} ; [ DW_TAG_subroutine_type ]
!436 = metadata !{null, metadata !398, metadata !184}
!437 = metadata !{i32 786478, i32 0, metadata !376, metadata !"ap_int_base", metadata !"ap_int_base", metadata !"", metadata !113, i32 1468, metadata !438, i1 false, i1 false, i32 0, i32 0, null, i32 384, i1 false, null, null, i32 0, metadata !125, i32 1468} ; [ DW_TAG_subprogram ]
!438 = metadata !{i32 786453, i32 0, metadata !"", i32 0, i32 0, i64 0, i64 0, i64 0, i32 0, null, metadata !439, i32 0, i32 0} ; [ DW_TAG_subroutine_type ]
!439 = metadata !{null, metadata !398, metadata !188}
!440 = metadata !{i32 786478, i32 0, metadata !376, metadata !"ap_int_base", metadata !"ap_int_base", metadata !"", metadata !113, i32 1469, metadata !441, i1 false, i1 false, i32 0, i32 0, null, i32 384, i1 false, null, null, i32 0, metadata !125, i32 1469} ; [ DW_TAG_subprogram ]
!441 = metadata !{i32 786453, i32 0, metadata !"", i32 0, i32 0, i64 0, i64 0, i64 0, i32 0, null, metadata !442, i32 0, i32 0} ; [ DW_TAG_subroutine_type ]
!442 = metadata !{null, metadata !398, metadata !192}
!443 = metadata !{i32 786478, i32 0, metadata !376, metadata !"ap_int_base", metadata !"ap_int_base", metadata !"", metadata !113, i32 1470, metadata !444, i1 false, i1 false, i32 0, i32 0, null, i32 384, i1 false, null, null, i32 0, metadata !125, i32 1470} ; [ DW_TAG_subprogram ]
!444 = metadata !{i32 786453, i32 0, metadata !"", i32 0, i32 0, i64 0, i64 0, i64 0, i32 0, null, metadata !445, i32 0, i32 0} ; [ DW_TAG_subroutine_type ]
!445 = metadata !{null, metadata !398, metadata !197}
!446 = metadata !{i32 786478, i32 0, metadata !376, metadata !"ap_int_base", metadata !"ap_int_base", metadata !"", metadata !113, i32 1471, metadata !447, i1 false, i1 false, i32 0, i32 0, null, i32 384, i1 false, null, null, i32 0, metadata !125, i32 1471} ; [ DW_TAG_subprogram ]
!447 = metadata !{i32 786453, i32 0, metadata !"", i32 0, i32 0, i64 0, i64 0, i64 0, i32 0, null, metadata !448, i32 0, i32 0} ; [ DW_TAG_subroutine_type ]
!448 = metadata !{null, metadata !398, metadata !202}
!449 = metadata !{i32 786478, i32 0, metadata !376, metadata !"ap_int_base", metadata !"ap_int_base", metadata !"", metadata !113, i32 1472, metadata !450, i1 false, i1 false, i32 0, i32 0, null, i32 384, i1 false, null, null, i32 0, metadata !125, i32 1472} ; [ DW_TAG_subprogram ]
!450 = metadata !{i32 786453, i32 0, metadata !"", i32 0, i32 0, i64 0, i64 0, i64 0, i32 0, null, metadata !451, i32 0, i32 0} ; [ DW_TAG_subroutine_type ]
!451 = metadata !{null, metadata !398, metadata !206}
!452 = metadata !{i32 786478, i32 0, metadata !376, metadata !"ap_int_base", metadata !"ap_int_base", metadata !"", metadata !113, i32 1499, metadata !453, i1 false, i1 false, i32 0, i32 0, null, i32 256, i1 false, null, null, i32 0, metadata !125, i32 1499} ; [ DW_TAG_subprogram ]
!453 = metadata !{i32 786453, i32 0, metadata !"", i32 0, i32 0, i64 0, i64 0, i64 0, i32 0, null, metadata !454, i32 0, i32 0} ; [ DW_TAG_subroutine_type ]
!454 = metadata !{null, metadata !398, metadata !210}
!455 = metadata !{i32 786478, i32 0, metadata !376, metadata !"ap_int_base", metadata !"ap_int_base", metadata !"", metadata !113, i32 1506, metadata !456, i1 false, i1 false, i32 0, i32 0, null, i32 256, i1 false, null, null, i32 0, metadata !125, i32 1506} ; [ DW_TAG_subprogram ]
!456 = metadata !{i32 786453, i32 0, metadata !"", i32 0, i32 0, i64 0, i64 0, i64 0, i32 0, null, metadata !457, i32 0, i32 0} ; [ DW_TAG_subroutine_type ]
!457 = metadata !{null, metadata !398, metadata !210, metadata !161}
!458 = metadata !{i32 786478, i32 0, metadata !376, metadata !"read", metadata !"read", metadata !"_ZNV11ap_int_baseILi16ELb0ELb1EE4readEv", metadata !113, i32 1527, metadata !459, i1 false, i1 false, i32 0, i32 0, null, i32 256, i1 false, null, null, i32 0, metadata !125, i32 1527} ; [ DW_TAG_subprogram ]
!459 = metadata !{i32 786453, i32 0, metadata !"", i32 0, i32 0, i64 0, i64 0, i64 0, i32 0, null, metadata !460, i32 0, i32 0} ; [ DW_TAG_subroutine_type ]
!460 = metadata !{metadata !376, metadata !461}
!461 = metadata !{i32 786447, i32 0, metadata !"", i32 0, i32 0, i64 64, i64 64, i64 0, i32 64, metadata !412} ; [ DW_TAG_pointer_type ]
!462 = metadata !{i32 786478, i32 0, metadata !376, metadata !"write", metadata !"write", metadata !"_ZNV11ap_int_baseILi16ELb0ELb1EE5writeERKS0_", metadata !113, i32 1533, metadata !463, i1 false, i1 false, i32 0, i32 0, null, i32 256, i1 false, null, null, i32 0, metadata !125, i32 1533} ; [ DW_TAG_subprogram ]
!463 = metadata !{i32 786453, i32 0, metadata !"", i32 0, i32 0, i64 0, i64 0, i64 0, i32 0, null, metadata !464, i32 0, i32 0} ; [ DW_TAG_subroutine_type ]
!464 = metadata !{null, metadata !461, metadata !402}
!465 = metadata !{i32 786478, i32 0, metadata !376, metadata !"operator=", metadata !"operator=", metadata !"_ZNV11ap_int_baseILi16ELb0ELb1EEaSERVKS0_", metadata !113, i32 1545, metadata !466, i1 false, i1 false, i32 0, i32 0, null, i32 256, i1 false, null, null, i32 0, metadata !125, i32 1545} ; [ DW_TAG_subprogram ]
!466 = metadata !{i32 786453, i32 0, metadata !"", i32 0, i32 0, i64 0, i64 0, i64 0, i32 0, null, metadata !467, i32 0, i32 0} ; [ DW_TAG_subroutine_type ]
!467 = metadata !{null, metadata !461, metadata !410}
!468 = metadata !{i32 786478, i32 0, metadata !376, metadata !"operator=", metadata !"operator=", metadata !"_ZNV11ap_int_baseILi16ELb0ELb1EEaSERKS0_", metadata !113, i32 1554, metadata !463, i1 false, i1 false, i32 0, i32 0, null, i32 256, i1 false, null, null, i32 0, metadata !125, i32 1554} ; [ DW_TAG_subprogram ]
!469 = metadata !{i32 786478, i32 0, metadata !376, metadata !"operator=", metadata !"operator=", metadata !"_ZN11ap_int_baseILi16ELb0ELb1EEaSERVKS0_", metadata !113, i32 1577, metadata !470, i1 false, i1 false, i32 0, i32 0, null, i32 256, i1 false, null, null, i32 0, metadata !125, i32 1577} ; [ DW_TAG_subprogram ]
!470 = metadata !{i32 786453, i32 0, metadata !"", i32 0, i32 0, i64 0, i64 0, i64 0, i32 0, null, metadata !471, i32 0, i32 0} ; [ DW_TAG_subroutine_type ]
!471 = metadata !{metadata !375, metadata !398, metadata !410}
!472 = metadata !{i32 786478, i32 0, metadata !376, metadata !"operator=", metadata !"operator=", metadata !"_ZN11ap_int_baseILi16ELb0ELb1EEaSERKS0_", metadata !113, i32 1582, metadata !473, i1 false, i1 false, i32 0, i32 0, null, i32 256, i1 false, null, null, i32 0, metadata !125, i32 1582} ; [ DW_TAG_subprogram ]
!473 = metadata !{i32 786453, i32 0, metadata !"", i32 0, i32 0, i64 0, i64 0, i64 0, i32 0, null, metadata !474, i32 0, i32 0} ; [ DW_TAG_subroutine_type ]
!474 = metadata !{metadata !375, metadata !398, metadata !402}
!475 = metadata !{i32 786478, i32 0, metadata !376, metadata !"operator=", metadata !"operator=", metadata !"_ZN11ap_int_baseILi16ELb0ELb1EEaSEPKc", metadata !113, i32 1586, metadata !476, i1 false, i1 false, i32 0, i32 0, null, i32 256, i1 false, null, null, i32 0, metadata !125, i32 1586} ; [ DW_TAG_subprogram ]
!476 = metadata !{i32 786453, i32 0, metadata !"", i32 0, i32 0, i64 0, i64 0, i64 0, i32 0, null, metadata !477, i32 0, i32 0} ; [ DW_TAG_subroutine_type ]
!477 = metadata !{metadata !375, metadata !398, metadata !210}
!478 = metadata !{i32 786478, i32 0, metadata !376, metadata !"set", metadata !"set", metadata !"_ZN11ap_int_baseILi16ELb0ELb1EE3setEPKca", metadata !113, i32 1594, metadata !479, i1 false, i1 false, i32 0, i32 0, null, i32 256, i1 false, null, null, i32 0, metadata !125, i32 1594} ; [ DW_TAG_subprogram ]
!479 = metadata !{i32 786453, i32 0, metadata !"", i32 0, i32 0, i64 0, i64 0, i64 0, i32 0, null, metadata !480, i32 0, i32 0} ; [ DW_TAG_subroutine_type ]
!480 = metadata !{metadata !375, metadata !398, metadata !210, metadata !161}
!481 = metadata !{i32 786478, i32 0, metadata !376, metadata !"operator=", metadata !"operator=", metadata !"_ZN11ap_int_baseILi16ELb0ELb1EEaSEa", metadata !113, i32 1608, metadata !482, i1 false, i1 false, i32 0, i32 0, null, i32 256, i1 false, null, null, i32 0, metadata !125, i32 1608} ; [ DW_TAG_subprogram ]
!482 = metadata !{i32 786453, i32 0, metadata !"", i32 0, i32 0, i64 0, i64 0, i64 0, i32 0, null, metadata !483, i32 0, i32 0} ; [ DW_TAG_subroutine_type ]
!483 = metadata !{metadata !375, metadata !398, metadata !161}
!484 = metadata !{i32 786478, i32 0, metadata !376, metadata !"operator=", metadata !"operator=", metadata !"_ZN11ap_int_baseILi16ELb0ELb1EEaSEh", metadata !113, i32 1609, metadata !485, i1 false, i1 false, i32 0, i32 0, null, i32 256, i1 false, null, null, i32 0, metadata !125, i32 1609} ; [ DW_TAG_subprogram ]
!485 = metadata !{i32 786453, i32 0, metadata !"", i32 0, i32 0, i64 0, i64 0, i64 0, i32 0, null, metadata !486, i32 0, i32 0} ; [ DW_TAG_subroutine_type ]
!486 = metadata !{metadata !375, metadata !398, metadata !165}
!487 = metadata !{i32 786478, i32 0, metadata !376, metadata !"operator=", metadata !"operator=", metadata !"_ZN11ap_int_baseILi16ELb0ELb1EEaSEs", metadata !113, i32 1610, metadata !488, i1 false, i1 false, i32 0, i32 0, null, i32 256, i1 false, null, null, i32 0, metadata !125, i32 1610} ; [ DW_TAG_subprogram ]
!488 = metadata !{i32 786453, i32 0, metadata !"", i32 0, i32 0, i64 0, i64 0, i64 0, i32 0, null, metadata !489, i32 0, i32 0} ; [ DW_TAG_subroutine_type ]
!489 = metadata !{metadata !375, metadata !398, metadata !169}
!490 = metadata !{i32 786478, i32 0, metadata !376, metadata !"operator=", metadata !"operator=", metadata !"_ZN11ap_int_baseILi16ELb0ELb1EEaSEt", metadata !113, i32 1611, metadata !491, i1 false, i1 false, i32 0, i32 0, null, i32 256, i1 false, null, null, i32 0, metadata !125, i32 1611} ; [ DW_TAG_subprogram ]
!491 = metadata !{i32 786453, i32 0, metadata !"", i32 0, i32 0, i64 0, i64 0, i64 0, i32 0, null, metadata !492, i32 0, i32 0} ; [ DW_TAG_subroutine_type ]
!492 = metadata !{metadata !375, metadata !398, metadata !173}
!493 = metadata !{i32 786478, i32 0, metadata !376, metadata !"operator=", metadata !"operator=", metadata !"_ZN11ap_int_baseILi16ELb0ELb1EEaSEi", metadata !113, i32 1612, metadata !494, i1 false, i1 false, i32 0, i32 0, null, i32 256, i1 false, null, null, i32 0, metadata !125, i32 1612} ; [ DW_TAG_subprogram ]
!494 = metadata !{i32 786453, i32 0, metadata !"", i32 0, i32 0, i64 0, i64 0, i64 0, i32 0, null, metadata !495, i32 0, i32 0} ; [ DW_TAG_subroutine_type ]
!495 = metadata !{metadata !375, metadata !398, metadata !134}
!496 = metadata !{i32 786478, i32 0, metadata !376, metadata !"operator=", metadata !"operator=", metadata !"_ZN11ap_int_baseILi16ELb0ELb1EEaSEj", metadata !113, i32 1613, metadata !497, i1 false, i1 false, i32 0, i32 0, null, i32 256, i1 false, null, null, i32 0, metadata !125, i32 1613} ; [ DW_TAG_subprogram ]
!497 = metadata !{i32 786453, i32 0, metadata !"", i32 0, i32 0, i64 0, i64 0, i64 0, i32 0, null, metadata !498, i32 0, i32 0} ; [ DW_TAG_subroutine_type ]
!498 = metadata !{metadata !375, metadata !398, metadata !180}
!499 = metadata !{i32 786478, i32 0, metadata !376, metadata !"operator=", metadata !"operator=", metadata !"_ZN11ap_int_baseILi16ELb0ELb1EEaSEx", metadata !113, i32 1614, metadata !500, i1 false, i1 false, i32 0, i32 0, null, i32 256, i1 false, null, null, i32 0, metadata !125, i32 1614} ; [ DW_TAG_subprogram ]
!500 = metadata !{i32 786453, i32 0, metadata !"", i32 0, i32 0, i64 0, i64 0, i64 0, i32 0, null, metadata !501, i32 0, i32 0} ; [ DW_TAG_subroutine_type ]
!501 = metadata !{metadata !375, metadata !398, metadata !192}
!502 = metadata !{i32 786478, i32 0, metadata !376, metadata !"operator=", metadata !"operator=", metadata !"_ZN11ap_int_baseILi16ELb0ELb1EEaSEy", metadata !113, i32 1615, metadata !503, i1 false, i1 false, i32 0, i32 0, null, i32 256, i1 false, null, null, i32 0, metadata !125, i32 1615} ; [ DW_TAG_subprogram ]
!503 = metadata !{i32 786453, i32 0, metadata !"", i32 0, i32 0, i64 0, i64 0, i64 0, i32 0, null, metadata !504, i32 0, i32 0} ; [ DW_TAG_subroutine_type ]
!504 = metadata !{metadata !375, metadata !398, metadata !197}
!505 = metadata !{i32 786478, i32 0, metadata !376, metadata !"operator unsigned short", metadata !"operator unsigned short", metadata !"_ZNK11ap_int_baseILi16ELb0ELb1EEcvtEv", metadata !113, i32 1653, metadata !506, i1 false, i1 false, i32 0, i32 0, null, i32 256, i1 false, null, null, i32 0, metadata !125, i32 1653} ; [ DW_TAG_subprogram ]
!506 = metadata !{i32 786453, i32 0, metadata !"", i32 0, i32 0, i64 0, i64 0, i64 0, i32 0, null, metadata !507, i32 0, i32 0} ; [ DW_TAG_subroutine_type ]
!507 = metadata !{metadata !508, metadata !513}
!508 = metadata !{i32 786454, metadata !376, metadata !"RetType", metadata !113, i32 1402, i64 0, i64 0, i64 0, i32 0, metadata !509} ; [ DW_TAG_typedef ]
!509 = metadata !{i32 786454, metadata !510, metadata !"Type", metadata !113, i32 1376, i64 0, i64 0, i64 0, i32 0, metadata !173} ; [ DW_TAG_typedef ]
!510 = metadata !{i32 786434, null, metadata !"retval<2, false>", metadata !113, i32 1375, i64 8, i64 8, i32 0, i32 0, null, metadata !270, i32 0, null, metadata !511} ; [ DW_TAG_class_type ]
!511 = metadata !{metadata !512, metadata !394}
!512 = metadata !{i32 786480, null, metadata !"_AP_N", metadata !134, i64 2, null, i32 0, i32 0} ; [ DW_TAG_template_value_parameter ]
!513 = metadata !{i32 786447, i32 0, metadata !"", i32 0, i32 0, i64 64, i64 64, i64 0, i32 64, metadata !403} ; [ DW_TAG_pointer_type ]
!514 = metadata !{i32 786478, i32 0, metadata !376, metadata !"to_bool", metadata !"to_bool", metadata !"_ZNK11ap_int_baseILi16ELb0ELb1EE7to_boolEv", metadata !113, i32 1659, metadata !515, i1 false, i1 false, i32 0, i32 0, null, i32 256, i1 false, null, null, i32 0, metadata !125, i32 1659} ; [ DW_TAG_subprogram ]
!515 = metadata !{i32 786453, i32 0, metadata !"", i32 0, i32 0, i64 0, i64 0, i64 0, i32 0, null, metadata !516, i32 0, i32 0} ; [ DW_TAG_subroutine_type ]
!516 = metadata !{metadata !136, metadata !513}
!517 = metadata !{i32 786478, i32 0, metadata !376, metadata !"to_uchar", metadata !"to_uchar", metadata !"_ZNK11ap_int_baseILi16ELb0ELb1EE8to_ucharEv", metadata !113, i32 1660, metadata !518, i1 false, i1 false, i32 0, i32 0, null, i32 256, i1 false, null, null, i32 0, metadata !125, i32 1660} ; [ DW_TAG_subprogram ]
!518 = metadata !{i32 786453, i32 0, metadata !"", i32 0, i32 0, i64 0, i64 0, i64 0, i32 0, null, metadata !519, i32 0, i32 0} ; [ DW_TAG_subroutine_type ]
!519 = metadata !{metadata !165, metadata !513}
!520 = metadata !{i32 786478, i32 0, metadata !376, metadata !"to_char", metadata !"to_char", metadata !"_ZNK11ap_int_baseILi16ELb0ELb1EE7to_charEv", metadata !113, i32 1661, metadata !521, i1 false, i1 false, i32 0, i32 0, null, i32 256, i1 false, null, null, i32 0, metadata !125, i32 1661} ; [ DW_TAG_subprogram ]
!521 = metadata !{i32 786453, i32 0, metadata !"", i32 0, i32 0, i64 0, i64 0, i64 0, i32 0, null, metadata !522, i32 0, i32 0} ; [ DW_TAG_subroutine_type ]
!522 = metadata !{metadata !161, metadata !513}
!523 = metadata !{i32 786478, i32 0, metadata !376, metadata !"to_ushort", metadata !"to_ushort", metadata !"_ZNK11ap_int_baseILi16ELb0ELb1EE9to_ushortEv", metadata !113, i32 1662, metadata !524, i1 false, i1 false, i32 0, i32 0, null, i32 256, i1 false, null, null, i32 0, metadata !125, i32 1662} ; [ DW_TAG_subprogram ]
!524 = metadata !{i32 786453, i32 0, metadata !"", i32 0, i32 0, i64 0, i64 0, i64 0, i32 0, null, metadata !525, i32 0, i32 0} ; [ DW_TAG_subroutine_type ]
!525 = metadata !{metadata !173, metadata !513}
!526 = metadata !{i32 786478, i32 0, metadata !376, metadata !"to_short", metadata !"to_short", metadata !"_ZNK11ap_int_baseILi16ELb0ELb1EE8to_shortEv", metadata !113, i32 1663, metadata !527, i1 false, i1 false, i32 0, i32 0, null, i32 256, i1 false, null, null, i32 0, metadata !125, i32 1663} ; [ DW_TAG_subprogram ]
!527 = metadata !{i32 786453, i32 0, metadata !"", i32 0, i32 0, i64 0, i64 0, i64 0, i32 0, null, metadata !528, i32 0, i32 0} ; [ DW_TAG_subroutine_type ]
!528 = metadata !{metadata !169, metadata !513}
!529 = metadata !{i32 786478, i32 0, metadata !376, metadata !"to_int", metadata !"to_int", metadata !"_ZNK11ap_int_baseILi16ELb0ELb1EE6to_intEv", metadata !113, i32 1664, metadata !530, i1 false, i1 false, i32 0, i32 0, null, i32 256, i1 false, null, null, i32 0, metadata !125, i32 1664} ; [ DW_TAG_subprogram ]
!530 = metadata !{i32 786453, i32 0, metadata !"", i32 0, i32 0, i64 0, i64 0, i64 0, i32 0, null, metadata !531, i32 0, i32 0} ; [ DW_TAG_subroutine_type ]
!531 = metadata !{metadata !134, metadata !513}
!532 = metadata !{i32 786478, i32 0, metadata !376, metadata !"to_uint", metadata !"to_uint", metadata !"_ZNK11ap_int_baseILi16ELb0ELb1EE7to_uintEv", metadata !113, i32 1665, metadata !533, i1 false, i1 false, i32 0, i32 0, null, i32 256, i1 false, null, null, i32 0, metadata !125, i32 1665} ; [ DW_TAG_subprogram ]
!533 = metadata !{i32 786453, i32 0, metadata !"", i32 0, i32 0, i64 0, i64 0, i64 0, i32 0, null, metadata !534, i32 0, i32 0} ; [ DW_TAG_subroutine_type ]
!534 = metadata !{metadata !180, metadata !513}
!535 = metadata !{i32 786478, i32 0, metadata !376, metadata !"to_long", metadata !"to_long", metadata !"_ZNK11ap_int_baseILi16ELb0ELb1EE7to_longEv", metadata !113, i32 1666, metadata !536, i1 false, i1 false, i32 0, i32 0, null, i32 256, i1 false, null, null, i32 0, metadata !125, i32 1666} ; [ DW_TAG_subprogram ]
!536 = metadata !{i32 786453, i32 0, metadata !"", i32 0, i32 0, i64 0, i64 0, i64 0, i32 0, null, metadata !537, i32 0, i32 0} ; [ DW_TAG_subroutine_type ]
!537 = metadata !{metadata !184, metadata !513}
!538 = metadata !{i32 786478, i32 0, metadata !376, metadata !"to_ulong", metadata !"to_ulong", metadata !"_ZNK11ap_int_baseILi16ELb0ELb1EE8to_ulongEv", metadata !113, i32 1667, metadata !539, i1 false, i1 false, i32 0, i32 0, null, i32 256, i1 false, null, null, i32 0, metadata !125, i32 1667} ; [ DW_TAG_subprogram ]
!539 = metadata !{i32 786453, i32 0, metadata !"", i32 0, i32 0, i64 0, i64 0, i64 0, i32 0, null, metadata !540, i32 0, i32 0} ; [ DW_TAG_subroutine_type ]
!540 = metadata !{metadata !188, metadata !513}
!541 = metadata !{i32 786478, i32 0, metadata !376, metadata !"to_int64", metadata !"to_int64", metadata !"_ZNK11ap_int_baseILi16ELb0ELb1EE8to_int64Ev", metadata !113, i32 1668, metadata !542, i1 false, i1 false, i32 0, i32 0, null, i32 256, i1 false, null, null, i32 0, metadata !125, i32 1668} ; [ DW_TAG_subprogram ]
!542 = metadata !{i32 786453, i32 0, metadata !"", i32 0, i32 0, i64 0, i64 0, i64 0, i32 0, null, metadata !543, i32 0, i32 0} ; [ DW_TAG_subroutine_type ]
!543 = metadata !{metadata !192, metadata !513}
!544 = metadata !{i32 786478, i32 0, metadata !376, metadata !"to_uint64", metadata !"to_uint64", metadata !"_ZNK11ap_int_baseILi16ELb0ELb1EE9to_uint64Ev", metadata !113, i32 1669, metadata !545, i1 false, i1 false, i32 0, i32 0, null, i32 256, i1 false, null, null, i32 0, metadata !125, i32 1669} ; [ DW_TAG_subprogram ]
!545 = metadata !{i32 786453, i32 0, metadata !"", i32 0, i32 0, i64 0, i64 0, i64 0, i32 0, null, metadata !546, i32 0, i32 0} ; [ DW_TAG_subroutine_type ]
!546 = metadata !{metadata !197, metadata !513}
!547 = metadata !{i32 786478, i32 0, metadata !376, metadata !"to_double", metadata !"to_double", metadata !"_ZNK11ap_int_baseILi16ELb0ELb1EE9to_doubleEv", metadata !113, i32 1670, metadata !548, i1 false, i1 false, i32 0, i32 0, null, i32 256, i1 false, null, null, i32 0, metadata !125, i32 1670} ; [ DW_TAG_subprogram ]
!548 = metadata !{i32 786453, i32 0, metadata !"", i32 0, i32 0, i64 0, i64 0, i64 0, i32 0, null, metadata !549, i32 0, i32 0} ; [ DW_TAG_subroutine_type ]
!549 = metadata !{metadata !206, metadata !513}
!550 = metadata !{i32 786478, i32 0, metadata !376, metadata !"length", metadata !"length", metadata !"_ZNK11ap_int_baseILi16ELb0ELb1EE6lengthEv", metadata !113, i32 1684, metadata !530, i1 false, i1 false, i32 0, i32 0, null, i32 256, i1 false, null, null, i32 0, metadata !125, i32 1684} ; [ DW_TAG_subprogram ]
!551 = metadata !{i32 786478, i32 0, metadata !376, metadata !"length", metadata !"length", metadata !"_ZNVK11ap_int_baseILi16ELb0ELb1EE6lengthEv", metadata !113, i32 1685, metadata !552, i1 false, i1 false, i32 0, i32 0, null, i32 256, i1 false, null, null, i32 0, metadata !125, i32 1685} ; [ DW_TAG_subprogram ]
!552 = metadata !{i32 786453, i32 0, metadata !"", i32 0, i32 0, i64 0, i64 0, i64 0, i32 0, null, metadata !553, i32 0, i32 0} ; [ DW_TAG_subroutine_type ]
!553 = metadata !{metadata !134, metadata !554}
!554 = metadata !{i32 786447, i32 0, metadata !"", i32 0, i32 0, i64 64, i64 64, i64 0, i32 64, metadata !411} ; [ DW_TAG_pointer_type ]
!555 = metadata !{i32 786478, i32 0, metadata !376, metadata !"reverse", metadata !"reverse", metadata !"_ZN11ap_int_baseILi16ELb0ELb1EE7reverseEv", metadata !113, i32 1690, metadata !556, i1 false, i1 false, i32 0, i32 0, null, i32 256, i1 false, null, null, i32 0, metadata !125, i32 1690} ; [ DW_TAG_subprogram ]
!556 = metadata !{i32 786453, i32 0, metadata !"", i32 0, i32 0, i64 0, i64 0, i64 0, i32 0, null, metadata !557, i32 0, i32 0} ; [ DW_TAG_subroutine_type ]
!557 = metadata !{metadata !375, metadata !398}
!558 = metadata !{i32 786478, i32 0, metadata !376, metadata !"iszero", metadata !"iszero", metadata !"_ZNK11ap_int_baseILi16ELb0ELb1EE6iszeroEv", metadata !113, i32 1696, metadata !515, i1 false, i1 false, i32 0, i32 0, null, i32 256, i1 false, null, null, i32 0, metadata !125, i32 1696} ; [ DW_TAG_subprogram ]
!559 = metadata !{i32 786478, i32 0, metadata !376, metadata !"is_zero", metadata !"is_zero", metadata !"_ZNK11ap_int_baseILi16ELb0ELb1EE7is_zeroEv", metadata !113, i32 1701, metadata !515, i1 false, i1 false, i32 0, i32 0, null, i32 256, i1 false, null, null, i32 0, metadata !125, i32 1701} ; [ DW_TAG_subprogram ]
!560 = metadata !{i32 786478, i32 0, metadata !376, metadata !"sign", metadata !"sign", metadata !"_ZNK11ap_int_baseILi16ELb0ELb1EE4signEv", metadata !113, i32 1706, metadata !515, i1 false, i1 false, i32 0, i32 0, null, i32 256, i1 false, null, null, i32 0, metadata !125, i32 1706} ; [ DW_TAG_subprogram ]
!561 = metadata !{i32 786478, i32 0, metadata !376, metadata !"clear", metadata !"clear", metadata !"_ZN11ap_int_baseILi16ELb0ELb1EE5clearEi", metadata !113, i32 1714, metadata !429, i1 false, i1 false, i32 0, i32 0, null, i32 256, i1 false, null, null, i32 0, metadata !125, i32 1714} ; [ DW_TAG_subprogram ]
!562 = metadata !{i32 786478, i32 0, metadata !376, metadata !"invert", metadata !"invert", metadata !"_ZN11ap_int_baseILi16ELb0ELb1EE6invertEi", metadata !113, i32 1720, metadata !429, i1 false, i1 false, i32 0, i32 0, null, i32 256, i1 false, null, null, i32 0, metadata !125, i32 1720} ; [ DW_TAG_subprogram ]
!563 = metadata !{i32 786478, i32 0, metadata !376, metadata !"test", metadata !"test", metadata !"_ZNK11ap_int_baseILi16ELb0ELb1EE4testEi", metadata !113, i32 1728, metadata !564, i1 false, i1 false, i32 0, i32 0, null, i32 256, i1 false, null, null, i32 0, metadata !125, i32 1728} ; [ DW_TAG_subprogram ]
!564 = metadata !{i32 786453, i32 0, metadata !"", i32 0, i32 0, i64 0, i64 0, i64 0, i32 0, null, metadata !565, i32 0, i32 0} ; [ DW_TAG_subroutine_type ]
!565 = metadata !{metadata !136, metadata !513, metadata !134}
!566 = metadata !{i32 786478, i32 0, metadata !376, metadata !"set", metadata !"set", metadata !"_ZN11ap_int_baseILi16ELb0ELb1EE3setEi", metadata !113, i32 1734, metadata !429, i1 false, i1 false, i32 0, i32 0, null, i32 256, i1 false, null, null, i32 0, metadata !125, i32 1734} ; [ DW_TAG_subprogram ]
!567 = metadata !{i32 786478, i32 0, metadata !376, metadata !"set", metadata !"set", metadata !"_ZN11ap_int_baseILi16ELb0ELb1EE3setEib", metadata !113, i32 1740, metadata !568, i1 false, i1 false, i32 0, i32 0, null, i32 256, i1 false, null, null, i32 0, metadata !125, i32 1740} ; [ DW_TAG_subprogram ]
!568 = metadata !{i32 786453, i32 0, metadata !"", i32 0, i32 0, i64 0, i64 0, i64 0, i32 0, null, metadata !569, i32 0, i32 0} ; [ DW_TAG_subroutine_type ]
!569 = metadata !{null, metadata !398, metadata !134, metadata !136}
!570 = metadata !{i32 786478, i32 0, metadata !376, metadata !"lrotate", metadata !"lrotate", metadata !"_ZN11ap_int_baseILi16ELb0ELb1EE7lrotateEi", metadata !113, i32 1747, metadata !429, i1 false, i1 false, i32 0, i32 0, null, i32 256, i1 false, null, null, i32 0, metadata !125, i32 1747} ; [ DW_TAG_subprogram ]
!571 = metadata !{i32 786478, i32 0, metadata !376, metadata !"rrotate", metadata !"rrotate", metadata !"_ZN11ap_int_baseILi16ELb0ELb1EE7rrotateEi", metadata !113, i32 1756, metadata !429, i1 false, i1 false, i32 0, i32 0, null, i32 256, i1 false, null, null, i32 0, metadata !125, i32 1756} ; [ DW_TAG_subprogram ]
!572 = metadata !{i32 786478, i32 0, metadata !376, metadata !"set_bit", metadata !"set_bit", metadata !"_ZN11ap_int_baseILi16ELb0ELb1EE7set_bitEib", metadata !113, i32 1764, metadata !568, i1 false, i1 false, i32 0, i32 0, null, i32 256, i1 false, null, null, i32 0, metadata !125, i32 1764} ; [ DW_TAG_subprogram ]
!573 = metadata !{i32 786478, i32 0, metadata !376, metadata !"get_bit", metadata !"get_bit", metadata !"_ZNK11ap_int_baseILi16ELb0ELb1EE7get_bitEi", metadata !113, i32 1769, metadata !564, i1 false, i1 false, i32 0, i32 0, null, i32 256, i1 false, null, null, i32 0, metadata !125, i32 1769} ; [ DW_TAG_subprogram ]
!574 = metadata !{i32 786478, i32 0, metadata !376, metadata !"b_not", metadata !"b_not", metadata !"_ZN11ap_int_baseILi16ELb0ELb1EE5b_notEv", metadata !113, i32 1774, metadata !396, i1 false, i1 false, i32 0, i32 0, null, i32 256, i1 false, null, null, i32 0, metadata !125, i32 1774} ; [ DW_TAG_subprogram ]
!575 = metadata !{i32 786478, i32 0, metadata !376, metadata !"countLeadingZeros", metadata !"countLeadingZeros", metadata !"_ZN11ap_int_baseILi16ELb0ELb1EE17countLeadingZerosEv", metadata !113, i32 1781, metadata !576, i1 false, i1 false, i32 0, i32 0, null, i32 256, i1 false, null, null, i32 0, metadata !125, i32 1781} ; [ DW_TAG_subprogram ]
!576 = metadata !{i32 786453, i32 0, metadata !"", i32 0, i32 0, i64 0, i64 0, i64 0, i32 0, null, metadata !577, i32 0, i32 0} ; [ DW_TAG_subroutine_type ]
!577 = metadata !{metadata !134, metadata !398}
!578 = metadata !{i32 786478, i32 0, metadata !376, metadata !"operator++", metadata !"operator++", metadata !"_ZN11ap_int_baseILi16ELb0ELb1EEppEv", metadata !113, i32 1838, metadata !556, i1 false, i1 false, i32 0, i32 0, null, i32 256, i1 false, null, null, i32 0, metadata !125, i32 1838} ; [ DW_TAG_subprogram ]
!579 = metadata !{i32 786478, i32 0, metadata !376, metadata !"operator--", metadata !"operator--", metadata !"_ZN11ap_int_baseILi16ELb0ELb1EEmmEv", metadata !113, i32 1842, metadata !556, i1 false, i1 false, i32 0, i32 0, null, i32 256, i1 false, null, null, i32 0, metadata !125, i32 1842} ; [ DW_TAG_subprogram ]
!580 = metadata !{i32 786478, i32 0, metadata !376, metadata !"operator++", metadata !"operator++", metadata !"_ZN11ap_int_baseILi16ELb0ELb1EEppEi", metadata !113, i32 1850, metadata !581, i1 false, i1 false, i32 0, i32 0, null, i32 256, i1 false, null, null, i32 0, metadata !125, i32 1850} ; [ DW_TAG_subprogram ]
!581 = metadata !{i32 786453, i32 0, metadata !"", i32 0, i32 0, i64 0, i64 0, i64 0, i32 0, null, metadata !582, i32 0, i32 0} ; [ DW_TAG_subroutine_type ]
!582 = metadata !{metadata !403, metadata !398, metadata !134}
!583 = metadata !{i32 786478, i32 0, metadata !376, metadata !"operator--", metadata !"operator--", metadata !"_ZN11ap_int_baseILi16ELb0ELb1EEmmEi", metadata !113, i32 1855, metadata !581, i1 false, i1 false, i32 0, i32 0, null, i32 256, i1 false, null, null, i32 0, metadata !125, i32 1855} ; [ DW_TAG_subprogram ]
!584 = metadata !{i32 786478, i32 0, metadata !376, metadata !"operator+", metadata !"operator+", metadata !"_ZNK11ap_int_baseILi16ELb0ELb1EEpsEv", metadata !113, i32 1864, metadata !585, i1 false, i1 false, i32 0, i32 0, null, i32 256, i1 false, null, null, i32 0, metadata !125, i32 1864} ; [ DW_TAG_subprogram ]
!585 = metadata !{i32 786453, i32 0, metadata !"", i32 0, i32 0, i64 0, i64 0, i64 0, i32 0, null, metadata !586, i32 0, i32 0} ; [ DW_TAG_subroutine_type ]
!586 = metadata !{metadata !376, metadata !513}
!587 = metadata !{i32 786478, i32 0, metadata !376, metadata !"operator!", metadata !"operator!", metadata !"_ZNK11ap_int_baseILi16ELb0ELb1EEntEv", metadata !113, i32 1870, metadata !515, i1 false, i1 false, i32 0, i32 0, null, i32 256, i1 false, null, null, i32 0, metadata !125, i32 1870} ; [ DW_TAG_subprogram ]
!588 = metadata !{i32 786478, i32 0, metadata !376, metadata !"operator-", metadata !"operator-", metadata !"_ZNK11ap_int_baseILi16ELb0ELb1EEngEv", metadata !113, i32 1875, metadata !589, i1 false, i1 false, i32 0, i32 0, null, i32 256, i1 false, null, null, i32 0, metadata !125, i32 1875} ; [ DW_TAG_subprogram ]
!589 = metadata !{i32 786453, i32 0, metadata !"", i32 0, i32 0, i64 0, i64 0, i64 0, i32 0, null, metadata !590, i32 0, i32 0} ; [ DW_TAG_subroutine_type ]
!590 = metadata !{metadata !591, metadata !513}
!591 = metadata !{i32 786434, null, metadata !"ap_int_base<17, true, true>", metadata !113, i32 1397, i64 32, i64 32, i32 0, i32 0, null, metadata !592, i32 0, null, metadata !874} ; [ DW_TAG_class_type ]
!592 = metadata !{metadata !593, metadata !604, metadata !608, metadata !611, metadata !614, metadata !617, metadata !620, metadata !623, metadata !626, metadata !629, metadata !632, metadata !635, metadata !638, metadata !641, metadata !644, metadata !647, metadata !650, metadata !653, metadata !658, metadata !663, metadata !668, metadata !669, metadata !673, metadata !676, metadata !679, metadata !682, metadata !685, metadata !688, metadata !691, metadata !694, metadata !697, metadata !700, metadata !703, metadata !706, metadata !715, metadata !718, metadata !721, metadata !724, metadata !727, metadata !730, metadata !733, metadata !736, metadata !739, metadata !742, metadata !745, metadata !748, metadata !751, metadata !752, metadata !756, metadata !759, metadata !760, metadata !761, metadata !762, metadata !763, metadata !764, metadata !767, metadata !768, metadata !771, metadata !772, metadata !773, metadata !774, metadata !775, metadata !776, metadata !779, metadata !780, metadata !781, metadata !784, metadata !785, metadata !788, metadata !789, metadata !793, metadata !797, metadata !798, metadata !801, metadata !802, metadata !841, metadata !842, metadata !843, metadata !844, metadata !847, metadata !848, metadata !849, metadata !850, metadata !851, metadata !852, metadata !853, metadata !854, metadata !855, metadata !856, metadata !857, metadata !858, metadata !868, metadata !871}
!593 = metadata !{i32 786460, metadata !591, null, metadata !113, i32 0, i64 0, i64 0, i64 0, i32 0, metadata !594} ; [ DW_TAG_inheritance ]
!594 = metadata !{i32 786434, null, metadata !"ssdm_int<17 + 1024 * 0, true>", metadata !117, i32 19, i64 32, i64 32, i32 0, i32 0, null, metadata !595, i32 0, null, metadata !602} ; [ DW_TAG_class_type ]
!595 = metadata !{metadata !596, metadata !598}
!596 = metadata !{i32 786445, metadata !594, metadata !"V", metadata !117, i32 19, i64 17, i64 32, i64 0, i32 0, metadata !597} ; [ DW_TAG_member ]
!597 = metadata !{i32 786468, null, metadata !"int17", null, i32 0, i64 17, i64 32, i64 0, i32 0, i32 5} ; [ DW_TAG_base_type ]
!598 = metadata !{i32 786478, i32 0, metadata !594, metadata !"ssdm_int", metadata !"ssdm_int", metadata !"", metadata !117, i32 19, metadata !599, i1 false, i1 false, i32 0, i32 0, null, i32 256, i1 false, null, null, i32 0, metadata !125, i32 19} ; [ DW_TAG_subprogram ]
!599 = metadata !{i32 786453, i32 0, metadata !"", i32 0, i32 0, i64 0, i64 0, i64 0, i32 0, null, metadata !600, i32 0, i32 0} ; [ DW_TAG_subroutine_type ]
!600 = metadata !{null, metadata !601}
!601 = metadata !{i32 786447, i32 0, metadata !"", i32 0, i32 0, i64 64, i64 64, i64 0, i32 64, metadata !594} ; [ DW_TAG_pointer_type ]
!602 = metadata !{metadata !603, metadata !135}
!603 = metadata !{i32 786480, null, metadata !"_AP_N", metadata !134, i64 17, null, i32 0, i32 0} ; [ DW_TAG_template_value_parameter ]
!604 = metadata !{i32 786478, i32 0, metadata !591, metadata !"ap_int_base", metadata !"ap_int_base", metadata !"", metadata !113, i32 1438, metadata !605, i1 false, i1 false, i32 0, i32 0, null, i32 256, i1 false, null, null, i32 0, metadata !125, i32 1438} ; [ DW_TAG_subprogram ]
!605 = metadata !{i32 786453, i32 0, metadata !"", i32 0, i32 0, i64 0, i64 0, i64 0, i32 0, null, metadata !606, i32 0, i32 0} ; [ DW_TAG_subroutine_type ]
!606 = metadata !{null, metadata !607}
!607 = metadata !{i32 786447, i32 0, metadata !"", i32 0, i32 0, i64 64, i64 64, i64 0, i32 64, metadata !591} ; [ DW_TAG_pointer_type ]
!608 = metadata !{i32 786478, i32 0, metadata !591, metadata !"ap_int_base", metadata !"ap_int_base", metadata !"", metadata !113, i32 1460, metadata !609, i1 false, i1 false, i32 0, i32 0, null, i32 384, i1 false, null, null, i32 0, metadata !125, i32 1460} ; [ DW_TAG_subprogram ]
!609 = metadata !{i32 786453, i32 0, metadata !"", i32 0, i32 0, i64 0, i64 0, i64 0, i32 0, null, metadata !610, i32 0, i32 0} ; [ DW_TAG_subroutine_type ]
!610 = metadata !{null, metadata !607, metadata !136}
!611 = metadata !{i32 786478, i32 0, metadata !591, metadata !"ap_int_base", metadata !"ap_int_base", metadata !"", metadata !113, i32 1461, metadata !612, i1 false, i1 false, i32 0, i32 0, null, i32 384, i1 false, null, null, i32 0, metadata !125, i32 1461} ; [ DW_TAG_subprogram ]
!612 = metadata !{i32 786453, i32 0, metadata !"", i32 0, i32 0, i64 0, i64 0, i64 0, i32 0, null, metadata !613, i32 0, i32 0} ; [ DW_TAG_subroutine_type ]
!613 = metadata !{null, metadata !607, metadata !161}
!614 = metadata !{i32 786478, i32 0, metadata !591, metadata !"ap_int_base", metadata !"ap_int_base", metadata !"", metadata !113, i32 1462, metadata !615, i1 false, i1 false, i32 0, i32 0, null, i32 384, i1 false, null, null, i32 0, metadata !125, i32 1462} ; [ DW_TAG_subprogram ]
!615 = metadata !{i32 786453, i32 0, metadata !"", i32 0, i32 0, i64 0, i64 0, i64 0, i32 0, null, metadata !616, i32 0, i32 0} ; [ DW_TAG_subroutine_type ]
!616 = metadata !{null, metadata !607, metadata !165}
!617 = metadata !{i32 786478, i32 0, metadata !591, metadata !"ap_int_base", metadata !"ap_int_base", metadata !"", metadata !113, i32 1463, metadata !618, i1 false, i1 false, i32 0, i32 0, null, i32 384, i1 false, null, null, i32 0, metadata !125, i32 1463} ; [ DW_TAG_subprogram ]
!618 = metadata !{i32 786453, i32 0, metadata !"", i32 0, i32 0, i64 0, i64 0, i64 0, i32 0, null, metadata !619, i32 0, i32 0} ; [ DW_TAG_subroutine_type ]
!619 = metadata !{null, metadata !607, metadata !169}
!620 = metadata !{i32 786478, i32 0, metadata !591, metadata !"ap_int_base", metadata !"ap_int_base", metadata !"", metadata !113, i32 1464, metadata !621, i1 false, i1 false, i32 0, i32 0, null, i32 384, i1 false, null, null, i32 0, metadata !125, i32 1464} ; [ DW_TAG_subprogram ]
!621 = metadata !{i32 786453, i32 0, metadata !"", i32 0, i32 0, i64 0, i64 0, i64 0, i32 0, null, metadata !622, i32 0, i32 0} ; [ DW_TAG_subroutine_type ]
!622 = metadata !{null, metadata !607, metadata !173}
!623 = metadata !{i32 786478, i32 0, metadata !591, metadata !"ap_int_base", metadata !"ap_int_base", metadata !"", metadata !113, i32 1465, metadata !624, i1 false, i1 false, i32 0, i32 0, null, i32 384, i1 false, null, null, i32 0, metadata !125, i32 1465} ; [ DW_TAG_subprogram ]
!624 = metadata !{i32 786453, i32 0, metadata !"", i32 0, i32 0, i64 0, i64 0, i64 0, i32 0, null, metadata !625, i32 0, i32 0} ; [ DW_TAG_subroutine_type ]
!625 = metadata !{null, metadata !607, metadata !134}
!626 = metadata !{i32 786478, i32 0, metadata !591, metadata !"ap_int_base", metadata !"ap_int_base", metadata !"", metadata !113, i32 1466, metadata !627, i1 false, i1 false, i32 0, i32 0, null, i32 384, i1 false, null, null, i32 0, metadata !125, i32 1466} ; [ DW_TAG_subprogram ]
!627 = metadata !{i32 786453, i32 0, metadata !"", i32 0, i32 0, i64 0, i64 0, i64 0, i32 0, null, metadata !628, i32 0, i32 0} ; [ DW_TAG_subroutine_type ]
!628 = metadata !{null, metadata !607, metadata !180}
!629 = metadata !{i32 786478, i32 0, metadata !591, metadata !"ap_int_base", metadata !"ap_int_base", metadata !"", metadata !113, i32 1467, metadata !630, i1 false, i1 false, i32 0, i32 0, null, i32 384, i1 false, null, null, i32 0, metadata !125, i32 1467} ; [ DW_TAG_subprogram ]
!630 = metadata !{i32 786453, i32 0, metadata !"", i32 0, i32 0, i64 0, i64 0, i64 0, i32 0, null, metadata !631, i32 0, i32 0} ; [ DW_TAG_subroutine_type ]
!631 = metadata !{null, metadata !607, metadata !184}
!632 = metadata !{i32 786478, i32 0, metadata !591, metadata !"ap_int_base", metadata !"ap_int_base", metadata !"", metadata !113, i32 1468, metadata !633, i1 false, i1 false, i32 0, i32 0, null, i32 384, i1 false, null, null, i32 0, metadata !125, i32 1468} ; [ DW_TAG_subprogram ]
!633 = metadata !{i32 786453, i32 0, metadata !"", i32 0, i32 0, i64 0, i64 0, i64 0, i32 0, null, metadata !634, i32 0, i32 0} ; [ DW_TAG_subroutine_type ]
!634 = metadata !{null, metadata !607, metadata !188}
!635 = metadata !{i32 786478, i32 0, metadata !591, metadata !"ap_int_base", metadata !"ap_int_base", metadata !"", metadata !113, i32 1469, metadata !636, i1 false, i1 false, i32 0, i32 0, null, i32 384, i1 false, null, null, i32 0, metadata !125, i32 1469} ; [ DW_TAG_subprogram ]
!636 = metadata !{i32 786453, i32 0, metadata !"", i32 0, i32 0, i64 0, i64 0, i64 0, i32 0, null, metadata !637, i32 0, i32 0} ; [ DW_TAG_subroutine_type ]
!637 = metadata !{null, metadata !607, metadata !192}
!638 = metadata !{i32 786478, i32 0, metadata !591, metadata !"ap_int_base", metadata !"ap_int_base", metadata !"", metadata !113, i32 1470, metadata !639, i1 false, i1 false, i32 0, i32 0, null, i32 384, i1 false, null, null, i32 0, metadata !125, i32 1470} ; [ DW_TAG_subprogram ]
!639 = metadata !{i32 786453, i32 0, metadata !"", i32 0, i32 0, i64 0, i64 0, i64 0, i32 0, null, metadata !640, i32 0, i32 0} ; [ DW_TAG_subroutine_type ]
!640 = metadata !{null, metadata !607, metadata !197}
!641 = metadata !{i32 786478, i32 0, metadata !591, metadata !"ap_int_base", metadata !"ap_int_base", metadata !"", metadata !113, i32 1471, metadata !642, i1 false, i1 false, i32 0, i32 0, null, i32 384, i1 false, null, null, i32 0, metadata !125, i32 1471} ; [ DW_TAG_subprogram ]
!642 = metadata !{i32 786453, i32 0, metadata !"", i32 0, i32 0, i64 0, i64 0, i64 0, i32 0, null, metadata !643, i32 0, i32 0} ; [ DW_TAG_subroutine_type ]
!643 = metadata !{null, metadata !607, metadata !202}
!644 = metadata !{i32 786478, i32 0, metadata !591, metadata !"ap_int_base", metadata !"ap_int_base", metadata !"", metadata !113, i32 1472, metadata !645, i1 false, i1 false, i32 0, i32 0, null, i32 384, i1 false, null, null, i32 0, metadata !125, i32 1472} ; [ DW_TAG_subprogram ]
!645 = metadata !{i32 786453, i32 0, metadata !"", i32 0, i32 0, i64 0, i64 0, i64 0, i32 0, null, metadata !646, i32 0, i32 0} ; [ DW_TAG_subroutine_type ]
!646 = metadata !{null, metadata !607, metadata !206}
!647 = metadata !{i32 786478, i32 0, metadata !591, metadata !"ap_int_base", metadata !"ap_int_base", metadata !"", metadata !113, i32 1499, metadata !648, i1 false, i1 false, i32 0, i32 0, null, i32 256, i1 false, null, null, i32 0, metadata !125, i32 1499} ; [ DW_TAG_subprogram ]
!648 = metadata !{i32 786453, i32 0, metadata !"", i32 0, i32 0, i64 0, i64 0, i64 0, i32 0, null, metadata !649, i32 0, i32 0} ; [ DW_TAG_subroutine_type ]
!649 = metadata !{null, metadata !607, metadata !210}
!650 = metadata !{i32 786478, i32 0, metadata !591, metadata !"ap_int_base", metadata !"ap_int_base", metadata !"", metadata !113, i32 1506, metadata !651, i1 false, i1 false, i32 0, i32 0, null, i32 256, i1 false, null, null, i32 0, metadata !125, i32 1506} ; [ DW_TAG_subprogram ]
!651 = metadata !{i32 786453, i32 0, metadata !"", i32 0, i32 0, i64 0, i64 0, i64 0, i32 0, null, metadata !652, i32 0, i32 0} ; [ DW_TAG_subroutine_type ]
!652 = metadata !{null, metadata !607, metadata !210, metadata !161}
!653 = metadata !{i32 786478, i32 0, metadata !591, metadata !"read", metadata !"read", metadata !"_ZNV11ap_int_baseILi17ELb1ELb1EE4readEv", metadata !113, i32 1527, metadata !654, i1 false, i1 false, i32 0, i32 0, null, i32 256, i1 false, null, null, i32 0, metadata !125, i32 1527} ; [ DW_TAG_subprogram ]
!654 = metadata !{i32 786453, i32 0, metadata !"", i32 0, i32 0, i64 0, i64 0, i64 0, i32 0, null, metadata !655, i32 0, i32 0} ; [ DW_TAG_subroutine_type ]
!655 = metadata !{metadata !591, metadata !656}
!656 = metadata !{i32 786447, i32 0, metadata !"", i32 0, i32 0, i64 64, i64 64, i64 0, i32 64, metadata !657} ; [ DW_TAG_pointer_type ]
!657 = metadata !{i32 786485, null, metadata !"", null, i32 0, i64 0, i64 0, i64 0, i32 0, metadata !591} ; [ DW_TAG_volatile_type ]
!658 = metadata !{i32 786478, i32 0, metadata !591, metadata !"write", metadata !"write", metadata !"_ZNV11ap_int_baseILi17ELb1ELb1EE5writeERKS0_", metadata !113, i32 1533, metadata !659, i1 false, i1 false, i32 0, i32 0, null, i32 256, i1 false, null, null, i32 0, metadata !125, i32 1533} ; [ DW_TAG_subprogram ]
!659 = metadata !{i32 786453, i32 0, metadata !"", i32 0, i32 0, i64 0, i64 0, i64 0, i32 0, null, metadata !660, i32 0, i32 0} ; [ DW_TAG_subroutine_type ]
!660 = metadata !{null, metadata !656, metadata !661}
!661 = metadata !{i32 786448, null, null, null, i32 0, i64 0, i64 0, i64 0, i32 0, metadata !662} ; [ DW_TAG_reference_type ]
!662 = metadata !{i32 786470, null, metadata !"", null, i32 0, i64 0, i64 0, i64 0, i32 0, metadata !591} ; [ DW_TAG_const_type ]
!663 = metadata !{i32 786478, i32 0, metadata !591, metadata !"operator=", metadata !"operator=", metadata !"_ZNV11ap_int_baseILi17ELb1ELb1EEaSERVKS0_", metadata !113, i32 1545, metadata !664, i1 false, i1 false, i32 0, i32 0, null, i32 256, i1 false, null, null, i32 0, metadata !125, i32 1545} ; [ DW_TAG_subprogram ]
!664 = metadata !{i32 786453, i32 0, metadata !"", i32 0, i32 0, i64 0, i64 0, i64 0, i32 0, null, metadata !665, i32 0, i32 0} ; [ DW_TAG_subroutine_type ]
!665 = metadata !{null, metadata !656, metadata !666}
!666 = metadata !{i32 786448, null, null, null, i32 0, i64 0, i64 0, i64 0, i32 0, metadata !667} ; [ DW_TAG_reference_type ]
!667 = metadata !{i32 786470, null, metadata !"", null, i32 0, i64 0, i64 0, i64 0, i32 0, metadata !657} ; [ DW_TAG_const_type ]
!668 = metadata !{i32 786478, i32 0, metadata !591, metadata !"operator=", metadata !"operator=", metadata !"_ZNV11ap_int_baseILi17ELb1ELb1EEaSERKS0_", metadata !113, i32 1554, metadata !659, i1 false, i1 false, i32 0, i32 0, null, i32 256, i1 false, null, null, i32 0, metadata !125, i32 1554} ; [ DW_TAG_subprogram ]
!669 = metadata !{i32 786478, i32 0, metadata !591, metadata !"operator=", metadata !"operator=", metadata !"_ZN11ap_int_baseILi17ELb1ELb1EEaSERVKS0_", metadata !113, i32 1577, metadata !670, i1 false, i1 false, i32 0, i32 0, null, i32 256, i1 false, null, null, i32 0, metadata !125, i32 1577} ; [ DW_TAG_subprogram ]
!670 = metadata !{i32 786453, i32 0, metadata !"", i32 0, i32 0, i64 0, i64 0, i64 0, i32 0, null, metadata !671, i32 0, i32 0} ; [ DW_TAG_subroutine_type ]
!671 = metadata !{metadata !672, metadata !607, metadata !666}
!672 = metadata !{i32 786448, null, null, null, i32 0, i64 0, i64 0, i64 0, i32 0, metadata !591} ; [ DW_TAG_reference_type ]
!673 = metadata !{i32 786478, i32 0, metadata !591, metadata !"operator=", metadata !"operator=", metadata !"_ZN11ap_int_baseILi17ELb1ELb1EEaSERKS0_", metadata !113, i32 1582, metadata !674, i1 false, i1 false, i32 0, i32 0, null, i32 256, i1 false, null, null, i32 0, metadata !125, i32 1582} ; [ DW_TAG_subprogram ]
!674 = metadata !{i32 786453, i32 0, metadata !"", i32 0, i32 0, i64 0, i64 0, i64 0, i32 0, null, metadata !675, i32 0, i32 0} ; [ DW_TAG_subroutine_type ]
!675 = metadata !{metadata !672, metadata !607, metadata !661}
!676 = metadata !{i32 786478, i32 0, metadata !591, metadata !"operator=", metadata !"operator=", metadata !"_ZN11ap_int_baseILi17ELb1ELb1EEaSEPKc", metadata !113, i32 1586, metadata !677, i1 false, i1 false, i32 0, i32 0, null, i32 256, i1 false, null, null, i32 0, metadata !125, i32 1586} ; [ DW_TAG_subprogram ]
!677 = metadata !{i32 786453, i32 0, metadata !"", i32 0, i32 0, i64 0, i64 0, i64 0, i32 0, null, metadata !678, i32 0, i32 0} ; [ DW_TAG_subroutine_type ]
!678 = metadata !{metadata !672, metadata !607, metadata !210}
!679 = metadata !{i32 786478, i32 0, metadata !591, metadata !"set", metadata !"set", metadata !"_ZN11ap_int_baseILi17ELb1ELb1EE3setEPKca", metadata !113, i32 1594, metadata !680, i1 false, i1 false, i32 0, i32 0, null, i32 256, i1 false, null, null, i32 0, metadata !125, i32 1594} ; [ DW_TAG_subprogram ]
!680 = metadata !{i32 786453, i32 0, metadata !"", i32 0, i32 0, i64 0, i64 0, i64 0, i32 0, null, metadata !681, i32 0, i32 0} ; [ DW_TAG_subroutine_type ]
!681 = metadata !{metadata !672, metadata !607, metadata !210, metadata !161}
!682 = metadata !{i32 786478, i32 0, metadata !591, metadata !"operator=", metadata !"operator=", metadata !"_ZN11ap_int_baseILi17ELb1ELb1EEaSEa", metadata !113, i32 1608, metadata !683, i1 false, i1 false, i32 0, i32 0, null, i32 256, i1 false, null, null, i32 0, metadata !125, i32 1608} ; [ DW_TAG_subprogram ]
!683 = metadata !{i32 786453, i32 0, metadata !"", i32 0, i32 0, i64 0, i64 0, i64 0, i32 0, null, metadata !684, i32 0, i32 0} ; [ DW_TAG_subroutine_type ]
!684 = metadata !{metadata !672, metadata !607, metadata !161}
!685 = metadata !{i32 786478, i32 0, metadata !591, metadata !"operator=", metadata !"operator=", metadata !"_ZN11ap_int_baseILi17ELb1ELb1EEaSEh", metadata !113, i32 1609, metadata !686, i1 false, i1 false, i32 0, i32 0, null, i32 256, i1 false, null, null, i32 0, metadata !125, i32 1609} ; [ DW_TAG_subprogram ]
!686 = metadata !{i32 786453, i32 0, metadata !"", i32 0, i32 0, i64 0, i64 0, i64 0, i32 0, null, metadata !687, i32 0, i32 0} ; [ DW_TAG_subroutine_type ]
!687 = metadata !{metadata !672, metadata !607, metadata !165}
!688 = metadata !{i32 786478, i32 0, metadata !591, metadata !"operator=", metadata !"operator=", metadata !"_ZN11ap_int_baseILi17ELb1ELb1EEaSEs", metadata !113, i32 1610, metadata !689, i1 false, i1 false, i32 0, i32 0, null, i32 256, i1 false, null, null, i32 0, metadata !125, i32 1610} ; [ DW_TAG_subprogram ]
!689 = metadata !{i32 786453, i32 0, metadata !"", i32 0, i32 0, i64 0, i64 0, i64 0, i32 0, null, metadata !690, i32 0, i32 0} ; [ DW_TAG_subroutine_type ]
!690 = metadata !{metadata !672, metadata !607, metadata !169}
!691 = metadata !{i32 786478, i32 0, metadata !591, metadata !"operator=", metadata !"operator=", metadata !"_ZN11ap_int_baseILi17ELb1ELb1EEaSEt", metadata !113, i32 1611, metadata !692, i1 false, i1 false, i32 0, i32 0, null, i32 256, i1 false, null, null, i32 0, metadata !125, i32 1611} ; [ DW_TAG_subprogram ]
!692 = metadata !{i32 786453, i32 0, metadata !"", i32 0, i32 0, i64 0, i64 0, i64 0, i32 0, null, metadata !693, i32 0, i32 0} ; [ DW_TAG_subroutine_type ]
!693 = metadata !{metadata !672, metadata !607, metadata !173}
!694 = metadata !{i32 786478, i32 0, metadata !591, metadata !"operator=", metadata !"operator=", metadata !"_ZN11ap_int_baseILi17ELb1ELb1EEaSEi", metadata !113, i32 1612, metadata !695, i1 false, i1 false, i32 0, i32 0, null, i32 256, i1 false, null, null, i32 0, metadata !125, i32 1612} ; [ DW_TAG_subprogram ]
!695 = metadata !{i32 786453, i32 0, metadata !"", i32 0, i32 0, i64 0, i64 0, i64 0, i32 0, null, metadata !696, i32 0, i32 0} ; [ DW_TAG_subroutine_type ]
!696 = metadata !{metadata !672, metadata !607, metadata !134}
!697 = metadata !{i32 786478, i32 0, metadata !591, metadata !"operator=", metadata !"operator=", metadata !"_ZN11ap_int_baseILi17ELb1ELb1EEaSEj", metadata !113, i32 1613, metadata !698, i1 false, i1 false, i32 0, i32 0, null, i32 256, i1 false, null, null, i32 0, metadata !125, i32 1613} ; [ DW_TAG_subprogram ]
!698 = metadata !{i32 786453, i32 0, metadata !"", i32 0, i32 0, i64 0, i64 0, i64 0, i32 0, null, metadata !699, i32 0, i32 0} ; [ DW_TAG_subroutine_type ]
!699 = metadata !{metadata !672, metadata !607, metadata !180}
!700 = metadata !{i32 786478, i32 0, metadata !591, metadata !"operator=", metadata !"operator=", metadata !"_ZN11ap_int_baseILi17ELb1ELb1EEaSEx", metadata !113, i32 1614, metadata !701, i1 false, i1 false, i32 0, i32 0, null, i32 256, i1 false, null, null, i32 0, metadata !125, i32 1614} ; [ DW_TAG_subprogram ]
!701 = metadata !{i32 786453, i32 0, metadata !"", i32 0, i32 0, i64 0, i64 0, i64 0, i32 0, null, metadata !702, i32 0, i32 0} ; [ DW_TAG_subroutine_type ]
!702 = metadata !{metadata !672, metadata !607, metadata !192}
!703 = metadata !{i32 786478, i32 0, metadata !591, metadata !"operator=", metadata !"operator=", metadata !"_ZN11ap_int_baseILi17ELb1ELb1EEaSEy", metadata !113, i32 1615, metadata !704, i1 false, i1 false, i32 0, i32 0, null, i32 256, i1 false, null, null, i32 0, metadata !125, i32 1615} ; [ DW_TAG_subprogram ]
!704 = metadata !{i32 786453, i32 0, metadata !"", i32 0, i32 0, i64 0, i64 0, i64 0, i32 0, null, metadata !705, i32 0, i32 0} ; [ DW_TAG_subroutine_type ]
!705 = metadata !{metadata !672, metadata !607, metadata !197}
!706 = metadata !{i32 786478, i32 0, metadata !591, metadata !"operator int", metadata !"operator int", metadata !"_ZNK11ap_int_baseILi17ELb1ELb1EEcviEv", metadata !113, i32 1653, metadata !707, i1 false, i1 false, i32 0, i32 0, null, i32 256, i1 false, null, null, i32 0, metadata !125, i32 1653} ; [ DW_TAG_subprogram ]
!707 = metadata !{i32 786453, i32 0, metadata !"", i32 0, i32 0, i64 0, i64 0, i64 0, i32 0, null, metadata !708, i32 0, i32 0} ; [ DW_TAG_subroutine_type ]
!708 = metadata !{metadata !709, metadata !714}
!709 = metadata !{i32 786454, metadata !591, metadata !"RetType", metadata !113, i32 1402, i64 0, i64 0, i64 0, i32 0, metadata !710} ; [ DW_TAG_typedef ]
!710 = metadata !{i32 786454, metadata !711, metadata !"Type", metadata !113, i32 1379, i64 0, i64 0, i64 0, i32 0, metadata !134} ; [ DW_TAG_typedef ]
!711 = metadata !{i32 786434, null, metadata !"retval<3, true>", metadata !113, i32 1378, i64 8, i64 8, i32 0, i32 0, null, metadata !270, i32 0, null, metadata !712} ; [ DW_TAG_class_type ]
!712 = metadata !{metadata !713, metadata !135}
!713 = metadata !{i32 786480, null, metadata !"_AP_N", metadata !134, i64 3, null, i32 0, i32 0} ; [ DW_TAG_template_value_parameter ]
!714 = metadata !{i32 786447, i32 0, metadata !"", i32 0, i32 0, i64 64, i64 64, i64 0, i32 64, metadata !662} ; [ DW_TAG_pointer_type ]
!715 = metadata !{i32 786478, i32 0, metadata !591, metadata !"to_bool", metadata !"to_bool", metadata !"_ZNK11ap_int_baseILi17ELb1ELb1EE7to_boolEv", metadata !113, i32 1659, metadata !716, i1 false, i1 false, i32 0, i32 0, null, i32 256, i1 false, null, null, i32 0, metadata !125, i32 1659} ; [ DW_TAG_subprogram ]
!716 = metadata !{i32 786453, i32 0, metadata !"", i32 0, i32 0, i64 0, i64 0, i64 0, i32 0, null, metadata !717, i32 0, i32 0} ; [ DW_TAG_subroutine_type ]
!717 = metadata !{metadata !136, metadata !714}
!718 = metadata !{i32 786478, i32 0, metadata !591, metadata !"to_uchar", metadata !"to_uchar", metadata !"_ZNK11ap_int_baseILi17ELb1ELb1EE8to_ucharEv", metadata !113, i32 1660, metadata !719, i1 false, i1 false, i32 0, i32 0, null, i32 256, i1 false, null, null, i32 0, metadata !125, i32 1660} ; [ DW_TAG_subprogram ]
!719 = metadata !{i32 786453, i32 0, metadata !"", i32 0, i32 0, i64 0, i64 0, i64 0, i32 0, null, metadata !720, i32 0, i32 0} ; [ DW_TAG_subroutine_type ]
!720 = metadata !{metadata !165, metadata !714}
!721 = metadata !{i32 786478, i32 0, metadata !591, metadata !"to_char", metadata !"to_char", metadata !"_ZNK11ap_int_baseILi17ELb1ELb1EE7to_charEv", metadata !113, i32 1661, metadata !722, i1 false, i1 false, i32 0, i32 0, null, i32 256, i1 false, null, null, i32 0, metadata !125, i32 1661} ; [ DW_TAG_subprogram ]
!722 = metadata !{i32 786453, i32 0, metadata !"", i32 0, i32 0, i64 0, i64 0, i64 0, i32 0, null, metadata !723, i32 0, i32 0} ; [ DW_TAG_subroutine_type ]
!723 = metadata !{metadata !161, metadata !714}
!724 = metadata !{i32 786478, i32 0, metadata !591, metadata !"to_ushort", metadata !"to_ushort", metadata !"_ZNK11ap_int_baseILi17ELb1ELb1EE9to_ushortEv", metadata !113, i32 1662, metadata !725, i1 false, i1 false, i32 0, i32 0, null, i32 256, i1 false, null, null, i32 0, metadata !125, i32 1662} ; [ DW_TAG_subprogram ]
!725 = metadata !{i32 786453, i32 0, metadata !"", i32 0, i32 0, i64 0, i64 0, i64 0, i32 0, null, metadata !726, i32 0, i32 0} ; [ DW_TAG_subroutine_type ]
!726 = metadata !{metadata !173, metadata !714}
!727 = metadata !{i32 786478, i32 0, metadata !591, metadata !"to_short", metadata !"to_short", metadata !"_ZNK11ap_int_baseILi17ELb1ELb1EE8to_shortEv", metadata !113, i32 1663, metadata !728, i1 false, i1 false, i32 0, i32 0, null, i32 256, i1 false, null, null, i32 0, metadata !125, i32 1663} ; [ DW_TAG_subprogram ]
!728 = metadata !{i32 786453, i32 0, metadata !"", i32 0, i32 0, i64 0, i64 0, i64 0, i32 0, null, metadata !729, i32 0, i32 0} ; [ DW_TAG_subroutine_type ]
!729 = metadata !{metadata !169, metadata !714}
!730 = metadata !{i32 786478, i32 0, metadata !591, metadata !"to_int", metadata !"to_int", metadata !"_ZNK11ap_int_baseILi17ELb1ELb1EE6to_intEv", metadata !113, i32 1664, metadata !731, i1 false, i1 false, i32 0, i32 0, null, i32 256, i1 false, null, null, i32 0, metadata !125, i32 1664} ; [ DW_TAG_subprogram ]
!731 = metadata !{i32 786453, i32 0, metadata !"", i32 0, i32 0, i64 0, i64 0, i64 0, i32 0, null, metadata !732, i32 0, i32 0} ; [ DW_TAG_subroutine_type ]
!732 = metadata !{metadata !134, metadata !714}
!733 = metadata !{i32 786478, i32 0, metadata !591, metadata !"to_uint", metadata !"to_uint", metadata !"_ZNK11ap_int_baseILi17ELb1ELb1EE7to_uintEv", metadata !113, i32 1665, metadata !734, i1 false, i1 false, i32 0, i32 0, null, i32 256, i1 false, null, null, i32 0, metadata !125, i32 1665} ; [ DW_TAG_subprogram ]
!734 = metadata !{i32 786453, i32 0, metadata !"", i32 0, i32 0, i64 0, i64 0, i64 0, i32 0, null, metadata !735, i32 0, i32 0} ; [ DW_TAG_subroutine_type ]
!735 = metadata !{metadata !180, metadata !714}
!736 = metadata !{i32 786478, i32 0, metadata !591, metadata !"to_long", metadata !"to_long", metadata !"_ZNK11ap_int_baseILi17ELb1ELb1EE7to_longEv", metadata !113, i32 1666, metadata !737, i1 false, i1 false, i32 0, i32 0, null, i32 256, i1 false, null, null, i32 0, metadata !125, i32 1666} ; [ DW_TAG_subprogram ]
!737 = metadata !{i32 786453, i32 0, metadata !"", i32 0, i32 0, i64 0, i64 0, i64 0, i32 0, null, metadata !738, i32 0, i32 0} ; [ DW_TAG_subroutine_type ]
!738 = metadata !{metadata !184, metadata !714}
!739 = metadata !{i32 786478, i32 0, metadata !591, metadata !"to_ulong", metadata !"to_ulong", metadata !"_ZNK11ap_int_baseILi17ELb1ELb1EE8to_ulongEv", metadata !113, i32 1667, metadata !740, i1 false, i1 false, i32 0, i32 0, null, i32 256, i1 false, null, null, i32 0, metadata !125, i32 1667} ; [ DW_TAG_subprogram ]
!740 = metadata !{i32 786453, i32 0, metadata !"", i32 0, i32 0, i64 0, i64 0, i64 0, i32 0, null, metadata !741, i32 0, i32 0} ; [ DW_TAG_subroutine_type ]
!741 = metadata !{metadata !188, metadata !714}
!742 = metadata !{i32 786478, i32 0, metadata !591, metadata !"to_int64", metadata !"to_int64", metadata !"_ZNK11ap_int_baseILi17ELb1ELb1EE8to_int64Ev", metadata !113, i32 1668, metadata !743, i1 false, i1 false, i32 0, i32 0, null, i32 256, i1 false, null, null, i32 0, metadata !125, i32 1668} ; [ DW_TAG_subprogram ]
!743 = metadata !{i32 786453, i32 0, metadata !"", i32 0, i32 0, i64 0, i64 0, i64 0, i32 0, null, metadata !744, i32 0, i32 0} ; [ DW_TAG_subroutine_type ]
!744 = metadata !{metadata !192, metadata !714}
!745 = metadata !{i32 786478, i32 0, metadata !591, metadata !"to_uint64", metadata !"to_uint64", metadata !"_ZNK11ap_int_baseILi17ELb1ELb1EE9to_uint64Ev", metadata !113, i32 1669, metadata !746, i1 false, i1 false, i32 0, i32 0, null, i32 256, i1 false, null, null, i32 0, metadata !125, i32 1669} ; [ DW_TAG_subprogram ]
!746 = metadata !{i32 786453, i32 0, metadata !"", i32 0, i32 0, i64 0, i64 0, i64 0, i32 0, null, metadata !747, i32 0, i32 0} ; [ DW_TAG_subroutine_type ]
!747 = metadata !{metadata !197, metadata !714}
!748 = metadata !{i32 786478, i32 0, metadata !591, metadata !"to_double", metadata !"to_double", metadata !"_ZNK11ap_int_baseILi17ELb1ELb1EE9to_doubleEv", metadata !113, i32 1670, metadata !749, i1 false, i1 false, i32 0, i32 0, null, i32 256, i1 false, null, null, i32 0, metadata !125, i32 1670} ; [ DW_TAG_subprogram ]
!749 = metadata !{i32 786453, i32 0, metadata !"", i32 0, i32 0, i64 0, i64 0, i64 0, i32 0, null, metadata !750, i32 0, i32 0} ; [ DW_TAG_subroutine_type ]
!750 = metadata !{metadata !206, metadata !714}
!751 = metadata !{i32 786478, i32 0, metadata !591, metadata !"length", metadata !"length", metadata !"_ZNK11ap_int_baseILi17ELb1ELb1EE6lengthEv", metadata !113, i32 1684, metadata !731, i1 false, i1 false, i32 0, i32 0, null, i32 256, i1 false, null, null, i32 0, metadata !125, i32 1684} ; [ DW_TAG_subprogram ]
!752 = metadata !{i32 786478, i32 0, metadata !591, metadata !"length", metadata !"length", metadata !"_ZNVK11ap_int_baseILi17ELb1ELb1EE6lengthEv", metadata !113, i32 1685, metadata !753, i1 false, i1 false, i32 0, i32 0, null, i32 256, i1 false, null, null, i32 0, metadata !125, i32 1685} ; [ DW_TAG_subprogram ]
!753 = metadata !{i32 786453, i32 0, metadata !"", i32 0, i32 0, i64 0, i64 0, i64 0, i32 0, null, metadata !754, i32 0, i32 0} ; [ DW_TAG_subroutine_type ]
!754 = metadata !{metadata !134, metadata !755}
!755 = metadata !{i32 786447, i32 0, metadata !"", i32 0, i32 0, i64 64, i64 64, i64 0, i32 64, metadata !667} ; [ DW_TAG_pointer_type ]
!756 = metadata !{i32 786478, i32 0, metadata !591, metadata !"reverse", metadata !"reverse", metadata !"_ZN11ap_int_baseILi17ELb1ELb1EE7reverseEv", metadata !113, i32 1690, metadata !757, i1 false, i1 false, i32 0, i32 0, null, i32 256, i1 false, null, null, i32 0, metadata !125, i32 1690} ; [ DW_TAG_subprogram ]
!757 = metadata !{i32 786453, i32 0, metadata !"", i32 0, i32 0, i64 0, i64 0, i64 0, i32 0, null, metadata !758, i32 0, i32 0} ; [ DW_TAG_subroutine_type ]
!758 = metadata !{metadata !672, metadata !607}
!759 = metadata !{i32 786478, i32 0, metadata !591, metadata !"iszero", metadata !"iszero", metadata !"_ZNK11ap_int_baseILi17ELb1ELb1EE6iszeroEv", metadata !113, i32 1696, metadata !716, i1 false, i1 false, i32 0, i32 0, null, i32 256, i1 false, null, null, i32 0, metadata !125, i32 1696} ; [ DW_TAG_subprogram ]
!760 = metadata !{i32 786478, i32 0, metadata !591, metadata !"is_zero", metadata !"is_zero", metadata !"_ZNK11ap_int_baseILi17ELb1ELb1EE7is_zeroEv", metadata !113, i32 1701, metadata !716, i1 false, i1 false, i32 0, i32 0, null, i32 256, i1 false, null, null, i32 0, metadata !125, i32 1701} ; [ DW_TAG_subprogram ]
!761 = metadata !{i32 786478, i32 0, metadata !591, metadata !"sign", metadata !"sign", metadata !"_ZNK11ap_int_baseILi17ELb1ELb1EE4signEv", metadata !113, i32 1706, metadata !716, i1 false, i1 false, i32 0, i32 0, null, i32 256, i1 false, null, null, i32 0, metadata !125, i32 1706} ; [ DW_TAG_subprogram ]
!762 = metadata !{i32 786478, i32 0, metadata !591, metadata !"clear", metadata !"clear", metadata !"_ZN11ap_int_baseILi17ELb1ELb1EE5clearEi", metadata !113, i32 1714, metadata !624, i1 false, i1 false, i32 0, i32 0, null, i32 256, i1 false, null, null, i32 0, metadata !125, i32 1714} ; [ DW_TAG_subprogram ]
!763 = metadata !{i32 786478, i32 0, metadata !591, metadata !"invert", metadata !"invert", metadata !"_ZN11ap_int_baseILi17ELb1ELb1EE6invertEi", metadata !113, i32 1720, metadata !624, i1 false, i1 false, i32 0, i32 0, null, i32 256, i1 false, null, null, i32 0, metadata !125, i32 1720} ; [ DW_TAG_subprogram ]
!764 = metadata !{i32 786478, i32 0, metadata !591, metadata !"test", metadata !"test", metadata !"_ZNK11ap_int_baseILi17ELb1ELb1EE4testEi", metadata !113, i32 1728, metadata !765, i1 false, i1 false, i32 0, i32 0, null, i32 256, i1 false, null, null, i32 0, metadata !125, i32 1728} ; [ DW_TAG_subprogram ]
!765 = metadata !{i32 786453, i32 0, metadata !"", i32 0, i32 0, i64 0, i64 0, i64 0, i32 0, null, metadata !766, i32 0, i32 0} ; [ DW_TAG_subroutine_type ]
!766 = metadata !{metadata !136, metadata !714, metadata !134}
!767 = metadata !{i32 786478, i32 0, metadata !591, metadata !"set", metadata !"set", metadata !"_ZN11ap_int_baseILi17ELb1ELb1EE3setEi", metadata !113, i32 1734, metadata !624, i1 false, i1 false, i32 0, i32 0, null, i32 256, i1 false, null, null, i32 0, metadata !125, i32 1734} ; [ DW_TAG_subprogram ]
!768 = metadata !{i32 786478, i32 0, metadata !591, metadata !"set", metadata !"set", metadata !"_ZN11ap_int_baseILi17ELb1ELb1EE3setEib", metadata !113, i32 1740, metadata !769, i1 false, i1 false, i32 0, i32 0, null, i32 256, i1 false, null, null, i32 0, metadata !125, i32 1740} ; [ DW_TAG_subprogram ]
!769 = metadata !{i32 786453, i32 0, metadata !"", i32 0, i32 0, i64 0, i64 0, i64 0, i32 0, null, metadata !770, i32 0, i32 0} ; [ DW_TAG_subroutine_type ]
!770 = metadata !{null, metadata !607, metadata !134, metadata !136}
!771 = metadata !{i32 786478, i32 0, metadata !591, metadata !"lrotate", metadata !"lrotate", metadata !"_ZN11ap_int_baseILi17ELb1ELb1EE7lrotateEi", metadata !113, i32 1747, metadata !624, i1 false, i1 false, i32 0, i32 0, null, i32 256, i1 false, null, null, i32 0, metadata !125, i32 1747} ; [ DW_TAG_subprogram ]
!772 = metadata !{i32 786478, i32 0, metadata !591, metadata !"rrotate", metadata !"rrotate", metadata !"_ZN11ap_int_baseILi17ELb1ELb1EE7rrotateEi", metadata !113, i32 1756, metadata !624, i1 false, i1 false, i32 0, i32 0, null, i32 256, i1 false, null, null, i32 0, metadata !125, i32 1756} ; [ DW_TAG_subprogram ]
!773 = metadata !{i32 786478, i32 0, metadata !591, metadata !"set_bit", metadata !"set_bit", metadata !"_ZN11ap_int_baseILi17ELb1ELb1EE7set_bitEib", metadata !113, i32 1764, metadata !769, i1 false, i1 false, i32 0, i32 0, null, i32 256, i1 false, null, null, i32 0, metadata !125, i32 1764} ; [ DW_TAG_subprogram ]
!774 = metadata !{i32 786478, i32 0, metadata !591, metadata !"get_bit", metadata !"get_bit", metadata !"_ZNK11ap_int_baseILi17ELb1ELb1EE7get_bitEi", metadata !113, i32 1769, metadata !765, i1 false, i1 false, i32 0, i32 0, null, i32 256, i1 false, null, null, i32 0, metadata !125, i32 1769} ; [ DW_TAG_subprogram ]
!775 = metadata !{i32 786478, i32 0, metadata !591, metadata !"b_not", metadata !"b_not", metadata !"_ZN11ap_int_baseILi17ELb1ELb1EE5b_notEv", metadata !113, i32 1774, metadata !605, i1 false, i1 false, i32 0, i32 0, null, i32 256, i1 false, null, null, i32 0, metadata !125, i32 1774} ; [ DW_TAG_subprogram ]
!776 = metadata !{i32 786478, i32 0, metadata !591, metadata !"countLeadingZeros", metadata !"countLeadingZeros", metadata !"_ZN11ap_int_baseILi17ELb1ELb1EE17countLeadingZerosEv", metadata !113, i32 1781, metadata !777, i1 false, i1 false, i32 0, i32 0, null, i32 256, i1 false, null, null, i32 0, metadata !125, i32 1781} ; [ DW_TAG_subprogram ]
!777 = metadata !{i32 786453, i32 0, metadata !"", i32 0, i32 0, i64 0, i64 0, i64 0, i32 0, null, metadata !778, i32 0, i32 0} ; [ DW_TAG_subroutine_type ]
!778 = metadata !{metadata !134, metadata !607}
!779 = metadata !{i32 786478, i32 0, metadata !591, metadata !"operator++", metadata !"operator++", metadata !"_ZN11ap_int_baseILi17ELb1ELb1EEppEv", metadata !113, i32 1838, metadata !757, i1 false, i1 false, i32 0, i32 0, null, i32 256, i1 false, null, null, i32 0, metadata !125, i32 1838} ; [ DW_TAG_subprogram ]
!780 = metadata !{i32 786478, i32 0, metadata !591, metadata !"operator--", metadata !"operator--", metadata !"_ZN11ap_int_baseILi17ELb1ELb1EEmmEv", metadata !113, i32 1842, metadata !757, i1 false, i1 false, i32 0, i32 0, null, i32 256, i1 false, null, null, i32 0, metadata !125, i32 1842} ; [ DW_TAG_subprogram ]
!781 = metadata !{i32 786478, i32 0, metadata !591, metadata !"operator++", metadata !"operator++", metadata !"_ZN11ap_int_baseILi17ELb1ELb1EEppEi", metadata !113, i32 1850, metadata !782, i1 false, i1 false, i32 0, i32 0, null, i32 256, i1 false, null, null, i32 0, metadata !125, i32 1850} ; [ DW_TAG_subprogram ]
!782 = metadata !{i32 786453, i32 0, metadata !"", i32 0, i32 0, i64 0, i64 0, i64 0, i32 0, null, metadata !783, i32 0, i32 0} ; [ DW_TAG_subroutine_type ]
!783 = metadata !{metadata !662, metadata !607, metadata !134}
!784 = metadata !{i32 786478, i32 0, metadata !591, metadata !"operator--", metadata !"operator--", metadata !"_ZN11ap_int_baseILi17ELb1ELb1EEmmEi", metadata !113, i32 1855, metadata !782, i1 false, i1 false, i32 0, i32 0, null, i32 256, i1 false, null, null, i32 0, metadata !125, i32 1855} ; [ DW_TAG_subprogram ]
!785 = metadata !{i32 786478, i32 0, metadata !591, metadata !"operator+", metadata !"operator+", metadata !"_ZNK11ap_int_baseILi17ELb1ELb1EEpsEv", metadata !113, i32 1864, metadata !786, i1 false, i1 false, i32 0, i32 0, null, i32 256, i1 false, null, null, i32 0, metadata !125, i32 1864} ; [ DW_TAG_subprogram ]
!786 = metadata !{i32 786453, i32 0, metadata !"", i32 0, i32 0, i64 0, i64 0, i64 0, i32 0, null, metadata !787, i32 0, i32 0} ; [ DW_TAG_subroutine_type ]
!787 = metadata !{metadata !591, metadata !714}
!788 = metadata !{i32 786478, i32 0, metadata !591, metadata !"operator!", metadata !"operator!", metadata !"_ZNK11ap_int_baseILi17ELb1ELb1EEntEv", metadata !113, i32 1870, metadata !716, i1 false, i1 false, i32 0, i32 0, null, i32 256, i1 false, null, null, i32 0, metadata !125, i32 1870} ; [ DW_TAG_subprogram ]
!789 = metadata !{i32 786478, i32 0, metadata !591, metadata !"operator-", metadata !"operator-", metadata !"_ZNK11ap_int_baseILi17ELb1ELb1EEngEv", metadata !113, i32 1875, metadata !790, i1 false, i1 false, i32 0, i32 0, null, i32 256, i1 false, null, null, i32 0, metadata !125, i32 1875} ; [ DW_TAG_subprogram ]
!790 = metadata !{i32 786453, i32 0, metadata !"", i32 0, i32 0, i64 0, i64 0, i64 0, i32 0, null, metadata !791, i32 0, i32 0} ; [ DW_TAG_subroutine_type ]
!791 = metadata !{metadata !792, metadata !714}
!792 = metadata !{i32 786434, null, metadata !"ap_int_base<18, true, true>", metadata !113, i32 650, i32 0, i32 0, i32 0, i32 4, null, null, i32 0} ; [ DW_TAG_class_type ]
!793 = metadata !{i32 786478, i32 0, metadata !591, metadata !"range", metadata !"range", metadata !"_ZN11ap_int_baseILi17ELb1ELb1EE5rangeEii", metadata !113, i32 2005, metadata !794, i1 false, i1 false, i32 0, i32 0, null, i32 256, i1 false, null, null, i32 0, metadata !125, i32 2005} ; [ DW_TAG_subprogram ]
!794 = metadata !{i32 786453, i32 0, metadata !"", i32 0, i32 0, i64 0, i64 0, i64 0, i32 0, null, metadata !795, i32 0, i32 0} ; [ DW_TAG_subroutine_type ]
!795 = metadata !{metadata !796, metadata !607, metadata !134, metadata !134}
!796 = metadata !{i32 786434, null, metadata !"ap_range_ref<17, true>", metadata !113, i32 923, i32 0, i32 0, i32 0, i32 4, null, null, i32 0} ; [ DW_TAG_class_type ]
!797 = metadata !{i32 786478, i32 0, metadata !591, metadata !"operator()", metadata !"operator()", metadata !"_ZN11ap_int_baseILi17ELb1ELb1EEclEii", metadata !113, i32 2011, metadata !794, i1 false, i1 false, i32 0, i32 0, null, i32 256, i1 false, null, null, i32 0, metadata !125, i32 2011} ; [ DW_TAG_subprogram ]
!798 = metadata !{i32 786478, i32 0, metadata !591, metadata !"range", metadata !"range", metadata !"_ZNK11ap_int_baseILi17ELb1ELb1EE5rangeEii", metadata !113, i32 2017, metadata !799, i1 false, i1 false, i32 0, i32 0, null, i32 256, i1 false, null, null, i32 0, metadata !125, i32 2017} ; [ DW_TAG_subprogram ]
!799 = metadata !{i32 786453, i32 0, metadata !"", i32 0, i32 0, i64 0, i64 0, i64 0, i32 0, null, metadata !800, i32 0, i32 0} ; [ DW_TAG_subroutine_type ]
!800 = metadata !{metadata !796, metadata !714, metadata !134, metadata !134}
!801 = metadata !{i32 786478, i32 0, metadata !591, metadata !"operator()", metadata !"operator()", metadata !"_ZNK11ap_int_baseILi17ELb1ELb1EEclEii", metadata !113, i32 2023, metadata !799, i1 false, i1 false, i32 0, i32 0, null, i32 256, i1 false, null, null, i32 0, metadata !125, i32 2023} ; [ DW_TAG_subprogram ]
!802 = metadata !{i32 786478, i32 0, metadata !591, metadata !"operator[]", metadata !"operator[]", metadata !"_ZN11ap_int_baseILi17ELb1ELb1EEixEi", metadata !113, i32 2042, metadata !803, i1 false, i1 false, i32 0, i32 0, null, i32 256, i1 false, null, null, i32 0, metadata !125, i32 2042} ; [ DW_TAG_subprogram ]
!803 = metadata !{i32 786453, i32 0, metadata !"", i32 0, i32 0, i64 0, i64 0, i64 0, i32 0, null, metadata !804, i32 0, i32 0} ; [ DW_TAG_subroutine_type ]
!804 = metadata !{metadata !805, metadata !607, metadata !134}
!805 = metadata !{i32 786434, null, metadata !"ap_bit_ref<17, true>", metadata !113, i32 1193, i64 128, i64 64, i32 0, i32 0, null, metadata !806, i32 0, null, metadata !839} ; [ DW_TAG_class_type ]
!806 = metadata !{metadata !807, metadata !808, metadata !809, metadata !815, metadata !819, metadata !823, metadata !824, metadata !828, metadata !831, metadata !832, metadata !835, metadata !836}
!807 = metadata !{i32 786445, metadata !805, metadata !"d_bv", metadata !113, i32 1194, i64 64, i64 64, i64 0, i32 0, metadata !672} ; [ DW_TAG_member ]
!808 = metadata !{i32 786445, metadata !805, metadata !"d_index", metadata !113, i32 1195, i64 32, i64 32, i64 64, i32 0, metadata !134} ; [ DW_TAG_member ]
!809 = metadata !{i32 786478, i32 0, metadata !805, metadata !"ap_bit_ref", metadata !"ap_bit_ref", metadata !"", metadata !113, i32 1198, metadata !810, i1 false, i1 false, i32 0, i32 0, null, i32 256, i1 false, null, null, i32 0, metadata !125, i32 1198} ; [ DW_TAG_subprogram ]
!810 = metadata !{i32 786453, i32 0, metadata !"", i32 0, i32 0, i64 0, i64 0, i64 0, i32 0, null, metadata !811, i32 0, i32 0} ; [ DW_TAG_subroutine_type ]
!811 = metadata !{null, metadata !812, metadata !813}
!812 = metadata !{i32 786447, i32 0, metadata !"", i32 0, i32 0, i64 64, i64 64, i64 0, i32 64, metadata !805} ; [ DW_TAG_pointer_type ]
!813 = metadata !{i32 786448, null, null, null, i32 0, i64 0, i64 0, i64 0, i32 0, metadata !814} ; [ DW_TAG_reference_type ]
!814 = metadata !{i32 786470, null, metadata !"", null, i32 0, i64 0, i64 0, i64 0, i32 0, metadata !805} ; [ DW_TAG_const_type ]
!815 = metadata !{i32 786478, i32 0, metadata !805, metadata !"ap_bit_ref", metadata !"ap_bit_ref", metadata !"", metadata !113, i32 1201, metadata !816, i1 false, i1 false, i32 0, i32 0, null, i32 256, i1 false, null, null, i32 0, metadata !125, i32 1201} ; [ DW_TAG_subprogram ]
!816 = metadata !{i32 786453, i32 0, metadata !"", i32 0, i32 0, i64 0, i64 0, i64 0, i32 0, null, metadata !817, i32 0, i32 0} ; [ DW_TAG_subroutine_type ]
!817 = metadata !{null, metadata !812, metadata !818, metadata !134}
!818 = metadata !{i32 786447, null, metadata !"", null, i32 0, i64 64, i64 64, i64 0, i32 0, metadata !591} ; [ DW_TAG_pointer_type ]
!819 = metadata !{i32 786478, i32 0, metadata !805, metadata !"operator _Bool", metadata !"operator _Bool", metadata !"_ZNK10ap_bit_refILi17ELb1EEcvbEv", metadata !113, i32 1203, metadata !820, i1 false, i1 false, i32 0, i32 0, null, i32 256, i1 false, null, null, i32 0, metadata !125, i32 1203} ; [ DW_TAG_subprogram ]
!820 = metadata !{i32 786453, i32 0, metadata !"", i32 0, i32 0, i64 0, i64 0, i64 0, i32 0, null, metadata !821, i32 0, i32 0} ; [ DW_TAG_subroutine_type ]
!821 = metadata !{metadata !136, metadata !822}
!822 = metadata !{i32 786447, i32 0, metadata !"", i32 0, i32 0, i64 64, i64 64, i64 0, i32 64, metadata !814} ; [ DW_TAG_pointer_type ]
!823 = metadata !{i32 786478, i32 0, metadata !805, metadata !"to_bool", metadata !"to_bool", metadata !"_ZNK10ap_bit_refILi17ELb1EE7to_boolEv", metadata !113, i32 1204, metadata !820, i1 false, i1 false, i32 0, i32 0, null, i32 256, i1 false, null, null, i32 0, metadata !125, i32 1204} ; [ DW_TAG_subprogram ]
!824 = metadata !{i32 786478, i32 0, metadata !805, metadata !"operator=", metadata !"operator=", metadata !"_ZN10ap_bit_refILi17ELb1EEaSEy", metadata !113, i32 1206, metadata !825, i1 false, i1 false, i32 0, i32 0, null, i32 256, i1 false, null, null, i32 0, metadata !125, i32 1206} ; [ DW_TAG_subprogram ]
!825 = metadata !{i32 786453, i32 0, metadata !"", i32 0, i32 0, i64 0, i64 0, i64 0, i32 0, null, metadata !826, i32 0, i32 0} ; [ DW_TAG_subroutine_type ]
!826 = metadata !{metadata !827, metadata !812, metadata !198}
!827 = metadata !{i32 786448, null, null, null, i32 0, i64 0, i64 0, i64 0, i32 0, metadata !805} ; [ DW_TAG_reference_type ]
!828 = metadata !{i32 786478, i32 0, metadata !805, metadata !"operator=", metadata !"operator=", metadata !"_ZN10ap_bit_refILi17ELb1EEaSERKS0_", metadata !113, i32 1226, metadata !829, i1 false, i1 false, i32 0, i32 0, null, i32 256, i1 false, null, null, i32 0, metadata !125, i32 1226} ; [ DW_TAG_subprogram ]
!829 = metadata !{i32 786453, i32 0, metadata !"", i32 0, i32 0, i64 0, i64 0, i64 0, i32 0, null, metadata !830, i32 0, i32 0} ; [ DW_TAG_subroutine_type ]
!830 = metadata !{metadata !827, metadata !812, metadata !813}
!831 = metadata !{i32 786478, i32 0, metadata !805, metadata !"get", metadata !"get", metadata !"_ZNK10ap_bit_refILi17ELb1EE3getEv", metadata !113, i32 1334, metadata !820, i1 false, i1 false, i32 0, i32 0, null, i32 256, i1 false, null, null, i32 0, metadata !125, i32 1334} ; [ DW_TAG_subprogram ]
!832 = metadata !{i32 786478, i32 0, metadata !805, metadata !"get", metadata !"get", metadata !"_ZN10ap_bit_refILi17ELb1EE3getEv", metadata !113, i32 1338, metadata !833, i1 false, i1 false, i32 0, i32 0, null, i32 256, i1 false, null, null, i32 0, metadata !125, i32 1338} ; [ DW_TAG_subprogram ]
!833 = metadata !{i32 786453, i32 0, metadata !"", i32 0, i32 0, i64 0, i64 0, i64 0, i32 0, null, metadata !834, i32 0, i32 0} ; [ DW_TAG_subroutine_type ]
!834 = metadata !{metadata !136, metadata !812}
!835 = metadata !{i32 786478, i32 0, metadata !805, metadata !"operator~", metadata !"operator~", metadata !"_ZNK10ap_bit_refILi17ELb1EEcoEv", metadata !113, i32 1347, metadata !820, i1 false, i1 false, i32 0, i32 0, null, i32 256, i1 false, null, null, i32 0, metadata !125, i32 1347} ; [ DW_TAG_subprogram ]
!836 = metadata !{i32 786478, i32 0, metadata !805, metadata !"length", metadata !"length", metadata !"_ZNK10ap_bit_refILi17ELb1EE6lengthEv", metadata !113, i32 1352, metadata !837, i1 false, i1 false, i32 0, i32 0, null, i32 256, i1 false, null, null, i32 0, metadata !125, i32 1352} ; [ DW_TAG_subprogram ]
!837 = metadata !{i32 786453, i32 0, metadata !"", i32 0, i32 0, i64 0, i64 0, i64 0, i32 0, null, metadata !838, i32 0, i32 0} ; [ DW_TAG_subroutine_type ]
!838 = metadata !{metadata !134, metadata !822}
!839 = metadata !{metadata !840, metadata !135}
!840 = metadata !{i32 786480, null, metadata !"_AP_W", metadata !134, i64 17, null, i32 0, i32 0} ; [ DW_TAG_template_value_parameter ]
!841 = metadata !{i32 786478, i32 0, metadata !591, metadata !"operator[]", metadata !"operator[]", metadata !"_ZNK11ap_int_baseILi17ELb1ELb1EEixEi", metadata !113, i32 2056, metadata !765, i1 false, i1 false, i32 0, i32 0, null, i32 256, i1 false, null, null, i32 0, metadata !125, i32 2056} ; [ DW_TAG_subprogram ]
!842 = metadata !{i32 786478, i32 0, metadata !591, metadata !"bit", metadata !"bit", metadata !"_ZN11ap_int_baseILi17ELb1ELb1EE3bitEi", metadata !113, i32 2070, metadata !803, i1 false, i1 false, i32 0, i32 0, null, i32 256, i1 false, null, null, i32 0, metadata !125, i32 2070} ; [ DW_TAG_subprogram ]
!843 = metadata !{i32 786478, i32 0, metadata !591, metadata !"bit", metadata !"bit", metadata !"_ZNK11ap_int_baseILi17ELb1ELb1EE3bitEi", metadata !113, i32 2084, metadata !765, i1 false, i1 false, i32 0, i32 0, null, i32 256, i1 false, null, null, i32 0, metadata !125, i32 2084} ; [ DW_TAG_subprogram ]
!844 = metadata !{i32 786478, i32 0, metadata !591, metadata !"and_reduce", metadata !"and_reduce", metadata !"_ZN11ap_int_baseILi17ELb1ELb1EE10and_reduceEv", metadata !113, i32 2264, metadata !845, i1 false, i1 false, i32 0, i32 0, null, i32 256, i1 false, null, null, i32 0, metadata !125, i32 2264} ; [ DW_TAG_subprogram ]
!845 = metadata !{i32 786453, i32 0, metadata !"", i32 0, i32 0, i64 0, i64 0, i64 0, i32 0, null, metadata !846, i32 0, i32 0} ; [ DW_TAG_subroutine_type ]
!846 = metadata !{metadata !136, metadata !607}
!847 = metadata !{i32 786478, i32 0, metadata !591, metadata !"nand_reduce", metadata !"nand_reduce", metadata !"_ZN11ap_int_baseILi17ELb1ELb1EE11nand_reduceEv", metadata !113, i32 2267, metadata !845, i1 false, i1 false, i32 0, i32 0, null, i32 256, i1 false, null, null, i32 0, metadata !125, i32 2267} ; [ DW_TAG_subprogram ]
!848 = metadata !{i32 786478, i32 0, metadata !591, metadata !"or_reduce", metadata !"or_reduce", metadata !"_ZN11ap_int_baseILi17ELb1ELb1EE9or_reduceEv", metadata !113, i32 2270, metadata !845, i1 false, i1 false, i32 0, i32 0, null, i32 256, i1 false, null, null, i32 0, metadata !125, i32 2270} ; [ DW_TAG_subprogram ]
!849 = metadata !{i32 786478, i32 0, metadata !591, metadata !"nor_reduce", metadata !"nor_reduce", metadata !"_ZN11ap_int_baseILi17ELb1ELb1EE10nor_reduceEv", metadata !113, i32 2273, metadata !845, i1 false, i1 false, i32 0, i32 0, null, i32 256, i1 false, null, null, i32 0, metadata !125, i32 2273} ; [ DW_TAG_subprogram ]
!850 = metadata !{i32 786478, i32 0, metadata !591, metadata !"xor_reduce", metadata !"xor_reduce", metadata !"_ZN11ap_int_baseILi17ELb1ELb1EE10xor_reduceEv", metadata !113, i32 2276, metadata !845, i1 false, i1 false, i32 0, i32 0, null, i32 256, i1 false, null, null, i32 0, metadata !125, i32 2276} ; [ DW_TAG_subprogram ]
!851 = metadata !{i32 786478, i32 0, metadata !591, metadata !"xnor_reduce", metadata !"xnor_reduce", metadata !"_ZN11ap_int_baseILi17ELb1ELb1EE11xnor_reduceEv", metadata !113, i32 2279, metadata !845, i1 false, i1 false, i32 0, i32 0, null, i32 256, i1 false, null, null, i32 0, metadata !125, i32 2279} ; [ DW_TAG_subprogram ]
!852 = metadata !{i32 786478, i32 0, metadata !591, metadata !"and_reduce", metadata !"and_reduce", metadata !"_ZNK11ap_int_baseILi17ELb1ELb1EE10and_reduceEv", metadata !113, i32 2283, metadata !716, i1 false, i1 false, i32 0, i32 0, null, i32 256, i1 false, null, null, i32 0, metadata !125, i32 2283} ; [ DW_TAG_subprogram ]
!853 = metadata !{i32 786478, i32 0, metadata !591, metadata !"nand_reduce", metadata !"nand_reduce", metadata !"_ZNK11ap_int_baseILi17ELb1ELb1EE11nand_reduceEv", metadata !113, i32 2286, metadata !716, i1 false, i1 false, i32 0, i32 0, null, i32 256, i1 false, null, null, i32 0, metadata !125, i32 2286} ; [ DW_TAG_subprogram ]
!854 = metadata !{i32 786478, i32 0, metadata !591, metadata !"or_reduce", metadata !"or_reduce", metadata !"_ZNK11ap_int_baseILi17ELb1ELb1EE9or_reduceEv", metadata !113, i32 2289, metadata !716, i1 false, i1 false, i32 0, i32 0, null, i32 256, i1 false, null, null, i32 0, metadata !125, i32 2289} ; [ DW_TAG_subprogram ]
!855 = metadata !{i32 786478, i32 0, metadata !591, metadata !"nor_reduce", metadata !"nor_reduce", metadata !"_ZNK11ap_int_baseILi17ELb1ELb1EE10nor_reduceEv", metadata !113, i32 2292, metadata !716, i1 false, i1 false, i32 0, i32 0, null, i32 256, i1 false, null, null, i32 0, metadata !125, i32 2292} ; [ DW_TAG_subprogram ]
!856 = metadata !{i32 786478, i32 0, metadata !591, metadata !"xor_reduce", metadata !"xor_reduce", metadata !"_ZNK11ap_int_baseILi17ELb1ELb1EE10xor_reduceEv", metadata !113, i32 2295, metadata !716, i1 false, i1 false, i32 0, i32 0, null, i32 256, i1 false, null, null, i32 0, metadata !125, i32 2295} ; [ DW_TAG_subprogram ]
!857 = metadata !{i32 786478, i32 0, metadata !591, metadata !"xnor_reduce", metadata !"xnor_reduce", metadata !"_ZNK11ap_int_baseILi17ELb1ELb1EE11xnor_reduceEv", metadata !113, i32 2298, metadata !716, i1 false, i1 false, i32 0, i32 0, null, i32 256, i1 false, null, null, i32 0, metadata !125, i32 2298} ; [ DW_TAG_subprogram ]
!858 = metadata !{i32 786478, i32 0, metadata !591, metadata !"to_string", metadata !"to_string", metadata !"_ZNK11ap_int_baseILi17ELb1ELb1EE9to_stringEPci8BaseModeb", metadata !113, i32 2305, metadata !859, i1 false, i1 false, i32 0, i32 0, null, i32 256, i1 false, null, null, i32 0, metadata !125, i32 2305} ; [ DW_TAG_subprogram ]
!859 = metadata !{i32 786453, i32 0, metadata !"", i32 0, i32 0, i64 0, i64 0, i64 0, i32 0, null, metadata !860, i32 0, i32 0} ; [ DW_TAG_subroutine_type ]
!860 = metadata !{null, metadata !714, metadata !861, metadata !134, metadata !862, metadata !136}
!861 = metadata !{i32 786447, null, metadata !"", null, i32 0, i64 64, i64 64, i64 0, i32 0, metadata !212} ; [ DW_TAG_pointer_type ]
!862 = metadata !{i32 786436, null, metadata !"BaseMode", metadata !113, i32 602, i64 5, i64 8, i32 0, i32 0, null, metadata !863, i32 0, i32 0} ; [ DW_TAG_enumeration_type ]
!863 = metadata !{metadata !864, metadata !865, metadata !866, metadata !867}
!864 = metadata !{i32 786472, metadata !"SC_BIN", i64 2} ; [ DW_TAG_enumerator ]
!865 = metadata !{i32 786472, metadata !"SC_OCT", i64 8} ; [ DW_TAG_enumerator ]
!866 = metadata !{i32 786472, metadata !"SC_DEC", i64 10} ; [ DW_TAG_enumerator ]
!867 = metadata !{i32 786472, metadata !"SC_HEX", i64 16} ; [ DW_TAG_enumerator ]
!868 = metadata !{i32 786478, i32 0, metadata !591, metadata !"to_string", metadata !"to_string", metadata !"_ZNK11ap_int_baseILi17ELb1ELb1EE9to_stringE8BaseModeb", metadata !113, i32 2332, metadata !869, i1 false, i1 false, i32 0, i32 0, null, i32 256, i1 false, null, null, i32 0, metadata !125, i32 2332} ; [ DW_TAG_subprogram ]
!869 = metadata !{i32 786453, i32 0, metadata !"", i32 0, i32 0, i64 0, i64 0, i64 0, i32 0, null, metadata !870, i32 0, i32 0} ; [ DW_TAG_subroutine_type ]
!870 = metadata !{metadata !861, metadata !714, metadata !862, metadata !136}
!871 = metadata !{i32 786478, i32 0, metadata !591, metadata !"to_string", metadata !"to_string", metadata !"_ZNK11ap_int_baseILi17ELb1ELb1EE9to_stringEab", metadata !113, i32 2336, metadata !872, i1 false, i1 false, i32 0, i32 0, null, i32 256, i1 false, null, null, i32 0, metadata !125, i32 2336} ; [ DW_TAG_subprogram ]
!872 = metadata !{i32 786453, i32 0, metadata !"", i32 0, i32 0, i64 0, i64 0, i64 0, i32 0, null, metadata !873, i32 0, i32 0} ; [ DW_TAG_subroutine_type ]
!873 = metadata !{metadata !861, metadata !714, metadata !161, metadata !136}
!874 = metadata !{metadata !840, metadata !135, metadata !875}
!875 = metadata !{i32 786480, null, metadata !"_AP_C", metadata !136, i64 1, null, i32 0, i32 0} ; [ DW_TAG_template_value_parameter ]
!876 = metadata !{i32 786478, i32 0, metadata !376, metadata !"range", metadata !"range", metadata !"_ZN11ap_int_baseILi16ELb0ELb1EE5rangeEii", metadata !113, i32 2005, metadata !877, i1 false, i1 false, i32 0, i32 0, null, i32 256, i1 false, null, null, i32 0, metadata !125, i32 2005} ; [ DW_TAG_subprogram ]
!877 = metadata !{i32 786453, i32 0, metadata !"", i32 0, i32 0, i64 0, i64 0, i64 0, i32 0, null, metadata !878, i32 0, i32 0} ; [ DW_TAG_subroutine_type ]
!878 = metadata !{metadata !879, metadata !398, metadata !134, metadata !134}
!879 = metadata !{i32 786434, null, metadata !"ap_range_ref<16, false>", metadata !113, i32 923, i32 0, i32 0, i32 0, i32 4, null, null, i32 0} ; [ DW_TAG_class_type ]
!880 = metadata !{i32 786478, i32 0, metadata !376, metadata !"operator()", metadata !"operator()", metadata !"_ZN11ap_int_baseILi16ELb0ELb1EEclEii", metadata !113, i32 2011, metadata !877, i1 false, i1 false, i32 0, i32 0, null, i32 256, i1 false, null, null, i32 0, metadata !125, i32 2011} ; [ DW_TAG_subprogram ]
!881 = metadata !{i32 786478, i32 0, metadata !376, metadata !"range", metadata !"range", metadata !"_ZNK11ap_int_baseILi16ELb0ELb1EE5rangeEii", metadata !113, i32 2017, metadata !882, i1 false, i1 false, i32 0, i32 0, null, i32 256, i1 false, null, null, i32 0, metadata !125, i32 2017} ; [ DW_TAG_subprogram ]
!882 = metadata !{i32 786453, i32 0, metadata !"", i32 0, i32 0, i64 0, i64 0, i64 0, i32 0, null, metadata !883, i32 0, i32 0} ; [ DW_TAG_subroutine_type ]
!883 = metadata !{metadata !879, metadata !513, metadata !134, metadata !134}
!884 = metadata !{i32 786478, i32 0, metadata !376, metadata !"operator()", metadata !"operator()", metadata !"_ZNK11ap_int_baseILi16ELb0ELb1EEclEii", metadata !113, i32 2023, metadata !882, i1 false, i1 false, i32 0, i32 0, null, i32 256, i1 false, null, null, i32 0, metadata !125, i32 2023} ; [ DW_TAG_subprogram ]
!885 = metadata !{i32 786478, i32 0, metadata !376, metadata !"operator[]", metadata !"operator[]", metadata !"_ZN11ap_int_baseILi16ELb0ELb1EEixEi", metadata !113, i32 2042, metadata !886, i1 false, i1 false, i32 0, i32 0, null, i32 256, i1 false, null, null, i32 0, metadata !125, i32 2042} ; [ DW_TAG_subprogram ]
!886 = metadata !{i32 786453, i32 0, metadata !"", i32 0, i32 0, i64 0, i64 0, i64 0, i32 0, null, metadata !887, i32 0, i32 0} ; [ DW_TAG_subroutine_type ]
!887 = metadata !{metadata !888, metadata !398, metadata !134}
!888 = metadata !{i32 786434, null, metadata !"ap_bit_ref<16, false>", metadata !113, i32 1193, i32 0, i32 0, i32 0, i32 4, null, null, i32 0} ; [ DW_TAG_class_type ]
!889 = metadata !{i32 786478, i32 0, metadata !376, metadata !"operator[]", metadata !"operator[]", metadata !"_ZNK11ap_int_baseILi16ELb0ELb1EEixEi", metadata !113, i32 2056, metadata !564, i1 false, i1 false, i32 0, i32 0, null, i32 256, i1 false, null, null, i32 0, metadata !125, i32 2056} ; [ DW_TAG_subprogram ]
!890 = metadata !{i32 786478, i32 0, metadata !376, metadata !"bit", metadata !"bit", metadata !"_ZN11ap_int_baseILi16ELb0ELb1EE3bitEi", metadata !113, i32 2070, metadata !886, i1 false, i1 false, i32 0, i32 0, null, i32 256, i1 false, null, null, i32 0, metadata !125, i32 2070} ; [ DW_TAG_subprogram ]
!891 = metadata !{i32 786478, i32 0, metadata !376, metadata !"bit", metadata !"bit", metadata !"_ZNK11ap_int_baseILi16ELb0ELb1EE3bitEi", metadata !113, i32 2084, metadata !564, i1 false, i1 false, i32 0, i32 0, null, i32 256, i1 false, null, null, i32 0, metadata !125, i32 2084} ; [ DW_TAG_subprogram ]
!892 = metadata !{i32 786478, i32 0, metadata !376, metadata !"and_reduce", metadata !"and_reduce", metadata !"_ZN11ap_int_baseILi16ELb0ELb1EE10and_reduceEv", metadata !113, i32 2264, metadata !893, i1 false, i1 false, i32 0, i32 0, null, i32 256, i1 false, null, null, i32 0, metadata !125, i32 2264} ; [ DW_TAG_subprogram ]
!893 = metadata !{i32 786453, i32 0, metadata !"", i32 0, i32 0, i64 0, i64 0, i64 0, i32 0, null, metadata !894, i32 0, i32 0} ; [ DW_TAG_subroutine_type ]
!894 = metadata !{metadata !136, metadata !398}
!895 = metadata !{i32 786478, i32 0, metadata !376, metadata !"nand_reduce", metadata !"nand_reduce", metadata !"_ZN11ap_int_baseILi16ELb0ELb1EE11nand_reduceEv", metadata !113, i32 2267, metadata !893, i1 false, i1 false, i32 0, i32 0, null, i32 256, i1 false, null, null, i32 0, metadata !125, i32 2267} ; [ DW_TAG_subprogram ]
!896 = metadata !{i32 786478, i32 0, metadata !376, metadata !"or_reduce", metadata !"or_reduce", metadata !"_ZN11ap_int_baseILi16ELb0ELb1EE9or_reduceEv", metadata !113, i32 2270, metadata !893, i1 false, i1 false, i32 0, i32 0, null, i32 256, i1 false, null, null, i32 0, metadata !125, i32 2270} ; [ DW_TAG_subprogram ]
!897 = metadata !{i32 786478, i32 0, metadata !376, metadata !"nor_reduce", metadata !"nor_reduce", metadata !"_ZN11ap_int_baseILi16ELb0ELb1EE10nor_reduceEv", metadata !113, i32 2273, metadata !893, i1 false, i1 false, i32 0, i32 0, null, i32 256, i1 false, null, null, i32 0, metadata !125, i32 2273} ; [ DW_TAG_subprogram ]
!898 = metadata !{i32 786478, i32 0, metadata !376, metadata !"xor_reduce", metadata !"xor_reduce", metadata !"_ZN11ap_int_baseILi16ELb0ELb1EE10xor_reduceEv", metadata !113, i32 2276, metadata !893, i1 false, i1 false, i32 0, i32 0, null, i32 256, i1 false, null, null, i32 0, metadata !125, i32 2276} ; [ DW_TAG_subprogram ]
!899 = metadata !{i32 786478, i32 0, metadata !376, metadata !"xnor_reduce", metadata !"xnor_reduce", metadata !"_ZN11ap_int_baseILi16ELb0ELb1EE11xnor_reduceEv", metadata !113, i32 2279, metadata !893, i1 false, i1 false, i32 0, i32 0, null, i32 256, i1 false, null, null, i32 0, metadata !125, i32 2279} ; [ DW_TAG_subprogram ]
!900 = metadata !{i32 786478, i32 0, metadata !376, metadata !"and_reduce", metadata !"and_reduce", metadata !"_ZNK11ap_int_baseILi16ELb0ELb1EE10and_reduceEv", metadata !113, i32 2283, metadata !515, i1 false, i1 false, i32 0, i32 0, null, i32 256, i1 false, null, null, i32 0, metadata !125, i32 2283} ; [ DW_TAG_subprogram ]
!901 = metadata !{i32 786478, i32 0, metadata !376, metadata !"nand_reduce", metadata !"nand_reduce", metadata !"_ZNK11ap_int_baseILi16ELb0ELb1EE11nand_reduceEv", metadata !113, i32 2286, metadata !515, i1 false, i1 false, i32 0, i32 0, null, i32 256, i1 false, null, null, i32 0, metadata !125, i32 2286} ; [ DW_TAG_subprogram ]
!902 = metadata !{i32 786478, i32 0, metadata !376, metadata !"or_reduce", metadata !"or_reduce", metadata !"_ZNK11ap_int_baseILi16ELb0ELb1EE9or_reduceEv", metadata !113, i32 2289, metadata !515, i1 false, i1 false, i32 0, i32 0, null, i32 256, i1 false, null, null, i32 0, metadata !125, i32 2289} ; [ DW_TAG_subprogram ]
!903 = metadata !{i32 786478, i32 0, metadata !376, metadata !"nor_reduce", metadata !"nor_reduce", metadata !"_ZNK11ap_int_baseILi16ELb0ELb1EE10nor_reduceEv", metadata !113, i32 2292, metadata !515, i1 false, i1 false, i32 0, i32 0, null, i32 256, i1 false, null, null, i32 0, metadata !125, i32 2292} ; [ DW_TAG_subprogram ]
!904 = metadata !{i32 786478, i32 0, metadata !376, metadata !"xor_reduce", metadata !"xor_reduce", metadata !"_ZNK11ap_int_baseILi16ELb0ELb1EE10xor_reduceEv", metadata !113, i32 2295, metadata !515, i1 false, i1 false, i32 0, i32 0, null, i32 256, i1 false, null, null, i32 0, metadata !125, i32 2295} ; [ DW_TAG_subprogram ]
!905 = metadata !{i32 786478, i32 0, metadata !376, metadata !"xnor_reduce", metadata !"xnor_reduce", metadata !"_ZNK11ap_int_baseILi16ELb0ELb1EE11xnor_reduceEv", metadata !113, i32 2298, metadata !515, i1 false, i1 false, i32 0, i32 0, null, i32 256, i1 false, null, null, i32 0, metadata !125, i32 2298} ; [ DW_TAG_subprogram ]
!906 = metadata !{i32 786478, i32 0, metadata !376, metadata !"to_string", metadata !"to_string", metadata !"_ZNK11ap_int_baseILi16ELb0ELb1EE9to_stringEPci8BaseModeb", metadata !113, i32 2305, metadata !907, i1 false, i1 false, i32 0, i32 0, null, i32 256, i1 false, null, null, i32 0, metadata !125, i32 2305} ; [ DW_TAG_subprogram ]
!907 = metadata !{i32 786453, i32 0, metadata !"", i32 0, i32 0, i64 0, i64 0, i64 0, i32 0, null, metadata !908, i32 0, i32 0} ; [ DW_TAG_subroutine_type ]
!908 = metadata !{null, metadata !513, metadata !861, metadata !134, metadata !862, metadata !136}
!909 = metadata !{i32 786478, i32 0, metadata !376, metadata !"to_string", metadata !"to_string", metadata !"_ZNK11ap_int_baseILi16ELb0ELb1EE9to_stringE8BaseModeb", metadata !113, i32 2332, metadata !910, i1 false, i1 false, i32 0, i32 0, null, i32 256, i1 false, null, null, i32 0, metadata !125, i32 2332} ; [ DW_TAG_subprogram ]
!910 = metadata !{i32 786453, i32 0, metadata !"", i32 0, i32 0, i64 0, i64 0, i64 0, i32 0, null, metadata !911, i32 0, i32 0} ; [ DW_TAG_subroutine_type ]
!911 = metadata !{metadata !861, metadata !513, metadata !862, metadata !136}
!912 = metadata !{i32 786478, i32 0, metadata !376, metadata !"to_string", metadata !"to_string", metadata !"_ZNK11ap_int_baseILi16ELb0ELb1EE9to_stringEab", metadata !113, i32 2336, metadata !913, i1 false, i1 false, i32 0, i32 0, null, i32 256, i1 false, null, null, i32 0, metadata !125, i32 2336} ; [ DW_TAG_subprogram ]
!913 = metadata !{i32 786453, i32 0, metadata !"", i32 0, i32 0, i64 0, i64 0, i64 0, i32 0, null, metadata !914, i32 0, i32 0} ; [ DW_TAG_subroutine_type ]
!914 = metadata !{metadata !861, metadata !513, metadata !161, metadata !136}
!915 = metadata !{i32 786478, i32 0, metadata !376, metadata !"ap_int_base", metadata !"ap_int_base", metadata !"", metadata !113, i32 1397, metadata !400, i1 false, i1 false, i32 0, i32 0, null, i32 320, i1 false, null, null, i32 0, metadata !125, i32 1397} ; [ DW_TAG_subprogram ]
!916 = metadata !{metadata !917, metadata !394, metadata !875}
!917 = metadata !{i32 786480, null, metadata !"_AP_W", metadata !134, i64 16, null, i32 0, i32 0} ; [ DW_TAG_template_value_parameter ]
!918 = metadata !{i32 786478, i32 0, metadata !371, metadata !"ap_concat_ref", metadata !"ap_concat_ref", metadata !"", metadata !113, i32 692, metadata !919, i1 false, i1 false, i32 0, i32 0, null, i32 256, i1 false, null, null, i32 0, metadata !125, i32 692} ; [ DW_TAG_subprogram ]
!919 = metadata !{i32 786453, i32 0, metadata !"", i32 0, i32 0, i64 0, i64 0, i64 0, i32 0, null, metadata !920, i32 0, i32 0} ; [ DW_TAG_subroutine_type ]
!920 = metadata !{null, metadata !921, metadata !922}
!921 = metadata !{i32 786447, i32 0, metadata !"", i32 0, i32 0, i64 64, i64 64, i64 0, i32 64, metadata !371} ; [ DW_TAG_pointer_type ]
!922 = metadata !{i32 786448, null, null, null, i32 0, i64 0, i64 0, i64 0, i32 0, metadata !923} ; [ DW_TAG_reference_type ]
!923 = metadata !{i32 786470, null, metadata !"", null, i32 0, i64 0, i64 0, i64 0, i32 0, metadata !371} ; [ DW_TAG_const_type ]
!924 = metadata !{i32 786478, i32 0, metadata !371, metadata !"ap_concat_ref", metadata !"ap_concat_ref", metadata !"", metadata !113, i32 696, metadata !925, i1 false, i1 false, i32 0, i32 0, null, i32 256, i1 false, null, null, i32 0, metadata !125, i32 696} ; [ DW_TAG_subprogram ]
!925 = metadata !{i32 786453, i32 0, metadata !"", i32 0, i32 0, i64 0, i64 0, i64 0, i32 0, null, metadata !926, i32 0, i32 0} ; [ DW_TAG_subroutine_type ]
!926 = metadata !{null, metadata !921, metadata !230, metadata !375}
!927 = metadata !{i32 786478, i32 0, metadata !371, metadata !"operator=", metadata !"operator=", metadata !"_ZN13ap_concat_refILi48E11ap_int_baseILi48ELb1ELb1EELi16ES0_ILi16ELb0ELb1EEEaSEy", metadata !113, i32 713, metadata !928, i1 false, i1 false, i32 0, i32 0, null, i32 256, i1 false, null, null, i32 0, metadata !125, i32 713} ; [ DW_TAG_subprogram ]
!928 = metadata !{i32 786453, i32 0, metadata !"", i32 0, i32 0, i64 0, i64 0, i64 0, i32 0, null, metadata !929, i32 0, i32 0} ; [ DW_TAG_subroutine_type ]
!929 = metadata !{metadata !930, metadata !921, metadata !198}
!930 = metadata !{i32 786448, null, null, null, i32 0, i64 0, i64 0, i64 0, i32 0, metadata !371} ; [ DW_TAG_reference_type ]
!931 = metadata !{i32 786478, i32 0, metadata !371, metadata !"operator=", metadata !"operator=", metadata !"_ZN13ap_concat_refILi48E11ap_int_baseILi48ELb1ELb1EELi16ES0_ILi16ELb0ELb1EEEaSERKS3_", metadata !113, i32 729, metadata !932, i1 false, i1 false, i32 0, i32 0, null, i32 256, i1 false, null, null, i32 0, metadata !125, i32 729} ; [ DW_TAG_subprogram ]
!932 = metadata !{i32 786453, i32 0, metadata !"", i32 0, i32 0, i64 0, i64 0, i64 0, i32 0, null, metadata !933, i32 0, i32 0} ; [ DW_TAG_subroutine_type ]
!933 = metadata !{metadata !930, metadata !921, metadata !922}
!934 = metadata !{i32 786478, i32 0, metadata !371, metadata !"operator ap_int_base", metadata !"operator ap_int_base", metadata !"_ZNK13ap_concat_refILi48E11ap_int_baseILi48ELb1ELb1EELi16ES0_ILi16ELb0ELb1EEEcvS0_ILi64ELb0ELb1EEEv", metadata !113, i32 764, metadata !935, i1 false, i1 false, i32 0, i32 0, null, i32 256, i1 false, null, null, i32 0, metadata !125, i32 764} ; [ DW_TAG_subprogram ]
!935 = metadata !{i32 786453, i32 0, metadata !"", i32 0, i32 0, i64 0, i64 0, i64 0, i32 0, null, metadata !936, i32 0, i32 0} ; [ DW_TAG_subroutine_type ]
!936 = metadata !{metadata !937, metadata !1481}
!937 = metadata !{i32 786434, null, metadata !"ap_int_base<64, false, true>", metadata !113, i32 1397, i64 64, i64 64, i32 0, i32 0, null, metadata !938, i32 0, null, metadata !1480} ; [ DW_TAG_class_type ]
!938 = metadata !{metadata !939, metadata !950, metadata !954, metadata !957, metadata !960, metadata !963, metadata !966, metadata !969, metadata !972, metadata !975, metadata !978, metadata !981, metadata !984, metadata !987, metadata !990, metadata !993, metadata !996, metadata !999, metadata !1004, metadata !1009, metadata !1014, metadata !1015, metadata !1019, metadata !1022, metadata !1025, metadata !1028, metadata !1031, metadata !1034, metadata !1037, metadata !1040, metadata !1043, metadata !1046, metadata !1049, metadata !1052, metadata !1061, metadata !1064, metadata !1067, metadata !1070, metadata !1073, metadata !1076, metadata !1079, metadata !1082, metadata !1085, metadata !1088, metadata !1091, metadata !1094, metadata !1097, metadata !1098, metadata !1102, metadata !1105, metadata !1106, metadata !1107, metadata !1108, metadata !1109, metadata !1110, metadata !1113, metadata !1114, metadata !1117, metadata !1118, metadata !1119, metadata !1120, metadata !1121, metadata !1122, metadata !1125, metadata !1126, metadata !1127, metadata !1130, metadata !1131, metadata !1134, metadata !1135, metadata !1384, metadata !1445, metadata !1446, metadata !1449, metadata !1450, metadata !1454, metadata !1455, metadata !1456, metadata !1457, metadata !1460, metadata !1461, metadata !1462, metadata !1463, metadata !1464, metadata !1465, metadata !1466, metadata !1467, metadata !1468, metadata !1469, metadata !1470, metadata !1471, metadata !1474, metadata !1477}
!939 = metadata !{i32 786460, metadata !937, null, metadata !113, i32 0, i64 0, i64 0, i64 0, i32 0, metadata !940} ; [ DW_TAG_inheritance ]
!940 = metadata !{i32 786434, null, metadata !"ssdm_int<64 + 1024 * 0, false>", metadata !117, i32 68, i64 64, i64 64, i32 0, i32 0, null, metadata !941, i32 0, null, metadata !948} ; [ DW_TAG_class_type ]
!941 = metadata !{metadata !942, metadata !944}
!942 = metadata !{i32 786445, metadata !940, metadata !"V", metadata !117, i32 68, i64 64, i64 64, i64 0, i32 0, metadata !943} ; [ DW_TAG_member ]
!943 = metadata !{i32 786468, null, metadata !"uint64", null, i32 0, i64 64, i64 64, i64 0, i32 0, i32 7} ; [ DW_TAG_base_type ]
!944 = metadata !{i32 786478, i32 0, metadata !940, metadata !"ssdm_int", metadata !"ssdm_int", metadata !"", metadata !117, i32 68, metadata !945, i1 false, i1 false, i32 0, i32 0, null, i32 256, i1 false, null, null, i32 0, metadata !125, i32 68} ; [ DW_TAG_subprogram ]
!945 = metadata !{i32 786453, i32 0, metadata !"", i32 0, i32 0, i64 0, i64 0, i64 0, i32 0, null, metadata !946, i32 0, i32 0} ; [ DW_TAG_subroutine_type ]
!946 = metadata !{null, metadata !947}
!947 = metadata !{i32 786447, i32 0, metadata !"", i32 0, i32 0, i64 64, i64 64, i64 0, i32 64, metadata !940} ; [ DW_TAG_pointer_type ]
!948 = metadata !{metadata !949, metadata !394}
!949 = metadata !{i32 786480, null, metadata !"_AP_N", metadata !134, i64 64, null, i32 0, i32 0} ; [ DW_TAG_template_value_parameter ]
!950 = metadata !{i32 786478, i32 0, metadata !937, metadata !"ap_int_base", metadata !"ap_int_base", metadata !"", metadata !113, i32 1438, metadata !951, i1 false, i1 false, i32 0, i32 0, null, i32 256, i1 false, null, null, i32 0, metadata !125, i32 1438} ; [ DW_TAG_subprogram ]
!951 = metadata !{i32 786453, i32 0, metadata !"", i32 0, i32 0, i64 0, i64 0, i64 0, i32 0, null, metadata !952, i32 0, i32 0} ; [ DW_TAG_subroutine_type ]
!952 = metadata !{null, metadata !953}
!953 = metadata !{i32 786447, i32 0, metadata !"", i32 0, i32 0, i64 64, i64 64, i64 0, i32 64, metadata !937} ; [ DW_TAG_pointer_type ]
!954 = metadata !{i32 786478, i32 0, metadata !937, metadata !"ap_int_base", metadata !"ap_int_base", metadata !"", metadata !113, i32 1460, metadata !955, i1 false, i1 false, i32 0, i32 0, null, i32 384, i1 false, null, null, i32 0, metadata !125, i32 1460} ; [ DW_TAG_subprogram ]
!955 = metadata !{i32 786453, i32 0, metadata !"", i32 0, i32 0, i64 0, i64 0, i64 0, i32 0, null, metadata !956, i32 0, i32 0} ; [ DW_TAG_subroutine_type ]
!956 = metadata !{null, metadata !953, metadata !136}
!957 = metadata !{i32 786478, i32 0, metadata !937, metadata !"ap_int_base", metadata !"ap_int_base", metadata !"", metadata !113, i32 1461, metadata !958, i1 false, i1 false, i32 0, i32 0, null, i32 384, i1 false, null, null, i32 0, metadata !125, i32 1461} ; [ DW_TAG_subprogram ]
!958 = metadata !{i32 786453, i32 0, metadata !"", i32 0, i32 0, i64 0, i64 0, i64 0, i32 0, null, metadata !959, i32 0, i32 0} ; [ DW_TAG_subroutine_type ]
!959 = metadata !{null, metadata !953, metadata !161}
!960 = metadata !{i32 786478, i32 0, metadata !937, metadata !"ap_int_base", metadata !"ap_int_base", metadata !"", metadata !113, i32 1462, metadata !961, i1 false, i1 false, i32 0, i32 0, null, i32 384, i1 false, null, null, i32 0, metadata !125, i32 1462} ; [ DW_TAG_subprogram ]
!961 = metadata !{i32 786453, i32 0, metadata !"", i32 0, i32 0, i64 0, i64 0, i64 0, i32 0, null, metadata !962, i32 0, i32 0} ; [ DW_TAG_subroutine_type ]
!962 = metadata !{null, metadata !953, metadata !165}
!963 = metadata !{i32 786478, i32 0, metadata !937, metadata !"ap_int_base", metadata !"ap_int_base", metadata !"", metadata !113, i32 1463, metadata !964, i1 false, i1 false, i32 0, i32 0, null, i32 384, i1 false, null, null, i32 0, metadata !125, i32 1463} ; [ DW_TAG_subprogram ]
!964 = metadata !{i32 786453, i32 0, metadata !"", i32 0, i32 0, i64 0, i64 0, i64 0, i32 0, null, metadata !965, i32 0, i32 0} ; [ DW_TAG_subroutine_type ]
!965 = metadata !{null, metadata !953, metadata !169}
!966 = metadata !{i32 786478, i32 0, metadata !937, metadata !"ap_int_base", metadata !"ap_int_base", metadata !"", metadata !113, i32 1464, metadata !967, i1 false, i1 false, i32 0, i32 0, null, i32 384, i1 false, null, null, i32 0, metadata !125, i32 1464} ; [ DW_TAG_subprogram ]
!967 = metadata !{i32 786453, i32 0, metadata !"", i32 0, i32 0, i64 0, i64 0, i64 0, i32 0, null, metadata !968, i32 0, i32 0} ; [ DW_TAG_subroutine_type ]
!968 = metadata !{null, metadata !953, metadata !173}
!969 = metadata !{i32 786478, i32 0, metadata !937, metadata !"ap_int_base", metadata !"ap_int_base", metadata !"", metadata !113, i32 1465, metadata !970, i1 false, i1 false, i32 0, i32 0, null, i32 384, i1 false, null, null, i32 0, metadata !125, i32 1465} ; [ DW_TAG_subprogram ]
!970 = metadata !{i32 786453, i32 0, metadata !"", i32 0, i32 0, i64 0, i64 0, i64 0, i32 0, null, metadata !971, i32 0, i32 0} ; [ DW_TAG_subroutine_type ]
!971 = metadata !{null, metadata !953, metadata !134}
!972 = metadata !{i32 786478, i32 0, metadata !937, metadata !"ap_int_base", metadata !"ap_int_base", metadata !"", metadata !113, i32 1466, metadata !973, i1 false, i1 false, i32 0, i32 0, null, i32 384, i1 false, null, null, i32 0, metadata !125, i32 1466} ; [ DW_TAG_subprogram ]
!973 = metadata !{i32 786453, i32 0, metadata !"", i32 0, i32 0, i64 0, i64 0, i64 0, i32 0, null, metadata !974, i32 0, i32 0} ; [ DW_TAG_subroutine_type ]
!974 = metadata !{null, metadata !953, metadata !180}
!975 = metadata !{i32 786478, i32 0, metadata !937, metadata !"ap_int_base", metadata !"ap_int_base", metadata !"", metadata !113, i32 1467, metadata !976, i1 false, i1 false, i32 0, i32 0, null, i32 384, i1 false, null, null, i32 0, metadata !125, i32 1467} ; [ DW_TAG_subprogram ]
!976 = metadata !{i32 786453, i32 0, metadata !"", i32 0, i32 0, i64 0, i64 0, i64 0, i32 0, null, metadata !977, i32 0, i32 0} ; [ DW_TAG_subroutine_type ]
!977 = metadata !{null, metadata !953, metadata !184}
!978 = metadata !{i32 786478, i32 0, metadata !937, metadata !"ap_int_base", metadata !"ap_int_base", metadata !"", metadata !113, i32 1468, metadata !979, i1 false, i1 false, i32 0, i32 0, null, i32 384, i1 false, null, null, i32 0, metadata !125, i32 1468} ; [ DW_TAG_subprogram ]
!979 = metadata !{i32 786453, i32 0, metadata !"", i32 0, i32 0, i64 0, i64 0, i64 0, i32 0, null, metadata !980, i32 0, i32 0} ; [ DW_TAG_subroutine_type ]
!980 = metadata !{null, metadata !953, metadata !188}
!981 = metadata !{i32 786478, i32 0, metadata !937, metadata !"ap_int_base", metadata !"ap_int_base", metadata !"", metadata !113, i32 1469, metadata !982, i1 false, i1 false, i32 0, i32 0, null, i32 384, i1 false, null, null, i32 0, metadata !125, i32 1469} ; [ DW_TAG_subprogram ]
!982 = metadata !{i32 786453, i32 0, metadata !"", i32 0, i32 0, i64 0, i64 0, i64 0, i32 0, null, metadata !983, i32 0, i32 0} ; [ DW_TAG_subroutine_type ]
!983 = metadata !{null, metadata !953, metadata !192}
!984 = metadata !{i32 786478, i32 0, metadata !937, metadata !"ap_int_base", metadata !"ap_int_base", metadata !"", metadata !113, i32 1470, metadata !985, i1 false, i1 false, i32 0, i32 0, null, i32 384, i1 false, null, null, i32 0, metadata !125, i32 1470} ; [ DW_TAG_subprogram ]
!985 = metadata !{i32 786453, i32 0, metadata !"", i32 0, i32 0, i64 0, i64 0, i64 0, i32 0, null, metadata !986, i32 0, i32 0} ; [ DW_TAG_subroutine_type ]
!986 = metadata !{null, metadata !953, metadata !197}
!987 = metadata !{i32 786478, i32 0, metadata !937, metadata !"ap_int_base", metadata !"ap_int_base", metadata !"", metadata !113, i32 1471, metadata !988, i1 false, i1 false, i32 0, i32 0, null, i32 384, i1 false, null, null, i32 0, metadata !125, i32 1471} ; [ DW_TAG_subprogram ]
!988 = metadata !{i32 786453, i32 0, metadata !"", i32 0, i32 0, i64 0, i64 0, i64 0, i32 0, null, metadata !989, i32 0, i32 0} ; [ DW_TAG_subroutine_type ]
!989 = metadata !{null, metadata !953, metadata !202}
!990 = metadata !{i32 786478, i32 0, metadata !937, metadata !"ap_int_base", metadata !"ap_int_base", metadata !"", metadata !113, i32 1472, metadata !991, i1 false, i1 false, i32 0, i32 0, null, i32 384, i1 false, null, null, i32 0, metadata !125, i32 1472} ; [ DW_TAG_subprogram ]
!991 = metadata !{i32 786453, i32 0, metadata !"", i32 0, i32 0, i64 0, i64 0, i64 0, i32 0, null, metadata !992, i32 0, i32 0} ; [ DW_TAG_subroutine_type ]
!992 = metadata !{null, metadata !953, metadata !206}
!993 = metadata !{i32 786478, i32 0, metadata !937, metadata !"ap_int_base", metadata !"ap_int_base", metadata !"", metadata !113, i32 1499, metadata !994, i1 false, i1 false, i32 0, i32 0, null, i32 256, i1 false, null, null, i32 0, metadata !125, i32 1499} ; [ DW_TAG_subprogram ]
!994 = metadata !{i32 786453, i32 0, metadata !"", i32 0, i32 0, i64 0, i64 0, i64 0, i32 0, null, metadata !995, i32 0, i32 0} ; [ DW_TAG_subroutine_type ]
!995 = metadata !{null, metadata !953, metadata !210}
!996 = metadata !{i32 786478, i32 0, metadata !937, metadata !"ap_int_base", metadata !"ap_int_base", metadata !"", metadata !113, i32 1506, metadata !997, i1 false, i1 false, i32 0, i32 0, null, i32 256, i1 false, null, null, i32 0, metadata !125, i32 1506} ; [ DW_TAG_subprogram ]
!997 = metadata !{i32 786453, i32 0, metadata !"", i32 0, i32 0, i64 0, i64 0, i64 0, i32 0, null, metadata !998, i32 0, i32 0} ; [ DW_TAG_subroutine_type ]
!998 = metadata !{null, metadata !953, metadata !210, metadata !161}
!999 = metadata !{i32 786478, i32 0, metadata !937, metadata !"read", metadata !"read", metadata !"_ZNV11ap_int_baseILi64ELb0ELb1EE4readEv", metadata !113, i32 1527, metadata !1000, i1 false, i1 false, i32 0, i32 0, null, i32 256, i1 false, null, null, i32 0, metadata !125, i32 1527} ; [ DW_TAG_subprogram ]
!1000 = metadata !{i32 786453, i32 0, metadata !"", i32 0, i32 0, i64 0, i64 0, i64 0, i32 0, null, metadata !1001, i32 0, i32 0} ; [ DW_TAG_subroutine_type ]
!1001 = metadata !{metadata !937, metadata !1002}
!1002 = metadata !{i32 786447, i32 0, metadata !"", i32 0, i32 0, i64 64, i64 64, i64 0, i32 64, metadata !1003} ; [ DW_TAG_pointer_type ]
!1003 = metadata !{i32 786485, null, metadata !"", null, i32 0, i64 0, i64 0, i64 0, i32 0, metadata !937} ; [ DW_TAG_volatile_type ]
!1004 = metadata !{i32 786478, i32 0, metadata !937, metadata !"write", metadata !"write", metadata !"_ZNV11ap_int_baseILi64ELb0ELb1EE5writeERKS0_", metadata !113, i32 1533, metadata !1005, i1 false, i1 false, i32 0, i32 0, null, i32 256, i1 false, null, null, i32 0, metadata !125, i32 1533} ; [ DW_TAG_subprogram ]
!1005 = metadata !{i32 786453, i32 0, metadata !"", i32 0, i32 0, i64 0, i64 0, i64 0, i32 0, null, metadata !1006, i32 0, i32 0} ; [ DW_TAG_subroutine_type ]
!1006 = metadata !{null, metadata !1002, metadata !1007}
!1007 = metadata !{i32 786448, null, null, null, i32 0, i64 0, i64 0, i64 0, i32 0, metadata !1008} ; [ DW_TAG_reference_type ]
!1008 = metadata !{i32 786470, null, metadata !"", null, i32 0, i64 0, i64 0, i64 0, i32 0, metadata !937} ; [ DW_TAG_const_type ]
!1009 = metadata !{i32 786478, i32 0, metadata !937, metadata !"operator=", metadata !"operator=", metadata !"_ZNV11ap_int_baseILi64ELb0ELb1EEaSERVKS0_", metadata !113, i32 1545, metadata !1010, i1 false, i1 false, i32 0, i32 0, null, i32 256, i1 false, null, null, i32 0, metadata !125, i32 1545} ; [ DW_TAG_subprogram ]
!1010 = metadata !{i32 786453, i32 0, metadata !"", i32 0, i32 0, i64 0, i64 0, i64 0, i32 0, null, metadata !1011, i32 0, i32 0} ; [ DW_TAG_subroutine_type ]
!1011 = metadata !{null, metadata !1002, metadata !1012}
!1012 = metadata !{i32 786448, null, null, null, i32 0, i64 0, i64 0, i64 0, i32 0, metadata !1013} ; [ DW_TAG_reference_type ]
!1013 = metadata !{i32 786470, null, metadata !"", null, i32 0, i64 0, i64 0, i64 0, i32 0, metadata !1003} ; [ DW_TAG_const_type ]
!1014 = metadata !{i32 786478, i32 0, metadata !937, metadata !"operator=", metadata !"operator=", metadata !"_ZNV11ap_int_baseILi64ELb0ELb1EEaSERKS0_", metadata !113, i32 1554, metadata !1005, i1 false, i1 false, i32 0, i32 0, null, i32 256, i1 false, null, null, i32 0, metadata !125, i32 1554} ; [ DW_TAG_subprogram ]
!1015 = metadata !{i32 786478, i32 0, metadata !937, metadata !"operator=", metadata !"operator=", metadata !"_ZN11ap_int_baseILi64ELb0ELb1EEaSERVKS0_", metadata !113, i32 1577, metadata !1016, i1 false, i1 false, i32 0, i32 0, null, i32 256, i1 false, null, null, i32 0, metadata !125, i32 1577} ; [ DW_TAG_subprogram ]
!1016 = metadata !{i32 786453, i32 0, metadata !"", i32 0, i32 0, i64 0, i64 0, i64 0, i32 0, null, metadata !1017, i32 0, i32 0} ; [ DW_TAG_subroutine_type ]
!1017 = metadata !{metadata !1018, metadata !953, metadata !1012}
!1018 = metadata !{i32 786448, null, null, null, i32 0, i64 0, i64 0, i64 0, i32 0, metadata !937} ; [ DW_TAG_reference_type ]
!1019 = metadata !{i32 786478, i32 0, metadata !937, metadata !"operator=", metadata !"operator=", metadata !"_ZN11ap_int_baseILi64ELb0ELb1EEaSERKS0_", metadata !113, i32 1582, metadata !1020, i1 false, i1 false, i32 0, i32 0, null, i32 256, i1 false, null, null, i32 0, metadata !125, i32 1582} ; [ DW_TAG_subprogram ]
!1020 = metadata !{i32 786453, i32 0, metadata !"", i32 0, i32 0, i64 0, i64 0, i64 0, i32 0, null, metadata !1021, i32 0, i32 0} ; [ DW_TAG_subroutine_type ]
!1021 = metadata !{metadata !1018, metadata !953, metadata !1007}
!1022 = metadata !{i32 786478, i32 0, metadata !937, metadata !"operator=", metadata !"operator=", metadata !"_ZN11ap_int_baseILi64ELb0ELb1EEaSEPKc", metadata !113, i32 1586, metadata !1023, i1 false, i1 false, i32 0, i32 0, null, i32 256, i1 false, null, null, i32 0, metadata !125, i32 1586} ; [ DW_TAG_subprogram ]
!1023 = metadata !{i32 786453, i32 0, metadata !"", i32 0, i32 0, i64 0, i64 0, i64 0, i32 0, null, metadata !1024, i32 0, i32 0} ; [ DW_TAG_subroutine_type ]
!1024 = metadata !{metadata !1018, metadata !953, metadata !210}
!1025 = metadata !{i32 786478, i32 0, metadata !937, metadata !"set", metadata !"set", metadata !"_ZN11ap_int_baseILi64ELb0ELb1EE3setEPKca", metadata !113, i32 1594, metadata !1026, i1 false, i1 false, i32 0, i32 0, null, i32 256, i1 false, null, null, i32 0, metadata !125, i32 1594} ; [ DW_TAG_subprogram ]
!1026 = metadata !{i32 786453, i32 0, metadata !"", i32 0, i32 0, i64 0, i64 0, i64 0, i32 0, null, metadata !1027, i32 0, i32 0} ; [ DW_TAG_subroutine_type ]
!1027 = metadata !{metadata !1018, metadata !953, metadata !210, metadata !161}
!1028 = metadata !{i32 786478, i32 0, metadata !937, metadata !"operator=", metadata !"operator=", metadata !"_ZN11ap_int_baseILi64ELb0ELb1EEaSEa", metadata !113, i32 1608, metadata !1029, i1 false, i1 false, i32 0, i32 0, null, i32 256, i1 false, null, null, i32 0, metadata !125, i32 1608} ; [ DW_TAG_subprogram ]
!1029 = metadata !{i32 786453, i32 0, metadata !"", i32 0, i32 0, i64 0, i64 0, i64 0, i32 0, null, metadata !1030, i32 0, i32 0} ; [ DW_TAG_subroutine_type ]
!1030 = metadata !{metadata !1018, metadata !953, metadata !161}
!1031 = metadata !{i32 786478, i32 0, metadata !937, metadata !"operator=", metadata !"operator=", metadata !"_ZN11ap_int_baseILi64ELb0ELb1EEaSEh", metadata !113, i32 1609, metadata !1032, i1 false, i1 false, i32 0, i32 0, null, i32 256, i1 false, null, null, i32 0, metadata !125, i32 1609} ; [ DW_TAG_subprogram ]
!1032 = metadata !{i32 786453, i32 0, metadata !"", i32 0, i32 0, i64 0, i64 0, i64 0, i32 0, null, metadata !1033, i32 0, i32 0} ; [ DW_TAG_subroutine_type ]
!1033 = metadata !{metadata !1018, metadata !953, metadata !165}
!1034 = metadata !{i32 786478, i32 0, metadata !937, metadata !"operator=", metadata !"operator=", metadata !"_ZN11ap_int_baseILi64ELb0ELb1EEaSEs", metadata !113, i32 1610, metadata !1035, i1 false, i1 false, i32 0, i32 0, null, i32 256, i1 false, null, null, i32 0, metadata !125, i32 1610} ; [ DW_TAG_subprogram ]
!1035 = metadata !{i32 786453, i32 0, metadata !"", i32 0, i32 0, i64 0, i64 0, i64 0, i32 0, null, metadata !1036, i32 0, i32 0} ; [ DW_TAG_subroutine_type ]
!1036 = metadata !{metadata !1018, metadata !953, metadata !169}
!1037 = metadata !{i32 786478, i32 0, metadata !937, metadata !"operator=", metadata !"operator=", metadata !"_ZN11ap_int_baseILi64ELb0ELb1EEaSEt", metadata !113, i32 1611, metadata !1038, i1 false, i1 false, i32 0, i32 0, null, i32 256, i1 false, null, null, i32 0, metadata !125, i32 1611} ; [ DW_TAG_subprogram ]
!1038 = metadata !{i32 786453, i32 0, metadata !"", i32 0, i32 0, i64 0, i64 0, i64 0, i32 0, null, metadata !1039, i32 0, i32 0} ; [ DW_TAG_subroutine_type ]
!1039 = metadata !{metadata !1018, metadata !953, metadata !173}
!1040 = metadata !{i32 786478, i32 0, metadata !937, metadata !"operator=", metadata !"operator=", metadata !"_ZN11ap_int_baseILi64ELb0ELb1EEaSEi", metadata !113, i32 1612, metadata !1041, i1 false, i1 false, i32 0, i32 0, null, i32 256, i1 false, null, null, i32 0, metadata !125, i32 1612} ; [ DW_TAG_subprogram ]
!1041 = metadata !{i32 786453, i32 0, metadata !"", i32 0, i32 0, i64 0, i64 0, i64 0, i32 0, null, metadata !1042, i32 0, i32 0} ; [ DW_TAG_subroutine_type ]
!1042 = metadata !{metadata !1018, metadata !953, metadata !134}
!1043 = metadata !{i32 786478, i32 0, metadata !937, metadata !"operator=", metadata !"operator=", metadata !"_ZN11ap_int_baseILi64ELb0ELb1EEaSEj", metadata !113, i32 1613, metadata !1044, i1 false, i1 false, i32 0, i32 0, null, i32 256, i1 false, null, null, i32 0, metadata !125, i32 1613} ; [ DW_TAG_subprogram ]
!1044 = metadata !{i32 786453, i32 0, metadata !"", i32 0, i32 0, i64 0, i64 0, i64 0, i32 0, null, metadata !1045, i32 0, i32 0} ; [ DW_TAG_subroutine_type ]
!1045 = metadata !{metadata !1018, metadata !953, metadata !180}
!1046 = metadata !{i32 786478, i32 0, metadata !937, metadata !"operator=", metadata !"operator=", metadata !"_ZN11ap_int_baseILi64ELb0ELb1EEaSEx", metadata !113, i32 1614, metadata !1047, i1 false, i1 false, i32 0, i32 0, null, i32 256, i1 false, null, null, i32 0, metadata !125, i32 1614} ; [ DW_TAG_subprogram ]
!1047 = metadata !{i32 786453, i32 0, metadata !"", i32 0, i32 0, i64 0, i64 0, i64 0, i32 0, null, metadata !1048, i32 0, i32 0} ; [ DW_TAG_subroutine_type ]
!1048 = metadata !{metadata !1018, metadata !953, metadata !192}
!1049 = metadata !{i32 786478, i32 0, metadata !937, metadata !"operator=", metadata !"operator=", metadata !"_ZN11ap_int_baseILi64ELb0ELb1EEaSEy", metadata !113, i32 1615, metadata !1050, i1 false, i1 false, i32 0, i32 0, null, i32 256, i1 false, null, null, i32 0, metadata !125, i32 1615} ; [ DW_TAG_subprogram ]
!1050 = metadata !{i32 786453, i32 0, metadata !"", i32 0, i32 0, i64 0, i64 0, i64 0, i32 0, null, metadata !1051, i32 0, i32 0} ; [ DW_TAG_subroutine_type ]
!1051 = metadata !{metadata !1018, metadata !953, metadata !197}
!1052 = metadata !{i32 786478, i32 0, metadata !937, metadata !"operator unsigned long long", metadata !"operator unsigned long long", metadata !"_ZNK11ap_int_baseILi64ELb0ELb1EEcvyEv", metadata !113, i32 1653, metadata !1053, i1 false, i1 false, i32 0, i32 0, null, i32 256, i1 false, null, null, i32 0, metadata !125, i32 1653} ; [ DW_TAG_subprogram ]
!1053 = metadata !{i32 786453, i32 0, metadata !"", i32 0, i32 0, i64 0, i64 0, i64 0, i32 0, null, metadata !1054, i32 0, i32 0} ; [ DW_TAG_subroutine_type ]
!1054 = metadata !{metadata !1055, metadata !1060}
!1055 = metadata !{i32 786454, metadata !937, metadata !"RetType", metadata !113, i32 1402, i64 0, i64 0, i64 0, i32 0, metadata !1056} ; [ DW_TAG_typedef ]
!1056 = metadata !{i32 786454, metadata !1057, metadata !"Type", metadata !113, i32 1363, i64 0, i64 0, i64 0, i32 0, metadata !197} ; [ DW_TAG_typedef ]
!1057 = metadata !{i32 786434, null, metadata !"retval<8, false>", metadata !113, i32 1362, i64 8, i64 8, i32 0, i32 0, null, metadata !270, i32 0, null, metadata !1058} ; [ DW_TAG_class_type ]
!1058 = metadata !{metadata !1059, metadata !394}
!1059 = metadata !{i32 786480, null, metadata !"_AP_N", metadata !134, i64 8, null, i32 0, i32 0} ; [ DW_TAG_template_value_parameter ]
!1060 = metadata !{i32 786447, i32 0, metadata !"", i32 0, i32 0, i64 64, i64 64, i64 0, i32 64, metadata !1008} ; [ DW_TAG_pointer_type ]
!1061 = metadata !{i32 786478, i32 0, metadata !937, metadata !"to_bool", metadata !"to_bool", metadata !"_ZNK11ap_int_baseILi64ELb0ELb1EE7to_boolEv", metadata !113, i32 1659, metadata !1062, i1 false, i1 false, i32 0, i32 0, null, i32 256, i1 false, null, null, i32 0, metadata !125, i32 1659} ; [ DW_TAG_subprogram ]
!1062 = metadata !{i32 786453, i32 0, metadata !"", i32 0, i32 0, i64 0, i64 0, i64 0, i32 0, null, metadata !1063, i32 0, i32 0} ; [ DW_TAG_subroutine_type ]
!1063 = metadata !{metadata !136, metadata !1060}
!1064 = metadata !{i32 786478, i32 0, metadata !937, metadata !"to_uchar", metadata !"to_uchar", metadata !"_ZNK11ap_int_baseILi64ELb0ELb1EE8to_ucharEv", metadata !113, i32 1660, metadata !1065, i1 false, i1 false, i32 0, i32 0, null, i32 256, i1 false, null, null, i32 0, metadata !125, i32 1660} ; [ DW_TAG_subprogram ]
!1065 = metadata !{i32 786453, i32 0, metadata !"", i32 0, i32 0, i64 0, i64 0, i64 0, i32 0, null, metadata !1066, i32 0, i32 0} ; [ DW_TAG_subroutine_type ]
!1066 = metadata !{metadata !165, metadata !1060}
!1067 = metadata !{i32 786478, i32 0, metadata !937, metadata !"to_char", metadata !"to_char", metadata !"_ZNK11ap_int_baseILi64ELb0ELb1EE7to_charEv", metadata !113, i32 1661, metadata !1068, i1 false, i1 false, i32 0, i32 0, null, i32 256, i1 false, null, null, i32 0, metadata !125, i32 1661} ; [ DW_TAG_subprogram ]
!1068 = metadata !{i32 786453, i32 0, metadata !"", i32 0, i32 0, i64 0, i64 0, i64 0, i32 0, null, metadata !1069, i32 0, i32 0} ; [ DW_TAG_subroutine_type ]
!1069 = metadata !{metadata !161, metadata !1060}
!1070 = metadata !{i32 786478, i32 0, metadata !937, metadata !"to_ushort", metadata !"to_ushort", metadata !"_ZNK11ap_int_baseILi64ELb0ELb1EE9to_ushortEv", metadata !113, i32 1662, metadata !1071, i1 false, i1 false, i32 0, i32 0, null, i32 256, i1 false, null, null, i32 0, metadata !125, i32 1662} ; [ DW_TAG_subprogram ]
!1071 = metadata !{i32 786453, i32 0, metadata !"", i32 0, i32 0, i64 0, i64 0, i64 0, i32 0, null, metadata !1072, i32 0, i32 0} ; [ DW_TAG_subroutine_type ]
!1072 = metadata !{metadata !173, metadata !1060}
!1073 = metadata !{i32 786478, i32 0, metadata !937, metadata !"to_short", metadata !"to_short", metadata !"_ZNK11ap_int_baseILi64ELb0ELb1EE8to_shortEv", metadata !113, i32 1663, metadata !1074, i1 false, i1 false, i32 0, i32 0, null, i32 256, i1 false, null, null, i32 0, metadata !125, i32 1663} ; [ DW_TAG_subprogram ]
!1074 = metadata !{i32 786453, i32 0, metadata !"", i32 0, i32 0, i64 0, i64 0, i64 0, i32 0, null, metadata !1075, i32 0, i32 0} ; [ DW_TAG_subroutine_type ]
!1075 = metadata !{metadata !169, metadata !1060}
!1076 = metadata !{i32 786478, i32 0, metadata !937, metadata !"to_int", metadata !"to_int", metadata !"_ZNK11ap_int_baseILi64ELb0ELb1EE6to_intEv", metadata !113, i32 1664, metadata !1077, i1 false, i1 false, i32 0, i32 0, null, i32 256, i1 false, null, null, i32 0, metadata !125, i32 1664} ; [ DW_TAG_subprogram ]
!1077 = metadata !{i32 786453, i32 0, metadata !"", i32 0, i32 0, i64 0, i64 0, i64 0, i32 0, null, metadata !1078, i32 0, i32 0} ; [ DW_TAG_subroutine_type ]
!1078 = metadata !{metadata !134, metadata !1060}
!1079 = metadata !{i32 786478, i32 0, metadata !937, metadata !"to_uint", metadata !"to_uint", metadata !"_ZNK11ap_int_baseILi64ELb0ELb1EE7to_uintEv", metadata !113, i32 1665, metadata !1080, i1 false, i1 false, i32 0, i32 0, null, i32 256, i1 false, null, null, i32 0, metadata !125, i32 1665} ; [ DW_TAG_subprogram ]
!1080 = metadata !{i32 786453, i32 0, metadata !"", i32 0, i32 0, i64 0, i64 0, i64 0, i32 0, null, metadata !1081, i32 0, i32 0} ; [ DW_TAG_subroutine_type ]
!1081 = metadata !{metadata !180, metadata !1060}
!1082 = metadata !{i32 786478, i32 0, metadata !937, metadata !"to_long", metadata !"to_long", metadata !"_ZNK11ap_int_baseILi64ELb0ELb1EE7to_longEv", metadata !113, i32 1666, metadata !1083, i1 false, i1 false, i32 0, i32 0, null, i32 256, i1 false, null, null, i32 0, metadata !125, i32 1666} ; [ DW_TAG_subprogram ]
!1083 = metadata !{i32 786453, i32 0, metadata !"", i32 0, i32 0, i64 0, i64 0, i64 0, i32 0, null, metadata !1084, i32 0, i32 0} ; [ DW_TAG_subroutine_type ]
!1084 = metadata !{metadata !184, metadata !1060}
!1085 = metadata !{i32 786478, i32 0, metadata !937, metadata !"to_ulong", metadata !"to_ulong", metadata !"_ZNK11ap_int_baseILi64ELb0ELb1EE8to_ulongEv", metadata !113, i32 1667, metadata !1086, i1 false, i1 false, i32 0, i32 0, null, i32 256, i1 false, null, null, i32 0, metadata !125, i32 1667} ; [ DW_TAG_subprogram ]
!1086 = metadata !{i32 786453, i32 0, metadata !"", i32 0, i32 0, i64 0, i64 0, i64 0, i32 0, null, metadata !1087, i32 0, i32 0} ; [ DW_TAG_subroutine_type ]
!1087 = metadata !{metadata !188, metadata !1060}
!1088 = metadata !{i32 786478, i32 0, metadata !937, metadata !"to_int64", metadata !"to_int64", metadata !"_ZNK11ap_int_baseILi64ELb0ELb1EE8to_int64Ev", metadata !113, i32 1668, metadata !1089, i1 false, i1 false, i32 0, i32 0, null, i32 256, i1 false, null, null, i32 0, metadata !125, i32 1668} ; [ DW_TAG_subprogram ]
!1089 = metadata !{i32 786453, i32 0, metadata !"", i32 0, i32 0, i64 0, i64 0, i64 0, i32 0, null, metadata !1090, i32 0, i32 0} ; [ DW_TAG_subroutine_type ]
!1090 = metadata !{metadata !192, metadata !1060}
!1091 = metadata !{i32 786478, i32 0, metadata !937, metadata !"to_uint64", metadata !"to_uint64", metadata !"_ZNK11ap_int_baseILi64ELb0ELb1EE9to_uint64Ev", metadata !113, i32 1669, metadata !1092, i1 false, i1 false, i32 0, i32 0, null, i32 256, i1 false, null, null, i32 0, metadata !125, i32 1669} ; [ DW_TAG_subprogram ]
!1092 = metadata !{i32 786453, i32 0, metadata !"", i32 0, i32 0, i64 0, i64 0, i64 0, i32 0, null, metadata !1093, i32 0, i32 0} ; [ DW_TAG_subroutine_type ]
!1093 = metadata !{metadata !197, metadata !1060}
!1094 = metadata !{i32 786478, i32 0, metadata !937, metadata !"to_double", metadata !"to_double", metadata !"_ZNK11ap_int_baseILi64ELb0ELb1EE9to_doubleEv", metadata !113, i32 1670, metadata !1095, i1 false, i1 false, i32 0, i32 0, null, i32 256, i1 false, null, null, i32 0, metadata !125, i32 1670} ; [ DW_TAG_subprogram ]
!1095 = metadata !{i32 786453, i32 0, metadata !"", i32 0, i32 0, i64 0, i64 0, i64 0, i32 0, null, metadata !1096, i32 0, i32 0} ; [ DW_TAG_subroutine_type ]
!1096 = metadata !{metadata !206, metadata !1060}
!1097 = metadata !{i32 786478, i32 0, metadata !937, metadata !"length", metadata !"length", metadata !"_ZNK11ap_int_baseILi64ELb0ELb1EE6lengthEv", metadata !113, i32 1684, metadata !1077, i1 false, i1 false, i32 0, i32 0, null, i32 256, i1 false, null, null, i32 0, metadata !125, i32 1684} ; [ DW_TAG_subprogram ]
!1098 = metadata !{i32 786478, i32 0, metadata !937, metadata !"length", metadata !"length", metadata !"_ZNVK11ap_int_baseILi64ELb0ELb1EE6lengthEv", metadata !113, i32 1685, metadata !1099, i1 false, i1 false, i32 0, i32 0, null, i32 256, i1 false, null, null, i32 0, metadata !125, i32 1685} ; [ DW_TAG_subprogram ]
!1099 = metadata !{i32 786453, i32 0, metadata !"", i32 0, i32 0, i64 0, i64 0, i64 0, i32 0, null, metadata !1100, i32 0, i32 0} ; [ DW_TAG_subroutine_type ]
!1100 = metadata !{metadata !134, metadata !1101}
!1101 = metadata !{i32 786447, i32 0, metadata !"", i32 0, i32 0, i64 64, i64 64, i64 0, i32 64, metadata !1013} ; [ DW_TAG_pointer_type ]
!1102 = metadata !{i32 786478, i32 0, metadata !937, metadata !"reverse", metadata !"reverse", metadata !"_ZN11ap_int_baseILi64ELb0ELb1EE7reverseEv", metadata !113, i32 1690, metadata !1103, i1 false, i1 false, i32 0, i32 0, null, i32 256, i1 false, null, null, i32 0, metadata !125, i32 1690} ; [ DW_TAG_subprogram ]
!1103 = metadata !{i32 786453, i32 0, metadata !"", i32 0, i32 0, i64 0, i64 0, i64 0, i32 0, null, metadata !1104, i32 0, i32 0} ; [ DW_TAG_subroutine_type ]
!1104 = metadata !{metadata !1018, metadata !953}
!1105 = metadata !{i32 786478, i32 0, metadata !937, metadata !"iszero", metadata !"iszero", metadata !"_ZNK11ap_int_baseILi64ELb0ELb1EE6iszeroEv", metadata !113, i32 1696, metadata !1062, i1 false, i1 false, i32 0, i32 0, null, i32 256, i1 false, null, null, i32 0, metadata !125, i32 1696} ; [ DW_TAG_subprogram ]
!1106 = metadata !{i32 786478, i32 0, metadata !937, metadata !"is_zero", metadata !"is_zero", metadata !"_ZNK11ap_int_baseILi64ELb0ELb1EE7is_zeroEv", metadata !113, i32 1701, metadata !1062, i1 false, i1 false, i32 0, i32 0, null, i32 256, i1 false, null, null, i32 0, metadata !125, i32 1701} ; [ DW_TAG_subprogram ]
!1107 = metadata !{i32 786478, i32 0, metadata !937, metadata !"sign", metadata !"sign", metadata !"_ZNK11ap_int_baseILi64ELb0ELb1EE4signEv", metadata !113, i32 1706, metadata !1062, i1 false, i1 false, i32 0, i32 0, null, i32 256, i1 false, null, null, i32 0, metadata !125, i32 1706} ; [ DW_TAG_subprogram ]
!1108 = metadata !{i32 786478, i32 0, metadata !937, metadata !"clear", metadata !"clear", metadata !"_ZN11ap_int_baseILi64ELb0ELb1EE5clearEi", metadata !113, i32 1714, metadata !970, i1 false, i1 false, i32 0, i32 0, null, i32 256, i1 false, null, null, i32 0, metadata !125, i32 1714} ; [ DW_TAG_subprogram ]
!1109 = metadata !{i32 786478, i32 0, metadata !937, metadata !"invert", metadata !"invert", metadata !"_ZN11ap_int_baseILi64ELb0ELb1EE6invertEi", metadata !113, i32 1720, metadata !970, i1 false, i1 false, i32 0, i32 0, null, i32 256, i1 false, null, null, i32 0, metadata !125, i32 1720} ; [ DW_TAG_subprogram ]
!1110 = metadata !{i32 786478, i32 0, metadata !937, metadata !"test", metadata !"test", metadata !"_ZNK11ap_int_baseILi64ELb0ELb1EE4testEi", metadata !113, i32 1728, metadata !1111, i1 false, i1 false, i32 0, i32 0, null, i32 256, i1 false, null, null, i32 0, metadata !125, i32 1728} ; [ DW_TAG_subprogram ]
!1111 = metadata !{i32 786453, i32 0, metadata !"", i32 0, i32 0, i64 0, i64 0, i64 0, i32 0, null, metadata !1112, i32 0, i32 0} ; [ DW_TAG_subroutine_type ]
!1112 = metadata !{metadata !136, metadata !1060, metadata !134}
!1113 = metadata !{i32 786478, i32 0, metadata !937, metadata !"set", metadata !"set", metadata !"_ZN11ap_int_baseILi64ELb0ELb1EE3setEi", metadata !113, i32 1734, metadata !970, i1 false, i1 false, i32 0, i32 0, null, i32 256, i1 false, null, null, i32 0, metadata !125, i32 1734} ; [ DW_TAG_subprogram ]
!1114 = metadata !{i32 786478, i32 0, metadata !937, metadata !"set", metadata !"set", metadata !"_ZN11ap_int_baseILi64ELb0ELb1EE3setEib", metadata !113, i32 1740, metadata !1115, i1 false, i1 false, i32 0, i32 0, null, i32 256, i1 false, null, null, i32 0, metadata !125, i32 1740} ; [ DW_TAG_subprogram ]
!1115 = metadata !{i32 786453, i32 0, metadata !"", i32 0, i32 0, i64 0, i64 0, i64 0, i32 0, null, metadata !1116, i32 0, i32 0} ; [ DW_TAG_subroutine_type ]
!1116 = metadata !{null, metadata !953, metadata !134, metadata !136}
!1117 = metadata !{i32 786478, i32 0, metadata !937, metadata !"lrotate", metadata !"lrotate", metadata !"_ZN11ap_int_baseILi64ELb0ELb1EE7lrotateEi", metadata !113, i32 1747, metadata !970, i1 false, i1 false, i32 0, i32 0, null, i32 256, i1 false, null, null, i32 0, metadata !125, i32 1747} ; [ DW_TAG_subprogram ]
!1118 = metadata !{i32 786478, i32 0, metadata !937, metadata !"rrotate", metadata !"rrotate", metadata !"_ZN11ap_int_baseILi64ELb0ELb1EE7rrotateEi", metadata !113, i32 1756, metadata !970, i1 false, i1 false, i32 0, i32 0, null, i32 256, i1 false, null, null, i32 0, metadata !125, i32 1756} ; [ DW_TAG_subprogram ]
!1119 = metadata !{i32 786478, i32 0, metadata !937, metadata !"set_bit", metadata !"set_bit", metadata !"_ZN11ap_int_baseILi64ELb0ELb1EE7set_bitEib", metadata !113, i32 1764, metadata !1115, i1 false, i1 false, i32 0, i32 0, null, i32 256, i1 false, null, null, i32 0, metadata !125, i32 1764} ; [ DW_TAG_subprogram ]
!1120 = metadata !{i32 786478, i32 0, metadata !937, metadata !"get_bit", metadata !"get_bit", metadata !"_ZNK11ap_int_baseILi64ELb0ELb1EE7get_bitEi", metadata !113, i32 1769, metadata !1111, i1 false, i1 false, i32 0, i32 0, null, i32 256, i1 false, null, null, i32 0, metadata !125, i32 1769} ; [ DW_TAG_subprogram ]
!1121 = metadata !{i32 786478, i32 0, metadata !937, metadata !"b_not", metadata !"b_not", metadata !"_ZN11ap_int_baseILi64ELb0ELb1EE5b_notEv", metadata !113, i32 1774, metadata !951, i1 false, i1 false, i32 0, i32 0, null, i32 256, i1 false, null, null, i32 0, metadata !125, i32 1774} ; [ DW_TAG_subprogram ]
!1122 = metadata !{i32 786478, i32 0, metadata !937, metadata !"countLeadingZeros", metadata !"countLeadingZeros", metadata !"_ZN11ap_int_baseILi64ELb0ELb1EE17countLeadingZerosEv", metadata !113, i32 1781, metadata !1123, i1 false, i1 false, i32 0, i32 0, null, i32 256, i1 false, null, null, i32 0, metadata !125, i32 1781} ; [ DW_TAG_subprogram ]
!1123 = metadata !{i32 786453, i32 0, metadata !"", i32 0, i32 0, i64 0, i64 0, i64 0, i32 0, null, metadata !1124, i32 0, i32 0} ; [ DW_TAG_subroutine_type ]
!1124 = metadata !{metadata !134, metadata !953}
!1125 = metadata !{i32 786478, i32 0, metadata !937, metadata !"operator++", metadata !"operator++", metadata !"_ZN11ap_int_baseILi64ELb0ELb1EEppEv", metadata !113, i32 1838, metadata !1103, i1 false, i1 false, i32 0, i32 0, null, i32 256, i1 false, null, null, i32 0, metadata !125, i32 1838} ; [ DW_TAG_subprogram ]
!1126 = metadata !{i32 786478, i32 0, metadata !937, metadata !"operator--", metadata !"operator--", metadata !"_ZN11ap_int_baseILi64ELb0ELb1EEmmEv", metadata !113, i32 1842, metadata !1103, i1 false, i1 false, i32 0, i32 0, null, i32 256, i1 false, null, null, i32 0, metadata !125, i32 1842} ; [ DW_TAG_subprogram ]
!1127 = metadata !{i32 786478, i32 0, metadata !937, metadata !"operator++", metadata !"operator++", metadata !"_ZN11ap_int_baseILi64ELb0ELb1EEppEi", metadata !113, i32 1850, metadata !1128, i1 false, i1 false, i32 0, i32 0, null, i32 256, i1 false, null, null, i32 0, metadata !125, i32 1850} ; [ DW_TAG_subprogram ]
!1128 = metadata !{i32 786453, i32 0, metadata !"", i32 0, i32 0, i64 0, i64 0, i64 0, i32 0, null, metadata !1129, i32 0, i32 0} ; [ DW_TAG_subroutine_type ]
!1129 = metadata !{metadata !1008, metadata !953, metadata !134}
!1130 = metadata !{i32 786478, i32 0, metadata !937, metadata !"operator--", metadata !"operator--", metadata !"_ZN11ap_int_baseILi64ELb0ELb1EEmmEi", metadata !113, i32 1855, metadata !1128, i1 false, i1 false, i32 0, i32 0, null, i32 256, i1 false, null, null, i32 0, metadata !125, i32 1855} ; [ DW_TAG_subprogram ]
!1131 = metadata !{i32 786478, i32 0, metadata !937, metadata !"operator+", metadata !"operator+", metadata !"_ZNK11ap_int_baseILi64ELb0ELb1EEpsEv", metadata !113, i32 1864, metadata !1132, i1 false, i1 false, i32 0, i32 0, null, i32 256, i1 false, null, null, i32 0, metadata !125, i32 1864} ; [ DW_TAG_subprogram ]
!1132 = metadata !{i32 786453, i32 0, metadata !"", i32 0, i32 0, i64 0, i64 0, i64 0, i32 0, null, metadata !1133, i32 0, i32 0} ; [ DW_TAG_subroutine_type ]
!1133 = metadata !{metadata !937, metadata !1060}
!1134 = metadata !{i32 786478, i32 0, metadata !937, metadata !"operator!", metadata !"operator!", metadata !"_ZNK11ap_int_baseILi64ELb0ELb1EEntEv", metadata !113, i32 1870, metadata !1062, i1 false, i1 false, i32 0, i32 0, null, i32 256, i1 false, null, null, i32 0, metadata !125, i32 1870} ; [ DW_TAG_subprogram ]
!1135 = metadata !{i32 786478, i32 0, metadata !937, metadata !"operator-", metadata !"operator-", metadata !"_ZNK11ap_int_baseILi64ELb0ELb1EEngEv", metadata !113, i32 1875, metadata !1136, i1 false, i1 false, i32 0, i32 0, null, i32 256, i1 false, null, null, i32 0, metadata !125, i32 1875} ; [ DW_TAG_subprogram ]
!1136 = metadata !{i32 786453, i32 0, metadata !"", i32 0, i32 0, i64 0, i64 0, i64 0, i32 0, null, metadata !1137, i32 0, i32 0} ; [ DW_TAG_subroutine_type ]
!1137 = metadata !{metadata !1138, metadata !1060}
!1138 = metadata !{i32 786434, null, metadata !"ap_int_base<64, true, true>", metadata !113, i32 1397, i64 64, i64 64, i32 0, i32 0, null, metadata !1139, i32 0, null, metadata !1382} ; [ DW_TAG_class_type ]
!1139 = metadata !{metadata !1140, metadata !1150, metadata !1154, metadata !1161, metadata !1167, metadata !1170, metadata !1173, metadata !1176, metadata !1179, metadata !1182, metadata !1185, metadata !1188, metadata !1191, metadata !1194, metadata !1197, metadata !1200, metadata !1203, metadata !1206, metadata !1209, metadata !1212, metadata !1216, metadata !1219, metadata !1222, metadata !1223, metadata !1227, metadata !1230, metadata !1233, metadata !1236, metadata !1239, metadata !1242, metadata !1245, metadata !1248, metadata !1251, metadata !1254, metadata !1257, metadata !1260, metadata !1268, metadata !1271, metadata !1274, metadata !1277, metadata !1280, metadata !1283, metadata !1286, metadata !1289, metadata !1292, metadata !1295, metadata !1298, metadata !1301, metadata !1304, metadata !1305, metadata !1309, metadata !1312, metadata !1313, metadata !1314, metadata !1315, metadata !1316, metadata !1317, metadata !1320, metadata !1321, metadata !1324, metadata !1325, metadata !1326, metadata !1327, metadata !1328, metadata !1329, metadata !1332, metadata !1333, metadata !1334, metadata !1337, metadata !1338, metadata !1341, metadata !1342, metadata !1343, metadata !1347, metadata !1348, metadata !1351, metadata !1352, metadata !1356, metadata !1357, metadata !1358, metadata !1359, metadata !1362, metadata !1363, metadata !1364, metadata !1365, metadata !1366, metadata !1367, metadata !1368, metadata !1369, metadata !1370, metadata !1371, metadata !1372, metadata !1373, metadata !1376, metadata !1379}
!1140 = metadata !{i32 786460, metadata !1138, null, metadata !113, i32 0, i64 0, i64 0, i64 0, i32 0, metadata !1141} ; [ DW_TAG_inheritance ]
!1141 = metadata !{i32 786434, null, metadata !"ssdm_int<64 + 1024 * 0, true>", metadata !117, i32 68, i64 64, i64 64, i32 0, i32 0, null, metadata !1142, i32 0, null, metadata !1149} ; [ DW_TAG_class_type ]
!1142 = metadata !{metadata !1143, metadata !1145}
!1143 = metadata !{i32 786445, metadata !1141, metadata !"V", metadata !117, i32 68, i64 64, i64 64, i64 0, i32 0, metadata !1144} ; [ DW_TAG_member ]
!1144 = metadata !{i32 786468, null, metadata !"int64", null, i32 0, i64 64, i64 64, i64 0, i32 0, i32 5} ; [ DW_TAG_base_type ]
!1145 = metadata !{i32 786478, i32 0, metadata !1141, metadata !"ssdm_int", metadata !"ssdm_int", metadata !"", metadata !117, i32 68, metadata !1146, i1 false, i1 false, i32 0, i32 0, null, i32 256, i1 false, null, null, i32 0, metadata !125, i32 68} ; [ DW_TAG_subprogram ]
!1146 = metadata !{i32 786453, i32 0, metadata !"", i32 0, i32 0, i64 0, i64 0, i64 0, i32 0, null, metadata !1147, i32 0, i32 0} ; [ DW_TAG_subroutine_type ]
!1147 = metadata !{null, metadata !1148}
!1148 = metadata !{i32 786447, i32 0, metadata !"", i32 0, i32 0, i64 64, i64 64, i64 0, i32 64, metadata !1141} ; [ DW_TAG_pointer_type ]
!1149 = metadata !{metadata !949, metadata !135}
!1150 = metadata !{i32 786478, i32 0, metadata !1138, metadata !"ap_int_base", metadata !"ap_int_base", metadata !"", metadata !113, i32 1438, metadata !1151, i1 false, i1 false, i32 0, i32 0, null, i32 256, i1 false, null, null, i32 0, metadata !125, i32 1438} ; [ DW_TAG_subprogram ]
!1151 = metadata !{i32 786453, i32 0, metadata !"", i32 0, i32 0, i64 0, i64 0, i64 0, i32 0, null, metadata !1152, i32 0, i32 0} ; [ DW_TAG_subroutine_type ]
!1152 = metadata !{null, metadata !1153}
!1153 = metadata !{i32 786447, i32 0, metadata !"", i32 0, i32 0, i64 64, i64 64, i64 0, i32 64, metadata !1138} ; [ DW_TAG_pointer_type ]
!1154 = metadata !{i32 786478, i32 0, metadata !1138, metadata !"ap_int_base<64, true>", metadata !"ap_int_base<64, true>", metadata !"", metadata !113, i32 1450, metadata !1155, i1 false, i1 false, i32 0, i32 0, null, i32 256, i1 false, null, metadata !1159, i32 0, metadata !125, i32 1450} ; [ DW_TAG_subprogram ]
!1155 = metadata !{i32 786453, i32 0, metadata !"", i32 0, i32 0, i64 0, i64 0, i64 0, i32 0, null, metadata !1156, i32 0, i32 0} ; [ DW_TAG_subroutine_type ]
!1156 = metadata !{null, metadata !1153, metadata !1157}
!1157 = metadata !{i32 786448, null, null, null, i32 0, i64 0, i64 0, i64 0, i32 0, metadata !1158} ; [ DW_TAG_reference_type ]
!1158 = metadata !{i32 786470, null, metadata !"", null, i32 0, i64 0, i64 0, i64 0, i32 0, metadata !1138} ; [ DW_TAG_const_type ]
!1159 = metadata !{metadata !1160, metadata !148}
!1160 = metadata !{i32 786480, null, metadata !"_AP_W2", metadata !134, i64 64, null, i32 0, i32 0} ; [ DW_TAG_template_value_parameter ]
!1161 = metadata !{i32 786478, i32 0, metadata !1138, metadata !"ap_int_base<64, true>", metadata !"ap_int_base<64, true>", metadata !"", metadata !113, i32 1453, metadata !1162, i1 false, i1 false, i32 0, i32 0, null, i32 256, i1 false, null, metadata !1159, i32 0, metadata !125, i32 1453} ; [ DW_TAG_subprogram ]
!1162 = metadata !{i32 786453, i32 0, metadata !"", i32 0, i32 0, i64 0, i64 0, i64 0, i32 0, null, metadata !1163, i32 0, i32 0} ; [ DW_TAG_subroutine_type ]
!1163 = metadata !{null, metadata !1153, metadata !1164}
!1164 = metadata !{i32 786448, null, null, null, i32 0, i64 0, i64 0, i64 0, i32 0, metadata !1165} ; [ DW_TAG_reference_type ]
!1165 = metadata !{i32 786470, null, metadata !"", null, i32 0, i64 0, i64 0, i64 0, i32 0, metadata !1166} ; [ DW_TAG_const_type ]
!1166 = metadata !{i32 786485, null, metadata !"", null, i32 0, i64 0, i64 0, i64 0, i32 0, metadata !1138} ; [ DW_TAG_volatile_type ]
!1167 = metadata !{i32 786478, i32 0, metadata !1138, metadata !"ap_int_base", metadata !"ap_int_base", metadata !"", metadata !113, i32 1460, metadata !1168, i1 false, i1 false, i32 0, i32 0, null, i32 384, i1 false, null, null, i32 0, metadata !125, i32 1460} ; [ DW_TAG_subprogram ]
!1168 = metadata !{i32 786453, i32 0, metadata !"", i32 0, i32 0, i64 0, i64 0, i64 0, i32 0, null, metadata !1169, i32 0, i32 0} ; [ DW_TAG_subroutine_type ]
!1169 = metadata !{null, metadata !1153, metadata !136}
!1170 = metadata !{i32 786478, i32 0, metadata !1138, metadata !"ap_int_base", metadata !"ap_int_base", metadata !"", metadata !113, i32 1461, metadata !1171, i1 false, i1 false, i32 0, i32 0, null, i32 384, i1 false, null, null, i32 0, metadata !125, i32 1461} ; [ DW_TAG_subprogram ]
!1171 = metadata !{i32 786453, i32 0, metadata !"", i32 0, i32 0, i64 0, i64 0, i64 0, i32 0, null, metadata !1172, i32 0, i32 0} ; [ DW_TAG_subroutine_type ]
!1172 = metadata !{null, metadata !1153, metadata !161}
!1173 = metadata !{i32 786478, i32 0, metadata !1138, metadata !"ap_int_base", metadata !"ap_int_base", metadata !"", metadata !113, i32 1462, metadata !1174, i1 false, i1 false, i32 0, i32 0, null, i32 384, i1 false, null, null, i32 0, metadata !125, i32 1462} ; [ DW_TAG_subprogram ]
!1174 = metadata !{i32 786453, i32 0, metadata !"", i32 0, i32 0, i64 0, i64 0, i64 0, i32 0, null, metadata !1175, i32 0, i32 0} ; [ DW_TAG_subroutine_type ]
!1175 = metadata !{null, metadata !1153, metadata !165}
!1176 = metadata !{i32 786478, i32 0, metadata !1138, metadata !"ap_int_base", metadata !"ap_int_base", metadata !"", metadata !113, i32 1463, metadata !1177, i1 false, i1 false, i32 0, i32 0, null, i32 384, i1 false, null, null, i32 0, metadata !125, i32 1463} ; [ DW_TAG_subprogram ]
!1177 = metadata !{i32 786453, i32 0, metadata !"", i32 0, i32 0, i64 0, i64 0, i64 0, i32 0, null, metadata !1178, i32 0, i32 0} ; [ DW_TAG_subroutine_type ]
!1178 = metadata !{null, metadata !1153, metadata !169}
!1179 = metadata !{i32 786478, i32 0, metadata !1138, metadata !"ap_int_base", metadata !"ap_int_base", metadata !"", metadata !113, i32 1464, metadata !1180, i1 false, i1 false, i32 0, i32 0, null, i32 384, i1 false, null, null, i32 0, metadata !125, i32 1464} ; [ DW_TAG_subprogram ]
!1180 = metadata !{i32 786453, i32 0, metadata !"", i32 0, i32 0, i64 0, i64 0, i64 0, i32 0, null, metadata !1181, i32 0, i32 0} ; [ DW_TAG_subroutine_type ]
!1181 = metadata !{null, metadata !1153, metadata !173}
!1182 = metadata !{i32 786478, i32 0, metadata !1138, metadata !"ap_int_base", metadata !"ap_int_base", metadata !"", metadata !113, i32 1465, metadata !1183, i1 false, i1 false, i32 0, i32 0, null, i32 384, i1 false, null, null, i32 0, metadata !125, i32 1465} ; [ DW_TAG_subprogram ]
!1183 = metadata !{i32 786453, i32 0, metadata !"", i32 0, i32 0, i64 0, i64 0, i64 0, i32 0, null, metadata !1184, i32 0, i32 0} ; [ DW_TAG_subroutine_type ]
!1184 = metadata !{null, metadata !1153, metadata !134}
!1185 = metadata !{i32 786478, i32 0, metadata !1138, metadata !"ap_int_base", metadata !"ap_int_base", metadata !"", metadata !113, i32 1466, metadata !1186, i1 false, i1 false, i32 0, i32 0, null, i32 384, i1 false, null, null, i32 0, metadata !125, i32 1466} ; [ DW_TAG_subprogram ]
!1186 = metadata !{i32 786453, i32 0, metadata !"", i32 0, i32 0, i64 0, i64 0, i64 0, i32 0, null, metadata !1187, i32 0, i32 0} ; [ DW_TAG_subroutine_type ]
!1187 = metadata !{null, metadata !1153, metadata !180}
!1188 = metadata !{i32 786478, i32 0, metadata !1138, metadata !"ap_int_base", metadata !"ap_int_base", metadata !"", metadata !113, i32 1467, metadata !1189, i1 false, i1 false, i32 0, i32 0, null, i32 384, i1 false, null, null, i32 0, metadata !125, i32 1467} ; [ DW_TAG_subprogram ]
!1189 = metadata !{i32 786453, i32 0, metadata !"", i32 0, i32 0, i64 0, i64 0, i64 0, i32 0, null, metadata !1190, i32 0, i32 0} ; [ DW_TAG_subroutine_type ]
!1190 = metadata !{null, metadata !1153, metadata !184}
!1191 = metadata !{i32 786478, i32 0, metadata !1138, metadata !"ap_int_base", metadata !"ap_int_base", metadata !"", metadata !113, i32 1468, metadata !1192, i1 false, i1 false, i32 0, i32 0, null, i32 384, i1 false, null, null, i32 0, metadata !125, i32 1468} ; [ DW_TAG_subprogram ]
!1192 = metadata !{i32 786453, i32 0, metadata !"", i32 0, i32 0, i64 0, i64 0, i64 0, i32 0, null, metadata !1193, i32 0, i32 0} ; [ DW_TAG_subroutine_type ]
!1193 = metadata !{null, metadata !1153, metadata !188}
!1194 = metadata !{i32 786478, i32 0, metadata !1138, metadata !"ap_int_base", metadata !"ap_int_base", metadata !"", metadata !113, i32 1469, metadata !1195, i1 false, i1 false, i32 0, i32 0, null, i32 384, i1 false, null, null, i32 0, metadata !125, i32 1469} ; [ DW_TAG_subprogram ]
!1195 = metadata !{i32 786453, i32 0, metadata !"", i32 0, i32 0, i64 0, i64 0, i64 0, i32 0, null, metadata !1196, i32 0, i32 0} ; [ DW_TAG_subroutine_type ]
!1196 = metadata !{null, metadata !1153, metadata !192}
!1197 = metadata !{i32 786478, i32 0, metadata !1138, metadata !"ap_int_base", metadata !"ap_int_base", metadata !"", metadata !113, i32 1470, metadata !1198, i1 false, i1 false, i32 0, i32 0, null, i32 384, i1 false, null, null, i32 0, metadata !125, i32 1470} ; [ DW_TAG_subprogram ]
!1198 = metadata !{i32 786453, i32 0, metadata !"", i32 0, i32 0, i64 0, i64 0, i64 0, i32 0, null, metadata !1199, i32 0, i32 0} ; [ DW_TAG_subroutine_type ]
!1199 = metadata !{null, metadata !1153, metadata !197}
!1200 = metadata !{i32 786478, i32 0, metadata !1138, metadata !"ap_int_base", metadata !"ap_int_base", metadata !"", metadata !113, i32 1471, metadata !1201, i1 false, i1 false, i32 0, i32 0, null, i32 384, i1 false, null, null, i32 0, metadata !125, i32 1471} ; [ DW_TAG_subprogram ]
!1201 = metadata !{i32 786453, i32 0, metadata !"", i32 0, i32 0, i64 0, i64 0, i64 0, i32 0, null, metadata !1202, i32 0, i32 0} ; [ DW_TAG_subroutine_type ]
!1202 = metadata !{null, metadata !1153, metadata !202}
!1203 = metadata !{i32 786478, i32 0, metadata !1138, metadata !"ap_int_base", metadata !"ap_int_base", metadata !"", metadata !113, i32 1472, metadata !1204, i1 false, i1 false, i32 0, i32 0, null, i32 384, i1 false, null, null, i32 0, metadata !125, i32 1472} ; [ DW_TAG_subprogram ]
!1204 = metadata !{i32 786453, i32 0, metadata !"", i32 0, i32 0, i64 0, i64 0, i64 0, i32 0, null, metadata !1205, i32 0, i32 0} ; [ DW_TAG_subroutine_type ]
!1205 = metadata !{null, metadata !1153, metadata !206}
!1206 = metadata !{i32 786478, i32 0, metadata !1138, metadata !"ap_int_base", metadata !"ap_int_base", metadata !"", metadata !113, i32 1499, metadata !1207, i1 false, i1 false, i32 0, i32 0, null, i32 256, i1 false, null, null, i32 0, metadata !125, i32 1499} ; [ DW_TAG_subprogram ]
!1207 = metadata !{i32 786453, i32 0, metadata !"", i32 0, i32 0, i64 0, i64 0, i64 0, i32 0, null, metadata !1208, i32 0, i32 0} ; [ DW_TAG_subroutine_type ]
!1208 = metadata !{null, metadata !1153, metadata !210}
!1209 = metadata !{i32 786478, i32 0, metadata !1138, metadata !"ap_int_base", metadata !"ap_int_base", metadata !"", metadata !113, i32 1506, metadata !1210, i1 false, i1 false, i32 0, i32 0, null, i32 256, i1 false, null, null, i32 0, metadata !125, i32 1506} ; [ DW_TAG_subprogram ]
!1210 = metadata !{i32 786453, i32 0, metadata !"", i32 0, i32 0, i64 0, i64 0, i64 0, i32 0, null, metadata !1211, i32 0, i32 0} ; [ DW_TAG_subroutine_type ]
!1211 = metadata !{null, metadata !1153, metadata !210, metadata !161}
!1212 = metadata !{i32 786478, i32 0, metadata !1138, metadata !"read", metadata !"read", metadata !"_ZNV11ap_int_baseILi64ELb1ELb1EE4readEv", metadata !113, i32 1527, metadata !1213, i1 false, i1 false, i32 0, i32 0, null, i32 256, i1 false, null, null, i32 0, metadata !125, i32 1527} ; [ DW_TAG_subprogram ]
!1213 = metadata !{i32 786453, i32 0, metadata !"", i32 0, i32 0, i64 0, i64 0, i64 0, i32 0, null, metadata !1214, i32 0, i32 0} ; [ DW_TAG_subroutine_type ]
!1214 = metadata !{metadata !1138, metadata !1215}
!1215 = metadata !{i32 786447, i32 0, metadata !"", i32 0, i32 0, i64 64, i64 64, i64 0, i32 64, metadata !1166} ; [ DW_TAG_pointer_type ]
!1216 = metadata !{i32 786478, i32 0, metadata !1138, metadata !"write", metadata !"write", metadata !"_ZNV11ap_int_baseILi64ELb1ELb1EE5writeERKS0_", metadata !113, i32 1533, metadata !1217, i1 false, i1 false, i32 0, i32 0, null, i32 256, i1 false, null, null, i32 0, metadata !125, i32 1533} ; [ DW_TAG_subprogram ]
!1217 = metadata !{i32 786453, i32 0, metadata !"", i32 0, i32 0, i64 0, i64 0, i64 0, i32 0, null, metadata !1218, i32 0, i32 0} ; [ DW_TAG_subroutine_type ]
!1218 = metadata !{null, metadata !1215, metadata !1157}
!1219 = metadata !{i32 786478, i32 0, metadata !1138, metadata !"operator=", metadata !"operator=", metadata !"_ZNV11ap_int_baseILi64ELb1ELb1EEaSERVKS0_", metadata !113, i32 1545, metadata !1220, i1 false, i1 false, i32 0, i32 0, null, i32 256, i1 false, null, null, i32 0, metadata !125, i32 1545} ; [ DW_TAG_subprogram ]
!1220 = metadata !{i32 786453, i32 0, metadata !"", i32 0, i32 0, i64 0, i64 0, i64 0, i32 0, null, metadata !1221, i32 0, i32 0} ; [ DW_TAG_subroutine_type ]
!1221 = metadata !{null, metadata !1215, metadata !1164}
!1222 = metadata !{i32 786478, i32 0, metadata !1138, metadata !"operator=", metadata !"operator=", metadata !"_ZNV11ap_int_baseILi64ELb1ELb1EEaSERKS0_", metadata !113, i32 1554, metadata !1217, i1 false, i1 false, i32 0, i32 0, null, i32 256, i1 false, null, null, i32 0, metadata !125, i32 1554} ; [ DW_TAG_subprogram ]
!1223 = metadata !{i32 786478, i32 0, metadata !1138, metadata !"operator=", metadata !"operator=", metadata !"_ZN11ap_int_baseILi64ELb1ELb1EEaSERVKS0_", metadata !113, i32 1577, metadata !1224, i1 false, i1 false, i32 0, i32 0, null, i32 256, i1 false, null, null, i32 0, metadata !125, i32 1577} ; [ DW_TAG_subprogram ]
!1224 = metadata !{i32 786453, i32 0, metadata !"", i32 0, i32 0, i64 0, i64 0, i64 0, i32 0, null, metadata !1225, i32 0, i32 0} ; [ DW_TAG_subroutine_type ]
!1225 = metadata !{metadata !1226, metadata !1153, metadata !1164}
!1226 = metadata !{i32 786448, null, null, null, i32 0, i64 0, i64 0, i64 0, i32 0, metadata !1138} ; [ DW_TAG_reference_type ]
!1227 = metadata !{i32 786478, i32 0, metadata !1138, metadata !"operator=", metadata !"operator=", metadata !"_ZN11ap_int_baseILi64ELb1ELb1EEaSERKS0_", metadata !113, i32 1582, metadata !1228, i1 false, i1 false, i32 0, i32 0, null, i32 256, i1 false, null, null, i32 0, metadata !125, i32 1582} ; [ DW_TAG_subprogram ]
!1228 = metadata !{i32 786453, i32 0, metadata !"", i32 0, i32 0, i64 0, i64 0, i64 0, i32 0, null, metadata !1229, i32 0, i32 0} ; [ DW_TAG_subroutine_type ]
!1229 = metadata !{metadata !1226, metadata !1153, metadata !1157}
!1230 = metadata !{i32 786478, i32 0, metadata !1138, metadata !"operator=", metadata !"operator=", metadata !"_ZN11ap_int_baseILi64ELb1ELb1EEaSEPKc", metadata !113, i32 1586, metadata !1231, i1 false, i1 false, i32 0, i32 0, null, i32 256, i1 false, null, null, i32 0, metadata !125, i32 1586} ; [ DW_TAG_subprogram ]
!1231 = metadata !{i32 786453, i32 0, metadata !"", i32 0, i32 0, i64 0, i64 0, i64 0, i32 0, null, metadata !1232, i32 0, i32 0} ; [ DW_TAG_subroutine_type ]
!1232 = metadata !{metadata !1226, metadata !1153, metadata !210}
!1233 = metadata !{i32 786478, i32 0, metadata !1138, metadata !"set", metadata !"set", metadata !"_ZN11ap_int_baseILi64ELb1ELb1EE3setEPKca", metadata !113, i32 1594, metadata !1234, i1 false, i1 false, i32 0, i32 0, null, i32 256, i1 false, null, null, i32 0, metadata !125, i32 1594} ; [ DW_TAG_subprogram ]
!1234 = metadata !{i32 786453, i32 0, metadata !"", i32 0, i32 0, i64 0, i64 0, i64 0, i32 0, null, metadata !1235, i32 0, i32 0} ; [ DW_TAG_subroutine_type ]
!1235 = metadata !{metadata !1226, metadata !1153, metadata !210, metadata !161}
!1236 = metadata !{i32 786478, i32 0, metadata !1138, metadata !"operator=", metadata !"operator=", metadata !"_ZN11ap_int_baseILi64ELb1ELb1EEaSEa", metadata !113, i32 1608, metadata !1237, i1 false, i1 false, i32 0, i32 0, null, i32 256, i1 false, null, null, i32 0, metadata !125, i32 1608} ; [ DW_TAG_subprogram ]
!1237 = metadata !{i32 786453, i32 0, metadata !"", i32 0, i32 0, i64 0, i64 0, i64 0, i32 0, null, metadata !1238, i32 0, i32 0} ; [ DW_TAG_subroutine_type ]
!1238 = metadata !{metadata !1226, metadata !1153, metadata !161}
!1239 = metadata !{i32 786478, i32 0, metadata !1138, metadata !"operator=", metadata !"operator=", metadata !"_ZN11ap_int_baseILi64ELb1ELb1EEaSEh", metadata !113, i32 1609, metadata !1240, i1 false, i1 false, i32 0, i32 0, null, i32 256, i1 false, null, null, i32 0, metadata !125, i32 1609} ; [ DW_TAG_subprogram ]
!1240 = metadata !{i32 786453, i32 0, metadata !"", i32 0, i32 0, i64 0, i64 0, i64 0, i32 0, null, metadata !1241, i32 0, i32 0} ; [ DW_TAG_subroutine_type ]
!1241 = metadata !{metadata !1226, metadata !1153, metadata !165}
!1242 = metadata !{i32 786478, i32 0, metadata !1138, metadata !"operator=", metadata !"operator=", metadata !"_ZN11ap_int_baseILi64ELb1ELb1EEaSEs", metadata !113, i32 1610, metadata !1243, i1 false, i1 false, i32 0, i32 0, null, i32 256, i1 false, null, null, i32 0, metadata !125, i32 1610} ; [ DW_TAG_subprogram ]
!1243 = metadata !{i32 786453, i32 0, metadata !"", i32 0, i32 0, i64 0, i64 0, i64 0, i32 0, null, metadata !1244, i32 0, i32 0} ; [ DW_TAG_subroutine_type ]
!1244 = metadata !{metadata !1226, metadata !1153, metadata !169}
!1245 = metadata !{i32 786478, i32 0, metadata !1138, metadata !"operator=", metadata !"operator=", metadata !"_ZN11ap_int_baseILi64ELb1ELb1EEaSEt", metadata !113, i32 1611, metadata !1246, i1 false, i1 false, i32 0, i32 0, null, i32 256, i1 false, null, null, i32 0, metadata !125, i32 1611} ; [ DW_TAG_subprogram ]
!1246 = metadata !{i32 786453, i32 0, metadata !"", i32 0, i32 0, i64 0, i64 0, i64 0, i32 0, null, metadata !1247, i32 0, i32 0} ; [ DW_TAG_subroutine_type ]
!1247 = metadata !{metadata !1226, metadata !1153, metadata !173}
!1248 = metadata !{i32 786478, i32 0, metadata !1138, metadata !"operator=", metadata !"operator=", metadata !"_ZN11ap_int_baseILi64ELb1ELb1EEaSEi", metadata !113, i32 1612, metadata !1249, i1 false, i1 false, i32 0, i32 0, null, i32 256, i1 false, null, null, i32 0, metadata !125, i32 1612} ; [ DW_TAG_subprogram ]
!1249 = metadata !{i32 786453, i32 0, metadata !"", i32 0, i32 0, i64 0, i64 0, i64 0, i32 0, null, metadata !1250, i32 0, i32 0} ; [ DW_TAG_subroutine_type ]
!1250 = metadata !{metadata !1226, metadata !1153, metadata !134}
!1251 = metadata !{i32 786478, i32 0, metadata !1138, metadata !"operator=", metadata !"operator=", metadata !"_ZN11ap_int_baseILi64ELb1ELb1EEaSEj", metadata !113, i32 1613, metadata !1252, i1 false, i1 false, i32 0, i32 0, null, i32 256, i1 false, null, null, i32 0, metadata !125, i32 1613} ; [ DW_TAG_subprogram ]
!1252 = metadata !{i32 786453, i32 0, metadata !"", i32 0, i32 0, i64 0, i64 0, i64 0, i32 0, null, metadata !1253, i32 0, i32 0} ; [ DW_TAG_subroutine_type ]
!1253 = metadata !{metadata !1226, metadata !1153, metadata !180}
!1254 = metadata !{i32 786478, i32 0, metadata !1138, metadata !"operator=", metadata !"operator=", metadata !"_ZN11ap_int_baseILi64ELb1ELb1EEaSEx", metadata !113, i32 1614, metadata !1255, i1 false, i1 false, i32 0, i32 0, null, i32 256, i1 false, null, null, i32 0, metadata !125, i32 1614} ; [ DW_TAG_subprogram ]
!1255 = metadata !{i32 786453, i32 0, metadata !"", i32 0, i32 0, i64 0, i64 0, i64 0, i32 0, null, metadata !1256, i32 0, i32 0} ; [ DW_TAG_subroutine_type ]
!1256 = metadata !{metadata !1226, metadata !1153, metadata !192}
!1257 = metadata !{i32 786478, i32 0, metadata !1138, metadata !"operator=", metadata !"operator=", metadata !"_ZN11ap_int_baseILi64ELb1ELb1EEaSEy", metadata !113, i32 1615, metadata !1258, i1 false, i1 false, i32 0, i32 0, null, i32 256, i1 false, null, null, i32 0, metadata !125, i32 1615} ; [ DW_TAG_subprogram ]
!1258 = metadata !{i32 786453, i32 0, metadata !"", i32 0, i32 0, i64 0, i64 0, i64 0, i32 0, null, metadata !1259, i32 0, i32 0} ; [ DW_TAG_subroutine_type ]
!1259 = metadata !{metadata !1226, metadata !1153, metadata !197}
!1260 = metadata !{i32 786478, i32 0, metadata !1138, metadata !"operator long long", metadata !"operator long long", metadata !"_ZNK11ap_int_baseILi64ELb1ELb1EEcvxEv", metadata !113, i32 1653, metadata !1261, i1 false, i1 false, i32 0, i32 0, null, i32 256, i1 false, null, null, i32 0, metadata !125, i32 1653} ; [ DW_TAG_subprogram ]
!1261 = metadata !{i32 786453, i32 0, metadata !"", i32 0, i32 0, i64 0, i64 0, i64 0, i32 0, null, metadata !1262, i32 0, i32 0} ; [ DW_TAG_subroutine_type ]
!1262 = metadata !{metadata !1263, metadata !1267}
!1263 = metadata !{i32 786454, metadata !1138, metadata !"RetType", metadata !113, i32 1402, i64 0, i64 0, i64 0, i32 0, metadata !1264} ; [ DW_TAG_typedef ]
!1264 = metadata !{i32 786454, metadata !1265, metadata !"Type", metadata !113, i32 1359, i64 0, i64 0, i64 0, i32 0, metadata !192} ; [ DW_TAG_typedef ]
!1265 = metadata !{i32 786434, null, metadata !"retval<8, true>", metadata !113, i32 1358, i64 8, i64 8, i32 0, i32 0, null, metadata !270, i32 0, null, metadata !1266} ; [ DW_TAG_class_type ]
!1266 = metadata !{metadata !1059, metadata !135}
!1267 = metadata !{i32 786447, i32 0, metadata !"", i32 0, i32 0, i64 64, i64 64, i64 0, i32 64, metadata !1158} ; [ DW_TAG_pointer_type ]
!1268 = metadata !{i32 786478, i32 0, metadata !1138, metadata !"to_bool", metadata !"to_bool", metadata !"_ZNK11ap_int_baseILi64ELb1ELb1EE7to_boolEv", metadata !113, i32 1659, metadata !1269, i1 false, i1 false, i32 0, i32 0, null, i32 256, i1 false, null, null, i32 0, metadata !125, i32 1659} ; [ DW_TAG_subprogram ]
!1269 = metadata !{i32 786453, i32 0, metadata !"", i32 0, i32 0, i64 0, i64 0, i64 0, i32 0, null, metadata !1270, i32 0, i32 0} ; [ DW_TAG_subroutine_type ]
!1270 = metadata !{metadata !136, metadata !1267}
!1271 = metadata !{i32 786478, i32 0, metadata !1138, metadata !"to_uchar", metadata !"to_uchar", metadata !"_ZNK11ap_int_baseILi64ELb1ELb1EE8to_ucharEv", metadata !113, i32 1660, metadata !1272, i1 false, i1 false, i32 0, i32 0, null, i32 256, i1 false, null, null, i32 0, metadata !125, i32 1660} ; [ DW_TAG_subprogram ]
!1272 = metadata !{i32 786453, i32 0, metadata !"", i32 0, i32 0, i64 0, i64 0, i64 0, i32 0, null, metadata !1273, i32 0, i32 0} ; [ DW_TAG_subroutine_type ]
!1273 = metadata !{metadata !165, metadata !1267}
!1274 = metadata !{i32 786478, i32 0, metadata !1138, metadata !"to_char", metadata !"to_char", metadata !"_ZNK11ap_int_baseILi64ELb1ELb1EE7to_charEv", metadata !113, i32 1661, metadata !1275, i1 false, i1 false, i32 0, i32 0, null, i32 256, i1 false, null, null, i32 0, metadata !125, i32 1661} ; [ DW_TAG_subprogram ]
!1275 = metadata !{i32 786453, i32 0, metadata !"", i32 0, i32 0, i64 0, i64 0, i64 0, i32 0, null, metadata !1276, i32 0, i32 0} ; [ DW_TAG_subroutine_type ]
!1276 = metadata !{metadata !161, metadata !1267}
!1277 = metadata !{i32 786478, i32 0, metadata !1138, metadata !"to_ushort", metadata !"to_ushort", metadata !"_ZNK11ap_int_baseILi64ELb1ELb1EE9to_ushortEv", metadata !113, i32 1662, metadata !1278, i1 false, i1 false, i32 0, i32 0, null, i32 256, i1 false, null, null, i32 0, metadata !125, i32 1662} ; [ DW_TAG_subprogram ]
!1278 = metadata !{i32 786453, i32 0, metadata !"", i32 0, i32 0, i64 0, i64 0, i64 0, i32 0, null, metadata !1279, i32 0, i32 0} ; [ DW_TAG_subroutine_type ]
!1279 = metadata !{metadata !173, metadata !1267}
!1280 = metadata !{i32 786478, i32 0, metadata !1138, metadata !"to_short", metadata !"to_short", metadata !"_ZNK11ap_int_baseILi64ELb1ELb1EE8to_shortEv", metadata !113, i32 1663, metadata !1281, i1 false, i1 false, i32 0, i32 0, null, i32 256, i1 false, null, null, i32 0, metadata !125, i32 1663} ; [ DW_TAG_subprogram ]
!1281 = metadata !{i32 786453, i32 0, metadata !"", i32 0, i32 0, i64 0, i64 0, i64 0, i32 0, null, metadata !1282, i32 0, i32 0} ; [ DW_TAG_subroutine_type ]
!1282 = metadata !{metadata !169, metadata !1267}
!1283 = metadata !{i32 786478, i32 0, metadata !1138, metadata !"to_int", metadata !"to_int", metadata !"_ZNK11ap_int_baseILi64ELb1ELb1EE6to_intEv", metadata !113, i32 1664, metadata !1284, i1 false, i1 false, i32 0, i32 0, null, i32 256, i1 false, null, null, i32 0, metadata !125, i32 1664} ; [ DW_TAG_subprogram ]
!1284 = metadata !{i32 786453, i32 0, metadata !"", i32 0, i32 0, i64 0, i64 0, i64 0, i32 0, null, metadata !1285, i32 0, i32 0} ; [ DW_TAG_subroutine_type ]
!1285 = metadata !{metadata !134, metadata !1267}
!1286 = metadata !{i32 786478, i32 0, metadata !1138, metadata !"to_uint", metadata !"to_uint", metadata !"_ZNK11ap_int_baseILi64ELb1ELb1EE7to_uintEv", metadata !113, i32 1665, metadata !1287, i1 false, i1 false, i32 0, i32 0, null, i32 256, i1 false, null, null, i32 0, metadata !125, i32 1665} ; [ DW_TAG_subprogram ]
!1287 = metadata !{i32 786453, i32 0, metadata !"", i32 0, i32 0, i64 0, i64 0, i64 0, i32 0, null, metadata !1288, i32 0, i32 0} ; [ DW_TAG_subroutine_type ]
!1288 = metadata !{metadata !180, metadata !1267}
!1289 = metadata !{i32 786478, i32 0, metadata !1138, metadata !"to_long", metadata !"to_long", metadata !"_ZNK11ap_int_baseILi64ELb1ELb1EE7to_longEv", metadata !113, i32 1666, metadata !1290, i1 false, i1 false, i32 0, i32 0, null, i32 256, i1 false, null, null, i32 0, metadata !125, i32 1666} ; [ DW_TAG_subprogram ]
!1290 = metadata !{i32 786453, i32 0, metadata !"", i32 0, i32 0, i64 0, i64 0, i64 0, i32 0, null, metadata !1291, i32 0, i32 0} ; [ DW_TAG_subroutine_type ]
!1291 = metadata !{metadata !184, metadata !1267}
!1292 = metadata !{i32 786478, i32 0, metadata !1138, metadata !"to_ulong", metadata !"to_ulong", metadata !"_ZNK11ap_int_baseILi64ELb1ELb1EE8to_ulongEv", metadata !113, i32 1667, metadata !1293, i1 false, i1 false, i32 0, i32 0, null, i32 256, i1 false, null, null, i32 0, metadata !125, i32 1667} ; [ DW_TAG_subprogram ]
!1293 = metadata !{i32 786453, i32 0, metadata !"", i32 0, i32 0, i64 0, i64 0, i64 0, i32 0, null, metadata !1294, i32 0, i32 0} ; [ DW_TAG_subroutine_type ]
!1294 = metadata !{metadata !188, metadata !1267}
!1295 = metadata !{i32 786478, i32 0, metadata !1138, metadata !"to_int64", metadata !"to_int64", metadata !"_ZNK11ap_int_baseILi64ELb1ELb1EE8to_int64Ev", metadata !113, i32 1668, metadata !1296, i1 false, i1 false, i32 0, i32 0, null, i32 256, i1 false, null, null, i32 0, metadata !125, i32 1668} ; [ DW_TAG_subprogram ]
!1296 = metadata !{i32 786453, i32 0, metadata !"", i32 0, i32 0, i64 0, i64 0, i64 0, i32 0, null, metadata !1297, i32 0, i32 0} ; [ DW_TAG_subroutine_type ]
!1297 = metadata !{metadata !192, metadata !1267}
!1298 = metadata !{i32 786478, i32 0, metadata !1138, metadata !"to_uint64", metadata !"to_uint64", metadata !"_ZNK11ap_int_baseILi64ELb1ELb1EE9to_uint64Ev", metadata !113, i32 1669, metadata !1299, i1 false, i1 false, i32 0, i32 0, null, i32 256, i1 false, null, null, i32 0, metadata !125, i32 1669} ; [ DW_TAG_subprogram ]
!1299 = metadata !{i32 786453, i32 0, metadata !"", i32 0, i32 0, i64 0, i64 0, i64 0, i32 0, null, metadata !1300, i32 0, i32 0} ; [ DW_TAG_subroutine_type ]
!1300 = metadata !{metadata !197, metadata !1267}
!1301 = metadata !{i32 786478, i32 0, metadata !1138, metadata !"to_double", metadata !"to_double", metadata !"_ZNK11ap_int_baseILi64ELb1ELb1EE9to_doubleEv", metadata !113, i32 1670, metadata !1302, i1 false, i1 false, i32 0, i32 0, null, i32 256, i1 false, null, null, i32 0, metadata !125, i32 1670} ; [ DW_TAG_subprogram ]
!1302 = metadata !{i32 786453, i32 0, metadata !"", i32 0, i32 0, i64 0, i64 0, i64 0, i32 0, null, metadata !1303, i32 0, i32 0} ; [ DW_TAG_subroutine_type ]
!1303 = metadata !{metadata !206, metadata !1267}
!1304 = metadata !{i32 786478, i32 0, metadata !1138, metadata !"length", metadata !"length", metadata !"_ZNK11ap_int_baseILi64ELb1ELb1EE6lengthEv", metadata !113, i32 1684, metadata !1284, i1 false, i1 false, i32 0, i32 0, null, i32 256, i1 false, null, null, i32 0, metadata !125, i32 1684} ; [ DW_TAG_subprogram ]
!1305 = metadata !{i32 786478, i32 0, metadata !1138, metadata !"length", metadata !"length", metadata !"_ZNVK11ap_int_baseILi64ELb1ELb1EE6lengthEv", metadata !113, i32 1685, metadata !1306, i1 false, i1 false, i32 0, i32 0, null, i32 256, i1 false, null, null, i32 0, metadata !125, i32 1685} ; [ DW_TAG_subprogram ]
!1306 = metadata !{i32 786453, i32 0, metadata !"", i32 0, i32 0, i64 0, i64 0, i64 0, i32 0, null, metadata !1307, i32 0, i32 0} ; [ DW_TAG_subroutine_type ]
!1307 = metadata !{metadata !134, metadata !1308}
!1308 = metadata !{i32 786447, i32 0, metadata !"", i32 0, i32 0, i64 64, i64 64, i64 0, i32 64, metadata !1165} ; [ DW_TAG_pointer_type ]
!1309 = metadata !{i32 786478, i32 0, metadata !1138, metadata !"reverse", metadata !"reverse", metadata !"_ZN11ap_int_baseILi64ELb1ELb1EE7reverseEv", metadata !113, i32 1690, metadata !1310, i1 false, i1 false, i32 0, i32 0, null, i32 256, i1 false, null, null, i32 0, metadata !125, i32 1690} ; [ DW_TAG_subprogram ]
!1310 = metadata !{i32 786453, i32 0, metadata !"", i32 0, i32 0, i64 0, i64 0, i64 0, i32 0, null, metadata !1311, i32 0, i32 0} ; [ DW_TAG_subroutine_type ]
!1311 = metadata !{metadata !1226, metadata !1153}
!1312 = metadata !{i32 786478, i32 0, metadata !1138, metadata !"iszero", metadata !"iszero", metadata !"_ZNK11ap_int_baseILi64ELb1ELb1EE6iszeroEv", metadata !113, i32 1696, metadata !1269, i1 false, i1 false, i32 0, i32 0, null, i32 256, i1 false, null, null, i32 0, metadata !125, i32 1696} ; [ DW_TAG_subprogram ]
!1313 = metadata !{i32 786478, i32 0, metadata !1138, metadata !"is_zero", metadata !"is_zero", metadata !"_ZNK11ap_int_baseILi64ELb1ELb1EE7is_zeroEv", metadata !113, i32 1701, metadata !1269, i1 false, i1 false, i32 0, i32 0, null, i32 256, i1 false, null, null, i32 0, metadata !125, i32 1701} ; [ DW_TAG_subprogram ]
!1314 = metadata !{i32 786478, i32 0, metadata !1138, metadata !"sign", metadata !"sign", metadata !"_ZNK11ap_int_baseILi64ELb1ELb1EE4signEv", metadata !113, i32 1706, metadata !1269, i1 false, i1 false, i32 0, i32 0, null, i32 256, i1 false, null, null, i32 0, metadata !125, i32 1706} ; [ DW_TAG_subprogram ]
!1315 = metadata !{i32 786478, i32 0, metadata !1138, metadata !"clear", metadata !"clear", metadata !"_ZN11ap_int_baseILi64ELb1ELb1EE5clearEi", metadata !113, i32 1714, metadata !1183, i1 false, i1 false, i32 0, i32 0, null, i32 256, i1 false, null, null, i32 0, metadata !125, i32 1714} ; [ DW_TAG_subprogram ]
!1316 = metadata !{i32 786478, i32 0, metadata !1138, metadata !"invert", metadata !"invert", metadata !"_ZN11ap_int_baseILi64ELb1ELb1EE6invertEi", metadata !113, i32 1720, metadata !1183, i1 false, i1 false, i32 0, i32 0, null, i32 256, i1 false, null, null, i32 0, metadata !125, i32 1720} ; [ DW_TAG_subprogram ]
!1317 = metadata !{i32 786478, i32 0, metadata !1138, metadata !"test", metadata !"test", metadata !"_ZNK11ap_int_baseILi64ELb1ELb1EE4testEi", metadata !113, i32 1728, metadata !1318, i1 false, i1 false, i32 0, i32 0, null, i32 256, i1 false, null, null, i32 0, metadata !125, i32 1728} ; [ DW_TAG_subprogram ]
!1318 = metadata !{i32 786453, i32 0, metadata !"", i32 0, i32 0, i64 0, i64 0, i64 0, i32 0, null, metadata !1319, i32 0, i32 0} ; [ DW_TAG_subroutine_type ]
!1319 = metadata !{metadata !136, metadata !1267, metadata !134}
!1320 = metadata !{i32 786478, i32 0, metadata !1138, metadata !"set", metadata !"set", metadata !"_ZN11ap_int_baseILi64ELb1ELb1EE3setEi", metadata !113, i32 1734, metadata !1183, i1 false, i1 false, i32 0, i32 0, null, i32 256, i1 false, null, null, i32 0, metadata !125, i32 1734} ; [ DW_TAG_subprogram ]
!1321 = metadata !{i32 786478, i32 0, metadata !1138, metadata !"set", metadata !"set", metadata !"_ZN11ap_int_baseILi64ELb1ELb1EE3setEib", metadata !113, i32 1740, metadata !1322, i1 false, i1 false, i32 0, i32 0, null, i32 256, i1 false, null, null, i32 0, metadata !125, i32 1740} ; [ DW_TAG_subprogram ]
!1322 = metadata !{i32 786453, i32 0, metadata !"", i32 0, i32 0, i64 0, i64 0, i64 0, i32 0, null, metadata !1323, i32 0, i32 0} ; [ DW_TAG_subroutine_type ]
!1323 = metadata !{null, metadata !1153, metadata !134, metadata !136}
!1324 = metadata !{i32 786478, i32 0, metadata !1138, metadata !"lrotate", metadata !"lrotate", metadata !"_ZN11ap_int_baseILi64ELb1ELb1EE7lrotateEi", metadata !113, i32 1747, metadata !1183, i1 false, i1 false, i32 0, i32 0, null, i32 256, i1 false, null, null, i32 0, metadata !125, i32 1747} ; [ DW_TAG_subprogram ]
!1325 = metadata !{i32 786478, i32 0, metadata !1138, metadata !"rrotate", metadata !"rrotate", metadata !"_ZN11ap_int_baseILi64ELb1ELb1EE7rrotateEi", metadata !113, i32 1756, metadata !1183, i1 false, i1 false, i32 0, i32 0, null, i32 256, i1 false, null, null, i32 0, metadata !125, i32 1756} ; [ DW_TAG_subprogram ]
!1326 = metadata !{i32 786478, i32 0, metadata !1138, metadata !"set_bit", metadata !"set_bit", metadata !"_ZN11ap_int_baseILi64ELb1ELb1EE7set_bitEib", metadata !113, i32 1764, metadata !1322, i1 false, i1 false, i32 0, i32 0, null, i32 256, i1 false, null, null, i32 0, metadata !125, i32 1764} ; [ DW_TAG_subprogram ]
!1327 = metadata !{i32 786478, i32 0, metadata !1138, metadata !"get_bit", metadata !"get_bit", metadata !"_ZNK11ap_int_baseILi64ELb1ELb1EE7get_bitEi", metadata !113, i32 1769, metadata !1318, i1 false, i1 false, i32 0, i32 0, null, i32 256, i1 false, null, null, i32 0, metadata !125, i32 1769} ; [ DW_TAG_subprogram ]
!1328 = metadata !{i32 786478, i32 0, metadata !1138, metadata !"b_not", metadata !"b_not", metadata !"_ZN11ap_int_baseILi64ELb1ELb1EE5b_notEv", metadata !113, i32 1774, metadata !1151, i1 false, i1 false, i32 0, i32 0, null, i32 256, i1 false, null, null, i32 0, metadata !125, i32 1774} ; [ DW_TAG_subprogram ]
!1329 = metadata !{i32 786478, i32 0, metadata !1138, metadata !"countLeadingZeros", metadata !"countLeadingZeros", metadata !"_ZN11ap_int_baseILi64ELb1ELb1EE17countLeadingZerosEv", metadata !113, i32 1781, metadata !1330, i1 false, i1 false, i32 0, i32 0, null, i32 256, i1 false, null, null, i32 0, metadata !125, i32 1781} ; [ DW_TAG_subprogram ]
!1330 = metadata !{i32 786453, i32 0, metadata !"", i32 0, i32 0, i64 0, i64 0, i64 0, i32 0, null, metadata !1331, i32 0, i32 0} ; [ DW_TAG_subroutine_type ]
!1331 = metadata !{metadata !134, metadata !1153}
!1332 = metadata !{i32 786478, i32 0, metadata !1138, metadata !"operator++", metadata !"operator++", metadata !"_ZN11ap_int_baseILi64ELb1ELb1EEppEv", metadata !113, i32 1838, metadata !1310, i1 false, i1 false, i32 0, i32 0, null, i32 256, i1 false, null, null, i32 0, metadata !125, i32 1838} ; [ DW_TAG_subprogram ]
!1333 = metadata !{i32 786478, i32 0, metadata !1138, metadata !"operator--", metadata !"operator--", metadata !"_ZN11ap_int_baseILi64ELb1ELb1EEmmEv", metadata !113, i32 1842, metadata !1310, i1 false, i1 false, i32 0, i32 0, null, i32 256, i1 false, null, null, i32 0, metadata !125, i32 1842} ; [ DW_TAG_subprogram ]
!1334 = metadata !{i32 786478, i32 0, metadata !1138, metadata !"operator++", metadata !"operator++", metadata !"_ZN11ap_int_baseILi64ELb1ELb1EEppEi", metadata !113, i32 1850, metadata !1335, i1 false, i1 false, i32 0, i32 0, null, i32 256, i1 false, null, null, i32 0, metadata !125, i32 1850} ; [ DW_TAG_subprogram ]
!1335 = metadata !{i32 786453, i32 0, metadata !"", i32 0, i32 0, i64 0, i64 0, i64 0, i32 0, null, metadata !1336, i32 0, i32 0} ; [ DW_TAG_subroutine_type ]
!1336 = metadata !{metadata !1158, metadata !1153, metadata !134}
!1337 = metadata !{i32 786478, i32 0, metadata !1138, metadata !"operator--", metadata !"operator--", metadata !"_ZN11ap_int_baseILi64ELb1ELb1EEmmEi", metadata !113, i32 1855, metadata !1335, i1 false, i1 false, i32 0, i32 0, null, i32 256, i1 false, null, null, i32 0, metadata !125, i32 1855} ; [ DW_TAG_subprogram ]
!1338 = metadata !{i32 786478, i32 0, metadata !1138, metadata !"operator+", metadata !"operator+", metadata !"_ZNK11ap_int_baseILi64ELb1ELb1EEpsEv", metadata !113, i32 1864, metadata !1339, i1 false, i1 false, i32 0, i32 0, null, i32 256, i1 false, null, null, i32 0, metadata !125, i32 1864} ; [ DW_TAG_subprogram ]
!1339 = metadata !{i32 786453, i32 0, metadata !"", i32 0, i32 0, i64 0, i64 0, i64 0, i32 0, null, metadata !1340, i32 0, i32 0} ; [ DW_TAG_subroutine_type ]
!1340 = metadata !{metadata !1138, metadata !1267}
!1341 = metadata !{i32 786478, i32 0, metadata !1138, metadata !"operator!", metadata !"operator!", metadata !"_ZNK11ap_int_baseILi64ELb1ELb1EEntEv", metadata !113, i32 1870, metadata !1269, i1 false, i1 false, i32 0, i32 0, null, i32 256, i1 false, null, null, i32 0, metadata !125, i32 1870} ; [ DW_TAG_subprogram ]
