; ModuleID = '/home/tarafdar/workDir/galapagos/hlsIP_adm-8k5/ethernet_bridge/solution1/.autopilot/db/a.o.3.bc'
target datalayout = "e-p:64:64:64-i1:8:8-i8:8:8-i16:16:16-i32:32:32-i64:64:64-f32:32:32-f64:64:64-v64:64:64-v128:128:128-a0:0:64-s0:64:64-f80:128:128-n8:16:32:64-S128"
target triple = "x86_64-unknown-linux-gnu"

@state_V_1 = internal unnamed_addr global i3 0    ; [#uses=5 type=i3*]
@state_V = internal unnamed_addr global i3 0      ; [#uses=6 type=i3*]
@mac_table_V = global [256 x i48] zeroinitializer ; [#uses=1 type=[256 x i48]*]
@mac_addr_OC_V_c42_st = internal unnamed_addr constant [15 x i8] c"mac_addr.V_c42\00" ; [#uses=1 type=[15 x i8]*]
@mac_addr_OC_V_c_str = internal unnamed_addr constant [13 x i8] c"mac_addr.V_c\00" ; [#uses=1 type=[13 x i8]*]
@llvm_global_ctors_1 = appending global [1 x void ()*] [void ()* @_GLOBAL__I_a] ; [#uses=0 type=[1 x void ()*]*]
@llvm_global_ctors_0 = appending global [1 x i32] [i32 65535] ; [#uses=0 type=[1 x i32]*]
@ethernet_bridge_str = internal unnamed_addr constant [16 x i8] c"ethernet_bridge\00" ; [#uses=1 type=[16 x i8]*]
@eth_dst_src_V = internal unnamed_addr global i96 0 ; [#uses=2 type=i96*]
@dest_mac_address_V = internal unnamed_addr global i48 0 ; [#uses=2 type=i48*]
@dest_V = internal unnamed_addr global i8 0       ; [#uses=2 type=i8*]
@app_packet_out_last_s = internal unnamed_addr global i1 false ; [#uses=2 type=i1*]
@app_packet_in_tkeep_s = internal unnamed_addr global i8 0 ; [#uses=3 type=i8*]
@app_packet_in_tdest_s = internal unnamed_addr global i8 0 ; [#uses=3 type=i8*]
@app_packet_in_last_V = internal unnamed_addr global i1 false ; [#uses=3 type=i1*]
@app_packet_in_data_V = internal unnamed_addr global i64 0 ; [#uses=3 type=i64*]
@ap_fifo_str = internal unnamed_addr constant [8 x i8] c"ap_fifo\00" ; [#uses=14 type=[8 x i8]*]
@p_str3 = private unnamed_addr constant [13 x i8] c"ap_ctrl_none\00", align 1 ; [#uses=1 type=[13 x i8]*]
@p_str2 = private unnamed_addr constant [11 x i8] c"AXI4Stream\00", align 1 ; [#uses=8 type=[11 x i8]*]
@p_str = private unnamed_addr constant [1 x i8] zeroinitializer, align 1 ; [#uses=153 type=[1 x i8]*]

; [#uses=1]
declare i81 @llvm.part.select.i81(i81, i32, i32) nounwind readnone

; [#uses=1]
declare i8 @llvm.part.select.i8(i8, i32, i32) nounwind readnone

; [#uses=1]
declare i73 @llvm.part.select.i73(i73, i32, i32) nounwind readnone

; [#uses=1]
declare i64 @llvm.part.select.i64(i64, i32, i32) nounwind readnone

; [#uses=1]
declare i48 @llvm.part.select.i48(i48, i32, i32) nounwind readnone

; [#uses=48]
declare void @llvm.dbg.value(metadata, i64, metadata) nounwind readnone

; [#uses=1]
define internal fastcc void @ethernet_bridge.entr(i48 %mac_addr_V, i48* %mac_addr_V_out, i48* %mac_addr_V_out1) {
entry:
  call void (...)* @_ssdm_op_SpecInterface(i48* %mac_addr_V_out, [8 x i8]* @ap_fifo_str, i32 0, i32 0, [1 x i8]* @p_str, i32 0, i32 0, [1 x i8]* @p_str, [1 x i8]* @p_str, [1 x i8]* @p_str, i32 2, i32 2, i32 16, i32 16, [1 x i8]* @p_str, [1 x i8]* @p_str)
  %mac_addr_V_read = call i48 @_ssdm_op_Read.ap_auto.i48(i48 %mac_addr_V) ; [#uses=2 type=i48]
  call void @_ssdm_op_Write.ap_fifo.i48P(i48* %mac_addr_V_out, i48 %mac_addr_V_read)
  call void (...)* @_ssdm_op_SpecInterface(i48* %mac_addr_V_out1, [8 x i8]* @ap_fifo_str, i32 0, i32 0, [1 x i8]* @p_str, i32 0, i32 0, [1 x i8]* @p_str, [1 x i8]* @p_str, [1 x i8]* @p_str, i32 2, i32 2, i32 16, i32 16, [1 x i8]* @p_str, [1 x i8]* @p_str)
  call void @_ssdm_op_Write.ap_fifo.i48P(i48* %mac_addr_V_out1, i48 %mac_addr_V_read)
  ret void
}

; [#uses=0]
define void @ethernet_bridge(i81* %to_app_V, i73* %from_eth_V, i81* %from_app_V, i73* %to_eth_V, i48 %mac_addr_V) {
  %mac_addr_V_read = call i48 @_ssdm_op_Read.ap_auto.i48(i48 %mac_addr_V) ; [#uses=1 type=i48]
  call void @llvm.dbg.value(metadata !{i48 %mac_addr_V_read}, i64 0, metadata !169), !dbg !1508 ; [debug line = 85:71@232:5] [debug variable = op.V]
  call void @llvm.dbg.value(metadata !{i48 %mac_addr_V_read}, i64 0, metadata !3615), !dbg !3618 ; [debug line = 85:71@85:92@232:5] [debug variable = op.V]
  %mac_addr_V_c42 = alloca i48, align 8           ; [#uses=5 type=i48*]
  %mac_addr_V_c = alloca i48, align 8             ; [#uses=5 type=i48*]
  call void (...)* @_ssdm_op_SpecDataflowPipeline(i32 -1, [1 x i8]* @p_str) nounwind, !dbg !3620 ; [debug line = 207:1]
  call void (...)* @_ssdm_op_SpecInterface(i73* %to_eth_V, [8 x i8]* @ap_fifo_str, i32 0, i32 0, [1 x i8]* @p_str, i32 0, i32 0, [1 x i8]* @p_str, [1 x i8]* @p_str, [1 x i8]* @p_str, i32 2, i32 2, i32 16, i32 16, [1 x i8]* @p_str, [1 x i8]* @p_str)
  call void (...)* @_ssdm_op_SpecInterface(i81* %from_app_V, [8 x i8]* @ap_fifo_str, i32 0, i32 0, [1 x i8]* @p_str, i32 0, i32 0, [1 x i8]* @p_str, [1 x i8]* @p_str, [1 x i8]* @p_str, i32 2, i32 2, i32 16, i32 16, [1 x i8]* @p_str, [1 x i8]* @p_str)
  call void (...)* @_ssdm_op_SpecInterface(i73* %from_eth_V, [8 x i8]* @ap_fifo_str, i32 0, i32 0, [1 x i8]* @p_str, i32 0, i32 0, [1 x i8]* @p_str, [1 x i8]* @p_str, [1 x i8]* @p_str, i32 2, i32 2, i32 16, i32 16, [1 x i8]* @p_str, [1 x i8]* @p_str)
  call void (...)* @_ssdm_op_SpecInterface(i81* %to_app_V, [8 x i8]* @ap_fifo_str, i32 0, i32 0, [1 x i8]* @p_str, i32 0, i32 0, [1 x i8]* @p_str, [1 x i8]* @p_str, [1 x i8]* @p_str, i32 2, i32 2, i32 16, i32 16, [1 x i8]* @p_str, [1 x i8]* @p_str)
  call void (...)* @_ssdm_op_SpecBitsMap(i73* %to_eth_V), !map !3621
  call void (...)* @_ssdm_op_SpecBitsMap(i81* %from_app_V), !map !3631
  call void (...)* @_ssdm_op_SpecBitsMap(i73* %from_eth_V), !map !3644
  call void (...)* @_ssdm_op_SpecBitsMap(i81* %to_app_V), !map !3654
  call void (...)* @_ssdm_op_SpecBitsMap(i48 %mac_addr_V), !map !3667
  call void (...)* @_ssdm_op_SpecTopModule([16 x i8]* @ethernet_bridge_str) nounwind
  call void (...)* @_ssdm_op_SpecIFCore(i81* %to_app_V, [1 x i8]* @p_str, [11 x i8]* @p_str2, [1 x i8]* @p_str, i32 -1, [1 x i8]* @p_str, [1 x i8]* @p_str, [1 x i8]* @p_str, [1 x i8]* @p_str, [1 x i8]* @p_str)
  call void (...)* @_ssdm_op_SpecIFCore(i73* %from_eth_V, [1 x i8]* @p_str, [11 x i8]* @p_str2, [1 x i8]* @p_str, i32 -1, [1 x i8]* @p_str, [1 x i8]* @p_str, [1 x i8]* @p_str, [1 x i8]* @p_str, [1 x i8]* @p_str)
  call void (...)* @_ssdm_op_SpecIFCore(i81* %from_app_V, [1 x i8]* @p_str, [11 x i8]* @p_str2, [1 x i8]* @p_str, i32 -1, [1 x i8]* @p_str, [1 x i8]* @p_str, [1 x i8]* @p_str, [1 x i8]* @p_str, [1 x i8]* @p_str)
  call void (...)* @_ssdm_op_SpecIFCore(i73* %to_eth_V, [1 x i8]* @p_str, [11 x i8]* @p_str2, [1 x i8]* @p_str, i32 -1, [1 x i8]* @p_str, [1 x i8]* @p_str, [1 x i8]* @p_str, [1 x i8]* @p_str, [1 x i8]* @p_str)
  call void (...)* @_ssdm_op_SpecInterface(i32 0, [13 x i8]* @p_str3, i32 0, i32 0, [1 x i8]* @p_str, i32 0, i32 0, [1 x i8]* @p_str, [1 x i8]* @p_str, [1 x i8]* @p_str, i32 0, i32 0, i32 0, i32 0, [1 x i8]* @p_str, [1 x i8]* @p_str) nounwind, !dbg !3673 ; [debug line = 229:1]
  call void @llvm.dbg.value(metadata !{i81* %to_app_V}, i64 0, metadata !3674), !dbg !3715 ; [debug line = 200:31] [debug variable = to_app.V]
  call void @llvm.dbg.value(metadata !{i73* %from_eth_V}, i64 0, metadata !3716), !dbg !3735 ; [debug line = 201:34] [debug variable = from_eth.V]
  call void @llvm.dbg.value(metadata !{i81* %from_app_V}, i64 0, metadata !3736), !dbg !3742 ; [debug line = 202:31] [debug variable = from_app.V]
  call void @llvm.dbg.value(metadata !{i73* %to_eth_V}, i64 0, metadata !3743), !dbg !3748 ; [debug line = 203:34] [debug variable = to_eth.V]
  call void @llvm.dbg.value(metadata !{i48 %mac_addr_V}, i64 0, metadata !169), !dbg !1508 ; [debug line = 85:71@232:5] [debug variable = op.V]
  call void @llvm.dbg.value(metadata !{i48 %mac_addr_V}, i64 0, metadata !3615), !dbg !3618 ; [debug line = 85:71@85:92@232:5] [debug variable = op.V]
  %empty = call i32 (...)* @_ssdm_op_SpecChannel([13 x i8]* @mac_addr_OC_V_c_str, i32 1, [1 x i8]* @p_str, [1 x i8]* @p_str, i32 2, i32 0, i48* %mac_addr_V_c, i48* %mac_addr_V_c) ; [#uses=0 type=i32]
  call void (...)* @_ssdm_op_SpecInterface(i48* %mac_addr_V_c, [8 x i8]* @ap_fifo_str, i32 0, i32 0, [1 x i8]* @p_str, i32 0, i32 0, [1 x i8]* @p_str, [1 x i8]* @p_str, [1 x i8]* @p_str, i32 2, i32 2, i32 16, i32 16, [1 x i8]* @p_str, [1 x i8]* @p_str)
  %empty_15 = call i32 (...)* @_ssdm_op_SpecChannel([15 x i8]* @mac_addr_OC_V_c42_st, i32 1, [1 x i8]* @p_str, [1 x i8]* @p_str, i32 2, i32 0, i48* %mac_addr_V_c42, i48* %mac_addr_V_c42) ; [#uses=0 type=i32]
  call void (...)* @_ssdm_op_SpecInterface(i48* %mac_addr_V_c42, [8 x i8]* @ap_fifo_str, i32 0, i32 0, [1 x i8]* @p_str, i32 0, i32 0, [1 x i8]* @p_str, [1 x i8]* @p_str, [1 x i8]* @p_str, i32 2, i32 2, i32 16, i32 16, [1 x i8]* @p_str, [1 x i8]* @p_str)
  call fastcc void @ethernet_bridge.entr(i48 %mac_addr_V_read, i48* %mac_addr_V_c, i48* %mac_addr_V_c42)
  call fastcc void @eth_to_app(i73* %from_eth_V, i81* %to_app_V, i48* nocapture %mac_addr_V_c)
  call fastcc void @app_to_eth(i81* %from_app_V, i73* %to_eth_V, i48* nocapture %mac_addr_V_c42)
  ret void, !dbg !3749                            ; [debug line = 234:1]
}

; [#uses=1]
define internal fastcc void @eth_to_app(i73* %from_eth_V, i81* %to_app_V, i48* nocapture %mac_address_V) {
entry:
  call void (...)* @_ssdm_op_SpecIFCore(i73* %from_eth_V, [1 x i8]* @p_str, [11 x i8]* @p_str2, [1 x i8]* @p_str, i32 -1, [1 x i8]* @p_str, [1 x i8]* @p_str, [1 x i8]* @p_str, [1 x i8]* @p_str, [1 x i8]* @p_str)
  call void (...)* @_ssdm_op_SpecIFCore(i81* %to_app_V, [1 x i8]* @p_str, [11 x i8]* @p_str2, [1 x i8]* @p_str, i32 -1, [1 x i8]* @p_str, [1 x i8]* @p_str, [1 x i8]* @p_str, [1 x i8]* @p_str, [1 x i8]* @p_str)
  call void (...)* @_ssdm_op_SpecInterface(i81* %to_app_V, [8 x i8]* @ap_fifo_str, i32 0, i32 0, [1 x i8]* @p_str, i32 0, i32 0, [1 x i8]* @p_str, [1 x i8]* @p_str, [1 x i8]* @p_str, i32 2, i32 2, i32 16, i32 16, [1 x i8]* @p_str, [1 x i8]* @p_str)
  call void (...)* @_ssdm_op_SpecInterface(i73* %from_eth_V, [8 x i8]* @ap_fifo_str, i32 0, i32 0, [1 x i8]* @p_str, i32 0, i32 0, [1 x i8]* @p_str, [1 x i8]* @p_str, [1 x i8]* @p_str, i32 2, i32 2, i32 16, i32 16, [1 x i8]* @p_str, [1 x i8]* @p_str)
  call void (...)* @_ssdm_op_SpecInterface(i48* %mac_address_V, [8 x i8]* @ap_fifo_str, i32 0, i32 0, [1 x i8]* @p_str, i32 0, i32 0, [1 x i8]* @p_str, [1 x i8]* @p_str, [1 x i8]* @p_str, i32 2, i32 2, i32 16, i32 16, [1 x i8]* @p_str, [1 x i8]* @p_str)
  %mac_address_V_read = call i48 @_ssdm_op_Read.ap_fifo.i48P(i48* %mac_address_V) ; [#uses=1 type=i48]
  call void @llvm.dbg.value(metadata !{i73* %from_eth_V}, i64 0, metadata !3750), !dbg !3758 ; [debug line = 56:42] [debug variable = from_eth.V]
  call void @llvm.dbg.value(metadata !{i81* %to_app_V}, i64 0, metadata !3759), !dbg !3765 ; [debug line = 57:42] [debug variable = to_app.V]
  call void (...)* @_ssdm_op_SpecPipeline(i32 1, i32 1, i32 1, i32 0, [1 x i8]* @p_str) nounwind, !dbg !3766 ; [debug line = 60:1]
  %state_V_1_load = load i3* @state_V_1, align 1, !dbg !3768 ; [#uses=1 type=i3] [debug line = 1710:68@69:13]
  switch i3 %state_V_1_load, label %.exit [
    i3 0, label %0
    i3 2, label %2
    i3 3, label %4
    i3 1, label %6
  ], !dbg !4030                                   ; [debug line = 69:13]

; <label>:0                                       ; preds = %entry
  %tmp = call i1 @_ssdm_op_NbReadReq.ap_fifo.i73P(i73* %from_eth_V, i32 1) ; [#uses=1 type=i1]
  call void @llvm.dbg.value(metadata !{i1 %tmp}, i64 0, metadata !4031), !dbg !4034 ; [debug line = 113:20@73:12] [debug variable = tmp]
  br i1 %tmp, label %1, label %._crit_edge169.i, !dbg !4035 ; [debug line = 73:12]

; <label>:1                                       ; preds = %0
  %tmp9 = call i73 @_ssdm_op_Read.ap_fifo.volatile.i73P(i73* %from_eth_V) ; [#uses=6 type=i73]
  call void @llvm.dbg.value(metadata !{i73 %tmp9}, i64 0, metadata !4037), !dbg !4044 ; [debug line = 130:22@74:33] [debug variable = tmp9]
  %tmp_4 = trunc i73 %tmp9 to i8                  ; [#uses=1 type=i8]
  %tmp_5 = call i8 @_ssdm_op_PartSelect.i8.i73.i32.i32(i73 %tmp9, i32 8, i32 15) ; [#uses=1 type=i8]
  %tmp_6 = call i8 @_ssdm_op_PartSelect.i8.i73.i32.i32(i73 %tmp9, i32 16, i32 23) ; [#uses=1 type=i8]
  %tmp_7 = call i8 @_ssdm_op_PartSelect.i8.i73.i32.i32(i73 %tmp9, i32 32, i32 39) ; [#uses=1 type=i8]
  %tmp_8 = call i8 @_ssdm_op_PartSelect.i8.i73.i32.i32(i73 %tmp9, i32 24, i32 31) ; [#uses=1 type=i8]
  %tmp_9 = call i8 @_ssdm_op_PartSelect.i8.i73.i32.i32(i73 %tmp9, i32 40, i32 47) ; [#uses=1 type=i8]
  %observedAddress_V = call i48 @_ssdm_op_BitConcatenate.i48.i8.i8.i8.i8.i8.i8(i8 %tmp_4, i8 %tmp_5, i8 %tmp_6, i8 %tmp_8, i8 %tmp_7, i8 %tmp_9), !dbg !4047 ; [#uses=1 type=i48] [debug line = 941:81@1538:15@91:99@91:100@76:35]
  call void @llvm.dbg.value(metadata !{i48 %observedAddress_V}, i64 0, metadata !4061), !dbg !4069 ; [debug line = 174:5@76:35] [debug variable = observedAddress.V]
  %tmp_i = icmp eq i48 %observedAddress_V, %mac_address_V_read, !dbg !4072 ; [#uses=1 type=i1] [debug line = 2034:5@78:20]
  %storemerge1_cast_i_c = select i1 %tmp_i, i3 2, i3 1, !dbg !4075 ; [#uses=1 type=i3] [debug line = 78:20]
  store i3 %storemerge1_cast_i_c, i3* @state_V_1, align 1, !dbg !4076 ; [debug line = 281:5@79:21]
  br label %._crit_edge169.i, !dbg !4168          ; [debug line = 84:13]

._crit_edge169.i:                                 ; preds = %1, %0
  br label %.exit, !dbg !4169                     ; [debug line = 85:13]

; <label>:2                                       ; preds = %entry
  %tmp_1 = call i1 @_ssdm_op_NbReadReq.ap_fifo.i73P(i73* %from_eth_V, i32 1) ; [#uses=1 type=i1]
  call void @llvm.dbg.value(metadata !{i1 %tmp_1}, i64 0, metadata !4031), !dbg !4170 ; [debug line = 113:20@87:12] [debug variable = tmp]
  br i1 %tmp_1, label %3, label %._crit_edge170.i, !dbg !4171 ; [debug line = 87:12]

; <label>:3                                       ; preds = %2
  %tmp_122 = call i73 @_ssdm_op_Read.ap_fifo.volatile.i73P(i73* %from_eth_V) ; [#uses=1 type=i73]
  call void @llvm.dbg.value(metadata !{i73 %tmp_122}, i64 0, metadata !4172), !dbg !4173 ; [debug line = 130:22@88:33] [debug variable = tmp.122]
  %tmp_s = call i8 @_ssdm_op_PartSelect.i8.i73.i32.i32(i73 %tmp_122, i32 48, i32 55) ; [#uses=1 type=i8]
  store i8 %tmp_s, i8* @dest_V, align 1, !dbg !4176 ; [debug line = 281:5@90:18]
  store i3 3, i3* @state_V_1, align 1, !dbg !4793 ; [debug line = 281:5@91:17]
  br label %._crit_edge170.i, !dbg !4795          ; [debug line = 93:13]

._crit_edge170.i:                                 ; preds = %3, %2
  br label %.exit, !dbg !4796                     ; [debug line = 94:13]

; <label>:4                                       ; preds = %entry
  %tmp_tdest_V = load i8* @dest_V, align 1        ; [#uses=1 type=i8]
  %tmp_2 = call i1 @_ssdm_op_NbReadReq.ap_fifo.i73P(i73* %from_eth_V, i32 1) ; [#uses=1 type=i1]
  call void @llvm.dbg.value(metadata !{i1 %tmp_2}, i64 0, metadata !4031), !dbg !4797 ; [debug line = 113:20@97:12] [debug variable = tmp]
  %app_packet_out_last_1 = load i1* @app_packet_out_last_s, align 1, !dbg !4799 ; [#uses=1 type=i1] [debug line = 1710:68@106:16]
  br i1 %tmp_2, label %5, label %._crit_edge171.i, !dbg !4798 ; [debug line = 97:12]

; <label>:5                                       ; preds = %4
  %tmp_235 = call i73 @_ssdm_op_Read.ap_fifo.volatile.i73P(i73* %from_eth_V) ; [#uses=10 type=i73]
  call void @llvm.dbg.value(metadata !{i73 %tmp_235}, i64 0, metadata !4803), !dbg !4804 ; [debug line = 130:22@98:33] [debug variable = tmp.235]
  %tmp_last_V = call i1 @_ssdm_op_BitSelect.i1.i73.i32(i73 %tmp_235, i32 64), !dbg !4807 ; [#uses=3 type=i1] [debug line = 281:5@8:8@98:33]
  %tmp_11 = trunc i73 %tmp_235 to i8              ; [#uses=1 type=i8]
  %tmp_12 = call i8 @_ssdm_op_PartSelect.i8.i73.i32.i32(i73 %tmp_235, i32 56, i32 63) ; [#uses=1 type=i8]
  %tmp_13 = call i8 @_ssdm_op_PartSelect.i8.i73.i32.i32(i73 %tmp_235, i32 8, i32 15) ; [#uses=1 type=i8]
  %tmp_14 = call i8 @_ssdm_op_PartSelect.i8.i73.i32.i32(i73 %tmp_235, i32 16, i32 23) ; [#uses=1 type=i8]
  %tmp_15 = call i8 @_ssdm_op_PartSelect.i8.i73.i32.i32(i73 %tmp_235, i32 32, i32 39) ; [#uses=1 type=i8]
  %tmp_16 = call i8 @_ssdm_op_PartSelect.i8.i73.i32.i32(i73 %tmp_235, i32 48, i32 55) ; [#uses=1 type=i8]
  %tmp_17 = call i8 @_ssdm_op_PartSelect.i8.i73.i32.i32(i73 %tmp_235, i32 24, i32 31) ; [#uses=1 type=i8]
  %tmp_18 = call i8 @_ssdm_op_PartSelect.i8.i73.i32.i32(i73 %tmp_235, i32 40, i32 47) ; [#uses=1 type=i8]
  store i1 %tmp_last_V, i1* @app_packet_out_last_s, align 8, !dbg !4813 ; [debug line = 281:5@103:17]
  call void @llvm.dbg.value(metadata !{i1 %tmp_last_V}, i64 0, metadata !4815), !dbg !4819 ; [debug line = 145:31@104:17] [debug variable = tmp.last.V]
  call void @llvm.dbg.value(metadata !{i8 %tmp_tdest_V}, i64 0, metadata !4821), !dbg !4819 ; [debug line = 145:31@104:17] [debug variable = tmp.tdest.V]
  %tmp_19 = call i8 @_ssdm_op_PartSelect.i8.i73.i32.i32(i73 %tmp_235, i32 72, i32 65), !dbg !4819 ; [#uses=1 type=i8] [debug line = 145:31@104:17]
  %tmp_31 = call i81 @_ssdm_op_BitConcatenate.i81.i8.i8.i1.i8.i8.i8.i8.i8.i8.i8.i8(i8 %tmp_19, i8 %tmp_tdest_V, i1 %tmp_last_V, i8 %tmp_11, i8 %tmp_13, i8 %tmp_14, i8 %tmp_17, i8 %tmp_15, i8 %tmp_18, i8 %tmp_16, i8 %tmp_12), !dbg !4819 ; [#uses=1 type=i81] [debug line = 145:31@104:17]
  call void @llvm.dbg.value(metadata !{i81 %tmp_31}, i64 0, metadata !4822), !dbg !4819 ; [debug line = 145:31@104:17] [debug variable = tmp.31]
  call void @_ssdm_op_Write.ap_fifo.volatile.i81P(i81* %to_app_V, i81 %tmp_31)
  br label %._crit_edge171.i, !dbg !4825          ; [debug line = 105:13]

._crit_edge171.i:                                 ; preds = %5, %4
  %app_packet_out_last_2 = phi i1 [ %tmp_last_V, %5 ], [ %app_packet_out_last_1, %4 ] ; [#uses=1 type=i1]
  %storemerge2_cast_i_c = select i1 %app_packet_out_last_2, i3 0, i3 3, !dbg !4802 ; [#uses=1 type=i3] [debug line = 106:16]
  store i3 %storemerge2_cast_i_c, i3* @state_V_1, align 1, !dbg !4826 ; [debug line = 281:5@107:17]
  br label %.exit, !dbg !4829                     ; [debug line = 112:13]

; <label>:6                                       ; preds = %entry
  %tmp_3 = call i1 @_ssdm_op_NbReadReq.ap_fifo.i73P(i73* %from_eth_V, i32 1) ; [#uses=1 type=i1]
  call void @llvm.dbg.value(metadata !{i1 %tmp_3}, i64 0, metadata !4031), !dbg !4830 ; [debug line = 113:20@114:12] [debug variable = tmp]
  br i1 %tmp_3, label %7, label %._crit_edge172.i, !dbg !4831 ; [debug line = 114:12]

; <label>:7                                       ; preds = %6
  %tmp_448 = call i73 @_ssdm_op_Read.ap_fifo.volatile.i73P(i73* %from_eth_V) ; [#uses=1 type=i73]
  call void @llvm.dbg.value(metadata !{i73 %tmp_448}, i64 0, metadata !4832), !dbg !4833 ; [debug line = 130:22@115:33] [debug variable = tmp.448]
  %tmp_20 = call i1 @_ssdm_op_BitSelect.i1.i73.i32(i73 %tmp_448, i32 64), !dbg !4836 ; [#uses=1 type=i1] [debug line = 281:5@8:8@115:33]
  %not_tmp_last_V_4_loa = xor i1 %tmp_20, true, !dbg !4838 ; [#uses=1 type=i1] [debug line = 116:20]
  %storemerge_cast_i = zext i1 %not_tmp_last_V_4_loa to i3, !dbg !4838 ; [#uses=1 type=i3] [debug line = 116:20]
  store i3 %storemerge_cast_i, i3* @state_V_1, align 1, !dbg !4839 ; [debug line = 281:5@117:21]
  br label %._crit_edge172.i, !dbg !4842          ; [debug line = 122:13]

._crit_edge172.i:                                 ; preds = %7, %6
  br label %.exit, !dbg !4843                     ; [debug line = 123:13]

.exit:                                            ; preds = %._crit_edge172.i, %._crit_edge171.i, %._crit_edge170.i, %._crit_edge169.i, %entry
  ret void
}

; [#uses=1]
define internal fastcc void @app_to_eth(i81* %from_app_V, i73* %to_eth_V, i48* nocapture %src_mac_address_V) {
entry:
  call void (...)* @_ssdm_op_SpecIFCore(i73* %to_eth_V, [1 x i8]* @p_str, [11 x i8]* @p_str2, [1 x i8]* @p_str, i32 -1, [1 x i8]* @p_str, [1 x i8]* @p_str, [1 x i8]* @p_str, [1 x i8]* @p_str, [1 x i8]* @p_str)
  call void (...)* @_ssdm_op_SpecIFCore(i81* %from_app_V, [1 x i8]* @p_str, [11 x i8]* @p_str2, [1 x i8]* @p_str, i32 -1, [1 x i8]* @p_str, [1 x i8]* @p_str, [1 x i8]* @p_str, [1 x i8]* @p_str, [1 x i8]* @p_str)
  call void (...)* @_ssdm_op_SpecInterface(i81* %from_app_V, [8 x i8]* @ap_fifo_str, i32 0, i32 0, [1 x i8]* @p_str, i32 0, i32 0, [1 x i8]* @p_str, [1 x i8]* @p_str, [1 x i8]* @p_str, i32 2, i32 2, i32 16, i32 16, [1 x i8]* @p_str, [1 x i8]* @p_str)
  call void (...)* @_ssdm_op_SpecInterface(i73* %to_eth_V, [8 x i8]* @ap_fifo_str, i32 0, i32 0, [1 x i8]* @p_str, i32 0, i32 0, [1 x i8]* @p_str, [1 x i8]* @p_str, [1 x i8]* @p_str, i32 2, i32 2, i32 16, i32 16, [1 x i8]* @p_str, [1 x i8]* @p_str)
  call void (...)* @_ssdm_op_SpecInterface(i48* %src_mac_address_V, [8 x i8]* @ap_fifo_str, i32 0, i32 0, [1 x i8]* @p_str, i32 0, i32 0, [1 x i8]* @p_str, [1 x i8]* @p_str, [1 x i8]* @p_str, i32 2, i32 2, i32 16, i32 16, [1 x i8]* @p_str, [1 x i8]* @p_str)
  %p_Repl2_1 = call i48 @_ssdm_op_Read.ap_fifo.i48P(i48* %src_mac_address_V) ; [#uses=2 type=i48]
  call void @llvm.dbg.value(metadata !{i81* %from_app_V}, i64 0, metadata !4844), !dbg !4853 ; [debug line = 130:31] [debug variable = from_app.V]
  call void @llvm.dbg.value(metadata !{i73* %to_eth_V}, i64 0, metadata !4854), !dbg !4859 ; [debug line = 131:31] [debug variable = to_eth.V]
  call void (...)* @_ssdm_op_SpecPipeline(i32 1, i32 1, i32 1, i32 0, [1 x i8]* @p_str) nounwind, !dbg !4860 ; [debug line = 135:1]
  %p_Val2_s = load i96* @eth_dst_src_V, align 8, !dbg !4862 ; [#uses=1 type=i96] [debug line = 941:79@1538:15@91:99@91:100@144:21]
  call void @llvm.dbg.value(metadata !{i96 %p_Val2_s}, i64 0, metadata !5279), !dbg !4862 ; [debug line = 941:79@1538:15@91:99@91:100@144:21] [debug variable = __Val2__]
  %temp_V = trunc i96 %p_Val2_s to i32, !dbg !5280 ; [#uses=1 type=i32] [debug line = 941:81@1538:15@91:99@91:100@144:21]
  call void @llvm.dbg.value(metadata !{i32 %temp_V}, i64 0, metadata !5281), !dbg !5179 ; [debug line = 1538:15@91:99@91:100@144:21] [debug variable = temp.V]
  call void @llvm.dbg.value(metadata !{i32 %temp_V}, i64 0, metadata !5289), !dbg !5585 ; [debug line = 888:181@1548:87@97:116@97:117@146:22] [debug variable = __Repl2__]
  %state_V_load = load i3* @state_V, align 1, !dbg !5602 ; [#uses=1 type=i3] [debug line = 1710:68@147:13]
  %lhs_V = load i64* @app_packet_in_data_V, align 8, !dbg !5604 ; [#uses=8 type=i64] [debug line = 191:77@191:92@172:32]
  %app_packet_in_last_V_1 = load i1* @app_packet_in_last_V, align 1, !dbg !5613 ; [#uses=1 type=i1] [debug line = 1710:68@174:16]
  %p_Repl2_2 = load i48* @dest_mac_address_V, align 8, !dbg !5615 ; [#uses=2 type=i48] [debug line = 888:181@2490:87@206:117@206:118@158:24]
  %app_packet_in_tkeep_1 = load i8* @app_packet_in_tkeep_s, align 1, !dbg !5750 ; [#uses=1 type=i8] [debug line = 171:36]
  switch i3 %state_V_load, label %.exit [
    i3 0, label %0
    i3 1, label %2
    i3 2, label %3
    i3 3, label %4
    i3 -4, label %5
  ], !dbg !5603                                   ; [debug line = 147:13]

; <label>:0                                       ; preds = %entry
  %tmp = call i1 @_ssdm_op_NbReadReq.ap_fifo.i81P(i81* %from_app_V, i32 1) ; [#uses=1 type=i1]
  call void @llvm.dbg.value(metadata !{i1 %tmp}, i64 0, metadata !5751), !dbg !5754 ; [debug line = 113:20@151:12] [debug variable = tmp]
  br i1 %tmp, label %1, label %._crit_edge301.i, !dbg !5755 ; [debug line = 151:12]

; <label>:1                                       ; preds = %0
  %tmp27 = call i81 @_ssdm_op_Read.ap_fifo.volatile.i81P(i81* %from_app_V) ; [#uses=4 type=i81]
  call void @llvm.dbg.value(metadata !{i81 %tmp27}, i64 0, metadata !5756), !dbg !5764 ; [debug line = 130:22@152:33] [debug variable = tmp27]
  %tmp_39 = trunc i81 %tmp27 to i64, !dbg !5767   ; [#uses=1 type=i64] [debug line = 174:5@14:8@152:33]
  store i64 %tmp_39, i64* @app_packet_in_data_V, align 8, !dbg !5767 ; [debug line = 174:5@14:8@152:33]
  %tmp_40 = call i1 @_ssdm_op_BitSelect.i1.i81.i32(i81 %tmp27, i32 64), !dbg !5775 ; [#uses=1 type=i1] [debug line = 281:5@14:8@152:33]
  store i1 %tmp_40, i1* @app_packet_in_last_V, align 8, !dbg !5775 ; [debug line = 281:5@14:8@152:33]
  %tmp_tdest_V_load_new = call i8 @_ssdm_op_PartSelect.i8.i81.i32.i32(i81 %tmp27, i32 65, i32 72), !dbg !5776 ; [#uses=2 type=i8] [debug line = 281:5@14:8@152:33]
  store i8 %tmp_tdest_V_load_new, i8* @app_packet_in_tdest_s, align 1, !dbg !5776 ; [debug line = 281:5@14:8@152:33]
  %tmp_tkeep_V_7_load_n = call i8 @_ssdm_op_PartSelect.i8.i81.i32.i32(i81 %tmp27, i32 73, i32 80), !dbg !5776 ; [#uses=1 type=i8] [debug line = 281:5@14:8@152:33]
  store i8 %tmp_tkeep_V_7_load_n, i8* @app_packet_in_tkeep_s, align 2, !dbg !5776 ; [debug line = 281:5@14:8@152:33]
  %tmp_i = zext i8 %tmp_tdest_V_load_new to i64, !dbg !5779 ; [#uses=1 type=i64] [debug line = 153:46]
  %mac_table_V_addr = getelementptr [256 x i48]* @mac_table_V, i64 0, i64 %tmp_i, !dbg !5780 ; [#uses=1 type=i48*] [debug line = 281:5@153:46]
  %mac_table_V_load = load i48* %mac_table_V_addr, align 8, !dbg !5780 ; [#uses=1 type=i48] [debug line = 281:5@153:46]
  store i48 %mac_table_V_load, i48* @dest_mac_address_V, align 8, !dbg !5780 ; [debug line = 281:5@153:46]
  store i3 1, i3* @state_V, align 1, !dbg !5783   ; [debug line = 281:5@154:17]
  br label %._crit_edge301.i, !dbg !5785          ; [debug line = 155:13]

._crit_edge301.i:                                 ; preds = %1, %0
  br label %.exit, !dbg !5786                     ; [debug line = 156:13]

; <label>:2                                       ; preds = %entry
  call void @llvm.dbg.value(metadata !{i48 %p_Repl2_1}, i64 0, metadata !5787), !dbg !5789 ; [debug line = 886:181@2490:87@206:117@206:118@158:24] [debug variable = __Repl2__]
  call void @llvm.dbg.value(metadata !{i48 %p_Repl2_2}, i64 0, metadata !5790), !dbg !5615 ; [debug line = 888:181@2490:87@206:117@206:118@158:24] [debug variable = __Repl2__]
  %p_Result_s = call i96 @_ssdm_op_BitConcatenate.i96.i48.i48(i48 %p_Repl2_2, i48 %p_Repl2_1), !dbg !5791 ; [#uses=1 type=i96] [debug line = 888:183@2490:87@206:117@206:118@158:24]
  call void @llvm.dbg.value(metadata !{i96 %p_Result_s}, i64 0, metadata !5792), !dbg !5791 ; [debug line = 888:183@2490:87@206:117@206:118@158:24] [debug variable = __Result__]
  call void @llvm.dbg.value(metadata !{i96 %p_Result_s}, i64 0, metadata !5793), !dbg !5799 ; [debug line = 888:0@2490:87@206:117@206:118@158:24] [debug variable = tmpVal.V]
  store i96 %p_Result_s, i96* @eth_dst_src_V, align 8, !dbg !5800 ; [debug line = 281:5@158:24]
  call void @llvm.dbg.value(metadata !{i96 %p_Result_s}, i64 0, metadata !5279), !dbg !5803 ; [debug line = 941:79@1538:15@91:99@91:100@160:32] [debug variable = __Val2__]
  %tmp_5_i = call i16 @_ssdm_op_PartSelect.i16.i48.i32.i32(i48 %p_Repl2_1, i32 32, i32 47) ; [#uses=1 type=i16]
  %tmp_1 = call i73 @_ssdm_op_BitConcatenate.i73.i9.i48.i16(i9 -2, i48 %p_Repl2_2, i16 %tmp_5_i), !dbg !5816 ; [#uses=1 type=i73] [debug line = 145:31@161:13]
  call void @llvm.dbg.value(metadata !{i73 %tmp_1}, i64 0, metadata !5820), !dbg !5816 ; [debug line = 145:31@161:13] [debug variable = tmp.1]
  call void @_ssdm_op_Write.ap_fifo.volatile.i73P(i73* %to_eth_V, i73 %tmp_1)
  store i3 2, i3* @state_V, align 1, !dbg !5825   ; [debug line = 281:5@162:13]
  br label %.exit, !dbg !5827                     ; [debug line = 163:13]

; <label>:3                                       ; preds = %entry
  %p_Repl2_3 = load i8* @app_packet_in_tdest_s, align 1, !dbg !5828 ; [#uses=1 type=i8] [debug line = 886:181@1548:87@97:116@97:117@166:32]
  call void @llvm.dbg.value(metadata !{i8 %p_Repl2_3}, i64 0, metadata !6148), !dbg !5828 ; [debug line = 886:181@1548:87@97:116@97:117@166:32] [debug variable = __Repl2__]
  %p_Result_1 = call i56 @_ssdm_op_BitConcatenate.i56.i32.i16.i8(i32 %temp_V, i16 29696, i8 %p_Repl2_3), !dbg !6149 ; [#uses=1 type=i56] [debug line = 888:183@1548:87@97:116@97:117@166:32]
  call void @llvm.dbg.value(metadata !{i56 %p_Result_1}, i64 0, metadata !6151), !dbg !6149 ; [debug line = 888:183@1548:87@97:116@97:117@166:32] [debug variable = __Result__]
  call void @llvm.dbg.value(metadata !{i56 %p_Result_1}, i64 0, metadata !6152), !dbg !6158 ; [debug line = 888:0@1548:87@97:116@97:117@166:32] [debug variable = tmpVal.V]
  %tmp_data_V = zext i56 %p_Result_1 to i64, !dbg !6159 ; [#uses=1 type=i64] [debug line = 1549:5@97:116@97:117@166:32]
  call void @llvm.dbg.value(metadata !{i64 %tmp_data_V}, i64 0, metadata !5822), !dbg !6160 ; [debug line = 145:31@167:13] [debug variable = tmp.data.V]
  %tmp_2 = call i73 @_ssdm_op_BitConcatenate.i73.i9.i64(i9 -2, i64 %tmp_data_V), !dbg !6160 ; [#uses=1 type=i73] [debug line = 145:31@167:13]
  call void @llvm.dbg.value(metadata !{i73 %tmp_2}, i64 0, metadata !6162), !dbg !6160 ; [debug line = 145:31@167:13] [debug variable = tmp.2]
  call void @_ssdm_op_Write.ap_fifo.volatile.i73P(i73* %to_eth_V, i73 %tmp_2)
  store i3 3, i3* @state_V, align 1, !dbg !6163   ; [debug line = 281:5@168:13]
  br label %.exit, !dbg !6165                     ; [debug line = 169:13]

; <label>:4                                       ; preds = %entry
  call void @llvm.dbg.value(metadata !{i64 %lhs_V}, i64 0, metadata !6166), !dbg !6504 ; [debug line = 3432:0@3524:0@23:8@172:32] [debug variable = lhs.V]
  call void @llvm.dbg.value(metadata !{i64 %lhs_V}, i64 0, metadata !6505), !dbg !6520 ; [debug line = 3432:0@3527:0@23:41@172:32] [debug variable = lhs.V]
  %tmp_38 = trunc i64 %lhs_V to i8                ; [#uses=1 type=i8]
  %tmp_s = call i8 @_ssdm_op_PartSelect.i8.i64.i32.i32(i64 %lhs_V, i32 56, i32 63) ; [#uses=1 type=i8]
  %tmp_20 = call i8 @_ssdm_op_PartSelect.i8.i64.i32.i32(i64 %lhs_V, i32 8, i32 15) ; [#uses=1 type=i8]
  %tmp_21 = call i8 @_ssdm_op_PartSelect.i8.i64.i32.i32(i64 %lhs_V, i32 16, i32 23) ; [#uses=1 type=i8]
  %tmp_22 = call i8 @_ssdm_op_PartSelect.i8.i64.i32.i32(i64 %lhs_V, i32 32, i32 39) ; [#uses=1 type=i8]
  %tmp_23 = call i8 @_ssdm_op_PartSelect.i8.i64.i32.i32(i64 %lhs_V, i32 48, i32 55) ; [#uses=1 type=i8]
  %tmp_24 = call i8 @_ssdm_op_PartSelect.i8.i64.i32.i32(i64 %lhs_V, i32 24, i32 31) ; [#uses=1 type=i8]
  %tmp_25 = call i8 @_ssdm_op_PartSelect.i8.i64.i32.i32(i64 %lhs_V, i32 40, i32 47) ; [#uses=1 type=i8]
  %tmp_26 = call i8 @_ssdm_op_PartSelect.i8.i8.i32.i32(i8 %app_packet_in_tkeep_1, i32 7, i32 0), !dbg !6521 ; [#uses=1 type=i8] [debug line = 145:31@173:13]
  %tmp_3 = call i73 @_ssdm_op_BitConcatenate.i73.i8.i1.i8.i8.i8.i8.i8.i8.i8.i8(i8 %tmp_26, i1 false, i8 %tmp_38, i8 %tmp_20, i8 %tmp_21, i8 %tmp_24, i8 %tmp_22, i8 %tmp_25, i8 %tmp_23, i8 %tmp_s), !dbg !6521 ; [#uses=1 type=i73] [debug line = 145:31@173:13]
  call void @llvm.dbg.value(metadata !{i73 %tmp_3}, i64 0, metadata !6523), !dbg !6521 ; [debug line = 145:31@173:13] [debug variable = tmp.3]
  call void @_ssdm_op_Write.ap_fifo.volatile.i73P(i73* %to_eth_V, i73 %tmp_3)
  %storemerge3_i = select i1 %app_packet_in_last_V_1, i3 0, i3 -4, !dbg !5614 ; [#uses=1 type=i3] [debug line = 174:16]
  store i3 %storemerge3_i, i3* @state_V, align 1, !dbg !6524 ; [debug line = 281:5@175:17]
  br label %.exit, !dbg !6526                     ; [debug line = 178:13]

; <label>:5                                       ; preds = %entry
  %tmp_4 = call i1 @_ssdm_op_NbReadReq.ap_fifo.i81P(i81* %from_app_V, i32 1) ; [#uses=1 type=i1]
  call void @llvm.dbg.value(metadata !{i1 %tmp_4}, i64 0, metadata !5751), !dbg !6527 ; [debug line = 113:20@180:12] [debug variable = tmp]
  br i1 %tmp_4, label %6, label %._crit_edge302.i, !dbg !6528 ; [debug line = 180:12]

; <label>:6                                       ; preds = %5
  %tmp_4_1 = call i81 @_ssdm_op_Read.ap_fifo.volatile.i81P(i81* %from_app_V) ; [#uses=13 type=i81]
  call void @llvm.dbg.value(metadata !{i81 %tmp_4_1}, i64 0, metadata !6529), !dbg !6530 ; [debug line = 130:22@181:33] [debug variable = tmp.4]
  %lhs_V_1 = trunc i81 %tmp_4_1 to i64, !dbg !6533 ; [#uses=1 type=i64] [debug line = 174:5@14:8@181:33]
  store i64 %lhs_V_1, i64* @app_packet_in_data_V, align 8, !dbg !6533 ; [debug line = 174:5@14:8@181:33]
  %tmp_42 = call i1 @_ssdm_op_BitSelect.i1.i81.i32(i81 %tmp_4_1, i32 64), !dbg !6535 ; [#uses=2 type=i1] [debug line = 281:5@14:8@181:33]
  store i1 %tmp_42, i1* @app_packet_in_last_V, align 8, !dbg !6535 ; [debug line = 281:5@14:8@181:33]
  %tmp_tdest_V_1_load_n = call i8 @_ssdm_op_PartSelect.i8.i81.i32.i32(i81 %tmp_4_1, i32 65, i32 72), !dbg !6536 ; [#uses=1 type=i8] [debug line = 281:5@14:8@181:33]
  store i8 %tmp_tdest_V_1_load_n, i8* @app_packet_in_tdest_s, align 1, !dbg !6536 ; [debug line = 281:5@14:8@181:33]
  %p_0_new_i = call i8 @_ssdm_op_PartSelect.i8.i81.i32.i32(i81 %tmp_4_1, i32 73, i32 80), !dbg !6536 ; [#uses=1 type=i8] [debug line = 281:5@14:8@181:33]
  store i8 %p_0_new_i, i8* @app_packet_in_tkeep_s, align 2, !dbg !6536 ; [debug line = 281:5@14:8@181:33]
  call void @llvm.dbg.value(metadata !{i64 %lhs_V_1}, i64 0, metadata !6537), !dbg !6541 ; [debug line = 3432:0@3524:0@23:8@183:36] [debug variable = lhs.V]
  call void @llvm.dbg.value(metadata !{i64 %lhs_V_1}, i64 0, metadata !6542), !dbg !6545 ; [debug line = 3432:0@3527:0@23:41@183:36] [debug variable = lhs.V]
  %tmp_43 = trunc i81 %tmp_4_1 to i8              ; [#uses=1 type=i8]
  %tmp_27 = call i8 @_ssdm_op_PartSelect.i8.i81.i32.i32(i81 %tmp_4_1, i32 56, i32 63) ; [#uses=1 type=i8]
  %tmp_28 = call i8 @_ssdm_op_PartSelect.i8.i81.i32.i32(i81 %tmp_4_1, i32 8, i32 15) ; [#uses=1 type=i8]
  %tmp_29 = call i8 @_ssdm_op_PartSelect.i8.i81.i32.i32(i81 %tmp_4_1, i32 16, i32 23) ; [#uses=1 type=i8]
  %tmp_30 = call i8 @_ssdm_op_PartSelect.i8.i81.i32.i32(i81 %tmp_4_1, i32 32, i32 39) ; [#uses=1 type=i8]
  %tmp_31 = call i8 @_ssdm_op_PartSelect.i8.i81.i32.i32(i81 %tmp_4_1, i32 48, i32 55) ; [#uses=1 type=i8]
  %tmp_32 = call i8 @_ssdm_op_PartSelect.i8.i81.i32.i32(i81 %tmp_4_1, i32 24, i32 31) ; [#uses=1 type=i8]
  %tmp_33 = call i8 @_ssdm_op_PartSelect.i8.i81.i32.i32(i81 %tmp_4_1, i32 40, i32 47) ; [#uses=1 type=i8]
  %tmp_34 = call i8 @_ssdm_op_PartSelect.i8.i81.i32.i32(i81 %tmp_4_1, i32 80, i32 73), !dbg !6546 ; [#uses=1 type=i8] [debug line = 145:31@184:17]
  %tmp_520 = call i73 @_ssdm_op_BitConcatenate.i73.i8.i1.i8.i8.i8.i8.i8.i8.i8.i8(i8 %tmp_34, i1 false, i8 %tmp_43, i8 %tmp_28, i8 %tmp_29, i8 %tmp_32, i8 %tmp_30, i8 %tmp_33, i8 %tmp_31, i8 %tmp_27), !dbg !6546 ; [#uses=1 type=i73] [debug line = 145:31@184:17]
  call void @llvm.dbg.value(metadata !{i73 %tmp_520}, i64 0, metadata !6548), !dbg !6546 ; [debug line = 145:31@184:17] [debug variable = tmp.520]
  call void @_ssdm_op_Write.ap_fifo.volatile.i73P(i73* %to_eth_V, i73 %tmp_520)
  %storemerge_i = select i1 %tmp_42, i3 0, i3 -4, !dbg !6549 ; [#uses=1 type=i3] [debug line = 185:20]
  store i3 %storemerge_i, i3* @state_V, align 1, !dbg !6550 ; [debug line = 281:5@186:21]
  br label %._crit_edge302.i, !dbg !6552          ; [debug line = 189:13]

._crit_edge302.i:                                 ; preds = %6, %5
  br label %.exit, !dbg !6553                     ; [debug line = 190:13]

.exit:                                            ; preds = %._crit_edge302.i, %4, %3, %2, %._crit_edge301.i, %entry
  ret void
}

; [#uses=1]
define weak void @_ssdm_op_Write.ap_fifo.volatile.i81P(i81*, i81) {
entry:
  %empty = call i81 @_autotb_FifoWrite_i81(i81* %0, i81 %1) ; [#uses=0 type=i81]
  ret void
}

; [#uses=4]
define weak void @_ssdm_op_Write.ap_fifo.volatile.i73P(i73*, i73) {
entry:
  %empty = call i73 @_autotb_FifoWrite_i73(i73* %0, i73 %1) ; [#uses=0 type=i73]
  ret void
}

; [#uses=2]
define weak void @_ssdm_op_Write.ap_fifo.i48P(i48*, i48) {
entry:
  %empty = call i48 @_autotb_FifoWrite_i48(i48* %0, i48 %1) ; [#uses=0 type=i48]
  ret void
}

; [#uses=1]
define weak void @_ssdm_op_SpecTopModule(...) {
entry:
  ret void
}

; [#uses=2]
define weak void @_ssdm_op_SpecPipeline(...) nounwind {
entry:
  ret void
}

; [#uses=15]
define weak void @_ssdm_op_SpecInterface(...) nounwind {
entry:
  ret void
}

; [#uses=8]
define weak void @_ssdm_op_SpecIFCore(...) {
entry:
  ret void
}

; [#uses=1]
define weak void @_ssdm_op_SpecDataflowPipeline(...) nounwind {
entry:
  ret void
}

; [#uses=2]
define weak i32 @_ssdm_op_SpecChannel(...) {
entry:
  ret i32 0
}

; [#uses=5]
define weak void @_ssdm_op_SpecBitsMap(...) {
entry:
  ret void
}

; [#uses=2]
define weak i81 @_ssdm_op_Read.ap_fifo.volatile.i81P(i81*) {
entry:
  %empty = call i81 @_autotb_FifoRead_i81(i81* %0) ; [#uses=1 type=i81]
  ret i81 %empty
}

; [#uses=4]
define weak i73 @_ssdm_op_Read.ap_fifo.volatile.i73P(i73*) {
entry:
  %empty = call i73 @_autotb_FifoRead_i73(i73* %0) ; [#uses=1 type=i73]
  ret i73 %empty
}

; [#uses=2]
define weak i48 @_ssdm_op_Read.ap_fifo.i48P(i48*) {
entry:
  %empty = call i48 @_autotb_FifoRead_i48(i48* %0) ; [#uses=1 type=i48]
  ret i48 %empty
}

; [#uses=2]
define weak i48 @_ssdm_op_Read.ap_auto.i48(i48) {
entry:
  ret i48 %0
}

; [#uses=12]
define weak i8 @_ssdm_op_PartSelect.i8.i81.i32.i32(i81, i32, i32) nounwind readnone {
entry:
  %empty = call i81 @llvm.part.select.i81(i81 %0, i32 %1, i32 %2) ; [#uses=1 type=i81]
  %empty_16 = trunc i81 %empty to i8              ; [#uses=1 type=i8]
  ret i8 %empty_16
}

; [#uses=1]
define weak i8 @_ssdm_op_PartSelect.i8.i8.i32.i32(i8, i32, i32) nounwind readnone {
entry:
  %empty = call i8 @llvm.part.select.i8(i8 %0, i32 %1, i32 %2) ; [#uses=1 type=i8]
  ret i8 %empty
}

; [#uses=14]
define weak i8 @_ssdm_op_PartSelect.i8.i73.i32.i32(i73, i32, i32) nounwind readnone {
entry:
  %empty = call i73 @llvm.part.select.i73(i73 %0, i32 %1, i32 %2) ; [#uses=1 type=i73]
  %empty_17 = trunc i73 %empty to i8              ; [#uses=1 type=i8]
  ret i8 %empty_17
}

; [#uses=7]
define weak i8 @_ssdm_op_PartSelect.i8.i64.i32.i32(i64, i32, i32) nounwind readnone {
entry:
  %empty = call i64 @llvm.part.select.i64(i64 %0, i32 %1, i32 %2) ; [#uses=1 type=i64]
  %empty_18 = trunc i64 %empty to i8              ; [#uses=1 type=i8]
  ret i8 %empty_18
}

; [#uses=0]
declare i64 @_ssdm_op_PartSelect.i64.i81.i32.i32(i81, i32, i32) nounwind readnone

; [#uses=0]
declare i32 @_ssdm_op_PartSelect.i32.i96.i32.i32(i96, i32, i32) nounwind readnone

; [#uses=1]
define weak i16 @_ssdm_op_PartSelect.i16.i48.i32.i32(i48, i32, i32) nounwind readnone {
entry:
  %empty = call i48 @llvm.part.select.i48(i48 %0, i32 %1, i32 %2) ; [#uses=1 type=i48]
  %empty_19 = trunc i48 %empty to i16             ; [#uses=1 type=i16]
  ret i16 %empty_19
}

; [#uses=2]
define weak i1 @_ssdm_op_NbReadReq.ap_fifo.i81P(i81*, i32) {
entry:
  %empty = call i1 @_autotb_FifoCanRead_i81(i81* %0) ; [#uses=1 type=i1]
  ret i1 %empty
}

; [#uses=4]
define weak i1 @_ssdm_op_NbReadReq.ap_fifo.i73P(i73*, i32) {
entry:
  %empty = call i1 @_autotb_FifoCanRead_i73(i73* %0) ; [#uses=1 type=i1]
  ret i1 %empty
}

; [#uses=2]
define weak i1 @_ssdm_op_BitSelect.i1.i81.i32(i81, i32) nounwind readnone {
entry:
  %empty = zext i32 %1 to i81                     ; [#uses=1 type=i81]
  %empty_20 = shl i81 1, %empty                   ; [#uses=1 type=i81]
  %empty_21 = and i81 %0, %empty_20               ; [#uses=1 type=i81]
  %empty_22 = icmp ne i81 %empty_21, 0            ; [#uses=1 type=i1]
  ret i1 %empty_22
}

; [#uses=2]
define weak i1 @_ssdm_op_BitSelect.i1.i73.i32(i73, i32) nounwind readnone {
entry:
  %empty = zext i32 %1 to i73                     ; [#uses=1 type=i73]
  %empty_23 = shl i73 1, %empty                   ; [#uses=1 type=i73]
  %empty_24 = and i73 %0, %empty_23               ; [#uses=1 type=i73]
  %empty_25 = icmp ne i73 %empty_24, 0            ; [#uses=1 type=i1]
  ret i1 %empty_25
}

; [#uses=1]
define weak i96 @_ssdm_op_BitConcatenate.i96.i48.i48(i48, i48) nounwind readnone {
entry:
  %empty = zext i48 %0 to i96                     ; [#uses=1 type=i96]
  %empty_26 = zext i48 %1 to i96                  ; [#uses=1 type=i96]
  %empty_27 = shl i96 %empty, 48                  ; [#uses=1 type=i96]
  %empty_28 = or i96 %empty_27, %empty_26         ; [#uses=1 type=i96]
  ret i96 %empty_28
}

; [#uses=1]
define weak i81 @_ssdm_op_BitConcatenate.i81.i8.i8.i1.i8.i8.i8.i8.i8.i8.i8.i8(i8, i8, i1, i8, i8, i8, i8, i8, i8, i8, i8) nounwind readnone {
entry:
  %empty = zext i8 %9 to i16                      ; [#uses=1 type=i16]
  %empty_29 = zext i8 %10 to i16                  ; [#uses=1 type=i16]
  %empty_30 = shl i16 %empty, 8                   ; [#uses=1 type=i16]
  %empty_31 = or i16 %empty_30, %empty_29         ; [#uses=1 type=i16]
  %empty_32 = zext i8 %8 to i24                   ; [#uses=1 type=i24]
  %empty_33 = zext i16 %empty_31 to i24           ; [#uses=1 type=i24]
  %empty_34 = shl i24 %empty_32, 16               ; [#uses=1 type=i24]
  %empty_35 = or i24 %empty_34, %empty_33         ; [#uses=1 type=i24]
  %empty_36 = zext i8 %7 to i32                   ; [#uses=1 type=i32]
  %empty_37 = zext i24 %empty_35 to i32           ; [#uses=1 type=i32]
  %empty_38 = shl i32 %empty_36, 24               ; [#uses=1 type=i32]
  %empty_39 = or i32 %empty_38, %empty_37         ; [#uses=1 type=i32]
  %empty_40 = zext i8 %6 to i40                   ; [#uses=1 type=i40]
  %empty_41 = zext i32 %empty_39 to i40           ; [#uses=1 type=i40]
  %empty_42 = shl i40 %empty_40, 32               ; [#uses=1 type=i40]
  %empty_43 = or i40 %empty_42, %empty_41         ; [#uses=1 type=i40]
  %empty_44 = zext i8 %5 to i48                   ; [#uses=1 type=i48]
  %empty_45 = zext i40 %empty_43 to i48           ; [#uses=1 type=i48]
  %empty_46 = shl i48 %empty_44, 40               ; [#uses=1 type=i48]
  %empty_47 = or i48 %empty_46, %empty_45         ; [#uses=1 type=i48]
  %empty_48 = zext i8 %4 to i56                   ; [#uses=1 type=i56]
  %empty_49 = zext i48 %empty_47 to i56           ; [#uses=1 type=i56]
  %empty_50 = shl i56 %empty_48, 48               ; [#uses=1 type=i56]
  %empty_51 = or i56 %empty_50, %empty_49         ; [#uses=1 type=i56]
  %empty_52 = zext i8 %3 to i64                   ; [#uses=1 type=i64]
  %empty_53 = zext i56 %empty_51 to i64           ; [#uses=1 type=i64]
  %empty_54 = shl i64 %empty_52, 56               ; [#uses=1 type=i64]
  %empty_55 = or i64 %empty_54, %empty_53         ; [#uses=1 type=i64]
  %empty_56 = zext i1 %2 to i65                   ; [#uses=1 type=i65]
  %empty_57 = zext i64 %empty_55 to i65           ; [#uses=1 type=i65]
  %empty_58 = shl i65 %empty_56, 64               ; [#uses=1 type=i65]
  %empty_59 = or i65 %empty_58, %empty_57         ; [#uses=1 type=i65]
  %empty_60 = zext i8 %1 to i73                   ; [#uses=1 type=i73]
  %empty_61 = zext i65 %empty_59 to i73           ; [#uses=1 type=i73]
  %empty_62 = shl i73 %empty_60, 65               ; [#uses=1 type=i73]
  %empty_63 = or i73 %empty_62, %empty_61         ; [#uses=1 type=i73]
  %empty_64 = zext i8 %0 to i81                   ; [#uses=1 type=i81]
  %empty_65 = zext i73 %empty_63 to i81           ; [#uses=1 type=i81]
  %empty_66 = shl i81 %empty_64, 73               ; [#uses=1 type=i81]
  %empty_67 = or i81 %empty_66, %empty_65         ; [#uses=1 type=i81]
  ret i81 %empty_67
}

; [#uses=1]
define weak i73 @_ssdm_op_BitConcatenate.i73.i9.i64(i9, i64) nounwind readnone {
entry:
  %empty = zext i9 %0 to i73                      ; [#uses=1 type=i73]
  %empty_68 = zext i64 %1 to i73                  ; [#uses=1 type=i73]
  %empty_69 = shl i73 %empty, 64                  ; [#uses=1 type=i73]
  %empty_70 = or i73 %empty_69, %empty_68         ; [#uses=1 type=i73]
  ret i73 %empty_70
}

; [#uses=1]
define weak i73 @_ssdm_op_BitConcatenate.i73.i9.i48.i16(i9, i48, i16) nounwind readnone {
entry:
  %empty = zext i48 %1 to i64                     ; [#uses=1 type=i64]
  %empty_71 = zext i16 %2 to i64                  ; [#uses=1 type=i64]
  %empty_72 = shl i64 %empty, 16                  ; [#uses=1 type=i64]
  %empty_73 = or i64 %empty_72, %empty_71         ; [#uses=1 type=i64]
  %empty_74 = zext i9 %0 to i73                   ; [#uses=1 type=i73]
  %empty_75 = zext i64 %empty_73 to i73           ; [#uses=1 type=i73]
  %empty_76 = shl i73 %empty_74, 64               ; [#uses=1 type=i73]
  %empty_77 = or i73 %empty_76, %empty_75         ; [#uses=1 type=i73]
  ret i73 %empty_77
}

; [#uses=2]
define weak i73 @_ssdm_op_BitConcatenate.i73.i8.i1.i8.i8.i8.i8.i8.i8.i8.i8(i8, i1, i8, i8, i8, i8, i8, i8, i8, i8) nounwind readnone {
entry:
  %empty = zext i8 %8 to i16                      ; [#uses=1 type=i16]
  %empty_78 = zext i8 %9 to i16                   ; [#uses=1 type=i16]
  %empty_79 = shl i16 %empty, 8                   ; [#uses=1 type=i16]
  %empty_80 = or i16 %empty_79, %empty_78         ; [#uses=1 type=i16]
  %empty_81 = zext i8 %7 to i24                   ; [#uses=1 type=i24]
  %empty_82 = zext i16 %empty_80 to i24           ; [#uses=1 type=i24]
  %empty_83 = shl i24 %empty_81, 16               ; [#uses=1 type=i24]
  %empty_84 = or i24 %empty_83, %empty_82         ; [#uses=1 type=i24]
  %empty_85 = zext i8 %6 to i32                   ; [#uses=1 type=i32]
  %empty_86 = zext i24 %empty_84 to i32           ; [#uses=1 type=i32]
  %empty_87 = shl i32 %empty_85, 24               ; [#uses=1 type=i32]
  %empty_88 = or i32 %empty_87, %empty_86         ; [#uses=1 type=i32]
  %empty_89 = zext i8 %5 to i40                   ; [#uses=1 type=i40]
  %empty_90 = zext i32 %empty_88 to i40           ; [#uses=1 type=i40]
  %empty_91 = shl i40 %empty_89, 32               ; [#uses=1 type=i40]
  %empty_92 = or i40 %empty_91, %empty_90         ; [#uses=1 type=i40]
  %empty_93 = zext i8 %4 to i48                   ; [#uses=1 type=i48]
  %empty_94 = zext i40 %empty_92 to i48           ; [#uses=1 type=i48]
  %empty_95 = shl i48 %empty_93, 40               ; [#uses=1 type=i48]
  %empty_96 = or i48 %empty_95, %empty_94         ; [#uses=1 type=i48]
  %empty_97 = zext i8 %3 to i56                   ; [#uses=1 type=i56]
  %empty_98 = zext i48 %empty_96 to i56           ; [#uses=1 type=i56]
  %empty_99 = shl i56 %empty_97, 48               ; [#uses=1 type=i56]
  %empty_100 = or i56 %empty_99, %empty_98        ; [#uses=1 type=i56]
  %empty_101 = zext i8 %2 to i64                  ; [#uses=1 type=i64]
  %empty_102 = zext i56 %empty_100 to i64         ; [#uses=1 type=i64]
  %empty_103 = shl i64 %empty_101, 56             ; [#uses=1 type=i64]
  %empty_104 = or i64 %empty_103, %empty_102      ; [#uses=1 type=i64]
  %empty_105 = zext i1 %1 to i65                  ; [#uses=1 type=i65]
  %empty_106 = zext i64 %empty_104 to i65         ; [#uses=1 type=i65]
  %empty_107 = shl i65 %empty_105, 64             ; [#uses=1 type=i65]
  %empty_108 = or i65 %empty_107, %empty_106      ; [#uses=1 type=i65]
  %empty_109 = zext i8 %0 to i73                  ; [#uses=1 type=i73]
  %empty_110 = zext i65 %empty_108 to i73         ; [#uses=1 type=i73]
  %empty_111 = shl i73 %empty_109, 65             ; [#uses=1 type=i73]
  %empty_112 = or i73 %empty_111, %empty_110      ; [#uses=1 type=i73]
  ret i73 %empty_112
}

; [#uses=1]
define weak i56 @_ssdm_op_BitConcatenate.i56.i32.i16.i8(i32, i16, i8) nounwind readnone {
entry:
  %empty = zext i16 %1 to i24                     ; [#uses=1 type=i24]
  %empty_113 = zext i8 %2 to i24                  ; [#uses=1 type=i24]
  %empty_114 = shl i24 %empty, 8                  ; [#uses=1 type=i24]
  %empty_115 = or i24 %empty_114, %empty_113      ; [#uses=1 type=i24]
  %empty_116 = zext i32 %0 to i56                 ; [#uses=1 type=i56]
  %empty_117 = zext i24 %empty_115 to i56         ; [#uses=1 type=i56]
  %empty_118 = shl i56 %empty_116, 24             ; [#uses=1 type=i56]
  %empty_119 = or i56 %empty_118, %empty_117      ; [#uses=1 type=i56]
  ret i56 %empty_119
}

; [#uses=1]
define weak i48 @_ssdm_op_BitConcatenate.i48.i8.i8.i8.i8.i8.i8(i8, i8, i8, i8, i8, i8) nounwind readnone {
entry:
  %empty = zext i8 %4 to i16                      ; [#uses=1 type=i16]
  %empty_120 = zext i8 %5 to i16                  ; [#uses=1 type=i16]
  %empty_121 = shl i16 %empty, 8                  ; [#uses=1 type=i16]
  %empty_122 = or i16 %empty_121, %empty_120      ; [#uses=1 type=i16]
  %empty_123 = zext i8 %3 to i24                  ; [#uses=1 type=i24]
  %empty_124 = zext i16 %empty_122 to i24         ; [#uses=1 type=i24]
  %empty_125 = shl i24 %empty_123, 16             ; [#uses=1 type=i24]
  %empty_126 = or i24 %empty_125, %empty_124      ; [#uses=1 type=i24]
  %empty_127 = zext i8 %2 to i32                  ; [#uses=1 type=i32]
  %empty_128 = zext i24 %empty_126 to i32         ; [#uses=1 type=i32]
  %empty_129 = shl i32 %empty_127, 24             ; [#uses=1 type=i32]
  %empty_130 = or i32 %empty_129, %empty_128      ; [#uses=1 type=i32]
  %empty_131 = zext i8 %1 to i40                  ; [#uses=1 type=i40]
  %empty_132 = zext i32 %empty_130 to i40         ; [#uses=1 type=i40]
  %empty_133 = shl i40 %empty_131, 32             ; [#uses=1 type=i40]
  %empty_134 = or i40 %empty_133, %empty_132      ; [#uses=1 type=i40]
  %empty_135 = zext i8 %0 to i48                  ; [#uses=1 type=i48]
  %empty_136 = zext i40 %empty_134 to i48         ; [#uses=1 type=i48]
  %empty_137 = shl i48 %empty_135, 40             ; [#uses=1 type=i48]
  %empty_138 = or i48 %empty_137, %empty_136      ; [#uses=1 type=i48]
  ret i48 %empty_138
}

; [#uses=1]
declare i81 @_autotb_FifoWrite_i81(i81*, i81)

; [#uses=1]
declare i73 @_autotb_FifoWrite_i73(i73*, i73)

; [#uses=1]
declare i48 @_autotb_FifoWrite_i48(i48*, i48)

; [#uses=1]
declare i81 @_autotb_FifoRead_i81(i81*)

; [#uses=1]
declare i73 @_autotb_FifoRead_i73(i73*)

; [#uses=1]
declare i48 @_autotb_FifoRead_i48(i48*)

; [#uses=1]
declare i1 @_autotb_FifoCanRead_i81(i81*)

; [#uses=1]
declare i1 @_autotb_FifoCanRead_i73(i73*)

; [#uses=1]
declare void @_GLOBAL__I_a() nounwind section ".text.startup"

!opencl.kernels = !{!0, !7, !9, !15, !18, !24, !24, !27, !27, !33, !33, !33, !27, !36, !36, !27, !27, !27, !38, !38, !27, !27, !40, !43, !43, !49, !52, !52, !52, !27, !27, !27, !27, !54, !54, !27, !27, !56, !56, !56, !27, !27, !38, !38, !58, !61, !63, !63, !65, !27, !27, !27, !66, !66, !66, !27, !68, !68, !27, !70, !70, !27, !27, !27, !38, !38, !72, !74, !74, !54, !54, !27, !27, !52, !52, !52, !27, !76, !79, !79, !27, !27, !27, !27, !27, !27, !27, !83, !85, !85, !87, !87, !87, !27, !27, !27, !27, !89, !90, !92, !87, !87, !87, !94, !76, !96, !96, !98, !98, !27, !100, !100, !102, !104, !27, !27, !27, !27, !27, !27, !27, !27, !54, !54, !27, !27, !27, !68, !68, !105, !107, !27, !27, !110, !110, !112, !38, !38, !115, !117, !117, !119, !119, !121, !27, !27, !27, !123, !123, !125, !127, !129, !129, !131, !133, !133, !123, !123, !135, !136, !138, !140, !142, !142, !136, !138, !144, !146, !146, !148, !150, !150, !152, !154, !27, !27, !27, !27, !27, !27, !27, !27, !27, !27, !27, !27}
!hls.encrypted.func = !{}
!llvm.map.gv = !{!155, !162}

!0 = metadata !{null, metadata !1, metadata !2, metadata !3, metadata !4, metadata !5, metadata !6}
!1 = metadata !{metadata !"kernel_arg_addr_space", i32 0}
!2 = metadata !{metadata !"kernel_arg_access_qual", metadata !"none"}
!3 = metadata !{metadata !"kernel_arg_type", metadata !"ap_uint<64>"}
!4 = metadata !{metadata !"kernel_arg_type_qual", metadata !""}
!5 = metadata !{metadata !"kernel_arg_name", metadata !"X"}
!6 = metadata !{metadata !"reqd_work_group_size", i32 1, i32 1, i32 1}
!7 = metadata !{null, metadata !1, metadata !2, metadata !8, metadata !4, metadata !5, metadata !6}
!8 = metadata !{metadata !"kernel_arg_type", metadata !"ap_uint<8>"}
!9 = metadata !{null, metadata !10, metadata !11, metadata !12, metadata !13, metadata !14, metadata !6}
!10 = metadata !{metadata !"kernel_arg_addr_space", i32 0, i32 0, i32 0}
!11 = metadata !{metadata !"kernel_arg_access_qual", metadata !"none", metadata !"none", metadata !"none"}
!12 = metadata !{metadata !"kernel_arg_type", metadata !"hls::stream<eth_axis> &", metadata !"hls::stream<app_axis> &", metadata !"ap_uint<48>"}
!13 = metadata !{metadata !"kernel_arg_type_qual", metadata !"", metadata !"", metadata !""}
!14 = metadata !{metadata !"kernel_arg_name", metadata !"from_eth", metadata !"to_app", metadata !"mac_address"}
!15 = metadata !{null, metadata !10, metadata !11, metadata !16, metadata !13, metadata !17, metadata !6}
!16 = metadata !{metadata !"kernel_arg_type", metadata !"hls::stream<app_axis> &", metadata !"hls::stream<eth_axis> &", metadata !"ap_int<48>"}
!17 = metadata !{metadata !"kernel_arg_name", metadata !"from_app", metadata !"to_eth", metadata !"src_mac_address"}
!18 = metadata !{null, metadata !19, metadata !20, metadata !21, metadata !22, metadata !23, metadata !6}
!19 = metadata !{metadata !"kernel_arg_addr_space", i32 0, i32 0, i32 0, i32 0, i32 0}
!20 = metadata !{metadata !"kernel_arg_access_qual", metadata !"none", metadata !"none", metadata !"none", metadata !"none", metadata !"none"}
!21 = metadata !{metadata !"kernel_arg_type", metadata !"hls::stream<app_axis> &", metadata !"hls::stream<eth_axis> &", metadata !"hls::stream<app_axis> &", metadata !"hls::stream<eth_axis> &", metadata !"ap_uint<48>"}
!22 = metadata !{metadata !"kernel_arg_type_qual", metadata !"", metadata !"", metadata !"", metadata !"", metadata !"const"}
!23 = metadata !{metadata !"kernel_arg_name", metadata !"to_app", metadata !"from_eth", metadata !"from_app", metadata !"to_eth", metadata !"mac_addr"}
!24 = metadata !{null, metadata !1, metadata !2, metadata !25, metadata !4, metadata !26, metadata !6}
!25 = metadata !{metadata !"kernel_arg_type", metadata !"const ap_uint<48> &"}
!26 = metadata !{metadata !"kernel_arg_name", metadata !"op"}
!27 = metadata !{null, metadata !28, metadata !29, metadata !30, metadata !31, metadata !32, metadata !6}
!28 = metadata !{metadata !"kernel_arg_addr_space"}
!29 = metadata !{metadata !"kernel_arg_access_qual"}
!30 = metadata !{metadata !"kernel_arg_type"}
!31 = metadata !{metadata !"kernel_arg_type_qual"}
!32 = metadata !{metadata !"kernel_arg_name"}
!33 = metadata !{null, metadata !1, metadata !2, metadata !34, metadata !4, metadata !35, metadata !6}
!34 = metadata !{metadata !"kernel_arg_type", metadata !"const ap_concat_ref<48, struct ap_int_base<48, true, true>, 8, struct ap_int_base<8, false, true> > &"}
!35 = metadata !{metadata !"kernel_arg_name", metadata !"ref"}
!36 = metadata !{null, metadata !1, metadata !2, metadata !37, metadata !4, metadata !26, metadata !6}
!37 = metadata !{metadata !"kernel_arg_type", metadata !"const ap_int_base<48, true> &"}
!38 = metadata !{null, metadata !1, metadata !2, metadata !39, metadata !4, metadata !26, metadata !6}
!39 = metadata !{metadata !"kernel_arg_type", metadata !"int"}
!40 = metadata !{null, metadata !1, metadata !2, metadata !41, metadata !4, metadata !42, metadata !6}
!41 = metadata !{metadata !"kernel_arg_type", metadata !"ap_int_base<8, false> &"}
!42 = metadata !{metadata !"kernel_arg_name", metadata !"a2"}
!43 = metadata !{null, metadata !44, metadata !45, metadata !46, metadata !47, metadata !48, metadata !6}
!44 = metadata !{metadata !"kernel_arg_addr_space", i32 0, i32 0}
!45 = metadata !{metadata !"kernel_arg_access_qual", metadata !"none", metadata !"none"}
!46 = metadata !{metadata !"kernel_arg_type", metadata !"struct ap_int_base<48, true, true> &", metadata !"struct ap_int_base<8, false, true> &"}
!47 = metadata !{metadata !"kernel_arg_type_qual", metadata !"", metadata !""}
!48 = metadata !{metadata !"kernel_arg_name", metadata !"bv1", metadata !"bv2"}
!49 = metadata !{null, metadata !1, metadata !2, metadata !50, metadata !4, metadata !51, metadata !6}
!50 = metadata !{metadata !"kernel_arg_type", metadata !"const struct eth_axis &"}
!51 = metadata !{metadata !"kernel_arg_name", metadata !"din"}
!52 = metadata !{null, metadata !1, metadata !2, metadata !53, metadata !4, metadata !35, metadata !6}
!53 = metadata !{metadata !"kernel_arg_type", metadata !"const ap_range_ref<96, false> &"}
!54 = metadata !{null, metadata !1, metadata !2, metadata !39, metadata !4, metadata !55, metadata !6}
!55 = metadata !{metadata !"kernel_arg_name", metadata !"val"}
!56 = metadata !{null, metadata !1, metadata !2, metadata !57, metadata !4, metadata !35, metadata !6}
!57 = metadata !{metadata !"kernel_arg_type", metadata !"const ap_concat_ref<48, struct ap_int_base<48, false, true>, 48, struct ap_int_base<48, true, true> > &"}
!58 = metadata !{null, metadata !1, metadata !2, metadata !59, metadata !4, metadata !60, metadata !6}
!59 = metadata !{metadata !"kernel_arg_type", metadata !"const ap_uint<96> &"}
!60 = metadata !{metadata !"kernel_arg_name", metadata !"op2"}
!61 = metadata !{null, metadata !1, metadata !2, metadata !62, metadata !4, metadata !42, metadata !6}
!62 = metadata !{metadata !"kernel_arg_type", metadata !"ap_int_base<48, true> &"}
!63 = metadata !{null, metadata !44, metadata !45, metadata !64, metadata !47, metadata !48, metadata !6}
!64 = metadata !{metadata !"kernel_arg_type", metadata !"struct ap_int_base<48, false, true> &", metadata !"struct ap_int_base<48, true, true> &"}
!65 = metadata !{null, metadata !1, metadata !2, metadata !25, metadata !4, metadata !60, metadata !6}
!66 = metadata !{null, metadata !1, metadata !2, metadata !67, metadata !4, metadata !35, metadata !6}
!67 = metadata !{metadata !"kernel_arg_type", metadata !"const ap_concat_ref<32, struct ap_int_base<32, true, true>, 16, struct ap_int_base<16, true, true> > &"}
!68 = metadata !{null, metadata !1, metadata !2, metadata !69, metadata !4, metadata !26, metadata !6}
!69 = metadata !{metadata !"kernel_arg_type", metadata !"const ap_int_base<32, true> &"}
!70 = metadata !{null, metadata !1, metadata !2, metadata !71, metadata !4, metadata !26, metadata !6}
!71 = metadata !{metadata !"kernel_arg_type", metadata !"const ap_int_base<16, true> &"}
!72 = metadata !{null, metadata !1, metadata !2, metadata !73, metadata !4, metadata !42, metadata !6}
!73 = metadata !{metadata !"kernel_arg_type", metadata !"ap_int_base<16, true> &"}
!74 = metadata !{null, metadata !44, metadata !45, metadata !75, metadata !47, metadata !48, metadata !6}
!75 = metadata !{metadata !"kernel_arg_type", metadata !"struct ap_int_base<32, true, true> &", metadata !"struct ap_int_base<16, true, true> &"}
!76 = metadata !{null, metadata !44, metadata !45, metadata !77, metadata !47, metadata !78, metadata !6}
!77 = metadata !{metadata !"kernel_arg_type", metadata !"int", metadata !"int"}
!78 = metadata !{metadata !"kernel_arg_name", metadata !"Hi", metadata !"Lo"}
!79 = metadata !{null, metadata !80, metadata !11, metadata !81, metadata !13, metadata !82, metadata !6}
!80 = metadata !{metadata !"kernel_arg_addr_space", i32 1, i32 0, i32 0}
!81 = metadata !{metadata !"kernel_arg_type", metadata !"ap_int_base<96, false>*", metadata !"int", metadata !"int"}
!82 = metadata !{metadata !"kernel_arg_name", metadata !"bv", metadata !"h", metadata !"l"}
!83 = metadata !{null, metadata !1, metadata !2, metadata !84, metadata !4, metadata !51, metadata !6}
!84 = metadata !{metadata !"kernel_arg_type", metadata !"const struct app_axis &"}
!85 = metadata !{null, metadata !1, metadata !2, metadata !86, metadata !4, metadata !26, metadata !6}
!86 = metadata !{metadata !"kernel_arg_type", metadata !"const ap_uint<16> &"}
!87 = metadata !{null, metadata !1, metadata !2, metadata !88, metadata !4, metadata !35, metadata !6}
!88 = metadata !{metadata !"kernel_arg_type", metadata !"const ap_range_ref<64, true> &"}
!89 = metadata !{null, metadata !1, metadata !2, metadata !86, metadata !4, metadata !60, metadata !6}
!90 = metadata !{null, metadata !1, metadata !2, metadata !91, metadata !4, metadata !60, metadata !6}
!91 = metadata !{metadata !"kernel_arg_type", metadata !"const ap_uint<3> &"}
!92 = metadata !{null, metadata !1, metadata !2, metadata !93, metadata !4, metadata !60, metadata !6}
!93 = metadata !{metadata !"kernel_arg_type", metadata !"const ap_int_base<48, false> &"}
!94 = metadata !{null, metadata !1, metadata !2, metadata !95, metadata !4, metadata !60, metadata !6}
!95 = metadata !{metadata !"kernel_arg_type", metadata !"const ap_int<48> &"}
!96 = metadata !{null, metadata !80, metadata !11, metadata !97, metadata !13, metadata !82, metadata !6}
!97 = metadata !{metadata !"kernel_arg_type", metadata !"ap_int_base<64, true>*", metadata !"int", metadata !"int"}
!98 = metadata !{null, metadata !1, metadata !2, metadata !99, metadata !4, metadata !26, metadata !6}
!99 = metadata !{metadata !"kernel_arg_type", metadata !"const ap_uint<64> &"}
!100 = metadata !{null, metadata !1, metadata !2, metadata !101, metadata !4, metadata !26, metadata !6}
!101 = metadata !{metadata !"kernel_arg_type", metadata !"const ap_int<64> &"}
!102 = metadata !{null, metadata !1, metadata !2, metadata !103, metadata !4, metadata !60, metadata !6}
!103 = metadata !{metadata !"kernel_arg_type", metadata !"const ap_uint<1> &"}
!104 = metadata !{null, metadata !1, metadata !2, metadata !101, metadata !4, metadata !60, metadata !6}
!105 = metadata !{null, metadata !1, metadata !2, metadata !106, metadata !4, metadata !60, metadata !6}
!106 = metadata !{metadata !"kernel_arg_type", metadata !"const ap_uint<8> &"}
!107 = metadata !{null, metadata !44, metadata !45, metadata !108, metadata !47, metadata !109, metadata !6}
!108 = metadata !{metadata !"kernel_arg_type", metadata !"const ap_int_base<32, true> &", metadata !"const ap_int_base<32, true> &"}
!109 = metadata !{metadata !"kernel_arg_name", metadata !"op", metadata !"op2"}
!110 = metadata !{null, metadata !44, metadata !45, metadata !111, metadata !47, metadata !109, metadata !6}
!111 = metadata !{metadata !"kernel_arg_type", metadata !"const ap_int_base<32, true> &", metadata !"int"}
!112 = metadata !{null, metadata !44, metadata !45, metadata !113, metadata !47, metadata !114, metadata !6}
!113 = metadata !{metadata !"kernel_arg_type", metadata !"const ap_int_base<8, false> &", metadata !"int"}
!114 = metadata !{metadata !"kernel_arg_name", metadata !"op", metadata !"i_op"}
!115 = metadata !{null, metadata !44, metadata !45, metadata !116, metadata !47, metadata !109, metadata !6}
!116 = metadata !{metadata !"kernel_arg_type", metadata !"const ap_int_base<8, false> &", metadata !"const ap_int_base<32, true> &"}
!117 = metadata !{null, metadata !1, metadata !2, metadata !118, metadata !4, metadata !26, metadata !6}
!118 = metadata !{metadata !"kernel_arg_type", metadata !"const ap_int_base<8, false> &"}
!119 = metadata !{null, metadata !1, metadata !2, metadata !120, metadata !4, metadata !26, metadata !6}
!120 = metadata !{metadata !"kernel_arg_type", metadata !"const ap_int_base<65, true> &"}
!121 = metadata !{null, metadata !44, metadata !45, metadata !122, metadata !47, metadata !109, metadata !6}
!122 = metadata !{metadata !"kernel_arg_type", metadata !"const ap_int_base<65, true> &", metadata !"const ap_int_base<64, false> &"}
!123 = metadata !{null, metadata !1, metadata !2, metadata !124, metadata !4, metadata !26, metadata !6}
!124 = metadata !{metadata !"kernel_arg_type", metadata !"const ap_int_base<64, false> &"}
!125 = metadata !{null, metadata !44, metadata !45, metadata !126, metadata !47, metadata !109, metadata !6}
!126 = metadata !{metadata !"kernel_arg_type", metadata !"const ap_int_base<65, true> &", metadata !"int"}
!127 = metadata !{null, metadata !44, metadata !45, metadata !128, metadata !47, metadata !114, metadata !6}
!128 = metadata !{metadata !"kernel_arg_type", metadata !"const ap_int_base<64, false> &", metadata !"long"}
!129 = metadata !{null, metadata !1, metadata !2, metadata !130, metadata !4, metadata !26, metadata !6}
!130 = metadata !{metadata !"kernel_arg_type", metadata !"long"}
!131 = metadata !{null, metadata !44, metadata !45, metadata !132, metadata !47, metadata !109, metadata !6}
!132 = metadata !{metadata !"kernel_arg_type", metadata !"const ap_int_base<64, false> &", metadata !"const ap_int_base<64, true> &"}
!133 = metadata !{null, metadata !1, metadata !2, metadata !134, metadata !4, metadata !26, metadata !6}
!134 = metadata !{metadata !"kernel_arg_type", metadata !"const ap_int_base<64, true> &"}
!135 = metadata !{null, metadata !1, metadata !2, metadata !99, metadata !4, metadata !60, metadata !6}
!136 = metadata !{null, metadata !44, metadata !45, metadata !137, metadata !47, metadata !109, metadata !6}
!137 = metadata !{metadata !"kernel_arg_type", metadata !"const ap_int_base<64, false> &", metadata !"const ap_int_base<64, false> &"}
!138 = metadata !{null, metadata !44, metadata !45, metadata !139, metadata !47, metadata !109, metadata !6}
!139 = metadata !{metadata !"kernel_arg_type", metadata !"const ap_int_base<64, false> &", metadata !"int"}
!140 = metadata !{null, metadata !44, metadata !45, metadata !141, metadata !47, metadata !114, metadata !6}
!141 = metadata !{metadata !"kernel_arg_type", metadata !"const ap_int_base<64, false> &", metadata !"ulong"}
!142 = metadata !{null, metadata !1, metadata !2, metadata !143, metadata !4, metadata !26, metadata !6}
!143 = metadata !{metadata !"kernel_arg_type", metadata !"ulong"}
!144 = metadata !{null, metadata !44, metadata !45, metadata !145, metadata !47, metadata !114, metadata !6}
!145 = metadata !{metadata !"kernel_arg_type", metadata !"const ap_int_base<64, false> &", metadata !"uint"}
!146 = metadata !{null, metadata !1, metadata !2, metadata !147, metadata !4, metadata !26, metadata !6}
!147 = metadata !{metadata !"kernel_arg_type", metadata !"uint"}
!148 = metadata !{null, metadata !44, metadata !45, metadata !149, metadata !47, metadata !109, metadata !6}
!149 = metadata !{metadata !"kernel_arg_type", metadata !"const ap_int_base<64, false> &", metadata !"const ap_int_base<32, false> &"}
!150 = metadata !{null, metadata !1, metadata !2, metadata !151, metadata !4, metadata !26, metadata !6}
!151 = metadata !{metadata !"kernel_arg_type", metadata !"const ap_int_base<32, false> &"}
!152 = metadata !{null, metadata !1, metadata !2, metadata !84, metadata !4, metadata !153, metadata !6}
!153 = metadata !{metadata !"kernel_arg_name", metadata !""}
!154 = metadata !{null, metadata !1, metadata !2, metadata !50, metadata !4, metadata !153, metadata !6}
!155 = metadata !{metadata !156, [256 x i48]* @mac_table_V}
!156 = metadata !{metadata !157}
!157 = metadata !{i32 0, i32 47, metadata !158}
!158 = metadata !{metadata !159}
!159 = metadata !{metadata !"mac_table.V", metadata !160, metadata !"uint48", i32 0, i32 47}
!160 = metadata !{metadata !161}
!161 = metadata !{i32 0, i32 255, i32 1}
!162 = metadata !{metadata !163, [1 x i32]* @llvm_global_ctors_0}
!163 = metadata !{metadata !164}
!164 = metadata !{i32 0, i32 31, metadata !165}
!165 = metadata !{metadata !166}
!166 = metadata !{metadata !"llvm.global_ctors.0", metadata !167, metadata !"", i32 0, i32 31}
!167 = metadata !{metadata !168}
!168 = metadata !{i32 0, i32 0, i32 1}
!169 = metadata !{i32 790533, metadata !170, metadata !"op.V", null, i32 85, metadata !1501, i32 0, i32 0} ; [ DW_TAG_arg_variable_field_ro ]
!170 = metadata !{i32 786689, metadata !171, metadata !"op", metadata !172, i32 33554517, metadata !1426, i32 0, i32 0} ; [ DW_TAG_arg_variable ]
!171 = metadata !{i32 786478, i32 0, null, metadata !"ap_int<48>", metadata !"ap_int<48>", metadata !"_ZN6ap_intILi48EEC1ILi48EEERK7ap_uintIXT_EE", metadata !172, i32 85, metadata !173, i1 false, i1 true, i32 0, i32 0, null, i32 256, i1 false, null, metadata !1500, null, metadata !192, i32 85} ; [ DW_TAG_subprogram ]
!172 = metadata !{i32 786473, metadata !"/opt/Xilinx/Vivado/2018.1/common/technology/autopilot/ap_int.h", metadata !"/home/tarafdar/workDir/galapagos", null} ; [ DW_TAG_file_type ]
!173 = metadata !{i32 786453, i32 0, metadata !"", i32 0, i32 0, i64 0, i64 0, i64 0, i32 0, null, metadata !174, i32 0, i32 0} ; [ DW_TAG_subroutine_type ]
!174 = metadata !{null, metadata !175, metadata !1426}
!175 = metadata !{i32 786447, i32 0, metadata !"", i32 0, i32 0, i64 64, i64 64, i64 0, i32 64, metadata !176} ; [ DW_TAG_pointer_type ]
!176 = metadata !{i32 786434, null, metadata !"ap_int<48>", metadata !172, i32 74, i64 64, i64 64, i32 0, i32 0, null, metadata !177, i32 0, null, metadata !1425} ; [ DW_TAG_class_type ]
!177 = metadata !{metadata !178, metadata !726, metadata !729, metadata !1357, metadata !1360, metadata !1363, metadata !1366, metadata !1369, metadata !1372, metadata !1375, metadata !1378, metadata !1381, metadata !1384, metadata !1387, metadata !1390, metadata !1393, metadata !1396, metadata !1399, metadata !1402, metadata !1405, metadata !1412, metadata !1417, metadata !1421, metadata !1424}
!178 = metadata !{i32 786460, metadata !176, null, metadata !172, i32 0, i64 0, i64 0, i64 0, i32 0, metadata !179} ; [ DW_TAG_inheritance ]
!179 = metadata !{i32 786434, null, metadata !"ap_int_base<48, true, true>", metadata !180, i32 1453, i64 64, i64 64, i32 0, i32 0, null, metadata !181, i32 0, null, metadata !725} ; [ DW_TAG_class_type ]
!180 = metadata !{i32 786473, metadata !"/opt/Xilinx/Vivado/2018.1/common/technology/autopilot/ap_int_syn.h", metadata !"/home/tarafdar/workDir/galapagos", null} ; [ DW_TAG_file_type ]
!181 = metadata !{metadata !182, metadata !199, metadata !203, metadata !211, metadata !217, metadata !220, metadata !224, metadata !228, metadata !232, metadata !236, metadata !239, metadata !243, metadata !247, metadata !251, metadata !256, metadata !261, metadata !266, metadata !270, metadata !274, metadata !280, metadata !283, metadata !287, metadata !290, metadata !293, metadata !294, metadata !298, metadata !301, metadata !304, metadata !307, metadata !310, metadata !313, metadata !316, metadata !319, metadata !322, metadata !325, metadata !328, metadata !331, metadata !341, metadata !344, metadata !347, metadata !350, metadata !353, metadata !356, metadata !359, metadata !362, metadata !365, metadata !368, metadata !371, metadata !374, metadata !377, metadata !378, metadata !382, metadata !385, metadata !386, metadata !387, metadata !388, metadata !389, metadata !390, metadata !393, metadata !394, metadata !397, metadata !398, metadata !399, metadata !400, metadata !401, metadata !402, metadata !405, metadata !406, metadata !407, metadata !410, metadata !411, metadata !414, metadata !415, metadata !422, metadata !685, metadata !690, metadata !691, metadata !694, metadata !695, metadata !699, metadata !700, metadata !701, metadata !702, metadata !705, metadata !706, metadata !707, metadata !708, metadata !709, metadata !710, metadata !711, metadata !712, metadata !713, metadata !714, metadata !715, metadata !716, metadata !719, metadata !722}
!182 = metadata !{i32 786460, metadata !179, null, metadata !180, i32 0, i64 0, i64 0, i64 0, i32 0, metadata !183} ; [ DW_TAG_inheritance ]
!183 = metadata !{i32 786434, null, metadata !"ssdm_int<48 + 1024 * 0, true>", metadata !184, i32 50, i64 64, i64 64, i32 0, i32 0, null, metadata !185, i32 0, null, metadata !194} ; [ DW_TAG_class_type ]
!184 = metadata !{i32 786473, metadata !"/opt/Xilinx/Vivado/2018.1/common/technology/autopilot/etc/autopilot_dt.def", metadata !"/home/tarafdar/workDir/galapagos", null} ; [ DW_TAG_file_type ]
!185 = metadata !{metadata !186, metadata !188}
!186 = metadata !{i32 786445, metadata !183, metadata !"V", metadata !184, i32 50, i64 48, i64 64, i64 0, i32 0, metadata !187} ; [ DW_TAG_member ]
!187 = metadata !{i32 786468, null, metadata !"int48", null, i32 0, i64 48, i64 64, i64 0, i32 0, i32 5} ; [ DW_TAG_base_type ]
!188 = metadata !{i32 786478, i32 0, metadata !183, metadata !"ssdm_int", metadata !"ssdm_int", metadata !"", metadata !184, i32 50, metadata !189, i1 false, i1 false, i32 0, i32 0, null, i32 256, i1 false, null, null, i32 0, metadata !192, i32 50} ; [ DW_TAG_subprogram ]
!189 = metadata !{i32 786453, i32 0, metadata !"", i32 0, i32 0, i64 0, i64 0, i64 0, i32 0, null, metadata !190, i32 0, i32 0} ; [ DW_TAG_subroutine_type ]
!190 = metadata !{null, metadata !191}
!191 = metadata !{i32 786447, i32 0, metadata !"", i32 0, i32 0, i64 64, i64 64, i64 0, i32 64, metadata !183} ; [ DW_TAG_pointer_type ]
!192 = metadata !{metadata !193}
!193 = metadata !{i32 786468}                     ; [ DW_TAG_base_type ]
!194 = metadata !{metadata !195, metadata !197}
!195 = metadata !{i32 786480, null, metadata !"_AP_N", metadata !196, i64 48, null, i32 0, i32 0} ; [ DW_TAG_template_value_parameter ]
!196 = metadata !{i32 786468, null, metadata !"int", null, i32 0, i64 32, i64 32, i64 0, i32 0, i32 5} ; [ DW_TAG_base_type ]
!197 = metadata !{i32 786480, null, metadata !"_AP_S", metadata !198, i64 1, null, i32 0, i32 0} ; [ DW_TAG_template_value_parameter ]
!198 = metadata !{i32 786468, null, metadata !"bool", null, i32 0, i64 8, i64 8, i64 0, i32 0, i32 2} ; [ DW_TAG_base_type ]
!199 = metadata !{i32 786478, i32 0, metadata !179, metadata !"ap_int_base", metadata !"ap_int_base", metadata !"", metadata !180, i32 1494, metadata !200, i1 false, i1 false, i32 0, i32 0, null, i32 256, i1 false, null, null, i32 0, metadata !192, i32 1494} ; [ DW_TAG_subprogram ]
!200 = metadata !{i32 786453, i32 0, metadata !"", i32 0, i32 0, i64 0, i64 0, i64 0, i32 0, null, metadata !201, i32 0, i32 0} ; [ DW_TAG_subroutine_type ]
!201 = metadata !{null, metadata !202}
!202 = metadata !{i32 786447, i32 0, metadata !"", i32 0, i32 0, i64 64, i64 64, i64 0, i32 64, metadata !179} ; [ DW_TAG_pointer_type ]
!203 = metadata !{i32 786478, i32 0, metadata !179, metadata !"ap_int_base<48, true>", metadata !"ap_int_base<48, true>", metadata !"", metadata !180, i32 1506, metadata !204, i1 false, i1 false, i32 0, i32 0, null, i32 256, i1 false, null, metadata !208, i32 0, metadata !192, i32 1506} ; [ DW_TAG_subprogram ]
!204 = metadata !{i32 786453, i32 0, metadata !"", i32 0, i32 0, i64 0, i64 0, i64 0, i32 0, null, metadata !205, i32 0, i32 0} ; [ DW_TAG_subroutine_type ]
!205 = metadata !{null, metadata !202, metadata !206}
!206 = metadata !{i32 786448, null, null, null, i32 0, i64 0, i64 0, i64 0, i32 0, metadata !207} ; [ DW_TAG_reference_type ]
!207 = metadata !{i32 786470, null, metadata !"", null, i32 0, i64 0, i64 0, i64 0, i32 0, metadata !179} ; [ DW_TAG_const_type ]
!208 = metadata !{metadata !209, metadata !210}
!209 = metadata !{i32 786480, null, metadata !"_AP_W2", metadata !196, i64 48, null, i32 0, i32 0} ; [ DW_TAG_template_value_parameter ]
!210 = metadata !{i32 786480, null, metadata !"_AP_S2", metadata !198, i64 1, null, i32 0, i32 0} ; [ DW_TAG_template_value_parameter ]
!211 = metadata !{i32 786478, i32 0, metadata !179, metadata !"ap_int_base<48, true>", metadata !"ap_int_base<48, true>", metadata !"", metadata !180, i32 1509, metadata !212, i1 false, i1 false, i32 0, i32 0, null, i32 256, i1 false, null, metadata !208, i32 0, metadata !192, i32 1509} ; [ DW_TAG_subprogram ]
!212 = metadata !{i32 786453, i32 0, metadata !"", i32 0, i32 0, i64 0, i64 0, i64 0, i32 0, null, metadata !213, i32 0, i32 0} ; [ DW_TAG_subroutine_type ]
!213 = metadata !{null, metadata !202, metadata !214}
!214 = metadata !{i32 786448, null, null, null, i32 0, i64 0, i64 0, i64 0, i32 0, metadata !215} ; [ DW_TAG_reference_type ]
!215 = metadata !{i32 786470, null, metadata !"", null, i32 0, i64 0, i64 0, i64 0, i32 0, metadata !216} ; [ DW_TAG_const_type ]
!216 = metadata !{i32 786485, null, metadata !"", null, i32 0, i64 0, i64 0, i64 0, i32 0, metadata !179} ; [ DW_TAG_volatile_type ]
!217 = metadata !{i32 786478, i32 0, metadata !179, metadata !"ap_int_base", metadata !"ap_int_base", metadata !"", metadata !180, i32 1516, metadata !218, i1 false, i1 false, i32 0, i32 0, null, i32 384, i1 false, null, null, i32 0, metadata !192, i32 1516} ; [ DW_TAG_subprogram ]
!218 = metadata !{i32 786453, i32 0, metadata !"", i32 0, i32 0, i64 0, i64 0, i64 0, i32 0, null, metadata !219, i32 0, i32 0} ; [ DW_TAG_subroutine_type ]
!219 = metadata !{null, metadata !202, metadata !198}
!220 = metadata !{i32 786478, i32 0, metadata !179, metadata !"ap_int_base", metadata !"ap_int_base", metadata !"", metadata !180, i32 1517, metadata !221, i1 false, i1 false, i32 0, i32 0, null, i32 384, i1 false, null, null, i32 0, metadata !192, i32 1517} ; [ DW_TAG_subprogram ]
!221 = metadata !{i32 786453, i32 0, metadata !"", i32 0, i32 0, i64 0, i64 0, i64 0, i32 0, null, metadata !222, i32 0, i32 0} ; [ DW_TAG_subroutine_type ]
!222 = metadata !{null, metadata !202, metadata !223}
!223 = metadata !{i32 786468, null, metadata !"signed char", null, i32 0, i64 8, i64 8, i64 0, i32 0, i32 6} ; [ DW_TAG_base_type ]
!224 = metadata !{i32 786478, i32 0, metadata !179, metadata !"ap_int_base", metadata !"ap_int_base", metadata !"", metadata !180, i32 1518, metadata !225, i1 false, i1 false, i32 0, i32 0, null, i32 384, i1 false, null, null, i32 0, metadata !192, i32 1518} ; [ DW_TAG_subprogram ]
!225 = metadata !{i32 786453, i32 0, metadata !"", i32 0, i32 0, i64 0, i64 0, i64 0, i32 0, null, metadata !226, i32 0, i32 0} ; [ DW_TAG_subroutine_type ]
!226 = metadata !{null, metadata !202, metadata !227}
!227 = metadata !{i32 786468, null, metadata !"unsigned char", null, i32 0, i64 8, i64 8, i64 0, i32 0, i32 8} ; [ DW_TAG_base_type ]
!228 = metadata !{i32 786478, i32 0, metadata !179, metadata !"ap_int_base", metadata !"ap_int_base", metadata !"", metadata !180, i32 1519, metadata !229, i1 false, i1 false, i32 0, i32 0, null, i32 384, i1 false, null, null, i32 0, metadata !192, i32 1519} ; [ DW_TAG_subprogram ]
!229 = metadata !{i32 786453, i32 0, metadata !"", i32 0, i32 0, i64 0, i64 0, i64 0, i32 0, null, metadata !230, i32 0, i32 0} ; [ DW_TAG_subroutine_type ]
!230 = metadata !{null, metadata !202, metadata !231}
!231 = metadata !{i32 786468, null, metadata !"short", null, i32 0, i64 16, i64 16, i64 0, i32 0, i32 5} ; [ DW_TAG_base_type ]
!232 = metadata !{i32 786478, i32 0, metadata !179, metadata !"ap_int_base", metadata !"ap_int_base", metadata !"", metadata !180, i32 1520, metadata !233, i1 false, i1 false, i32 0, i32 0, null, i32 384, i1 false, null, null, i32 0, metadata !192, i32 1520} ; [ DW_TAG_subprogram ]
!233 = metadata !{i32 786453, i32 0, metadata !"", i32 0, i32 0, i64 0, i64 0, i64 0, i32 0, null, metadata !234, i32 0, i32 0} ; [ DW_TAG_subroutine_type ]
!234 = metadata !{null, metadata !202, metadata !235}
!235 = metadata !{i32 786468, null, metadata !"unsigned short", null, i32 0, i64 16, i64 16, i64 0, i32 0, i32 7} ; [ DW_TAG_base_type ]
!236 = metadata !{i32 786478, i32 0, metadata !179, metadata !"ap_int_base", metadata !"ap_int_base", metadata !"", metadata !180, i32 1521, metadata !237, i1 false, i1 false, i32 0, i32 0, null, i32 384, i1 false, null, null, i32 0, metadata !192, i32 1521} ; [ DW_TAG_subprogram ]
!237 = metadata !{i32 786453, i32 0, metadata !"", i32 0, i32 0, i64 0, i64 0, i64 0, i32 0, null, metadata !238, i32 0, i32 0} ; [ DW_TAG_subroutine_type ]
!238 = metadata !{null, metadata !202, metadata !196}
!239 = metadata !{i32 786478, i32 0, metadata !179, metadata !"ap_int_base", metadata !"ap_int_base", metadata !"", metadata !180, i32 1522, metadata !240, i1 false, i1 false, i32 0, i32 0, null, i32 384, i1 false, null, null, i32 0, metadata !192, i32 1522} ; [ DW_TAG_subprogram ]
!240 = metadata !{i32 786453, i32 0, metadata !"", i32 0, i32 0, i64 0, i64 0, i64 0, i32 0, null, metadata !241, i32 0, i32 0} ; [ DW_TAG_subroutine_type ]
!241 = metadata !{null, metadata !202, metadata !242}
!242 = metadata !{i32 786468, null, metadata !"unsigned int", null, i32 0, i64 32, i64 32, i64 0, i32 0, i32 7} ; [ DW_TAG_base_type ]
!243 = metadata !{i32 786478, i32 0, metadata !179, metadata !"ap_int_base", metadata !"ap_int_base", metadata !"", metadata !180, i32 1523, metadata !244, i1 false, i1 false, i32 0, i32 0, null, i32 384, i1 false, null, null, i32 0, metadata !192, i32 1523} ; [ DW_TAG_subprogram ]
!244 = metadata !{i32 786453, i32 0, metadata !"", i32 0, i32 0, i64 0, i64 0, i64 0, i32 0, null, metadata !245, i32 0, i32 0} ; [ DW_TAG_subroutine_type ]
!245 = metadata !{null, metadata !202, metadata !246}
!246 = metadata !{i32 786468, null, metadata !"long int", null, i32 0, i64 64, i64 64, i64 0, i32 0, i32 5} ; [ DW_TAG_base_type ]
!247 = metadata !{i32 786478, i32 0, metadata !179, metadata !"ap_int_base", metadata !"ap_int_base", metadata !"", metadata !180, i32 1524, metadata !248, i1 false, i1 false, i32 0, i32 0, null, i32 384, i1 false, null, null, i32 0, metadata !192, i32 1524} ; [ DW_TAG_subprogram ]
!248 = metadata !{i32 786453, i32 0, metadata !"", i32 0, i32 0, i64 0, i64 0, i64 0, i32 0, null, metadata !249, i32 0, i32 0} ; [ DW_TAG_subroutine_type ]
!249 = metadata !{null, metadata !202, metadata !250}
!250 = metadata !{i32 786468, null, metadata !"long unsigned int", null, i32 0, i64 64, i64 64, i64 0, i32 0, i32 7} ; [ DW_TAG_base_type ]
!251 = metadata !{i32 786478, i32 0, metadata !179, metadata !"ap_int_base", metadata !"ap_int_base", metadata !"", metadata !180, i32 1525, metadata !252, i1 false, i1 false, i32 0, i32 0, null, i32 384, i1 false, null, null, i32 0, metadata !192, i32 1525} ; [ DW_TAG_subprogram ]
!252 = metadata !{i32 786453, i32 0, metadata !"", i32 0, i32 0, i64 0, i64 0, i64 0, i32 0, null, metadata !253, i32 0, i32 0} ; [ DW_TAG_subroutine_type ]
!253 = metadata !{null, metadata !202, metadata !254}
!254 = metadata !{i32 786454, null, metadata !"ap_slong", metadata !180, i32 112, i64 0, i64 0, i64 0, i32 0, metadata !255} ; [ DW_TAG_typedef ]
!255 = metadata !{i32 786468, null, metadata !"long long int", null, i32 0, i64 64, i64 64, i64 0, i32 0, i32 5} ; [ DW_TAG_base_type ]
!256 = metadata !{i32 786478, i32 0, metadata !179, metadata !"ap_int_base", metadata !"ap_int_base", metadata !"", metadata !180, i32 1526, metadata !257, i1 false, i1 false, i32 0, i32 0, null, i32 384, i1 false, null, null, i32 0, metadata !192, i32 1526} ; [ DW_TAG_subprogram ]
!257 = metadata !{i32 786453, i32 0, metadata !"", i32 0, i32 0, i64 0, i64 0, i64 0, i32 0, null, metadata !258, i32 0, i32 0} ; [ DW_TAG_subroutine_type ]
!258 = metadata !{null, metadata !202, metadata !259}
!259 = metadata !{i32 786454, null, metadata !"ap_ulong", metadata !180, i32 111, i64 0, i64 0, i64 0, i32 0, metadata !260} ; [ DW_TAG_typedef ]
!260 = metadata !{i32 786468, null, metadata !"long long unsigned int", null, i32 0, i64 64, i64 64, i64 0, i32 0, i32 7} ; [ DW_TAG_base_type ]
!261 = metadata !{i32 786478, i32 0, metadata !179, metadata !"ap_int_base", metadata !"ap_int_base", metadata !"", metadata !180, i32 1527, metadata !262, i1 false, i1 false, i32 0, i32 0, null, i32 384, i1 false, null, null, i32 0, metadata !192, i32 1527} ; [ DW_TAG_subprogram ]
!262 = metadata !{i32 786453, i32 0, metadata !"", i32 0, i32 0, i64 0, i64 0, i64 0, i32 0, null, metadata !263, i32 0, i32 0} ; [ DW_TAG_subroutine_type ]
!263 = metadata !{null, metadata !202, metadata !264}
!264 = metadata !{i32 786454, null, metadata !"half", metadata !180, i32 54, i64 0, i64 0, i64 0, i32 0, metadata !265} ; [ DW_TAG_typedef ]
!265 = metadata !{i32 786468, null, metadata !"half", null, i32 0, i64 16, i64 16, i64 0, i32 0, i32 4} ; [ DW_TAG_base_type ]
!266 = metadata !{i32 786478, i32 0, metadata !179, metadata !"ap_int_base", metadata !"ap_int_base", metadata !"", metadata !180, i32 1528, metadata !267, i1 false, i1 false, i32 0, i32 0, null, i32 384, i1 false, null, null, i32 0, metadata !192, i32 1528} ; [ DW_TAG_subprogram ]
!267 = metadata !{i32 786453, i32 0, metadata !"", i32 0, i32 0, i64 0, i64 0, i64 0, i32 0, null, metadata !268, i32 0, i32 0} ; [ DW_TAG_subroutine_type ]
!268 = metadata !{null, metadata !202, metadata !269}
!269 = metadata !{i32 786468, null, metadata !"float", null, i32 0, i64 32, i64 32, i64 0, i32 0, i32 4} ; [ DW_TAG_base_type ]
!270 = metadata !{i32 786478, i32 0, metadata !179, metadata !"ap_int_base", metadata !"ap_int_base", metadata !"", metadata !180, i32 1529, metadata !271, i1 false, i1 false, i32 0, i32 0, null, i32 384, i1 false, null, null, i32 0, metadata !192, i32 1529} ; [ DW_TAG_subprogram ]
!271 = metadata !{i32 786453, i32 0, metadata !"", i32 0, i32 0, i64 0, i64 0, i64 0, i32 0, null, metadata !272, i32 0, i32 0} ; [ DW_TAG_subroutine_type ]
!272 = metadata !{null, metadata !202, metadata !273}
!273 = metadata !{i32 786468, null, metadata !"double", null, i32 0, i64 64, i64 64, i64 0, i32 0, i32 4} ; [ DW_TAG_base_type ]
!274 = metadata !{i32 786478, i32 0, metadata !179, metadata !"ap_int_base", metadata !"ap_int_base", metadata !"", metadata !180, i32 1556, metadata !275, i1 false, i1 false, i32 0, i32 0, null, i32 256, i1 false, null, null, i32 0, metadata !192, i32 1556} ; [ DW_TAG_subprogram ]
!275 = metadata !{i32 786453, i32 0, metadata !"", i32 0, i32 0, i64 0, i64 0, i64 0, i32 0, null, metadata !276, i32 0, i32 0} ; [ DW_TAG_subroutine_type ]
!276 = metadata !{null, metadata !202, metadata !277}
!277 = metadata !{i32 786447, null, metadata !"", null, i32 0, i64 64, i64 64, i64 0, i32 0, metadata !278} ; [ DW_TAG_pointer_type ]
!278 = metadata !{i32 786470, null, metadata !"", null, i32 0, i64 0, i64 0, i64 0, i32 0, metadata !279} ; [ DW_TAG_const_type ]
!279 = metadata !{i32 786468, null, metadata !"char", null, i32 0, i64 8, i64 8, i64 0, i32 0, i32 6} ; [ DW_TAG_base_type ]
!280 = metadata !{i32 786478, i32 0, metadata !179, metadata !"ap_int_base", metadata !"ap_int_base", metadata !"", metadata !180, i32 1563, metadata !281, i1 false, i1 false, i32 0, i32 0, null, i32 256, i1 false, null, null, i32 0, metadata !192, i32 1563} ; [ DW_TAG_subprogram ]
!281 = metadata !{i32 786453, i32 0, metadata !"", i32 0, i32 0, i64 0, i64 0, i64 0, i32 0, null, metadata !282, i32 0, i32 0} ; [ DW_TAG_subroutine_type ]
!282 = metadata !{null, metadata !202, metadata !277, metadata !223}
!283 = metadata !{i32 786478, i32 0, metadata !179, metadata !"read", metadata !"read", metadata !"_ZNV11ap_int_baseILi48ELb1ELb1EE4readEv", metadata !180, i32 1584, metadata !284, i1 false, i1 false, i32 0, i32 0, null, i32 256, i1 false, null, null, i32 0, metadata !192, i32 1584} ; [ DW_TAG_subprogram ]
!284 = metadata !{i32 786453, i32 0, metadata !"", i32 0, i32 0, i64 0, i64 0, i64 0, i32 0, null, metadata !285, i32 0, i32 0} ; [ DW_TAG_subroutine_type ]
!285 = metadata !{metadata !179, metadata !286}
!286 = metadata !{i32 786447, i32 0, metadata !"", i32 0, i32 0, i64 64, i64 64, i64 0, i32 64, metadata !216} ; [ DW_TAG_pointer_type ]
!287 = metadata !{i32 786478, i32 0, metadata !179, metadata !"write", metadata !"write", metadata !"_ZNV11ap_int_baseILi48ELb1ELb1EE5writeERKS0_", metadata !180, i32 1590, metadata !288, i1 false, i1 false, i32 0, i32 0, null, i32 256, i1 false, null, null, i32 0, metadata !192, i32 1590} ; [ DW_TAG_subprogram ]
!288 = metadata !{i32 786453, i32 0, metadata !"", i32 0, i32 0, i64 0, i64 0, i64 0, i32 0, null, metadata !289, i32 0, i32 0} ; [ DW_TAG_subroutine_type ]
!289 = metadata !{null, metadata !286, metadata !206}
!290 = metadata !{i32 786478, i32 0, metadata !179, metadata !"operator=", metadata !"operator=", metadata !"_ZNV11ap_int_baseILi48ELb1ELb1EEaSERVKS0_", metadata !180, i32 1602, metadata !291, i1 false, i1 false, i32 0, i32 0, null, i32 256, i1 false, null, null, i32 0, metadata !192, i32 1602} ; [ DW_TAG_subprogram ]
!291 = metadata !{i32 786453, i32 0, metadata !"", i32 0, i32 0, i64 0, i64 0, i64 0, i32 0, null, metadata !292, i32 0, i32 0} ; [ DW_TAG_subroutine_type ]
!292 = metadata !{null, metadata !286, metadata !214}
!293 = metadata !{i32 786478, i32 0, metadata !179, metadata !"operator=", metadata !"operator=", metadata !"_ZNV11ap_int_baseILi48ELb1ELb1EEaSERKS0_", metadata !180, i32 1611, metadata !288, i1 false, i1 false, i32 0, i32 0, null, i32 256, i1 false, null, null, i32 0, metadata !192, i32 1611} ; [ DW_TAG_subprogram ]
!294 = metadata !{i32 786478, i32 0, metadata !179, metadata !"operator=", metadata !"operator=", metadata !"_ZN11ap_int_baseILi48ELb1ELb1EEaSERVKS0_", metadata !180, i32 1634, metadata !295, i1 false, i1 false, i32 0, i32 0, null, i32 256, i1 false, null, null, i32 0, metadata !192, i32 1634} ; [ DW_TAG_subprogram ]
!295 = metadata !{i32 786453, i32 0, metadata !"", i32 0, i32 0, i64 0, i64 0, i64 0, i32 0, null, metadata !296, i32 0, i32 0} ; [ DW_TAG_subroutine_type ]
!296 = metadata !{metadata !297, metadata !202, metadata !214}
!297 = metadata !{i32 786448, null, null, null, i32 0, i64 0, i64 0, i64 0, i32 0, metadata !179} ; [ DW_TAG_reference_type ]
!298 = metadata !{i32 786478, i32 0, metadata !179, metadata !"operator=", metadata !"operator=", metadata !"_ZN11ap_int_baseILi48ELb1ELb1EEaSERKS0_", metadata !180, i32 1639, metadata !299, i1 false, i1 false, i32 0, i32 0, null, i32 256, i1 false, null, null, i32 0, metadata !192, i32 1639} ; [ DW_TAG_subprogram ]
!299 = metadata !{i32 786453, i32 0, metadata !"", i32 0, i32 0, i64 0, i64 0, i64 0, i32 0, null, metadata !300, i32 0, i32 0} ; [ DW_TAG_subroutine_type ]
!300 = metadata !{metadata !297, metadata !202, metadata !206}
!301 = metadata !{i32 786478, i32 0, metadata !179, metadata !"operator=", metadata !"operator=", metadata !"_ZN11ap_int_baseILi48ELb1ELb1EEaSEPKc", metadata !180, i32 1643, metadata !302, i1 false, i1 false, i32 0, i32 0, null, i32 256, i1 false, null, null, i32 0, metadata !192, i32 1643} ; [ DW_TAG_subprogram ]
!302 = metadata !{i32 786453, i32 0, metadata !"", i32 0, i32 0, i64 0, i64 0, i64 0, i32 0, null, metadata !303, i32 0, i32 0} ; [ DW_TAG_subroutine_type ]
!303 = metadata !{metadata !297, metadata !202, metadata !277}
!304 = metadata !{i32 786478, i32 0, metadata !179, metadata !"set", metadata !"set", metadata !"_ZN11ap_int_baseILi48ELb1ELb1EE3setEPKca", metadata !180, i32 1651, metadata !305, i1 false, i1 false, i32 0, i32 0, null, i32 256, i1 false, null, null, i32 0, metadata !192, i32 1651} ; [ DW_TAG_subprogram ]
!305 = metadata !{i32 786453, i32 0, metadata !"", i32 0, i32 0, i64 0, i64 0, i64 0, i32 0, null, metadata !306, i32 0, i32 0} ; [ DW_TAG_subroutine_type ]
!306 = metadata !{metadata !297, metadata !202, metadata !277, metadata !223}
!307 = metadata !{i32 786478, i32 0, metadata !179, metadata !"operator=", metadata !"operator=", metadata !"_ZN11ap_int_baseILi48ELb1ELb1EEaSEa", metadata !180, i32 1665, metadata !308, i1 false, i1 false, i32 0, i32 0, null, i32 256, i1 false, null, null, i32 0, metadata !192, i32 1665} ; [ DW_TAG_subprogram ]
!308 = metadata !{i32 786453, i32 0, metadata !"", i32 0, i32 0, i64 0, i64 0, i64 0, i32 0, null, metadata !309, i32 0, i32 0} ; [ DW_TAG_subroutine_type ]
!309 = metadata !{metadata !297, metadata !202, metadata !223}
!310 = metadata !{i32 786478, i32 0, metadata !179, metadata !"operator=", metadata !"operator=", metadata !"_ZN11ap_int_baseILi48ELb1ELb1EEaSEh", metadata !180, i32 1666, metadata !311, i1 false, i1 false, i32 0, i32 0, null, i32 256, i1 false, null, null, i32 0, metadata !192, i32 1666} ; [ DW_TAG_subprogram ]
!311 = metadata !{i32 786453, i32 0, metadata !"", i32 0, i32 0, i64 0, i64 0, i64 0, i32 0, null, metadata !312, i32 0, i32 0} ; [ DW_TAG_subroutine_type ]
!312 = metadata !{metadata !297, metadata !202, metadata !227}
!313 = metadata !{i32 786478, i32 0, metadata !179, metadata !"operator=", metadata !"operator=", metadata !"_ZN11ap_int_baseILi48ELb1ELb1EEaSEs", metadata !180, i32 1667, metadata !314, i1 false, i1 false, i32 0, i32 0, null, i32 256, i1 false, null, null, i32 0, metadata !192, i32 1667} ; [ DW_TAG_subprogram ]
!314 = metadata !{i32 786453, i32 0, metadata !"", i32 0, i32 0, i64 0, i64 0, i64 0, i32 0, null, metadata !315, i32 0, i32 0} ; [ DW_TAG_subroutine_type ]
!315 = metadata !{metadata !297, metadata !202, metadata !231}
!316 = metadata !{i32 786478, i32 0, metadata !179, metadata !"operator=", metadata !"operator=", metadata !"_ZN11ap_int_baseILi48ELb1ELb1EEaSEt", metadata !180, i32 1668, metadata !317, i1 false, i1 false, i32 0, i32 0, null, i32 256, i1 false, null, null, i32 0, metadata !192, i32 1668} ; [ DW_TAG_subprogram ]
!317 = metadata !{i32 786453, i32 0, metadata !"", i32 0, i32 0, i64 0, i64 0, i64 0, i32 0, null, metadata !318, i32 0, i32 0} ; [ DW_TAG_subroutine_type ]
!318 = metadata !{metadata !297, metadata !202, metadata !235}
!319 = metadata !{i32 786478, i32 0, metadata !179, metadata !"operator=", metadata !"operator=", metadata !"_ZN11ap_int_baseILi48ELb1ELb1EEaSEi", metadata !180, i32 1669, metadata !320, i1 false, i1 false, i32 0, i32 0, null, i32 256, i1 false, null, null, i32 0, metadata !192, i32 1669} ; [ DW_TAG_subprogram ]
!320 = metadata !{i32 786453, i32 0, metadata !"", i32 0, i32 0, i64 0, i64 0, i64 0, i32 0, null, metadata !321, i32 0, i32 0} ; [ DW_TAG_subroutine_type ]
!321 = metadata !{metadata !297, metadata !202, metadata !196}
!322 = metadata !{i32 786478, i32 0, metadata !179, metadata !"operator=", metadata !"operator=", metadata !"_ZN11ap_int_baseILi48ELb1ELb1EEaSEj", metadata !180, i32 1670, metadata !323, i1 false, i1 false, i32 0, i32 0, null, i32 256, i1 false, null, null, i32 0, metadata !192, i32 1670} ; [ DW_TAG_subprogram ]
!323 = metadata !{i32 786453, i32 0, metadata !"", i32 0, i32 0, i64 0, i64 0, i64 0, i32 0, null, metadata !324, i32 0, i32 0} ; [ DW_TAG_subroutine_type ]
!324 = metadata !{metadata !297, metadata !202, metadata !242}
!325 = metadata !{i32 786478, i32 0, metadata !179, metadata !"operator=", metadata !"operator=", metadata !"_ZN11ap_int_baseILi48ELb1ELb1EEaSEx", metadata !180, i32 1671, metadata !326, i1 false, i1 false, i32 0, i32 0, null, i32 256, i1 false, null, null, i32 0, metadata !192, i32 1671} ; [ DW_TAG_subprogram ]
!326 = metadata !{i32 786453, i32 0, metadata !"", i32 0, i32 0, i64 0, i64 0, i64 0, i32 0, null, metadata !327, i32 0, i32 0} ; [ DW_TAG_subroutine_type ]
!327 = metadata !{metadata !297, metadata !202, metadata !254}
!328 = metadata !{i32 786478, i32 0, metadata !179, metadata !"operator=", metadata !"operator=", metadata !"_ZN11ap_int_baseILi48ELb1ELb1EEaSEy", metadata !180, i32 1672, metadata !329, i1 false, i1 false, i32 0, i32 0, null, i32 256, i1 false, null, null, i32 0, metadata !192, i32 1672} ; [ DW_TAG_subprogram ]
!329 = metadata !{i32 786453, i32 0, metadata !"", i32 0, i32 0, i64 0, i64 0, i64 0, i32 0, null, metadata !330, i32 0, i32 0} ; [ DW_TAG_subroutine_type ]
!330 = metadata !{metadata !297, metadata !202, metadata !259}
!331 = metadata !{i32 786478, i32 0, metadata !179, metadata !"operator long long", metadata !"operator long long", metadata !"_ZNK11ap_int_baseILi48ELb1ELb1EEcvxEv", metadata !180, i32 1710, metadata !332, i1 false, i1 false, i32 0, i32 0, null, i32 256, i1 false, null, null, i32 0, metadata !192, i32 1710} ; [ DW_TAG_subprogram ]
!332 = metadata !{i32 786453, i32 0, metadata !"", i32 0, i32 0, i64 0, i64 0, i64 0, i32 0, null, metadata !333, i32 0, i32 0} ; [ DW_TAG_subroutine_type ]
!333 = metadata !{metadata !334, metadata !340}
!334 = metadata !{i32 786454, metadata !179, metadata !"RetType", metadata !180, i32 1458, i64 0, i64 0, i64 0, i32 0, metadata !335} ; [ DW_TAG_typedef ]
!335 = metadata !{i32 786454, metadata !336, metadata !"Type", metadata !180, i32 1415, i64 0, i64 0, i64 0, i32 0, metadata !254} ; [ DW_TAG_typedef ]
!336 = metadata !{i32 786434, null, metadata !"retval<6, true>", metadata !180, i32 1414, i64 8, i64 8, i32 0, i32 0, null, metadata !337, i32 0, null, metadata !338} ; [ DW_TAG_class_type ]
!337 = metadata !{i32 0}
!338 = metadata !{metadata !339, metadata !197}
!339 = metadata !{i32 786480, null, metadata !"_AP_N", metadata !196, i64 6, null, i32 0, i32 0} ; [ DW_TAG_template_value_parameter ]
!340 = metadata !{i32 786447, i32 0, metadata !"", i32 0, i32 0, i64 64, i64 64, i64 0, i32 64, metadata !207} ; [ DW_TAG_pointer_type ]
!341 = metadata !{i32 786478, i32 0, metadata !179, metadata !"to_bool", metadata !"to_bool", metadata !"_ZNK11ap_int_baseILi48ELb1ELb1EE7to_boolEv", metadata !180, i32 1716, metadata !342, i1 false, i1 false, i32 0, i32 0, null, i32 256, i1 false, null, null, i32 0, metadata !192, i32 1716} ; [ DW_TAG_subprogram ]
!342 = metadata !{i32 786453, i32 0, metadata !"", i32 0, i32 0, i64 0, i64 0, i64 0, i32 0, null, metadata !343, i32 0, i32 0} ; [ DW_TAG_subroutine_type ]
!343 = metadata !{metadata !198, metadata !340}
!344 = metadata !{i32 786478, i32 0, metadata !179, metadata !"to_uchar", metadata !"to_uchar", metadata !"_ZNK11ap_int_baseILi48ELb1ELb1EE8to_ucharEv", metadata !180, i32 1717, metadata !345, i1 false, i1 false, i32 0, i32 0, null, i32 256, i1 false, null, null, i32 0, metadata !192, i32 1717} ; [ DW_TAG_subprogram ]
!345 = metadata !{i32 786453, i32 0, metadata !"", i32 0, i32 0, i64 0, i64 0, i64 0, i32 0, null, metadata !346, i32 0, i32 0} ; [ DW_TAG_subroutine_type ]
!346 = metadata !{metadata !227, metadata !340}
!347 = metadata !{i32 786478, i32 0, metadata !179, metadata !"to_char", metadata !"to_char", metadata !"_ZNK11ap_int_baseILi48ELb1ELb1EE7to_charEv", metadata !180, i32 1718, metadata !348, i1 false, i1 false, i32 0, i32 0, null, i32 256, i1 false, null, null, i32 0, metadata !192, i32 1718} ; [ DW_TAG_subprogram ]
!348 = metadata !{i32 786453, i32 0, metadata !"", i32 0, i32 0, i64 0, i64 0, i64 0, i32 0, null, metadata !349, i32 0, i32 0} ; [ DW_TAG_subroutine_type ]
!349 = metadata !{metadata !223, metadata !340}
!350 = metadata !{i32 786478, i32 0, metadata !179, metadata !"to_ushort", metadata !"to_ushort", metadata !"_ZNK11ap_int_baseILi48ELb1ELb1EE9to_ushortEv", metadata !180, i32 1719, metadata !351, i1 false, i1 false, i32 0, i32 0, null, i32 256, i1 false, null, null, i32 0, metadata !192, i32 1719} ; [ DW_TAG_subprogram ]
!351 = metadata !{i32 786453, i32 0, metadata !"", i32 0, i32 0, i64 0, i64 0, i64 0, i32 0, null, metadata !352, i32 0, i32 0} ; [ DW_TAG_subroutine_type ]
!352 = metadata !{metadata !235, metadata !340}
!353 = metadata !{i32 786478, i32 0, metadata !179, metadata !"to_short", metadata !"to_short", metadata !"_ZNK11ap_int_baseILi48ELb1ELb1EE8to_shortEv", metadata !180, i32 1720, metadata !354, i1 false, i1 false, i32 0, i32 0, null, i32 256, i1 false, null, null, i32 0, metadata !192, i32 1720} ; [ DW_TAG_subprogram ]
!354 = metadata !{i32 786453, i32 0, metadata !"", i32 0, i32 0, i64 0, i64 0, i64 0, i32 0, null, metadata !355, i32 0, i32 0} ; [ DW_TAG_subroutine_type ]
!355 = metadata !{metadata !231, metadata !340}
!356 = metadata !{i32 786478, i32 0, metadata !179, metadata !"to_int", metadata !"to_int", metadata !"_ZNK11ap_int_baseILi48ELb1ELb1EE6to_intEv", metadata !180, i32 1721, metadata !357, i1 false, i1 false, i32 0, i32 0, null, i32 256, i1 false, null, null, i32 0, metadata !192, i32 1721} ; [ DW_TAG_subprogram ]
!357 = metadata !{i32 786453, i32 0, metadata !"", i32 0, i32 0, i64 0, i64 0, i64 0, i32 0, null, metadata !358, i32 0, i32 0} ; [ DW_TAG_subroutine_type ]
!358 = metadata !{metadata !196, metadata !340}
!359 = metadata !{i32 786478, i32 0, metadata !179, metadata !"to_uint", metadata !"to_uint", metadata !"_ZNK11ap_int_baseILi48ELb1ELb1EE7to_uintEv", metadata !180, i32 1722, metadata !360, i1 false, i1 false, i32 0, i32 0, null, i32 256, i1 false, null, null, i32 0, metadata !192, i32 1722} ; [ DW_TAG_subprogram ]
!360 = metadata !{i32 786453, i32 0, metadata !"", i32 0, i32 0, i64 0, i64 0, i64 0, i32 0, null, metadata !361, i32 0, i32 0} ; [ DW_TAG_subroutine_type ]
!361 = metadata !{metadata !242, metadata !340}
!362 = metadata !{i32 786478, i32 0, metadata !179, metadata !"to_long", metadata !"to_long", metadata !"_ZNK11ap_int_baseILi48ELb1ELb1EE7to_longEv", metadata !180, i32 1723, metadata !363, i1 false, i1 false, i32 0, i32 0, null, i32 256, i1 false, null, null, i32 0, metadata !192, i32 1723} ; [ DW_TAG_subprogram ]
!363 = metadata !{i32 786453, i32 0, metadata !"", i32 0, i32 0, i64 0, i64 0, i64 0, i32 0, null, metadata !364, i32 0, i32 0} ; [ DW_TAG_subroutine_type ]
!364 = metadata !{metadata !246, metadata !340}
!365 = metadata !{i32 786478, i32 0, metadata !179, metadata !"to_ulong", metadata !"to_ulong", metadata !"_ZNK11ap_int_baseILi48ELb1ELb1EE8to_ulongEv", metadata !180, i32 1724, metadata !366, i1 false, i1 false, i32 0, i32 0, null, i32 256, i1 false, null, null, i32 0, metadata !192, i32 1724} ; [ DW_TAG_subprogram ]
!366 = metadata !{i32 786453, i32 0, metadata !"", i32 0, i32 0, i64 0, i64 0, i64 0, i32 0, null, metadata !367, i32 0, i32 0} ; [ DW_TAG_subroutine_type ]
!367 = metadata !{metadata !250, metadata !340}
!368 = metadata !{i32 786478, i32 0, metadata !179, metadata !"to_int64", metadata !"to_int64", metadata !"_ZNK11ap_int_baseILi48ELb1ELb1EE8to_int64Ev", metadata !180, i32 1725, metadata !369, i1 false, i1 false, i32 0, i32 0, null, i32 256, i1 false, null, null, i32 0, metadata !192, i32 1725} ; [ DW_TAG_subprogram ]
!369 = metadata !{i32 786453, i32 0, metadata !"", i32 0, i32 0, i64 0, i64 0, i64 0, i32 0, null, metadata !370, i32 0, i32 0} ; [ DW_TAG_subroutine_type ]
!370 = metadata !{metadata !254, metadata !340}
!371 = metadata !{i32 786478, i32 0, metadata !179, metadata !"to_uint64", metadata !"to_uint64", metadata !"_ZNK11ap_int_baseILi48ELb1ELb1EE9to_uint64Ev", metadata !180, i32 1726, metadata !372, i1 false, i1 false, i32 0, i32 0, null, i32 256, i1 false, null, null, i32 0, metadata !192, i32 1726} ; [ DW_TAG_subprogram ]
!372 = metadata !{i32 786453, i32 0, metadata !"", i32 0, i32 0, i64 0, i64 0, i64 0, i32 0, null, metadata !373, i32 0, i32 0} ; [ DW_TAG_subroutine_type ]
!373 = metadata !{metadata !259, metadata !340}
!374 = metadata !{i32 786478, i32 0, metadata !179, metadata !"to_double", metadata !"to_double", metadata !"_ZNK11ap_int_baseILi48ELb1ELb1EE9to_doubleEv", metadata !180, i32 1727, metadata !375, i1 false, i1 false, i32 0, i32 0, null, i32 256, i1 false, null, null, i32 0, metadata !192, i32 1727} ; [ DW_TAG_subprogram ]
!375 = metadata !{i32 786453, i32 0, metadata !"", i32 0, i32 0, i64 0, i64 0, i64 0, i32 0, null, metadata !376, i32 0, i32 0} ; [ DW_TAG_subroutine_type ]
!376 = metadata !{metadata !273, metadata !340}
!377 = metadata !{i32 786478, i32 0, metadata !179, metadata !"length", metadata !"length", metadata !"_ZNK11ap_int_baseILi48ELb1ELb1EE6lengthEv", metadata !180, i32 1741, metadata !357, i1 false, i1 false, i32 0, i32 0, null, i32 256, i1 false, null, null, i32 0, metadata !192, i32 1741} ; [ DW_TAG_subprogram ]
!378 = metadata !{i32 786478, i32 0, metadata !179, metadata !"length", metadata !"length", metadata !"_ZNVK11ap_int_baseILi48ELb1ELb1EE6lengthEv", metadata !180, i32 1742, metadata !379, i1 false, i1 false, i32 0, i32 0, null, i32 256, i1 false, null, null, i32 0, metadata !192, i32 1742} ; [ DW_TAG_subprogram ]
!379 = metadata !{i32 786453, i32 0, metadata !"", i32 0, i32 0, i64 0, i64 0, i64 0, i32 0, null, metadata !380, i32 0, i32 0} ; [ DW_TAG_subroutine_type ]
!380 = metadata !{metadata !196, metadata !381}
!381 = metadata !{i32 786447, i32 0, metadata !"", i32 0, i32 0, i64 64, i64 64, i64 0, i32 64, metadata !215} ; [ DW_TAG_pointer_type ]
!382 = metadata !{i32 786478, i32 0, metadata !179, metadata !"reverse", metadata !"reverse", metadata !"_ZN11ap_int_baseILi48ELb1ELb1EE7reverseEv", metadata !180, i32 1747, metadata !383, i1 false, i1 false, i32 0, i32 0, null, i32 256, i1 false, null, null, i32 0, metadata !192, i32 1747} ; [ DW_TAG_subprogram ]
!383 = metadata !{i32 786453, i32 0, metadata !"", i32 0, i32 0, i64 0, i64 0, i64 0, i32 0, null, metadata !384, i32 0, i32 0} ; [ DW_TAG_subroutine_type ]
!384 = metadata !{metadata !297, metadata !202}
!385 = metadata !{i32 786478, i32 0, metadata !179, metadata !"iszero", metadata !"iszero", metadata !"_ZNK11ap_int_baseILi48ELb1ELb1EE6iszeroEv", metadata !180, i32 1753, metadata !342, i1 false, i1 false, i32 0, i32 0, null, i32 256, i1 false, null, null, i32 0, metadata !192, i32 1753} ; [ DW_TAG_subprogram ]
!386 = metadata !{i32 786478, i32 0, metadata !179, metadata !"is_zero", metadata !"is_zero", metadata !"_ZNK11ap_int_baseILi48ELb1ELb1EE7is_zeroEv", metadata !180, i32 1758, metadata !342, i1 false, i1 false, i32 0, i32 0, null, i32 256, i1 false, null, null, i32 0, metadata !192, i32 1758} ; [ DW_TAG_subprogram ]
!387 = metadata !{i32 786478, i32 0, metadata !179, metadata !"sign", metadata !"sign", metadata !"_ZNK11ap_int_baseILi48ELb1ELb1EE4signEv", metadata !180, i32 1763, metadata !342, i1 false, i1 false, i32 0, i32 0, null, i32 256, i1 false, null, null, i32 0, metadata !192, i32 1763} ; [ DW_TAG_subprogram ]
!388 = metadata !{i32 786478, i32 0, metadata !179, metadata !"clear", metadata !"clear", metadata !"_ZN11ap_int_baseILi48ELb1ELb1EE5clearEi", metadata !180, i32 1771, metadata !237, i1 false, i1 false, i32 0, i32 0, null, i32 256, i1 false, null, null, i32 0, metadata !192, i32 1771} ; [ DW_TAG_subprogram ]
!389 = metadata !{i32 786478, i32 0, metadata !179, metadata !"invert", metadata !"invert", metadata !"_ZN11ap_int_baseILi48ELb1ELb1EE6invertEi", metadata !180, i32 1777, metadata !237, i1 false, i1 false, i32 0, i32 0, null, i32 256, i1 false, null, null, i32 0, metadata !192, i32 1777} ; [ DW_TAG_subprogram ]
!390 = metadata !{i32 786478, i32 0, metadata !179, metadata !"test", metadata !"test", metadata !"_ZNK11ap_int_baseILi48ELb1ELb1EE4testEi", metadata !180, i32 1785, metadata !391, i1 false, i1 false, i32 0, i32 0, null, i32 256, i1 false, null, null, i32 0, metadata !192, i32 1785} ; [ DW_TAG_subprogram ]
!391 = metadata !{i32 786453, i32 0, metadata !"", i32 0, i32 0, i64 0, i64 0, i64 0, i32 0, null, metadata !392, i32 0, i32 0} ; [ DW_TAG_subroutine_type ]
!392 = metadata !{metadata !198, metadata !340, metadata !196}
!393 = metadata !{i32 786478, i32 0, metadata !179, metadata !"set", metadata !"set", metadata !"_ZN11ap_int_baseILi48ELb1ELb1EE3setEi", metadata !180, i32 1791, metadata !237, i1 false, i1 false, i32 0, i32 0, null, i32 256, i1 false, null, null, i32 0, metadata !192, i32 1791} ; [ DW_TAG_subprogram ]
!394 = metadata !{i32 786478, i32 0, metadata !179, metadata !"set", metadata !"set", metadata !"_ZN11ap_int_baseILi48ELb1ELb1EE3setEib", metadata !180, i32 1797, metadata !395, i1 false, i1 false, i32 0, i32 0, null, i32 256, i1 false, null, null, i32 0, metadata !192, i32 1797} ; [ DW_TAG_subprogram ]
!395 = metadata !{i32 786453, i32 0, metadata !"", i32 0, i32 0, i64 0, i64 0, i64 0, i32 0, null, metadata !396, i32 0, i32 0} ; [ DW_TAG_subroutine_type ]
!396 = metadata !{null, metadata !202, metadata !196, metadata !198}
!397 = metadata !{i32 786478, i32 0, metadata !179, metadata !"lrotate", metadata !"lrotate", metadata !"_ZN11ap_int_baseILi48ELb1ELb1EE7lrotateEi", metadata !180, i32 1804, metadata !237, i1 false, i1 false, i32 0, i32 0, null, i32 256, i1 false, null, null, i32 0, metadata !192, i32 1804} ; [ DW_TAG_subprogram ]
!398 = metadata !{i32 786478, i32 0, metadata !179, metadata !"rrotate", metadata !"rrotate", metadata !"_ZN11ap_int_baseILi48ELb1ELb1EE7rrotateEi", metadata !180, i32 1813, metadata !237, i1 false, i1 false, i32 0, i32 0, null, i32 256, i1 false, null, null, i32 0, metadata !192, i32 1813} ; [ DW_TAG_subprogram ]
!399 = metadata !{i32 786478, i32 0, metadata !179, metadata !"set_bit", metadata !"set_bit", metadata !"_ZN11ap_int_baseILi48ELb1ELb1EE7set_bitEib", metadata !180, i32 1821, metadata !395, i1 false, i1 false, i32 0, i32 0, null, i32 256, i1 false, null, null, i32 0, metadata !192, i32 1821} ; [ DW_TAG_subprogram ]
!400 = metadata !{i32 786478, i32 0, metadata !179, metadata !"get_bit", metadata !"get_bit", metadata !"_ZNK11ap_int_baseILi48ELb1ELb1EE7get_bitEi", metadata !180, i32 1826, metadata !391, i1 false, i1 false, i32 0, i32 0, null, i32 256, i1 false, null, null, i32 0, metadata !192, i32 1826} ; [ DW_TAG_subprogram ]
!401 = metadata !{i32 786478, i32 0, metadata !179, metadata !"b_not", metadata !"b_not", metadata !"_ZN11ap_int_baseILi48ELb1ELb1EE5b_notEv", metadata !180, i32 1831, metadata !200, i1 false, i1 false, i32 0, i32 0, null, i32 256, i1 false, null, null, i32 0, metadata !192, i32 1831} ; [ DW_TAG_subprogram ]
!402 = metadata !{i32 786478, i32 0, metadata !179, metadata !"countLeadingZeros", metadata !"countLeadingZeros", metadata !"_ZN11ap_int_baseILi48ELb1ELb1EE17countLeadingZerosEv", metadata !180, i32 1838, metadata !403, i1 false, i1 false, i32 0, i32 0, null, i32 256, i1 false, null, null, i32 0, metadata !192, i32 1838} ; [ DW_TAG_subprogram ]
!403 = metadata !{i32 786453, i32 0, metadata !"", i32 0, i32 0, i64 0, i64 0, i64 0, i32 0, null, metadata !404, i32 0, i32 0} ; [ DW_TAG_subroutine_type ]
!404 = metadata !{metadata !196, metadata !202}
!405 = metadata !{i32 786478, i32 0, metadata !179, metadata !"operator++", metadata !"operator++", metadata !"_ZN11ap_int_baseILi48ELb1ELb1EEppEv", metadata !180, i32 1895, metadata !383, i1 false, i1 false, i32 0, i32 0, null, i32 256, i1 false, null, null, i32 0, metadata !192, i32 1895} ; [ DW_TAG_subprogram ]
!406 = metadata !{i32 786478, i32 0, metadata !179, metadata !"operator--", metadata !"operator--", metadata !"_ZN11ap_int_baseILi48ELb1ELb1EEmmEv", metadata !180, i32 1899, metadata !383, i1 false, i1 false, i32 0, i32 0, null, i32 256, i1 false, null, null, i32 0, metadata !192, i32 1899} ; [ DW_TAG_subprogram ]
!407 = metadata !{i32 786478, i32 0, metadata !179, metadata !"operator++", metadata !"operator++", metadata !"_ZN11ap_int_baseILi48ELb1ELb1EEppEi", metadata !180, i32 1907, metadata !408, i1 false, i1 false, i32 0, i32 0, null, i32 256, i1 false, null, null, i32 0, metadata !192, i32 1907} ; [ DW_TAG_subprogram ]
!408 = metadata !{i32 786453, i32 0, metadata !"", i32 0, i32 0, i64 0, i64 0, i64 0, i32 0, null, metadata !409, i32 0, i32 0} ; [ DW_TAG_subroutine_type ]
!409 = metadata !{metadata !207, metadata !202, metadata !196}
!410 = metadata !{i32 786478, i32 0, metadata !179, metadata !"operator--", metadata !"operator--", metadata !"_ZN11ap_int_baseILi48ELb1ELb1EEmmEi", metadata !180, i32 1912, metadata !408, i1 false, i1 false, i32 0, i32 0, null, i32 256, i1 false, null, null, i32 0, metadata !192, i32 1912} ; [ DW_TAG_subprogram ]
!411 = metadata !{i32 786478, i32 0, metadata !179, metadata !"operator+", metadata !"operator+", metadata !"_ZNK11ap_int_baseILi48ELb1ELb1EEpsEv", metadata !180, i32 1921, metadata !412, i1 false, i1 false, i32 0, i32 0, null, i32 256, i1 false, null, null, i32 0, metadata !192, i32 1921} ; [ DW_TAG_subprogram ]
!412 = metadata !{i32 786453, i32 0, metadata !"", i32 0, i32 0, i64 0, i64 0, i64 0, i32 0, null, metadata !413, i32 0, i32 0} ; [ DW_TAG_subroutine_type ]
!413 = metadata !{metadata !179, metadata !340}
!414 = metadata !{i32 786478, i32 0, metadata !179, metadata !"operator!", metadata !"operator!", metadata !"_ZNK11ap_int_baseILi48ELb1ELb1EEntEv", metadata !180, i32 1927, metadata !342, i1 false, i1 false, i32 0, i32 0, null, i32 256, i1 false, null, null, i32 0, metadata !192, i32 1927} ; [ DW_TAG_subprogram ]
!415 = metadata !{i32 786478, i32 0, metadata !179, metadata !"operator-", metadata !"operator-", metadata !"_ZNK11ap_int_baseILi48ELb1ELb1EEngEv", metadata !180, i32 1932, metadata !416, i1 false, i1 false, i32 0, i32 0, null, i32 256, i1 false, null, null, i32 0, metadata !192, i32 1932} ; [ DW_TAG_subprogram ]
!416 = metadata !{i32 786453, i32 0, metadata !"", i32 0, i32 0, i64 0, i64 0, i64 0, i32 0, null, metadata !417, i32 0, i32 0} ; [ DW_TAG_subroutine_type ]
!417 = metadata !{metadata !418, metadata !340}
!418 = metadata !{i32 786434, null, metadata !"ap_int_base<49, true, true>", metadata !180, i32 651, i64 0, i64 0, i32 0, i32 4, null, null, i32 0, null, metadata !419} ; [ DW_TAG_class_type ]
!419 = metadata !{metadata !420, metadata !197, metadata !421}
!420 = metadata !{i32 786480, null, metadata !"_AP_W", metadata !196, i64 49, null, i32 0, i32 0} ; [ DW_TAG_template_value_parameter ]
!421 = metadata !{i32 786480, null, metadata !"_AP_C", metadata !198, i64 1, null, i32 0, i32 0} ; [ DW_TAG_template_value_parameter ]
!422 = metadata !{i32 786478, i32 0, metadata !179, metadata !"operator==<48, false>", metadata !"operator==<48, false>", metadata !"_ZNK11ap_int_baseILi48ELb1ELb1EEeqILi48ELb0EEEbRKS_IXT_EXT0_EXleT_Li64EEE", metadata !180, i32 2033, metadata !423, i1 false, i1 false, i32 0, i32 0, null, i32 256, i1 false, null, metadata !447, i32 0, metadata !192, i32 2033} ; [ DW_TAG_subprogram ]
!423 = metadata !{i32 786453, i32 0, metadata !"", i32 0, i32 0, i64 0, i64 0, i64 0, i32 0, null, metadata !424, i32 0, i32 0} ; [ DW_TAG_subroutine_type ]
!424 = metadata !{metadata !198, metadata !340, metadata !425}
!425 = metadata !{i32 786448, null, null, null, i32 0, i64 0, i64 0, i64 0, i32 0, metadata !426} ; [ DW_TAG_reference_type ]
!426 = metadata !{i32 786470, null, metadata !"", null, i32 0, i64 0, i64 0, i64 0, i32 0, metadata !427} ; [ DW_TAG_const_type ]
!427 = metadata !{i32 786434, null, metadata !"ap_int_base<48, false, true>", metadata !180, i32 1453, i64 64, i64 64, i32 0, i32 0, null, metadata !428, i32 0, null, metadata !684} ; [ DW_TAG_class_type ]
!428 = metadata !{metadata !429, metadata !440, metadata !444, metadata !449, metadata !455, metadata !458, metadata !461, metadata !464, metadata !467, metadata !470, metadata !473, metadata !476, metadata !479, metadata !482, metadata !485, metadata !488, metadata !491, metadata !494, metadata !497, metadata !500, metadata !503, metadata !507, metadata !510, metadata !513, metadata !514, metadata !518, metadata !521, metadata !524, metadata !527, metadata !530, metadata !533, metadata !536, metadata !539, metadata !542, metadata !545, metadata !548, metadata !551, metadata !559, metadata !562, metadata !565, metadata !568, metadata !571, metadata !574, metadata !577, metadata !580, metadata !583, metadata !586, metadata !589, metadata !592, metadata !595, metadata !596, metadata !600, metadata !603, metadata !604, metadata !605, metadata !606, metadata !607, metadata !608, metadata !611, metadata !612, metadata !615, metadata !616, metadata !617, metadata !618, metadata !619, metadata !620, metadata !623, metadata !624, metadata !625, metadata !628, metadata !629, metadata !632, metadata !633, metadata !636, metadata !642, metadata !643, metadata !646, metadata !647, metadata !651, metadata !652, metadata !653, metadata !654, metadata !657, metadata !658, metadata !659, metadata !660, metadata !661, metadata !662, metadata !663, metadata !664, metadata !665, metadata !666, metadata !667, metadata !668, metadata !678, metadata !681}
!429 = metadata !{i32 786460, metadata !427, null, metadata !180, i32 0, i64 0, i64 0, i64 0, i32 0, metadata !430} ; [ DW_TAG_inheritance ]
!430 = metadata !{i32 786434, null, metadata !"ssdm_int<48 + 1024 * 0, false>", metadata !184, i32 50, i64 64, i64 64, i32 0, i32 0, null, metadata !431, i32 0, null, metadata !438} ; [ DW_TAG_class_type ]
!431 = metadata !{metadata !432, metadata !434}
!432 = metadata !{i32 786445, metadata !430, metadata !"V", metadata !184, i32 50, i64 48, i64 64, i64 0, i32 0, metadata !433} ; [ DW_TAG_member ]
!433 = metadata !{i32 786468, null, metadata !"uint48", null, i32 0, i64 48, i64 64, i64 0, i32 0, i32 7} ; [ DW_TAG_base_type ]
!434 = metadata !{i32 786478, i32 0, metadata !430, metadata !"ssdm_int", metadata !"ssdm_int", metadata !"", metadata !184, i32 50, metadata !435, i1 false, i1 false, i32 0, i32 0, null, i32 256, i1 false, null, null, i32 0, metadata !192, i32 50} ; [ DW_TAG_subprogram ]
!435 = metadata !{i32 786453, i32 0, metadata !"", i32 0, i32 0, i64 0, i64 0, i64 0, i32 0, null, metadata !436, i32 0, i32 0} ; [ DW_TAG_subroutine_type ]
!436 = metadata !{null, metadata !437}
!437 = metadata !{i32 786447, i32 0, metadata !"", i32 0, i32 0, i64 64, i64 64, i64 0, i32 64, metadata !430} ; [ DW_TAG_pointer_type ]
!438 = metadata !{metadata !195, metadata !439}
!439 = metadata !{i32 786480, null, metadata !"_AP_S", metadata !198, i64 0, null, i32 0, i32 0} ; [ DW_TAG_template_value_parameter ]
!440 = metadata !{i32 786478, i32 0, metadata !427, metadata !"ap_int_base", metadata !"ap_int_base", metadata !"", metadata !180, i32 1494, metadata !441, i1 false, i1 false, i32 0, i32 0, null, i32 256, i1 false, null, null, i32 0, metadata !192, i32 1494} ; [ DW_TAG_subprogram ]
!441 = metadata !{i32 786453, i32 0, metadata !"", i32 0, i32 0, i64 0, i64 0, i64 0, i32 0, null, metadata !442, i32 0, i32 0} ; [ DW_TAG_subroutine_type ]
!442 = metadata !{null, metadata !443}
!443 = metadata !{i32 786447, i32 0, metadata !"", i32 0, i32 0, i64 64, i64 64, i64 0, i32 64, metadata !427} ; [ DW_TAG_pointer_type ]
!444 = metadata !{i32 786478, i32 0, metadata !427, metadata !"ap_int_base<48, false>", metadata !"ap_int_base<48, false>", metadata !"", metadata !180, i32 1506, metadata !445, i1 false, i1 false, i32 0, i32 0, null, i32 256, i1 false, null, metadata !447, i32 0, metadata !192, i32 1506} ; [ DW_TAG_subprogram ]
!445 = metadata !{i32 786453, i32 0, metadata !"", i32 0, i32 0, i64 0, i64 0, i64 0, i32 0, null, metadata !446, i32 0, i32 0} ; [ DW_TAG_subroutine_type ]
!446 = metadata !{null, metadata !443, metadata !425}
!447 = metadata !{metadata !209, metadata !448}
!448 = metadata !{i32 786480, null, metadata !"_AP_S2", metadata !198, i64 0, null, i32 0, i32 0} ; [ DW_TAG_template_value_parameter ]
!449 = metadata !{i32 786478, i32 0, metadata !427, metadata !"ap_int_base<48, false>", metadata !"ap_int_base<48, false>", metadata !"", metadata !180, i32 1509, metadata !450, i1 false, i1 false, i32 0, i32 0, null, i32 256, i1 false, null, metadata !447, i32 0, metadata !192, i32 1509} ; [ DW_TAG_subprogram ]
!450 = metadata !{i32 786453, i32 0, metadata !"", i32 0, i32 0, i64 0, i64 0, i64 0, i32 0, null, metadata !451, i32 0, i32 0} ; [ DW_TAG_subroutine_type ]
!451 = metadata !{null, metadata !443, metadata !452}
!452 = metadata !{i32 786448, null, null, null, i32 0, i64 0, i64 0, i64 0, i32 0, metadata !453} ; [ DW_TAG_reference_type ]
!453 = metadata !{i32 786470, null, metadata !"", null, i32 0, i64 0, i64 0, i64 0, i32 0, metadata !454} ; [ DW_TAG_const_type ]
!454 = metadata !{i32 786485, null, metadata !"", null, i32 0, i64 0, i64 0, i64 0, i32 0, metadata !427} ; [ DW_TAG_volatile_type ]
!455 = metadata !{i32 786478, i32 0, metadata !427, metadata !"ap_int_base", metadata !"ap_int_base", metadata !"", metadata !180, i32 1516, metadata !456, i1 false, i1 false, i32 0, i32 0, null, i32 384, i1 false, null, null, i32 0, metadata !192, i32 1516} ; [ DW_TAG_subprogram ]
!456 = metadata !{i32 786453, i32 0, metadata !"", i32 0, i32 0, i64 0, i64 0, i64 0, i32 0, null, metadata !457, i32 0, i32 0} ; [ DW_TAG_subroutine_type ]
!457 = metadata !{null, metadata !443, metadata !198}
!458 = metadata !{i32 786478, i32 0, metadata !427, metadata !"ap_int_base", metadata !"ap_int_base", metadata !"", metadata !180, i32 1517, metadata !459, i1 false, i1 false, i32 0, i32 0, null, i32 384, i1 false, null, null, i32 0, metadata !192, i32 1517} ; [ DW_TAG_subprogram ]
!459 = metadata !{i32 786453, i32 0, metadata !"", i32 0, i32 0, i64 0, i64 0, i64 0, i32 0, null, metadata !460, i32 0, i32 0} ; [ DW_TAG_subroutine_type ]
!460 = metadata !{null, metadata !443, metadata !223}
!461 = metadata !{i32 786478, i32 0, metadata !427, metadata !"ap_int_base", metadata !"ap_int_base", metadata !"", metadata !180, i32 1518, metadata !462, i1 false, i1 false, i32 0, i32 0, null, i32 384, i1 false, null, null, i32 0, metadata !192, i32 1518} ; [ DW_TAG_subprogram ]
!462 = metadata !{i32 786453, i32 0, metadata !"", i32 0, i32 0, i64 0, i64 0, i64 0, i32 0, null, metadata !463, i32 0, i32 0} ; [ DW_TAG_subroutine_type ]
!463 = metadata !{null, metadata !443, metadata !227}
!464 = metadata !{i32 786478, i32 0, metadata !427, metadata !"ap_int_base", metadata !"ap_int_base", metadata !"", metadata !180, i32 1519, metadata !465, i1 false, i1 false, i32 0, i32 0, null, i32 384, i1 false, null, null, i32 0, metadata !192, i32 1519} ; [ DW_TAG_subprogram ]
!465 = metadata !{i32 786453, i32 0, metadata !"", i32 0, i32 0, i64 0, i64 0, i64 0, i32 0, null, metadata !466, i32 0, i32 0} ; [ DW_TAG_subroutine_type ]
!466 = metadata !{null, metadata !443, metadata !231}
!467 = metadata !{i32 786478, i32 0, metadata !427, metadata !"ap_int_base", metadata !"ap_int_base", metadata !"", metadata !180, i32 1520, metadata !468, i1 false, i1 false, i32 0, i32 0, null, i32 384, i1 false, null, null, i32 0, metadata !192, i32 1520} ; [ DW_TAG_subprogram ]
!468 = metadata !{i32 786453, i32 0, metadata !"", i32 0, i32 0, i64 0, i64 0, i64 0, i32 0, null, metadata !469, i32 0, i32 0} ; [ DW_TAG_subroutine_type ]
!469 = metadata !{null, metadata !443, metadata !235}
!470 = metadata !{i32 786478, i32 0, metadata !427, metadata !"ap_int_base", metadata !"ap_int_base", metadata !"", metadata !180, i32 1521, metadata !471, i1 false, i1 false, i32 0, i32 0, null, i32 384, i1 false, null, null, i32 0, metadata !192, i32 1521} ; [ DW_TAG_subprogram ]
!471 = metadata !{i32 786453, i32 0, metadata !"", i32 0, i32 0, i64 0, i64 0, i64 0, i32 0, null, metadata !472, i32 0, i32 0} ; [ DW_TAG_subroutine_type ]
!472 = metadata !{null, metadata !443, metadata !196}
!473 = metadata !{i32 786478, i32 0, metadata !427, metadata !"ap_int_base", metadata !"ap_int_base", metadata !"", metadata !180, i32 1522, metadata !474, i1 false, i1 false, i32 0, i32 0, null, i32 384, i1 false, null, null, i32 0, metadata !192, i32 1522} ; [ DW_TAG_subprogram ]
!474 = metadata !{i32 786453, i32 0, metadata !"", i32 0, i32 0, i64 0, i64 0, i64 0, i32 0, null, metadata !475, i32 0, i32 0} ; [ DW_TAG_subroutine_type ]
!475 = metadata !{null, metadata !443, metadata !242}
!476 = metadata !{i32 786478, i32 0, metadata !427, metadata !"ap_int_base", metadata !"ap_int_base", metadata !"", metadata !180, i32 1523, metadata !477, i1 false, i1 false, i32 0, i32 0, null, i32 384, i1 false, null, null, i32 0, metadata !192, i32 1523} ; [ DW_TAG_subprogram ]
!477 = metadata !{i32 786453, i32 0, metadata !"", i32 0, i32 0, i64 0, i64 0, i64 0, i32 0, null, metadata !478, i32 0, i32 0} ; [ DW_TAG_subroutine_type ]
!478 = metadata !{null, metadata !443, metadata !246}
!479 = metadata !{i32 786478, i32 0, metadata !427, metadata !"ap_int_base", metadata !"ap_int_base", metadata !"", metadata !180, i32 1524, metadata !480, i1 false, i1 false, i32 0, i32 0, null, i32 384, i1 false, null, null, i32 0, metadata !192, i32 1524} ; [ DW_TAG_subprogram ]
!480 = metadata !{i32 786453, i32 0, metadata !"", i32 0, i32 0, i64 0, i64 0, i64 0, i32 0, null, metadata !481, i32 0, i32 0} ; [ DW_TAG_subroutine_type ]
!481 = metadata !{null, metadata !443, metadata !250}
!482 = metadata !{i32 786478, i32 0, metadata !427, metadata !"ap_int_base", metadata !"ap_int_base", metadata !"", metadata !180, i32 1525, metadata !483, i1 false, i1 false, i32 0, i32 0, null, i32 384, i1 false, null, null, i32 0, metadata !192, i32 1525} ; [ DW_TAG_subprogram ]
!483 = metadata !{i32 786453, i32 0, metadata !"", i32 0, i32 0, i64 0, i64 0, i64 0, i32 0, null, metadata !484, i32 0, i32 0} ; [ DW_TAG_subroutine_type ]
!484 = metadata !{null, metadata !443, metadata !254}
!485 = metadata !{i32 786478, i32 0, metadata !427, metadata !"ap_int_base", metadata !"ap_int_base", metadata !"", metadata !180, i32 1526, metadata !486, i1 false, i1 false, i32 0, i32 0, null, i32 384, i1 false, null, null, i32 0, metadata !192, i32 1526} ; [ DW_TAG_subprogram ]
!486 = metadata !{i32 786453, i32 0, metadata !"", i32 0, i32 0, i64 0, i64 0, i64 0, i32 0, null, metadata !487, i32 0, i32 0} ; [ DW_TAG_subroutine_type ]
!487 = metadata !{null, metadata !443, metadata !259}
!488 = metadata !{i32 786478, i32 0, metadata !427, metadata !"ap_int_base", metadata !"ap_int_base", metadata !"", metadata !180, i32 1527, metadata !489, i1 false, i1 false, i32 0, i32 0, null, i32 384, i1 false, null, null, i32 0, metadata !192, i32 1527} ; [ DW_TAG_subprogram ]
!489 = metadata !{i32 786453, i32 0, metadata !"", i32 0, i32 0, i64 0, i64 0, i64 0, i32 0, null, metadata !490, i32 0, i32 0} ; [ DW_TAG_subroutine_type ]
!490 = metadata !{null, metadata !443, metadata !264}
!491 = metadata !{i32 786478, i32 0, metadata !427, metadata !"ap_int_base", metadata !"ap_int_base", metadata !"", metadata !180, i32 1528, metadata !492, i1 false, i1 false, i32 0, i32 0, null, i32 384, i1 false, null, null, i32 0, metadata !192, i32 1528} ; [ DW_TAG_subprogram ]
!492 = metadata !{i32 786453, i32 0, metadata !"", i32 0, i32 0, i64 0, i64 0, i64 0, i32 0, null, metadata !493, i32 0, i32 0} ; [ DW_TAG_subroutine_type ]
!493 = metadata !{null, metadata !443, metadata !269}
!494 = metadata !{i32 786478, i32 0, metadata !427, metadata !"ap_int_base", metadata !"ap_int_base", metadata !"", metadata !180, i32 1529, metadata !495, i1 false, i1 false, i32 0, i32 0, null, i32 384, i1 false, null, null, i32 0, metadata !192, i32 1529} ; [ DW_TAG_subprogram ]
!495 = metadata !{i32 786453, i32 0, metadata !"", i32 0, i32 0, i64 0, i64 0, i64 0, i32 0, null, metadata !496, i32 0, i32 0} ; [ DW_TAG_subroutine_type ]
!496 = metadata !{null, metadata !443, metadata !273}
!497 = metadata !{i32 786478, i32 0, metadata !427, metadata !"ap_int_base", metadata !"ap_int_base", metadata !"", metadata !180, i32 1556, metadata !498, i1 false, i1 false, i32 0, i32 0, null, i32 256, i1 false, null, null, i32 0, metadata !192, i32 1556} ; [ DW_TAG_subprogram ]
!498 = metadata !{i32 786453, i32 0, metadata !"", i32 0, i32 0, i64 0, i64 0, i64 0, i32 0, null, metadata !499, i32 0, i32 0} ; [ DW_TAG_subroutine_type ]
!499 = metadata !{null, metadata !443, metadata !277}
!500 = metadata !{i32 786478, i32 0, metadata !427, metadata !"ap_int_base", metadata !"ap_int_base", metadata !"", metadata !180, i32 1563, metadata !501, i1 false, i1 false, i32 0, i32 0, null, i32 256, i1 false, null, null, i32 0, metadata !192, i32 1563} ; [ DW_TAG_subprogram ]
!501 = metadata !{i32 786453, i32 0, metadata !"", i32 0, i32 0, i64 0, i64 0, i64 0, i32 0, null, metadata !502, i32 0, i32 0} ; [ DW_TAG_subroutine_type ]
!502 = metadata !{null, metadata !443, metadata !277, metadata !223}
!503 = metadata !{i32 786478, i32 0, metadata !427, metadata !"read", metadata !"read", metadata !"_ZNV11ap_int_baseILi48ELb0ELb1EE4readEv", metadata !180, i32 1584, metadata !504, i1 false, i1 false, i32 0, i32 0, null, i32 256, i1 false, null, null, i32 0, metadata !192, i32 1584} ; [ DW_TAG_subprogram ]
!504 = metadata !{i32 786453, i32 0, metadata !"", i32 0, i32 0, i64 0, i64 0, i64 0, i32 0, null, metadata !505, i32 0, i32 0} ; [ DW_TAG_subroutine_type ]
!505 = metadata !{metadata !427, metadata !506}
!506 = metadata !{i32 786447, i32 0, metadata !"", i32 0, i32 0, i64 64, i64 64, i64 0, i32 64, metadata !454} ; [ DW_TAG_pointer_type ]
!507 = metadata !{i32 786478, i32 0, metadata !427, metadata !"write", metadata !"write", metadata !"_ZNV11ap_int_baseILi48ELb0ELb1EE5writeERKS0_", metadata !180, i32 1590, metadata !508, i1 false, i1 false, i32 0, i32 0, null, i32 256, i1 false, null, null, i32 0, metadata !192, i32 1590} ; [ DW_TAG_subprogram ]
!508 = metadata !{i32 786453, i32 0, metadata !"", i32 0, i32 0, i64 0, i64 0, i64 0, i32 0, null, metadata !509, i32 0, i32 0} ; [ DW_TAG_subroutine_type ]
!509 = metadata !{null, metadata !506, metadata !425}
!510 = metadata !{i32 786478, i32 0, metadata !427, metadata !"operator=", metadata !"operator=", metadata !"_ZNV11ap_int_baseILi48ELb0ELb1EEaSERVKS0_", metadata !180, i32 1602, metadata !511, i1 false, i1 false, i32 0, i32 0, null, i32 256, i1 false, null, null, i32 0, metadata !192, i32 1602} ; [ DW_TAG_subprogram ]
!511 = metadata !{i32 786453, i32 0, metadata !"", i32 0, i32 0, i64 0, i64 0, i64 0, i32 0, null, metadata !512, i32 0, i32 0} ; [ DW_TAG_subroutine_type ]
!512 = metadata !{null, metadata !506, metadata !452}
!513 = metadata !{i32 786478, i32 0, metadata !427, metadata !"operator=", metadata !"operator=", metadata !"_ZNV11ap_int_baseILi48ELb0ELb1EEaSERKS0_", metadata !180, i32 1611, metadata !508, i1 false, i1 false, i32 0, i32 0, null, i32 256, i1 false, null, null, i32 0, metadata !192, i32 1611} ; [ DW_TAG_subprogram ]
!514 = metadata !{i32 786478, i32 0, metadata !427, metadata !"operator=", metadata !"operator=", metadata !"_ZN11ap_int_baseILi48ELb0ELb1EEaSERVKS0_", metadata !180, i32 1634, metadata !515, i1 false, i1 false, i32 0, i32 0, null, i32 256, i1 false, null, null, i32 0, metadata !192, i32 1634} ; [ DW_TAG_subprogram ]
!515 = metadata !{i32 786453, i32 0, metadata !"", i32 0, i32 0, i64 0, i64 0, i64 0, i32 0, null, metadata !516, i32 0, i32 0} ; [ DW_TAG_subroutine_type ]
!516 = metadata !{metadata !517, metadata !443, metadata !452}
!517 = metadata !{i32 786448, null, null, null, i32 0, i64 0, i64 0, i64 0, i32 0, metadata !427} ; [ DW_TAG_reference_type ]
!518 = metadata !{i32 786478, i32 0, metadata !427, metadata !"operator=", metadata !"operator=", metadata !"_ZN11ap_int_baseILi48ELb0ELb1EEaSERKS0_", metadata !180, i32 1639, metadata !519, i1 false, i1 false, i32 0, i32 0, null, i32 256, i1 false, null, null, i32 0, metadata !192, i32 1639} ; [ DW_TAG_subprogram ]
!519 = metadata !{i32 786453, i32 0, metadata !"", i32 0, i32 0, i64 0, i64 0, i64 0, i32 0, null, metadata !520, i32 0, i32 0} ; [ DW_TAG_subroutine_type ]
!520 = metadata !{metadata !517, metadata !443, metadata !425}
!521 = metadata !{i32 786478, i32 0, metadata !427, metadata !"operator=", metadata !"operator=", metadata !"_ZN11ap_int_baseILi48ELb0ELb1EEaSEPKc", metadata !180, i32 1643, metadata !522, i1 false, i1 false, i32 0, i32 0, null, i32 256, i1 false, null, null, i32 0, metadata !192, i32 1643} ; [ DW_TAG_subprogram ]
!522 = metadata !{i32 786453, i32 0, metadata !"", i32 0, i32 0, i64 0, i64 0, i64 0, i32 0, null, metadata !523, i32 0, i32 0} ; [ DW_TAG_subroutine_type ]
!523 = metadata !{metadata !517, metadata !443, metadata !277}
!524 = metadata !{i32 786478, i32 0, metadata !427, metadata !"set", metadata !"set", metadata !"_ZN11ap_int_baseILi48ELb0ELb1EE3setEPKca", metadata !180, i32 1651, metadata !525, i1 false, i1 false, i32 0, i32 0, null, i32 256, i1 false, null, null, i32 0, metadata !192, i32 1651} ; [ DW_TAG_subprogram ]
!525 = metadata !{i32 786453, i32 0, metadata !"", i32 0, i32 0, i64 0, i64 0, i64 0, i32 0, null, metadata !526, i32 0, i32 0} ; [ DW_TAG_subroutine_type ]
!526 = metadata !{metadata !517, metadata !443, metadata !277, metadata !223}
!527 = metadata !{i32 786478, i32 0, metadata !427, metadata !"operator=", metadata !"operator=", metadata !"_ZN11ap_int_baseILi48ELb0ELb1EEaSEa", metadata !180, i32 1665, metadata !528, i1 false, i1 false, i32 0, i32 0, null, i32 256, i1 false, null, null, i32 0, metadata !192, i32 1665} ; [ DW_TAG_subprogram ]
!528 = metadata !{i32 786453, i32 0, metadata !"", i32 0, i32 0, i64 0, i64 0, i64 0, i32 0, null, metadata !529, i32 0, i32 0} ; [ DW_TAG_subroutine_type ]
!529 = metadata !{metadata !517, metadata !443, metadata !223}
!530 = metadata !{i32 786478, i32 0, metadata !427, metadata !"operator=", metadata !"operator=", metadata !"_ZN11ap_int_baseILi48ELb0ELb1EEaSEh", metadata !180, i32 1666, metadata !531, i1 false, i1 false, i32 0, i32 0, null, i32 256, i1 false, null, null, i32 0, metadata !192, i32 1666} ; [ DW_TAG_subprogram ]
!531 = metadata !{i32 786453, i32 0, metadata !"", i32 0, i32 0, i64 0, i64 0, i64 0, i32 0, null, metadata !532, i32 0, i32 0} ; [ DW_TAG_subroutine_type ]
!532 = metadata !{metadata !517, metadata !443, metadata !227}
!533 = metadata !{i32 786478, i32 0, metadata !427, metadata !"operator=", metadata !"operator=", metadata !"_ZN11ap_int_baseILi48ELb0ELb1EEaSEs", metadata !180, i32 1667, metadata !534, i1 false, i1 false, i32 0, i32 0, null, i32 256, i1 false, null, null, i32 0, metadata !192, i32 1667} ; [ DW_TAG_subprogram ]
!534 = metadata !{i32 786453, i32 0, metadata !"", i32 0, i32 0, i64 0, i64 0, i64 0, i32 0, null, metadata !535, i32 0, i32 0} ; [ DW_TAG_subroutine_type ]
!535 = metadata !{metadata !517, metadata !443, metadata !231}
!536 = metadata !{i32 786478, i32 0, metadata !427, metadata !"operator=", metadata !"operator=", metadata !"_ZN11ap_int_baseILi48ELb0ELb1EEaSEt", metadata !180, i32 1668, metadata !537, i1 false, i1 false, i32 0, i32 0, null, i32 256, i1 false, null, null, i32 0, metadata !192, i32 1668} ; [ DW_TAG_subprogram ]
!537 = metadata !{i32 786453, i32 0, metadata !"", i32 0, i32 0, i64 0, i64 0, i64 0, i32 0, null, metadata !538, i32 0, i32 0} ; [ DW_TAG_subroutine_type ]
!538 = metadata !{metadata !517, metadata !443, metadata !235}
!539 = metadata !{i32 786478, i32 0, metadata !427, metadata !"operator=", metadata !"operator=", metadata !"_ZN11ap_int_baseILi48ELb0ELb1EEaSEi", metadata !180, i32 1669, metadata !540, i1 false, i1 false, i32 0, i32 0, null, i32 256, i1 false, null, null, i32 0, metadata !192, i32 1669} ; [ DW_TAG_subprogram ]
!540 = metadata !{i32 786453, i32 0, metadata !"", i32 0, i32 0, i64 0, i64 0, i64 0, i32 0, null, metadata !541, i32 0, i32 0} ; [ DW_TAG_subroutine_type ]
!541 = metadata !{metadata !517, metadata !443, metadata !196}
!542 = metadata !{i32 786478, i32 0, metadata !427, metadata !"operator=", metadata !"operator=", metadata !"_ZN11ap_int_baseILi48ELb0ELb1EEaSEj", metadata !180, i32 1670, metadata !543, i1 false, i1 false, i32 0, i32 0, null, i32 256, i1 false, null, null, i32 0, metadata !192, i32 1670} ; [ DW_TAG_subprogram ]
!543 = metadata !{i32 786453, i32 0, metadata !"", i32 0, i32 0, i64 0, i64 0, i64 0, i32 0, null, metadata !544, i32 0, i32 0} ; [ DW_TAG_subroutine_type ]
!544 = metadata !{metadata !517, metadata !443, metadata !242}
!545 = metadata !{i32 786478, i32 0, metadata !427, metadata !"operator=", metadata !"operator=", metadata !"_ZN11ap_int_baseILi48ELb0ELb1EEaSEx", metadata !180, i32 1671, metadata !546, i1 false, i1 false, i32 0, i32 0, null, i32 256, i1 false, null, null, i32 0, metadata !192, i32 1671} ; [ DW_TAG_subprogram ]
!546 = metadata !{i32 786453, i32 0, metadata !"", i32 0, i32 0, i64 0, i64 0, i64 0, i32 0, null, metadata !547, i32 0, i32 0} ; [ DW_TAG_subroutine_type ]
!547 = metadata !{metadata !517, metadata !443, metadata !254}
!548 = metadata !{i32 786478, i32 0, metadata !427, metadata !"operator=", metadata !"operator=", metadata !"_ZN11ap_int_baseILi48ELb0ELb1EEaSEy", metadata !180, i32 1672, metadata !549, i1 false, i1 false, i32 0, i32 0, null, i32 256, i1 false, null, null, i32 0, metadata !192, i32 1672} ; [ DW_TAG_subprogram ]
!549 = metadata !{i32 786453, i32 0, metadata !"", i32 0, i32 0, i64 0, i64 0, i64 0, i32 0, null, metadata !550, i32 0, i32 0} ; [ DW_TAG_subroutine_type ]
!550 = metadata !{metadata !517, metadata !443, metadata !259}
!551 = metadata !{i32 786478, i32 0, metadata !427, metadata !"operator unsigned long long", metadata !"operator unsigned long long", metadata !"_ZNK11ap_int_baseILi48ELb0ELb1EEcvyEv", metadata !180, i32 1710, metadata !552, i1 false, i1 false, i32 0, i32 0, null, i32 256, i1 false, null, null, i32 0, metadata !192, i32 1710} ; [ DW_TAG_subprogram ]
!552 = metadata !{i32 786453, i32 0, metadata !"", i32 0, i32 0, i64 0, i64 0, i64 0, i32 0, null, metadata !553, i32 0, i32 0} ; [ DW_TAG_subroutine_type ]
!553 = metadata !{metadata !554, metadata !558}
!554 = metadata !{i32 786454, metadata !427, metadata !"RetType", metadata !180, i32 1458, i64 0, i64 0, i64 0, i32 0, metadata !555} ; [ DW_TAG_typedef ]
!555 = metadata !{i32 786454, metadata !556, metadata !"Type", metadata !180, i32 1419, i64 0, i64 0, i64 0, i32 0, metadata !259} ; [ DW_TAG_typedef ]
!556 = metadata !{i32 786434, null, metadata !"retval<6, false>", metadata !180, i32 1418, i64 8, i64 8, i32 0, i32 0, null, metadata !337, i32 0, null, metadata !557} ; [ DW_TAG_class_type ]
!557 = metadata !{metadata !339, metadata !439}
!558 = metadata !{i32 786447, i32 0, metadata !"", i32 0, i32 0, i64 64, i64 64, i64 0, i32 64, metadata !426} ; [ DW_TAG_pointer_type ]
!559 = metadata !{i32 786478, i32 0, metadata !427, metadata !"to_bool", metadata !"to_bool", metadata !"_ZNK11ap_int_baseILi48ELb0ELb1EE7to_boolEv", metadata !180, i32 1716, metadata !560, i1 false, i1 false, i32 0, i32 0, null, i32 256, i1 false, null, null, i32 0, metadata !192, i32 1716} ; [ DW_TAG_subprogram ]
!560 = metadata !{i32 786453, i32 0, metadata !"", i32 0, i32 0, i64 0, i64 0, i64 0, i32 0, null, metadata !561, i32 0, i32 0} ; [ DW_TAG_subroutine_type ]
!561 = metadata !{metadata !198, metadata !558}
!562 = metadata !{i32 786478, i32 0, metadata !427, metadata !"to_uchar", metadata !"to_uchar", metadata !"_ZNK11ap_int_baseILi48ELb0ELb1EE8to_ucharEv", metadata !180, i32 1717, metadata !563, i1 false, i1 false, i32 0, i32 0, null, i32 256, i1 false, null, null, i32 0, metadata !192, i32 1717} ; [ DW_TAG_subprogram ]
!563 = metadata !{i32 786453, i32 0, metadata !"", i32 0, i32 0, i64 0, i64 0, i64 0, i32 0, null, metadata !564, i32 0, i32 0} ; [ DW_TAG_subroutine_type ]
!564 = metadata !{metadata !227, metadata !558}
!565 = metadata !{i32 786478, i32 0, metadata !427, metadata !"to_char", metadata !"to_char", metadata !"_ZNK11ap_int_baseILi48ELb0ELb1EE7to_charEv", metadata !180, i32 1718, metadata !566, i1 false, i1 false, i32 0, i32 0, null, i32 256, i1 false, null, null, i32 0, metadata !192, i32 1718} ; [ DW_TAG_subprogram ]
!566 = metadata !{i32 786453, i32 0, metadata !"", i32 0, i32 0, i64 0, i64 0, i64 0, i32 0, null, metadata !567, i32 0, i32 0} ; [ DW_TAG_subroutine_type ]
!567 = metadata !{metadata !223, metadata !558}
!568 = metadata !{i32 786478, i32 0, metadata !427, metadata !"to_ushort", metadata !"to_ushort", metadata !"_ZNK11ap_int_baseILi48ELb0ELb1EE9to_ushortEv", metadata !180, i32 1719, metadata !569, i1 false, i1 false, i32 0, i32 0, null, i32 256, i1 false, null, null, i32 0, metadata !192, i32 1719} ; [ DW_TAG_subprogram ]
!569 = metadata !{i32 786453, i32 0, metadata !"", i32 0, i32 0, i64 0, i64 0, i64 0, i32 0, null, metadata !570, i32 0, i32 0} ; [ DW_TAG_subroutine_type ]
!570 = metadata !{metadata !235, metadata !558}
!571 = metadata !{i32 786478, i32 0, metadata !427, metadata !"to_short", metadata !"to_short", metadata !"_ZNK11ap_int_baseILi48ELb0ELb1EE8to_shortEv", metadata !180, i32 1720, metadata !572, i1 false, i1 false, i32 0, i32 0, null, i32 256, i1 false, null, null, i32 0, metadata !192, i32 1720} ; [ DW_TAG_subprogram ]
!572 = metadata !{i32 786453, i32 0, metadata !"", i32 0, i32 0, i64 0, i64 0, i64 0, i32 0, null, metadata !573, i32 0, i32 0} ; [ DW_TAG_subroutine_type ]
!573 = metadata !{metadata !231, metadata !558}
!574 = metadata !{i32 786478, i32 0, metadata !427, metadata !"to_int", metadata !"to_int", metadata !"_ZNK11ap_int_baseILi48ELb0ELb1EE6to_intEv", metadata !180, i32 1721, metadata !575, i1 false, i1 false, i32 0, i32 0, null, i32 256, i1 false, null, null, i32 0, metadata !192, i32 1721} ; [ DW_TAG_subprogram ]
!575 = metadata !{i32 786453, i32 0, metadata !"", i32 0, i32 0, i64 0, i64 0, i64 0, i32 0, null, metadata !576, i32 0, i32 0} ; [ DW_TAG_subroutine_type ]
!576 = metadata !{metadata !196, metadata !558}
!577 = metadata !{i32 786478, i32 0, metadata !427, metadata !"to_uint", metadata !"to_uint", metadata !"_ZNK11ap_int_baseILi48ELb0ELb1EE7to_uintEv", metadata !180, i32 1722, metadata !578, i1 false, i1 false, i32 0, i32 0, null, i32 256, i1 false, null, null, i32 0, metadata !192, i32 1722} ; [ DW_TAG_subprogram ]
!578 = metadata !{i32 786453, i32 0, metadata !"", i32 0, i32 0, i64 0, i64 0, i64 0, i32 0, null, metadata !579, i32 0, i32 0} ; [ DW_TAG_subroutine_type ]
!579 = metadata !{metadata !242, metadata !558}
!580 = metadata !{i32 786478, i32 0, metadata !427, metadata !"to_long", metadata !"to_long", metadata !"_ZNK11ap_int_baseILi48ELb0ELb1EE7to_longEv", metadata !180, i32 1723, metadata !581, i1 false, i1 false, i32 0, i32 0, null, i32 256, i1 false, null, null, i32 0, metadata !192, i32 1723} ; [ DW_TAG_subprogram ]
!581 = metadata !{i32 786453, i32 0, metadata !"", i32 0, i32 0, i64 0, i64 0, i64 0, i32 0, null, metadata !582, i32 0, i32 0} ; [ DW_TAG_subroutine_type ]
!582 = metadata !{metadata !246, metadata !558}
!583 = metadata !{i32 786478, i32 0, metadata !427, metadata !"to_ulong", metadata !"to_ulong", metadata !"_ZNK11ap_int_baseILi48ELb0ELb1EE8to_ulongEv", metadata !180, i32 1724, metadata !584, i1 false, i1 false, i32 0, i32 0, null, i32 256, i1 false, null, null, i32 0, metadata !192, i32 1724} ; [ DW_TAG_subprogram ]
!584 = metadata !{i32 786453, i32 0, metadata !"", i32 0, i32 0, i64 0, i64 0, i64 0, i32 0, null, metadata !585, i32 0, i32 0} ; [ DW_TAG_subroutine_type ]
!585 = metadata !{metadata !250, metadata !558}
!586 = metadata !{i32 786478, i32 0, metadata !427, metadata !"to_int64", metadata !"to_int64", metadata !"_ZNK11ap_int_baseILi48ELb0ELb1EE8to_int64Ev", metadata !180, i32 1725, metadata !587, i1 false, i1 false, i32 0, i32 0, null, i32 256, i1 false, null, null, i32 0, metadata !192, i32 1725} ; [ DW_TAG_subprogram ]
!587 = metadata !{i32 786453, i32 0, metadata !"", i32 0, i32 0, i64 0, i64 0, i64 0, i32 0, null, metadata !588, i32 0, i32 0} ; [ DW_TAG_subroutine_type ]
!588 = metadata !{metadata !254, metadata !558}
!589 = metadata !{i32 786478, i32 0, metadata !427, metadata !"to_uint64", metadata !"to_uint64", metadata !"_ZNK11ap_int_baseILi48ELb0ELb1EE9to_uint64Ev", metadata !180, i32 1726, metadata !590, i1 false, i1 false, i32 0, i32 0, null, i32 256, i1 false, null, null, i32 0, metadata !192, i32 1726} ; [ DW_TAG_subprogram ]
!590 = metadata !{i32 786453, i32 0, metadata !"", i32 0, i32 0, i64 0, i64 0, i64 0, i32 0, null, metadata !591, i32 0, i32 0} ; [ DW_TAG_subroutine_type ]
!591 = metadata !{metadata !259, metadata !558}
!592 = metadata !{i32 786478, i32 0, metadata !427, metadata !"to_double", metadata !"to_double", metadata !"_ZNK11ap_int_baseILi48ELb0ELb1EE9to_doubleEv", metadata !180, i32 1727, metadata !593, i1 false, i1 false, i32 0, i32 0, null, i32 256, i1 false, null, null, i32 0, metadata !192, i32 1727} ; [ DW_TAG_subprogram ]
!593 = metadata !{i32 786453, i32 0, metadata !"", i32 0, i32 0, i64 0, i64 0, i64 0, i32 0, null, metadata !594, i32 0, i32 0} ; [ DW_TAG_subroutine_type ]
!594 = metadata !{metadata !273, metadata !558}
!595 = metadata !{i32 786478, i32 0, metadata !427, metadata !"length", metadata !"length", metadata !"_ZNK11ap_int_baseILi48ELb0ELb1EE6lengthEv", metadata !180, i32 1741, metadata !575, i1 false, i1 false, i32 0, i32 0, null, i32 256, i1 false, null, null, i32 0, metadata !192, i32 1741} ; [ DW_TAG_subprogram ]
!596 = metadata !{i32 786478, i32 0, metadata !427, metadata !"length", metadata !"length", metadata !"_ZNVK11ap_int_baseILi48ELb0ELb1EE6lengthEv", metadata !180, i32 1742, metadata !597, i1 false, i1 false, i32 0, i32 0, null, i32 256, i1 false, null, null, i32 0, metadata !192, i32 1742} ; [ DW_TAG_subprogram ]
!597 = metadata !{i32 786453, i32 0, metadata !"", i32 0, i32 0, i64 0, i64 0, i64 0, i32 0, null, metadata !598, i32 0, i32 0} ; [ DW_TAG_subroutine_type ]
!598 = metadata !{metadata !196, metadata !599}
!599 = metadata !{i32 786447, i32 0, metadata !"", i32 0, i32 0, i64 64, i64 64, i64 0, i32 64, metadata !453} ; [ DW_TAG_pointer_type ]
!600 = metadata !{i32 786478, i32 0, metadata !427, metadata !"reverse", metadata !"reverse", metadata !"_ZN11ap_int_baseILi48ELb0ELb1EE7reverseEv", metadata !180, i32 1747, metadata !601, i1 false, i1 false, i32 0, i32 0, null, i32 256, i1 false, null, null, i32 0, metadata !192, i32 1747} ; [ DW_TAG_subprogram ]
!601 = metadata !{i32 786453, i32 0, metadata !"", i32 0, i32 0, i64 0, i64 0, i64 0, i32 0, null, metadata !602, i32 0, i32 0} ; [ DW_TAG_subroutine_type ]
!602 = metadata !{metadata !517, metadata !443}
!603 = metadata !{i32 786478, i32 0, metadata !427, metadata !"iszero", metadata !"iszero", metadata !"_ZNK11ap_int_baseILi48ELb0ELb1EE6iszeroEv", metadata !180, i32 1753, metadata !560, i1 false, i1 false, i32 0, i32 0, null, i32 256, i1 false, null, null, i32 0, metadata !192, i32 1753} ; [ DW_TAG_subprogram ]
!604 = metadata !{i32 786478, i32 0, metadata !427, metadata !"is_zero", metadata !"is_zero", metadata !"_ZNK11ap_int_baseILi48ELb0ELb1EE7is_zeroEv", metadata !180, i32 1758, metadata !560, i1 false, i1 false, i32 0, i32 0, null, i32 256, i1 false, null, null, i32 0, metadata !192, i32 1758} ; [ DW_TAG_subprogram ]
!605 = metadata !{i32 786478, i32 0, metadata !427, metadata !"sign", metadata !"sign", metadata !"_ZNK11ap_int_baseILi48ELb0ELb1EE4signEv", metadata !180, i32 1763, metadata !560, i1 false, i1 false, i32 0, i32 0, null, i32 256, i1 false, null, null, i32 0, metadata !192, i32 1763} ; [ DW_TAG_subprogram ]
!606 = metadata !{i32 786478, i32 0, metadata !427, metadata !"clear", metadata !"clear", metadata !"_ZN11ap_int_baseILi48ELb0ELb1EE5clearEi", metadata !180, i32 1771, metadata !471, i1 false, i1 false, i32 0, i32 0, null, i32 256, i1 false, null, null, i32 0, metadata !192, i32 1771} ; [ DW_TAG_subprogram ]
!607 = metadata !{i32 786478, i32 0, metadata !427, metadata !"invert", metadata !"invert", metadata !"_ZN11ap_int_baseILi48ELb0ELb1EE6invertEi", metadata !180, i32 1777, metadata !471, i1 false, i1 false, i32 0, i32 0, null, i32 256, i1 false, null, null, i32 0, metadata !192, i32 1777} ; [ DW_TAG_subprogram ]
!608 = metadata !{i32 786478, i32 0, metadata !427, metadata !"test", metadata !"test", metadata !"_ZNK11ap_int_baseILi48ELb0ELb1EE4testEi", metadata !180, i32 1785, metadata !609, i1 false, i1 false, i32 0, i32 0, null, i32 256, i1 false, null, null, i32 0, metadata !192, i32 1785} ; [ DW_TAG_subprogram ]
!609 = metadata !{i32 786453, i32 0, metadata !"", i32 0, i32 0, i64 0, i64 0, i64 0, i32 0, null, metadata !610, i32 0, i32 0} ; [ DW_TAG_subroutine_type ]
!610 = metadata !{metadata !198, metadata !558, metadata !196}
!611 = metadata !{i32 786478, i32 0, metadata !427, metadata !"set", metadata !"set", metadata !"_ZN11ap_int_baseILi48ELb0ELb1EE3setEi", metadata !180, i32 1791, metadata !471, i1 false, i1 false, i32 0, i32 0, null, i32 256, i1 false, null, null, i32 0, metadata !192, i32 1791} ; [ DW_TAG_subprogram ]
!612 = metadata !{i32 786478, i32 0, metadata !427, metadata !"set", metadata !"set", metadata !"_ZN11ap_int_baseILi48ELb0ELb1EE3setEib", metadata !180, i32 1797, metadata !613, i1 false, i1 false, i32 0, i32 0, null, i32 256, i1 false, null, null, i32 0, metadata !192, i32 1797} ; [ DW_TAG_subprogram ]
!613 = metadata !{i32 786453, i32 0, metadata !"", i32 0, i32 0, i64 0, i64 0, i64 0, i32 0, null, metadata !614, i32 0, i32 0} ; [ DW_TAG_subroutine_type ]
!614 = metadata !{null, metadata !443, metadata !196, metadata !198}
!615 = metadata !{i32 786478, i32 0, metadata !427, metadata !"lrotate", metadata !"lrotate", metadata !"_ZN11ap_int_baseILi48ELb0ELb1EE7lrotateEi", metadata !180, i32 1804, metadata !471, i1 false, i1 false, i32 0, i32 0, null, i32 256, i1 false, null, null, i32 0, metadata !192, i32 1804} ; [ DW_TAG_subprogram ]
!616 = metadata !{i32 786478, i32 0, metadata !427, metadata !"rrotate", metadata !"rrotate", metadata !"_ZN11ap_int_baseILi48ELb0ELb1EE7rrotateEi", metadata !180, i32 1813, metadata !471, i1 false, i1 false, i32 0, i32 0, null, i32 256, i1 false, null, null, i32 0, metadata !192, i32 1813} ; [ DW_TAG_subprogram ]
!617 = metadata !{i32 786478, i32 0, metadata !427, metadata !"set_bit", metadata !"set_bit", metadata !"_ZN11ap_int_baseILi48ELb0ELb1EE7set_bitEib", metadata !180, i32 1821, metadata !613, i1 false, i1 false, i32 0, i32 0, null, i32 256, i1 false, null, null, i32 0, metadata !192, i32 1821} ; [ DW_TAG_subprogram ]
!618 = metadata !{i32 786478, i32 0, metadata !427, metadata !"get_bit", metadata !"get_bit", metadata !"_ZNK11ap_int_baseILi48ELb0ELb1EE7get_bitEi", metadata !180, i32 1826, metadata !609, i1 false, i1 false, i32 0, i32 0, null, i32 256, i1 false, null, null, i32 0, metadata !192, i32 1826} ; [ DW_TAG_subprogram ]
!619 = metadata !{i32 786478, i32 0, metadata !427, metadata !"b_not", metadata !"b_not", metadata !"_ZN11ap_int_baseILi48ELb0ELb1EE5b_notEv", metadata !180, i32 1831, metadata !441, i1 false, i1 false, i32 0, i32 0, null, i32 256, i1 false, null, null, i32 0, metadata !192, i32 1831} ; [ DW_TAG_subprogram ]
!620 = metadata !{i32 786478, i32 0, metadata !427, metadata !"countLeadingZeros", metadata !"countLeadingZeros", metadata !"_ZN11ap_int_baseILi48ELb0ELb1EE17countLeadingZerosEv", metadata !180, i32 1838, metadata !621, i1 false, i1 false, i32 0, i32 0, null, i32 256, i1 false, null, null, i32 0, metadata !192, i32 1838} ; [ DW_TAG_subprogram ]
!621 = metadata !{i32 786453, i32 0, metadata !"", i32 0, i32 0, i64 0, i64 0, i64 0, i32 0, null, metadata !622, i32 0, i32 0} ; [ DW_TAG_subroutine_type ]
!622 = metadata !{metadata !196, metadata !443}
!623 = metadata !{i32 786478, i32 0, metadata !427, metadata !"operator++", metadata !"operator++", metadata !"_ZN11ap_int_baseILi48ELb0ELb1EEppEv", metadata !180, i32 1895, metadata !601, i1 false, i1 false, i32 0, i32 0, null, i32 256, i1 false, null, null, i32 0, metadata !192, i32 1895} ; [ DW_TAG_subprogram ]
!624 = metadata !{i32 786478, i32 0, metadata !427, metadata !"operator--", metadata !"operator--", metadata !"_ZN11ap_int_baseILi48ELb0ELb1EEmmEv", metadata !180, i32 1899, metadata !601, i1 false, i1 false, i32 0, i32 0, null, i32 256, i1 false, null, null, i32 0, metadata !192, i32 1899} ; [ DW_TAG_subprogram ]
!625 = metadata !{i32 786478, i32 0, metadata !427, metadata !"operator++", metadata !"operator++", metadata !"_ZN11ap_int_baseILi48ELb0ELb1EEppEi", metadata !180, i32 1907, metadata !626, i1 false, i1 false, i32 0, i32 0, null, i32 256, i1 false, null, null, i32 0, metadata !192, i32 1907} ; [ DW_TAG_subprogram ]
!626 = metadata !{i32 786453, i32 0, metadata !"", i32 0, i32 0, i64 0, i64 0, i64 0, i32 0, null, metadata !627, i32 0, i32 0} ; [ DW_TAG_subroutine_type ]
!627 = metadata !{metadata !426, metadata !443, metadata !196}
!628 = metadata !{i32 786478, i32 0, metadata !427, metadata !"operator--", metadata !"operator--", metadata !"_ZN11ap_int_baseILi48ELb0ELb1EEmmEi", metadata !180, i32 1912, metadata !626, i1 false, i1 false, i32 0, i32 0, null, i32 256, i1 false, null, null, i32 0, metadata !192, i32 1912} ; [ DW_TAG_subprogram ]
!629 = metadata !{i32 786478, i32 0, metadata !427, metadata !"operator+", metadata !"operator+", metadata !"_ZNK11ap_int_baseILi48ELb0ELb1EEpsEv", metadata !180, i32 1921, metadata !630, i1 false, i1 false, i32 0, i32 0, null, i32 256, i1 false, null, null, i32 0, metadata !192, i32 1921} ; [ DW_TAG_subprogram ]
!630 = metadata !{i32 786453, i32 0, metadata !"", i32 0, i32 0, i64 0, i64 0, i64 0, i32 0, null, metadata !631, i32 0, i32 0} ; [ DW_TAG_subroutine_type ]
!631 = metadata !{metadata !427, metadata !558}
!632 = metadata !{i32 786478, i32 0, metadata !427, metadata !"operator!", metadata !"operator!", metadata !"_ZNK11ap_int_baseILi48ELb0ELb1EEntEv", metadata !180, i32 1927, metadata !560, i1 false, i1 false, i32 0, i32 0, null, i32 256, i1 false, null, null, i32 0, metadata !192, i32 1927} ; [ DW_TAG_subprogram ]
!633 = metadata !{i32 786478, i32 0, metadata !427, metadata !"operator-", metadata !"operator-", metadata !"_ZNK11ap_int_baseILi48ELb0ELb1EEngEv", metadata !180, i32 1932, metadata !634, i1 false, i1 false, i32 0, i32 0, null, i32 256, i1 false, null, null, i32 0, metadata !192, i32 1932} ; [ DW_TAG_subprogram ]
!634 = metadata !{i32 786453, i32 0, metadata !"", i32 0, i32 0, i64 0, i64 0, i64 0, i32 0, null, metadata !635, i32 0, i32 0} ; [ DW_TAG_subroutine_type ]
!635 = metadata !{metadata !418, metadata !558}
!636 = metadata !{i32 786478, i32 0, metadata !427, metadata !"range", metadata !"range", metadata !"_ZN11ap_int_baseILi48ELb0ELb1EE5rangeEii", metadata !180, i32 2062, metadata !637, i1 false, i1 false, i32 0, i32 0, null, i32 256, i1 false, null, null, i32 0, metadata !192, i32 2062} ; [ DW_TAG_subprogram ]
!637 = metadata !{i32 786453, i32 0, metadata !"", i32 0, i32 0, i64 0, i64 0, i64 0, i32 0, null, metadata !638, i32 0, i32 0} ; [ DW_TAG_subroutine_type ]
!638 = metadata !{metadata !639, metadata !443, metadata !196, metadata !196}
!639 = metadata !{i32 786434, null, metadata !"ap_range_ref<48, false>", metadata !180, i32 925, i64 0, i64 0, i32 0, i32 4, null, null, i32 0, null, metadata !640} ; [ DW_TAG_class_type ]
!640 = metadata !{metadata !641, metadata !439}
!641 = metadata !{i32 786480, null, metadata !"_AP_W", metadata !196, i64 48, null, i32 0, i32 0} ; [ DW_TAG_template_value_parameter ]
!642 = metadata !{i32 786478, i32 0, metadata !427, metadata !"operator()", metadata !"operator()", metadata !"_ZN11ap_int_baseILi48ELb0ELb1EEclEii", metadata !180, i32 2068, metadata !637, i1 false, i1 false, i32 0, i32 0, null, i32 256, i1 false, null, null, i32 0, metadata !192, i32 2068} ; [ DW_TAG_subprogram ]
!643 = metadata !{i32 786478, i32 0, metadata !427, metadata !"range", metadata !"range", metadata !"_ZNK11ap_int_baseILi48ELb0ELb1EE5rangeEii", metadata !180, i32 2074, metadata !644, i1 false, i1 false, i32 0, i32 0, null, i32 256, i1 false, null, null, i32 0, metadata !192, i32 2074} ; [ DW_TAG_subprogram ]
!644 = metadata !{i32 786453, i32 0, metadata !"", i32 0, i32 0, i64 0, i64 0, i64 0, i32 0, null, metadata !645, i32 0, i32 0} ; [ DW_TAG_subroutine_type ]
!645 = metadata !{metadata !639, metadata !558, metadata !196, metadata !196}
!646 = metadata !{i32 786478, i32 0, metadata !427, metadata !"operator()", metadata !"operator()", metadata !"_ZNK11ap_int_baseILi48ELb0ELb1EEclEii", metadata !180, i32 2080, metadata !644, i1 false, i1 false, i32 0, i32 0, null, i32 256, i1 false, null, null, i32 0, metadata !192, i32 2080} ; [ DW_TAG_subprogram ]
!647 = metadata !{i32 786478, i32 0, metadata !427, metadata !"operator[]", metadata !"operator[]", metadata !"_ZN11ap_int_baseILi48ELb0ELb1EEixEi", metadata !180, i32 2099, metadata !648, i1 false, i1 false, i32 0, i32 0, null, i32 256, i1 false, null, null, i32 0, metadata !192, i32 2099} ; [ DW_TAG_subprogram ]
!648 = metadata !{i32 786453, i32 0, metadata !"", i32 0, i32 0, i64 0, i64 0, i64 0, i32 0, null, metadata !649, i32 0, i32 0} ; [ DW_TAG_subroutine_type ]
!649 = metadata !{metadata !650, metadata !443, metadata !196}
!650 = metadata !{i32 786434, null, metadata !"ap_bit_ref<48, false>", metadata !180, i32 1249, i64 0, i64 0, i32 0, i32 4, null, null, i32 0, null, metadata !640} ; [ DW_TAG_class_type ]
!651 = metadata !{i32 786478, i32 0, metadata !427, metadata !"operator[]", metadata !"operator[]", metadata !"_ZNK11ap_int_baseILi48ELb0ELb1EEixEi", metadata !180, i32 2113, metadata !609, i1 false, i1 false, i32 0, i32 0, null, i32 256, i1 false, null, null, i32 0, metadata !192, i32 2113} ; [ DW_TAG_subprogram ]
!652 = metadata !{i32 786478, i32 0, metadata !427, metadata !"bit", metadata !"bit", metadata !"_ZN11ap_int_baseILi48ELb0ELb1EE3bitEi", metadata !180, i32 2127, metadata !648, i1 false, i1 false, i32 0, i32 0, null, i32 256, i1 false, null, null, i32 0, metadata !192, i32 2127} ; [ DW_TAG_subprogram ]
!653 = metadata !{i32 786478, i32 0, metadata !427, metadata !"bit", metadata !"bit", metadata !"_ZNK11ap_int_baseILi48ELb0ELb1EE3bitEi", metadata !180, i32 2141, metadata !609, i1 false, i1 false, i32 0, i32 0, null, i32 256, i1 false, null, null, i32 0, metadata !192, i32 2141} ; [ DW_TAG_subprogram ]
!654 = metadata !{i32 786478, i32 0, metadata !427, metadata !"and_reduce", metadata !"and_reduce", metadata !"_ZN11ap_int_baseILi48ELb0ELb1EE10and_reduceEv", metadata !180, i32 2321, metadata !655, i1 false, i1 false, i32 0, i32 0, null, i32 256, i1 false, null, null, i32 0, metadata !192, i32 2321} ; [ DW_TAG_subprogram ]
!655 = metadata !{i32 786453, i32 0, metadata !"", i32 0, i32 0, i64 0, i64 0, i64 0, i32 0, null, metadata !656, i32 0, i32 0} ; [ DW_TAG_subroutine_type ]
!656 = metadata !{metadata !198, metadata !443}
!657 = metadata !{i32 786478, i32 0, metadata !427, metadata !"nand_reduce", metadata !"nand_reduce", metadata !"_ZN11ap_int_baseILi48ELb0ELb1EE11nand_reduceEv", metadata !180, i32 2324, metadata !655, i1 false, i1 false, i32 0, i32 0, null, i32 256, i1 false, null, null, i32 0, metadata !192, i32 2324} ; [ DW_TAG_subprogram ]
!658 = metadata !{i32 786478, i32 0, metadata !427, metadata !"or_reduce", metadata !"or_reduce", metadata !"_ZN11ap_int_baseILi48ELb0ELb1EE9or_reduceEv", metadata !180, i32 2327, metadata !655, i1 false, i1 false, i32 0, i32 0, null, i32 256, i1 false, null, null, i32 0, metadata !192, i32 2327} ; [ DW_TAG_subprogram ]
!659 = metadata !{i32 786478, i32 0, metadata !427, metadata !"nor_reduce", metadata !"nor_reduce", metadata !"_ZN11ap_int_baseILi48ELb0ELb1EE10nor_reduceEv", metadata !180, i32 2330, metadata !655, i1 false, i1 false, i32 0, i32 0, null, i32 256, i1 false, null, null, i32 0, metadata !192, i32 2330} ; [ DW_TAG_subprogram ]
!660 = metadata !{i32 786478, i32 0, metadata !427, metadata !"xor_reduce", metadata !"xor_reduce", metadata !"_ZN11ap_int_baseILi48ELb0ELb1EE10xor_reduceEv", metadata !180, i32 2333, metadata !655, i1 false, i1 false, i32 0, i32 0, null, i32 256, i1 false, null, null, i32 0, metadata !192, i32 2333} ; [ DW_TAG_subprogram ]
!661 = metadata !{i32 786478, i32 0, metadata !427, metadata !"xnor_reduce", metadata !"xnor_reduce", metadata !"_ZN11ap_int_baseILi48ELb0ELb1EE11xnor_reduceEv", metadata !180, i32 2336, metadata !655, i1 false, i1 false, i32 0, i32 0, null, i32 256, i1 false, null, null, i32 0, metadata !192, i32 2336} ; [ DW_TAG_subprogram ]
!662 = metadata !{i32 786478, i32 0, metadata !427, metadata !"and_reduce", metadata !"and_reduce", metadata !"_ZNK11ap_int_baseILi48ELb0ELb1EE10and_reduceEv", metadata !180, i32 2340, metadata !560, i1 false, i1 false, i32 0, i32 0, null, i32 256, i1 false, null, null, i32 0, metadata !192, i32 2340} ; [ DW_TAG_subprogram ]
!663 = metadata !{i32 786478, i32 0, metadata !427, metadata !"nand_reduce", metadata !"nand_reduce", metadata !"_ZNK11ap_int_baseILi48ELb0ELb1EE11nand_reduceEv", metadata !180, i32 2343, metadata !560, i1 false, i1 false, i32 0, i32 0, null, i32 256, i1 false, null, null, i32 0, metadata !192, i32 2343} ; [ DW_TAG_subprogram ]
!664 = metadata !{i32 786478, i32 0, metadata !427, metadata !"or_reduce", metadata !"or_reduce", metadata !"_ZNK11ap_int_baseILi48ELb0ELb1EE9or_reduceEv", metadata !180, i32 2346, metadata !560, i1 false, i1 false, i32 0, i32 0, null, i32 256, i1 false, null, null, i32 0, metadata !192, i32 2346} ; [ DW_TAG_subprogram ]
!665 = metadata !{i32 786478, i32 0, metadata !427, metadata !"nor_reduce", metadata !"nor_reduce", metadata !"_ZNK11ap_int_baseILi48ELb0ELb1EE10nor_reduceEv", metadata !180, i32 2349, metadata !560, i1 false, i1 false, i32 0, i32 0, null, i32 256, i1 false, null, null, i32 0, metadata !192, i32 2349} ; [ DW_TAG_subprogram ]
!666 = metadata !{i32 786478, i32 0, metadata !427, metadata !"xor_reduce", metadata !"xor_reduce", metadata !"_ZNK11ap_int_baseILi48ELb0ELb1EE10xor_reduceEv", metadata !180, i32 2352, metadata !560, i1 false, i1 false, i32 0, i32 0, null, i32 256, i1 false, null, null, i32 0, metadata !192, i32 2352} ; [ DW_TAG_subprogram ]
!667 = metadata !{i32 786478, i32 0, metadata !427, metadata !"xnor_reduce", metadata !"xnor_reduce", metadata !"_ZNK11ap_int_baseILi48ELb0ELb1EE11xnor_reduceEv", metadata !180, i32 2355, metadata !560, i1 false, i1 false, i32 0, i32 0, null, i32 256, i1 false, null, null, i32 0, metadata !192, i32 2355} ; [ DW_TAG_subprogram ]
!668 = metadata !{i32 786478, i32 0, metadata !427, metadata !"to_string", metadata !"to_string", metadata !"_ZNK11ap_int_baseILi48ELb0ELb1EE9to_stringEPci8BaseModeb", metadata !180, i32 2362, metadata !669, i1 false, i1 false, i32 0, i32 0, null, i32 256, i1 false, null, null, i32 0, metadata !192, i32 2362} ; [ DW_TAG_subprogram ]
!669 = metadata !{i32 786453, i32 0, metadata !"", i32 0, i32 0, i64 0, i64 0, i64 0, i32 0, null, metadata !670, i32 0, i32 0} ; [ DW_TAG_subroutine_type ]
!670 = metadata !{null, metadata !558, metadata !671, metadata !196, metadata !672, metadata !198}
!671 = metadata !{i32 786447, null, metadata !"", null, i32 0, i64 64, i64 64, i64 0, i32 0, metadata !279} ; [ DW_TAG_pointer_type ]
!672 = metadata !{i32 786436, null, metadata !"BaseMode", metadata !180, i32 603, i64 5, i64 8, i32 0, i32 0, null, metadata !673, i32 0, i32 0} ; [ DW_TAG_enumeration_type ]
!673 = metadata !{metadata !674, metadata !675, metadata !676, metadata !677}
!674 = metadata !{i32 786472, metadata !"SC_BIN", i64 2} ; [ DW_TAG_enumerator ]
!675 = metadata !{i32 786472, metadata !"SC_OCT", i64 8} ; [ DW_TAG_enumerator ]
!676 = metadata !{i32 786472, metadata !"SC_DEC", i64 10} ; [ DW_TAG_enumerator ]
!677 = metadata !{i32 786472, metadata !"SC_HEX", i64 16} ; [ DW_TAG_enumerator ]
!678 = metadata !{i32 786478, i32 0, metadata !427, metadata !"to_string", metadata !"to_string", metadata !"_ZNK11ap_int_baseILi48ELb0ELb1EE9to_stringE8BaseModeb", metadata !180, i32 2389, metadata !679, i1 false, i1 false, i32 0, i32 0, null, i32 256, i1 false, null, null, i32 0, metadata !192, i32 2389} ; [ DW_TAG_subprogram ]
!679 = metadata !{i32 786453, i32 0, metadata !"", i32 0, i32 0, i64 0, i64 0, i64 0, i32 0, null, metadata !680, i32 0, i32 0} ; [ DW_TAG_subroutine_type ]
!680 = metadata !{metadata !671, metadata !558, metadata !672, metadata !198}
!681 = metadata !{i32 786478, i32 0, metadata !427, metadata !"to_string", metadata !"to_string", metadata !"_ZNK11ap_int_baseILi48ELb0ELb1EE9to_stringEab", metadata !180, i32 2393, metadata !682, i1 false, i1 false, i32 0, i32 0, null, i32 256, i1 false, null, null, i32 0, metadata !192, i32 2393} ; [ DW_TAG_subprogram ]
!682 = metadata !{i32 786453, i32 0, metadata !"", i32 0, i32 0, i64 0, i64 0, i64 0, i32 0, null, metadata !683, i32 0, i32 0} ; [ DW_TAG_subroutine_type ]
!683 = metadata !{metadata !671, metadata !558, metadata !223, metadata !198}
!684 = metadata !{metadata !641, metadata !439, metadata !421}
!685 = metadata !{i32 786478, i32 0, metadata !179, metadata !"range", metadata !"range", metadata !"_ZN11ap_int_baseILi48ELb1ELb1EE5rangeEii", metadata !180, i32 2062, metadata !686, i1 false, i1 false, i32 0, i32 0, null, i32 256, i1 false, null, null, i32 0, metadata !192, i32 2062} ; [ DW_TAG_subprogram ]
!686 = metadata !{i32 786453, i32 0, metadata !"", i32 0, i32 0, i64 0, i64 0, i64 0, i32 0, null, metadata !687, i32 0, i32 0} ; [ DW_TAG_subroutine_type ]
!687 = metadata !{metadata !688, metadata !202, metadata !196, metadata !196}
!688 = metadata !{i32 786434, null, metadata !"ap_range_ref<48, true>", metadata !180, i32 925, i64 0, i64 0, i32 0, i32 4, null, null, i32 0, null, metadata !689} ; [ DW_TAG_class_type ]
!689 = metadata !{metadata !641, metadata !197}
!690 = metadata !{i32 786478, i32 0, metadata !179, metadata !"operator()", metadata !"operator()", metadata !"_ZN11ap_int_baseILi48ELb1ELb1EEclEii", metadata !180, i32 2068, metadata !686, i1 false, i1 false, i32 0, i32 0, null, i32 256, i1 false, null, null, i32 0, metadata !192, i32 2068} ; [ DW_TAG_subprogram ]
!691 = metadata !{i32 786478, i32 0, metadata !179, metadata !"range", metadata !"range", metadata !"_ZNK11ap_int_baseILi48ELb1ELb1EE5rangeEii", metadata !180, i32 2074, metadata !692, i1 false, i1 false, i32 0, i32 0, null, i32 256, i1 false, null, null, i32 0, metadata !192, i32 2074} ; [ DW_TAG_subprogram ]
!692 = metadata !{i32 786453, i32 0, metadata !"", i32 0, i32 0, i64 0, i64 0, i64 0, i32 0, null, metadata !693, i32 0, i32 0} ; [ DW_TAG_subroutine_type ]
!693 = metadata !{metadata !688, metadata !340, metadata !196, metadata !196}
!694 = metadata !{i32 786478, i32 0, metadata !179, metadata !"operator()", metadata !"operator()", metadata !"_ZNK11ap_int_baseILi48ELb1ELb1EEclEii", metadata !180, i32 2080, metadata !692, i1 false, i1 false, i32 0, i32 0, null, i32 256, i1 false, null, null, i32 0, metadata !192, i32 2080} ; [ DW_TAG_subprogram ]
!695 = metadata !{i32 786478, i32 0, metadata !179, metadata !"operator[]", metadata !"operator[]", metadata !"_ZN11ap_int_baseILi48ELb1ELb1EEixEi", metadata !180, i32 2099, metadata !696, i1 false, i1 false, i32 0, i32 0, null, i32 256, i1 false, null, null, i32 0, metadata !192, i32 2099} ; [ DW_TAG_subprogram ]
!696 = metadata !{i32 786453, i32 0, metadata !"", i32 0, i32 0, i64 0, i64 0, i64 0, i32 0, null, metadata !697, i32 0, i32 0} ; [ DW_TAG_subroutine_type ]
!697 = metadata !{metadata !698, metadata !202, metadata !196}
!698 = metadata !{i32 786434, null, metadata !"ap_bit_ref<48, true>", metadata !180, i32 1249, i64 0, i64 0, i32 0, i32 4, null, null, i32 0, null, metadata !689} ; [ DW_TAG_class_type ]
!699 = metadata !{i32 786478, i32 0, metadata !179, metadata !"operator[]", metadata !"operator[]", metadata !"_ZNK11ap_int_baseILi48ELb1ELb1EEixEi", metadata !180, i32 2113, metadata !391, i1 false, i1 false, i32 0, i32 0, null, i32 256, i1 false, null, null, i32 0, metadata !192, i32 2113} ; [ DW_TAG_subprogram ]
!700 = metadata !{i32 786478, i32 0, metadata !179, metadata !"bit", metadata !"bit", metadata !"_ZN11ap_int_baseILi48ELb1ELb1EE3bitEi", metadata !180, i32 2127, metadata !696, i1 false, i1 false, i32 0, i32 0, null, i32 256, i1 false, null, null, i32 0, metadata !192, i32 2127} ; [ DW_TAG_subprogram ]
!701 = metadata !{i32 786478, i32 0, metadata !179, metadata !"bit", metadata !"bit", metadata !"_ZNK11ap_int_baseILi48ELb1ELb1EE3bitEi", metadata !180, i32 2141, metadata !391, i1 false, i1 false, i32 0, i32 0, null, i32 256, i1 false, null, null, i32 0, metadata !192, i32 2141} ; [ DW_TAG_subprogram ]
!702 = metadata !{i32 786478, i32 0, metadata !179, metadata !"and_reduce", metadata !"and_reduce", metadata !"_ZN11ap_int_baseILi48ELb1ELb1EE10and_reduceEv", metadata !180, i32 2321, metadata !703, i1 false, i1 false, i32 0, i32 0, null, i32 256, i1 false, null, null, i32 0, metadata !192, i32 2321} ; [ DW_TAG_subprogram ]
!703 = metadata !{i32 786453, i32 0, metadata !"", i32 0, i32 0, i64 0, i64 0, i64 0, i32 0, null, metadata !704, i32 0, i32 0} ; [ DW_TAG_subroutine_type ]
!704 = metadata !{metadata !198, metadata !202}
!705 = metadata !{i32 786478, i32 0, metadata !179, metadata !"nand_reduce", metadata !"nand_reduce", metadata !"_ZN11ap_int_baseILi48ELb1ELb1EE11nand_reduceEv", metadata !180, i32 2324, metadata !703, i1 false, i1 false, i32 0, i32 0, null, i32 256, i1 false, null, null, i32 0, metadata !192, i32 2324} ; [ DW_TAG_subprogram ]
!706 = metadata !{i32 786478, i32 0, metadata !179, metadata !"or_reduce", metadata !"or_reduce", metadata !"_ZN11ap_int_baseILi48ELb1ELb1EE9or_reduceEv", metadata !180, i32 2327, metadata !703, i1 false, i1 false, i32 0, i32 0, null, i32 256, i1 false, null, null, i32 0, metadata !192, i32 2327} ; [ DW_TAG_subprogram ]
!707 = metadata !{i32 786478, i32 0, metadata !179, metadata !"nor_reduce", metadata !"nor_reduce", metadata !"_ZN11ap_int_baseILi48ELb1ELb1EE10nor_reduceEv", metadata !180, i32 2330, metadata !703, i1 false, i1 false, i32 0, i32 0, null, i32 256, i1 false, null, null, i32 0, metadata !192, i32 2330} ; [ DW_TAG_subprogram ]
!708 = metadata !{i32 786478, i32 0, metadata !179, metadata !"xor_reduce", metadata !"xor_reduce", metadata !"_ZN11ap_int_baseILi48ELb1ELb1EE10xor_reduceEv", metadata !180, i32 2333, metadata !703, i1 false, i1 false, i32 0, i32 0, null, i32 256, i1 false, null, null, i32 0, metadata !192, i32 2333} ; [ DW_TAG_subprogram ]
!709 = metadata !{i32 786478, i32 0, metadata !179, metadata !"xnor_reduce", metadata !"xnor_reduce", metadata !"_ZN11ap_int_baseILi48ELb1ELb1EE11xnor_reduceEv", metadata !180, i32 2336, metadata !703, i1 false, i1 false, i32 0, i32 0, null, i32 256, i1 false, null, null, i32 0, metadata !192, i32 2336} ; [ DW_TAG_subprogram ]
!710 = metadata !{i32 786478, i32 0, metadata !179, metadata !"and_reduce", metadata !"and_reduce", metadata !"_ZNK11ap_int_baseILi48ELb1ELb1EE10and_reduceEv", metadata !180, i32 2340, metadata !342, i1 false, i1 false, i32 0, i32 0, null, i32 256, i1 false, null, null, i32 0, metadata !192, i32 2340} ; [ DW_TAG_subprogram ]
!711 = metadata !{i32 786478, i32 0, metadata !179, metadata !"nand_reduce", metadata !"nand_reduce", metadata !"_ZNK11ap_int_baseILi48ELb1ELb1EE11nand_reduceEv", metadata !180, i32 2343, metadata !342, i1 false, i1 false, i32 0, i32 0, null, i32 256, i1 false, null, null, i32 0, metadata !192, i32 2343} ; [ DW_TAG_subprogram ]
!712 = metadata !{i32 786478, i32 0, metadata !179, metadata !"or_reduce", metadata !"or_reduce", metadata !"_ZNK11ap_int_baseILi48ELb1ELb1EE9or_reduceEv", metadata !180, i32 2346, metadata !342, i1 false, i1 false, i32 0, i32 0, null, i32 256, i1 false, null, null, i32 0, metadata !192, i32 2346} ; [ DW_TAG_subprogram ]
!713 = metadata !{i32 786478, i32 0, metadata !179, metadata !"nor_reduce", metadata !"nor_reduce", metadata !"_ZNK11ap_int_baseILi48ELb1ELb1EE10nor_reduceEv", metadata !180, i32 2349, metadata !342, i1 false, i1 false, i32 0, i32 0, null, i32 256, i1 false, null, null, i32 0, metadata !192, i32 2349} ; [ DW_TAG_subprogram ]
!714 = metadata !{i32 786478, i32 0, metadata !179, metadata !"xor_reduce", metadata !"xor_reduce", metadata !"_ZNK11ap_int_baseILi48ELb1ELb1EE10xor_reduceEv", metadata !180, i32 2352, metadata !342, i1 false, i1 false, i32 0, i32 0, null, i32 256, i1 false, null, null, i32 0, metadata !192, i32 2352} ; [ DW_TAG_subprogram ]
!715 = metadata !{i32 786478, i32 0, metadata !179, metadata !"xnor_reduce", metadata !"xnor_reduce", metadata !"_ZNK11ap_int_baseILi48ELb1ELb1EE11xnor_reduceEv", metadata !180, i32 2355, metadata !342, i1 false, i1 false, i32 0, i32 0, null, i32 256, i1 false, null, null, i32 0, metadata !192, i32 2355} ; [ DW_TAG_subprogram ]
!716 = metadata !{i32 786478, i32 0, metadata !179, metadata !"to_string", metadata !"to_string", metadata !"_ZNK11ap_int_baseILi48ELb1ELb1EE9to_stringEPci8BaseModeb", metadata !180, i32 2362, metadata !717, i1 false, i1 false, i32 0, i32 0, null, i32 256, i1 false, null, null, i32 0, metadata !192, i32 2362} ; [ DW_TAG_subprogram ]
!717 = metadata !{i32 786453, i32 0, metadata !"", i32 0, i32 0, i64 0, i64 0, i64 0, i32 0, null, metadata !718, i32 0, i32 0} ; [ DW_TAG_subroutine_type ]
!718 = metadata !{null, metadata !340, metadata !671, metadata !196, metadata !672, metadata !198}
!719 = metadata !{i32 786478, i32 0, metadata !179, metadata !"to_string", metadata !"to_string", metadata !"_ZNK11ap_int_baseILi48ELb1ELb1EE9to_stringE8BaseModeb", metadata !180, i32 2389, metadata !720, i1 false, i1 false, i32 0, i32 0, null, i32 256, i1 false, null, null, i32 0, metadata !192, i32 2389} ; [ DW_TAG_subprogram ]
!720 = metadata !{i32 786453, i32 0, metadata !"", i32 0, i32 0, i64 0, i64 0, i64 0, i32 0, null, metadata !721, i32 0, i32 0} ; [ DW_TAG_subroutine_type ]
!721 = metadata !{metadata !671, metadata !340, metadata !672, metadata !198}
!722 = metadata !{i32 786478, i32 0, metadata !179, metadata !"to_string", metadata !"to_string", metadata !"_ZNK11ap_int_baseILi48ELb1ELb1EE9to_stringEab", metadata !180, i32 2393, metadata !723, i1 false, i1 false, i32 0, i32 0, null, i32 256, i1 false, null, null, i32 0, metadata !192, i32 2393} ; [ DW_TAG_subprogram ]
!723 = metadata !{i32 786453, i32 0, metadata !"", i32 0, i32 0, i64 0, i64 0, i64 0, i32 0, null, metadata !724, i32 0, i32 0} ; [ DW_TAG_subroutine_type ]
!724 = metadata !{metadata !671, metadata !340, metadata !223, metadata !198}
!725 = metadata !{metadata !641, metadata !197, metadata !421}
!726 = metadata !{i32 786478, i32 0, metadata !176, metadata !"ap_int", metadata !"ap_int", metadata !"", metadata !172, i32 77, metadata !727, i1 false, i1 false, i32 0, i32 0, null, i32 256, i1 false, null, null, i32 0, metadata !192, i32 77} ; [ DW_TAG_subprogram ]
!727 = metadata !{i32 786453, i32 0, metadata !"", i32 0, i32 0, i64 0, i64 0, i64 0, i32 0, null, metadata !728, i32 0, i32 0} ; [ DW_TAG_subroutine_type ]
!728 = metadata !{null, metadata !175}
!729 = metadata !{i32 786478, i32 0, metadata !176, metadata !"ap_int<64, true>", metadata !"ap_int<64, true>", metadata !"", metadata !172, i32 91, metadata !730, i1 false, i1 false, i32 0, i32 0, null, i32 256, i1 false, null, metadata !1356, i32 0, metadata !192, i32 91} ; [ DW_TAG_subprogram ]
!730 = metadata !{i32 786453, i32 0, metadata !"", i32 0, i32 0, i64 0, i64 0, i64 0, i32 0, null, metadata !731, i32 0, i32 0} ; [ DW_TAG_subroutine_type ]
!731 = metadata !{null, metadata !175, metadata !732}
!732 = metadata !{i32 786448, null, null, null, i32 0, i64 0, i64 0, i64 0, i32 0, metadata !733} ; [ DW_TAG_reference_type ]
!733 = metadata !{i32 786470, null, metadata !"", null, i32 0, i64 0, i64 0, i64 0, i32 0, metadata !734} ; [ DW_TAG_const_type ]
!734 = metadata !{i32 786434, null, metadata !"ap_range_ref<64, true>", metadata !180, i32 925, i64 128, i64 64, i32 0, i32 0, null, metadata !735, i32 0, null, metadata !951} ; [ DW_TAG_class_type ]
!735 = metadata !{metadata !736, metadata !980, metadata !981, metadata !982, metadata !986, metadata !990, metadata !1312, metadata !1315, metadata !1319, metadata !1322, metadata !1329, metadata !1332, metadata !1333, metadata !1336, metadata !1339, metadata !1342, metadata !1345, metadata !1348, metadata !1351, metadata !1352, metadata !1353}
!736 = metadata !{i32 786445, metadata !734, metadata !"d_bv", metadata !180, i32 926, i64 64, i64 64, i64 0, i32 0, metadata !737} ; [ DW_TAG_member ]
!737 = metadata !{i32 786448, null, null, null, i32 0, i64 0, i64 0, i64 0, i32 0, metadata !738} ; [ DW_TAG_reference_type ]
!738 = metadata !{i32 786434, null, metadata !"ap_int_base<64, true, true>", metadata !180, i32 1453, i64 64, i64 64, i32 0, i32 0, null, metadata !739, i32 0, null, metadata !979} ; [ DW_TAG_class_type ]
!739 = metadata !{metadata !740, metadata !751, metadata !755, metadata !758, metadata !761, metadata !764, metadata !767, metadata !770, metadata !773, metadata !776, metadata !779, metadata !782, metadata !785, metadata !788, metadata !791, metadata !794, metadata !797, metadata !800, metadata !803, metadata !808, metadata !813, metadata !818, metadata !819, metadata !822, metadata !825, metadata !828, metadata !831, metadata !834, metadata !837, metadata !840, metadata !843, metadata !846, metadata !849, metadata !852, metadata !855, metadata !864, metadata !867, metadata !870, metadata !873, metadata !876, metadata !879, metadata !882, metadata !885, metadata !888, metadata !891, metadata !894, metadata !897, metadata !900, metadata !901, metadata !905, metadata !908, metadata !909, metadata !910, metadata !911, metadata !912, metadata !913, metadata !916, metadata !917, metadata !920, metadata !921, metadata !922, metadata !923, metadata !924, metadata !925, metadata !928, metadata !929, metadata !930, metadata !933, metadata !934, metadata !937, metadata !938, metadata !939, metadata !942, metadata !943, metadata !946, metadata !947, metadata !953, metadata !954, metadata !955, metadata !956, metadata !959, metadata !960, metadata !961, metadata !962, metadata !963, metadata !964, metadata !965, metadata !966, metadata !967, metadata !968, metadata !969, metadata !970, metadata !973, metadata !976}
!740 = metadata !{i32 786460, metadata !738, null, metadata !180, i32 0, i64 0, i64 0, i64 0, i32 0, metadata !741} ; [ DW_TAG_inheritance ]
!741 = metadata !{i32 786434, null, metadata !"ssdm_int<64 + 1024 * 0, true>", metadata !184, i32 68, i64 64, i64 64, i32 0, i32 0, null, metadata !742, i32 0, null, metadata !749} ; [ DW_TAG_class_type ]
!742 = metadata !{metadata !743, metadata !745}
!743 = metadata !{i32 786445, metadata !741, metadata !"V", metadata !184, i32 68, i64 64, i64 64, i64 0, i32 0, metadata !744} ; [ DW_TAG_member ]
!744 = metadata !{i32 786468, null, metadata !"int64", null, i32 0, i64 64, i64 64, i64 0, i32 0, i32 5} ; [ DW_TAG_base_type ]
!745 = metadata !{i32 786478, i32 0, metadata !741, metadata !"ssdm_int", metadata !"ssdm_int", metadata !"", metadata !184, i32 68, metadata !746, i1 false, i1 false, i32 0, i32 0, null, i32 256, i1 false, null, null, i32 0, metadata !192, i32 68} ; [ DW_TAG_subprogram ]
!746 = metadata !{i32 786453, i32 0, metadata !"", i32 0, i32 0, i64 0, i64 0, i64 0, i32 0, null, metadata !747, i32 0, i32 0} ; [ DW_TAG_subroutine_type ]
!747 = metadata !{null, metadata !748}
!748 = metadata !{i32 786447, i32 0, metadata !"", i32 0, i32 0, i64 64, i64 64, i64 0, i32 64, metadata !741} ; [ DW_TAG_pointer_type ]
!749 = metadata !{metadata !750, metadata !197}
!750 = metadata !{i32 786480, null, metadata !"_AP_N", metadata !196, i64 64, null, i32 0, i32 0} ; [ DW_TAG_template_value_parameter ]
!751 = metadata !{i32 786478, i32 0, metadata !738, metadata !"ap_int_base", metadata !"ap_int_base", metadata !"", metadata !180, i32 1494, metadata !752, i1 false, i1 false, i32 0, i32 0, null, i32 256, i1 false, null, null, i32 0, metadata !192, i32 1494} ; [ DW_TAG_subprogram ]
!752 = metadata !{i32 786453, i32 0, metadata !"", i32 0, i32 0, i64 0, i64 0, i64 0, i32 0, null, metadata !753, i32 0, i32 0} ; [ DW_TAG_subroutine_type ]
!753 = metadata !{null, metadata !754}
!754 = metadata !{i32 786447, i32 0, metadata !"", i32 0, i32 0, i64 64, i64 64, i64 0, i32 64, metadata !738} ; [ DW_TAG_pointer_type ]
!755 = metadata !{i32 786478, i32 0, metadata !738, metadata !"ap_int_base", metadata !"ap_int_base", metadata !"", metadata !180, i32 1516, metadata !756, i1 false, i1 false, i32 0, i32 0, null, i32 384, i1 false, null, null, i32 0, metadata !192, i32 1516} ; [ DW_TAG_subprogram ]
!756 = metadata !{i32 786453, i32 0, metadata !"", i32 0, i32 0, i64 0, i64 0, i64 0, i32 0, null, metadata !757, i32 0, i32 0} ; [ DW_TAG_subroutine_type ]
!757 = metadata !{null, metadata !754, metadata !198}
!758 = metadata !{i32 786478, i32 0, metadata !738, metadata !"ap_int_base", metadata !"ap_int_base", metadata !"", metadata !180, i32 1517, metadata !759, i1 false, i1 false, i32 0, i32 0, null, i32 384, i1 false, null, null, i32 0, metadata !192, i32 1517} ; [ DW_TAG_subprogram ]
!759 = metadata !{i32 786453, i32 0, metadata !"", i32 0, i32 0, i64 0, i64 0, i64 0, i32 0, null, metadata !760, i32 0, i32 0} ; [ DW_TAG_subroutine_type ]
!760 = metadata !{null, metadata !754, metadata !223}
!761 = metadata !{i32 786478, i32 0, metadata !738, metadata !"ap_int_base", metadata !"ap_int_base", metadata !"", metadata !180, i32 1518, metadata !762, i1 false, i1 false, i32 0, i32 0, null, i32 384, i1 false, null, null, i32 0, metadata !192, i32 1518} ; [ DW_TAG_subprogram ]
!762 = metadata !{i32 786453, i32 0, metadata !"", i32 0, i32 0, i64 0, i64 0, i64 0, i32 0, null, metadata !763, i32 0, i32 0} ; [ DW_TAG_subroutine_type ]
!763 = metadata !{null, metadata !754, metadata !227}
!764 = metadata !{i32 786478, i32 0, metadata !738, metadata !"ap_int_base", metadata !"ap_int_base", metadata !"", metadata !180, i32 1519, metadata !765, i1 false, i1 false, i32 0, i32 0, null, i32 384, i1 false, null, null, i32 0, metadata !192, i32 1519} ; [ DW_TAG_subprogram ]
!765 = metadata !{i32 786453, i32 0, metadata !"", i32 0, i32 0, i64 0, i64 0, i64 0, i32 0, null, metadata !766, i32 0, i32 0} ; [ DW_TAG_subroutine_type ]
!766 = metadata !{null, metadata !754, metadata !231}
!767 = metadata !{i32 786478, i32 0, metadata !738, metadata !"ap_int_base", metadata !"ap_int_base", metadata !"", metadata !180, i32 1520, metadata !768, i1 false, i1 false, i32 0, i32 0, null, i32 384, i1 false, null, null, i32 0, metadata !192, i32 1520} ; [ DW_TAG_subprogram ]
!768 = metadata !{i32 786453, i32 0, metadata !"", i32 0, i32 0, i64 0, i64 0, i64 0, i32 0, null, metadata !769, i32 0, i32 0} ; [ DW_TAG_subroutine_type ]
!769 = metadata !{null, metadata !754, metadata !235}
!770 = metadata !{i32 786478, i32 0, metadata !738, metadata !"ap_int_base", metadata !"ap_int_base", metadata !"", metadata !180, i32 1521, metadata !771, i1 false, i1 false, i32 0, i32 0, null, i32 384, i1 false, null, null, i32 0, metadata !192, i32 1521} ; [ DW_TAG_subprogram ]
!771 = metadata !{i32 786453, i32 0, metadata !"", i32 0, i32 0, i64 0, i64 0, i64 0, i32 0, null, metadata !772, i32 0, i32 0} ; [ DW_TAG_subroutine_type ]
!772 = metadata !{null, metadata !754, metadata !196}
!773 = metadata !{i32 786478, i32 0, metadata !738, metadata !"ap_int_base", metadata !"ap_int_base", metadata !"", metadata !180, i32 1522, metadata !774, i1 false, i1 false, i32 0, i32 0, null, i32 384, i1 false, null, null, i32 0, metadata !192, i32 1522} ; [ DW_TAG_subprogram ]
!774 = metadata !{i32 786453, i32 0, metadata !"", i32 0, i32 0, i64 0, i64 0, i64 0, i32 0, null, metadata !775, i32 0, i32 0} ; [ DW_TAG_subroutine_type ]
!775 = metadata !{null, metadata !754, metadata !242}
!776 = metadata !{i32 786478, i32 0, metadata !738, metadata !"ap_int_base", metadata !"ap_int_base", metadata !"", metadata !180, i32 1523, metadata !777, i1 false, i1 false, i32 0, i32 0, null, i32 384, i1 false, null, null, i32 0, metadata !192, i32 1523} ; [ DW_TAG_subprogram ]
!777 = metadata !{i32 786453, i32 0, metadata !"", i32 0, i32 0, i64 0, i64 0, i64 0, i32 0, null, metadata !778, i32 0, i32 0} ; [ DW_TAG_subroutine_type ]
!778 = metadata !{null, metadata !754, metadata !246}
!779 = metadata !{i32 786478, i32 0, metadata !738, metadata !"ap_int_base", metadata !"ap_int_base", metadata !"", metadata !180, i32 1524, metadata !780, i1 false, i1 false, i32 0, i32 0, null, i32 384, i1 false, null, null, i32 0, metadata !192, i32 1524} ; [ DW_TAG_subprogram ]
!780 = metadata !{i32 786453, i32 0, metadata !"", i32 0, i32 0, i64 0, i64 0, i64 0, i32 0, null, metadata !781, i32 0, i32 0} ; [ DW_TAG_subroutine_type ]
!781 = metadata !{null, metadata !754, metadata !250}
!782 = metadata !{i32 786478, i32 0, metadata !738, metadata !"ap_int_base", metadata !"ap_int_base", metadata !"", metadata !180, i32 1525, metadata !783, i1 false, i1 false, i32 0, i32 0, null, i32 384, i1 false, null, null, i32 0, metadata !192, i32 1525} ; [ DW_TAG_subprogram ]
!783 = metadata !{i32 786453, i32 0, metadata !"", i32 0, i32 0, i64 0, i64 0, i64 0, i32 0, null, metadata !784, i32 0, i32 0} ; [ DW_TAG_subroutine_type ]
!784 = metadata !{null, metadata !754, metadata !254}
!785 = metadata !{i32 786478, i32 0, metadata !738, metadata !"ap_int_base", metadata !"ap_int_base", metadata !"", metadata !180, i32 1526, metadata !786, i1 false, i1 false, i32 0, i32 0, null, i32 384, i1 false, null, null, i32 0, metadata !192, i32 1526} ; [ DW_TAG_subprogram ]
!786 = metadata !{i32 786453, i32 0, metadata !"", i32 0, i32 0, i64 0, i64 0, i64 0, i32 0, null, metadata !787, i32 0, i32 0} ; [ DW_TAG_subroutine_type ]
!787 = metadata !{null, metadata !754, metadata !259}
!788 = metadata !{i32 786478, i32 0, metadata !738, metadata !"ap_int_base", metadata !"ap_int_base", metadata !"", metadata !180, i32 1527, metadata !789, i1 false, i1 false, i32 0, i32 0, null, i32 384, i1 false, null, null, i32 0, metadata !192, i32 1527} ; [ DW_TAG_subprogram ]
!789 = metadata !{i32 786453, i32 0, metadata !"", i32 0, i32 0, i64 0, i64 0, i64 0, i32 0, null, metadata !790, i32 0, i32 0} ; [ DW_TAG_subroutine_type ]
!790 = metadata !{null, metadata !754, metadata !264}
!791 = metadata !{i32 786478, i32 0, metadata !738, metadata !"ap_int_base", metadata !"ap_int_base", metadata !"", metadata !180, i32 1528, metadata !792, i1 false, i1 false, i32 0, i32 0, null, i32 384, i1 false, null, null, i32 0, metadata !192, i32 1528} ; [ DW_TAG_subprogram ]
!792 = metadata !{i32 786453, i32 0, metadata !"", i32 0, i32 0, i64 0, i64 0, i64 0, i32 0, null, metadata !793, i32 0, i32 0} ; [ DW_TAG_subroutine_type ]
!793 = metadata !{null, metadata !754, metadata !269}
!794 = metadata !{i32 786478, i32 0, metadata !738, metadata !"ap_int_base", metadata !"ap_int_base", metadata !"", metadata !180, i32 1529, metadata !795, i1 false, i1 false, i32 0, i32 0, null, i32 384, i1 false, null, null, i32 0, metadata !192, i32 1529} ; [ DW_TAG_subprogram ]
!795 = metadata !{i32 786453, i32 0, metadata !"", i32 0, i32 0, i64 0, i64 0, i64 0, i32 0, null, metadata !796, i32 0, i32 0} ; [ DW_TAG_subroutine_type ]
!796 = metadata !{null, metadata !754, metadata !273}
!797 = metadata !{i32 786478, i32 0, metadata !738, metadata !"ap_int_base", metadata !"ap_int_base", metadata !"", metadata !180, i32 1556, metadata !798, i1 false, i1 false, i32 0, i32 0, null, i32 256, i1 false, null, null, i32 0, metadata !192, i32 1556} ; [ DW_TAG_subprogram ]
!798 = metadata !{i32 786453, i32 0, metadata !"", i32 0, i32 0, i64 0, i64 0, i64 0, i32 0, null, metadata !799, i32 0, i32 0} ; [ DW_TAG_subroutine_type ]
!799 = metadata !{null, metadata !754, metadata !277}
!800 = metadata !{i32 786478, i32 0, metadata !738, metadata !"ap_int_base", metadata !"ap_int_base", metadata !"", metadata !180, i32 1563, metadata !801, i1 false, i1 false, i32 0, i32 0, null, i32 256, i1 false, null, null, i32 0, metadata !192, i32 1563} ; [ DW_TAG_subprogram ]
!801 = metadata !{i32 786453, i32 0, metadata !"", i32 0, i32 0, i64 0, i64 0, i64 0, i32 0, null, metadata !802, i32 0, i32 0} ; [ DW_TAG_subroutine_type ]
!802 = metadata !{null, metadata !754, metadata !277, metadata !223}
!803 = metadata !{i32 786478, i32 0, metadata !738, metadata !"read", metadata !"read", metadata !"_ZNV11ap_int_baseILi64ELb1ELb1EE4readEv", metadata !180, i32 1584, metadata !804, i1 false, i1 false, i32 0, i32 0, null, i32 256, i1 false, null, null, i32 0, metadata !192, i32 1584} ; [ DW_TAG_subprogram ]
!804 = metadata !{i32 786453, i32 0, metadata !"", i32 0, i32 0, i64 0, i64 0, i64 0, i32 0, null, metadata !805, i32 0, i32 0} ; [ DW_TAG_subroutine_type ]
!805 = metadata !{metadata !738, metadata !806}
!806 = metadata !{i32 786447, i32 0, metadata !"", i32 0, i32 0, i64 64, i64 64, i64 0, i32 64, metadata !807} ; [ DW_TAG_pointer_type ]
!807 = metadata !{i32 786485, null, metadata !"", null, i32 0, i64 0, i64 0, i64 0, i32 0, metadata !738} ; [ DW_TAG_volatile_type ]
!808 = metadata !{i32 786478, i32 0, metadata !738, metadata !"write", metadata !"write", metadata !"_ZNV11ap_int_baseILi64ELb1ELb1EE5writeERKS0_", metadata !180, i32 1590, metadata !809, i1 false, i1 false, i32 0, i32 0, null, i32 256, i1 false, null, null, i32 0, metadata !192, i32 1590} ; [ DW_TAG_subprogram ]
!809 = metadata !{i32 786453, i32 0, metadata !"", i32 0, i32 0, i64 0, i64 0, i64 0, i32 0, null, metadata !810, i32 0, i32 0} ; [ DW_TAG_subroutine_type ]
!810 = metadata !{null, metadata !806, metadata !811}
!811 = metadata !{i32 786448, null, null, null, i32 0, i64 0, i64 0, i64 0, i32 0, metadata !812} ; [ DW_TAG_reference_type ]
!812 = metadata !{i32 786470, null, metadata !"", null, i32 0, i64 0, i64 0, i64 0, i32 0, metadata !738} ; [ DW_TAG_const_type ]
!813 = metadata !{i32 786478, i32 0, metadata !738, metadata !"operator=", metadata !"operator=", metadata !"_ZNV11ap_int_baseILi64ELb1ELb1EEaSERVKS0_", metadata !180, i32 1602, metadata !814, i1 false, i1 false, i32 0, i32 0, null, i32 256, i1 false, null, null, i32 0, metadata !192, i32 1602} ; [ DW_TAG_subprogram ]
!814 = metadata !{i32 786453, i32 0, metadata !"", i32 0, i32 0, i64 0, i64 0, i64 0, i32 0, null, metadata !815, i32 0, i32 0} ; [ DW_TAG_subroutine_type ]
!815 = metadata !{null, metadata !806, metadata !816}
!816 = metadata !{i32 786448, null, null, null, i32 0, i64 0, i64 0, i64 0, i32 0, metadata !817} ; [ DW_TAG_reference_type ]
!817 = metadata !{i32 786470, null, metadata !"", null, i32 0, i64 0, i64 0, i64 0, i32 0, metadata !807} ; [ DW_TAG_const_type ]
!818 = metadata !{i32 786478, i32 0, metadata !738, metadata !"operator=", metadata !"operator=", metadata !"_ZNV11ap_int_baseILi64ELb1ELb1EEaSERKS0_", metadata !180, i32 1611, metadata !809, i1 false, i1 false, i32 0, i32 0, null, i32 256, i1 false, null, null, i32 0, metadata !192, i32 1611} ; [ DW_TAG_subprogram ]
!819 = metadata !{i32 786478, i32 0, metadata !738, metadata !"operator=", metadata !"operator=", metadata !"_ZN11ap_int_baseILi64ELb1ELb1EEaSERVKS0_", metadata !180, i32 1634, metadata !820, i1 false, i1 false, i32 0, i32 0, null, i32 256, i1 false, null, null, i32 0, metadata !192, i32 1634} ; [ DW_TAG_subprogram ]
!820 = metadata !{i32 786453, i32 0, metadata !"", i32 0, i32 0, i64 0, i64 0, i64 0, i32 0, null, metadata !821, i32 0, i32 0} ; [ DW_TAG_subroutine_type ]
!821 = metadata !{metadata !737, metadata !754, metadata !816}
!822 = metadata !{i32 786478, i32 0, metadata !738, metadata !"operator=", metadata !"operator=", metadata !"_ZN11ap_int_baseILi64ELb1ELb1EEaSERKS0_", metadata !180, i32 1639, metadata !823, i1 false, i1 false, i32 0, i32 0, null, i32 256, i1 false, null, null, i32 0, metadata !192, i32 1639} ; [ DW_TAG_subprogram ]
!823 = metadata !{i32 786453, i32 0, metadata !"", i32 0, i32 0, i64 0, i64 0, i64 0, i32 0, null, metadata !824, i32 0, i32 0} ; [ DW_TAG_subroutine_type ]
!824 = metadata !{metadata !737, metadata !754, metadata !811}
!825 = metadata !{i32 786478, i32 0, metadata !738, metadata !"operator=", metadata !"operator=", metadata !"_ZN11ap_int_baseILi64ELb1ELb1EEaSEPKc", metadata !180, i32 1643, metadata !826, i1 false, i1 false, i32 0, i32 0, null, i32 256, i1 false, null, null, i32 0, metadata !192, i32 1643} ; [ DW_TAG_subprogram ]
!826 = metadata !{i32 786453, i32 0, metadata !"", i32 0, i32 0, i64 0, i64 0, i64 0, i32 0, null, metadata !827, i32 0, i32 0} ; [ DW_TAG_subroutine_type ]
!827 = metadata !{metadata !737, metadata !754, metadata !277}
!828 = metadata !{i32 786478, i32 0, metadata !738, metadata !"set", metadata !"set", metadata !"_ZN11ap_int_baseILi64ELb1ELb1EE3setEPKca", metadata !180, i32 1651, metadata !829, i1 false, i1 false, i32 0, i32 0, null, i32 256, i1 false, null, null, i32 0, metadata !192, i32 1651} ; [ DW_TAG_subprogram ]
!829 = metadata !{i32 786453, i32 0, metadata !"", i32 0, i32 0, i64 0, i64 0, i64 0, i32 0, null, metadata !830, i32 0, i32 0} ; [ DW_TAG_subroutine_type ]
!830 = metadata !{metadata !737, metadata !754, metadata !277, metadata !223}
!831 = metadata !{i32 786478, i32 0, metadata !738, metadata !"operator=", metadata !"operator=", metadata !"_ZN11ap_int_baseILi64ELb1ELb1EEaSEa", metadata !180, i32 1665, metadata !832, i1 false, i1 false, i32 0, i32 0, null, i32 256, i1 false, null, null, i32 0, metadata !192, i32 1665} ; [ DW_TAG_subprogram ]
!832 = metadata !{i32 786453, i32 0, metadata !"", i32 0, i32 0, i64 0, i64 0, i64 0, i32 0, null, metadata !833, i32 0, i32 0} ; [ DW_TAG_subroutine_type ]
!833 = metadata !{metadata !737, metadata !754, metadata !223}
!834 = metadata !{i32 786478, i32 0, metadata !738, metadata !"operator=", metadata !"operator=", metadata !"_ZN11ap_int_baseILi64ELb1ELb1EEaSEh", metadata !180, i32 1666, metadata !835, i1 false, i1 false, i32 0, i32 0, null, i32 256, i1 false, null, null, i32 0, metadata !192, i32 1666} ; [ DW_TAG_subprogram ]
!835 = metadata !{i32 786453, i32 0, metadata !"", i32 0, i32 0, i64 0, i64 0, i64 0, i32 0, null, metadata !836, i32 0, i32 0} ; [ DW_TAG_subroutine_type ]
!836 = metadata !{metadata !737, metadata !754, metadata !227}
!837 = metadata !{i32 786478, i32 0, metadata !738, metadata !"operator=", metadata !"operator=", metadata !"_ZN11ap_int_baseILi64ELb1ELb1EEaSEs", metadata !180, i32 1667, metadata !838, i1 false, i1 false, i32 0, i32 0, null, i32 256, i1 false, null, null, i32 0, metadata !192, i32 1667} ; [ DW_TAG_subprogram ]
!838 = metadata !{i32 786453, i32 0, metadata !"", i32 0, i32 0, i64 0, i64 0, i64 0, i32 0, null, metadata !839, i32 0, i32 0} ; [ DW_TAG_subroutine_type ]
!839 = metadata !{metadata !737, metadata !754, metadata !231}
!840 = metadata !{i32 786478, i32 0, metadata !738, metadata !"operator=", metadata !"operator=", metadata !"_ZN11ap_int_baseILi64ELb1ELb1EEaSEt", metadata !180, i32 1668, metadata !841, i1 false, i1 false, i32 0, i32 0, null, i32 256, i1 false, null, null, i32 0, metadata !192, i32 1668} ; [ DW_TAG_subprogram ]
!841 = metadata !{i32 786453, i32 0, metadata !"", i32 0, i32 0, i64 0, i64 0, i64 0, i32 0, null, metadata !842, i32 0, i32 0} ; [ DW_TAG_subroutine_type ]
!842 = metadata !{metadata !737, metadata !754, metadata !235}
!843 = metadata !{i32 786478, i32 0, metadata !738, metadata !"operator=", metadata !"operator=", metadata !"_ZN11ap_int_baseILi64ELb1ELb1EEaSEi", metadata !180, i32 1669, metadata !844, i1 false, i1 false, i32 0, i32 0, null, i32 256, i1 false, null, null, i32 0, metadata !192, i32 1669} ; [ DW_TAG_subprogram ]
!844 = metadata !{i32 786453, i32 0, metadata !"", i32 0, i32 0, i64 0, i64 0, i64 0, i32 0, null, metadata !845, i32 0, i32 0} ; [ DW_TAG_subroutine_type ]
!845 = metadata !{metadata !737, metadata !754, metadata !196}
!846 = metadata !{i32 786478, i32 0, metadata !738, metadata !"operator=", metadata !"operator=", metadata !"_ZN11ap_int_baseILi64ELb1ELb1EEaSEj", metadata !180, i32 1670, metadata !847, i1 false, i1 false, i32 0, i32 0, null, i32 256, i1 false, null, null, i32 0, metadata !192, i32 1670} ; [ DW_TAG_subprogram ]
!847 = metadata !{i32 786453, i32 0, metadata !"", i32 0, i32 0, i64 0, i64 0, i64 0, i32 0, null, metadata !848, i32 0, i32 0} ; [ DW_TAG_subroutine_type ]
!848 = metadata !{metadata !737, metadata !754, metadata !242}
!849 = metadata !{i32 786478, i32 0, metadata !738, metadata !"operator=", metadata !"operator=", metadata !"_ZN11ap_int_baseILi64ELb1ELb1EEaSEx", metadata !180, i32 1671, metadata !850, i1 false, i1 false, i32 0, i32 0, null, i32 256, i1 false, null, null, i32 0, metadata !192, i32 1671} ; [ DW_TAG_subprogram ]
!850 = metadata !{i32 786453, i32 0, metadata !"", i32 0, i32 0, i64 0, i64 0, i64 0, i32 0, null, metadata !851, i32 0, i32 0} ; [ DW_TAG_subroutine_type ]
!851 = metadata !{metadata !737, metadata !754, metadata !254}
!852 = metadata !{i32 786478, i32 0, metadata !738, metadata !"operator=", metadata !"operator=", metadata !"_ZN11ap_int_baseILi64ELb1ELb1EEaSEy", metadata !180, i32 1672, metadata !853, i1 false, i1 false, i32 0, i32 0, null, i32 256, i1 false, null, null, i32 0, metadata !192, i32 1672} ; [ DW_TAG_subprogram ]
!853 = metadata !{i32 786453, i32 0, metadata !"", i32 0, i32 0, i64 0, i64 0, i64 0, i32 0, null, metadata !854, i32 0, i32 0} ; [ DW_TAG_subroutine_type ]
!854 = metadata !{metadata !737, metadata !754, metadata !259}
!855 = metadata !{i32 786478, i32 0, metadata !738, metadata !"operator long long", metadata !"operator long long", metadata !"_ZNK11ap_int_baseILi64ELb1ELb1EEcvxEv", metadata !180, i32 1710, metadata !856, i1 false, i1 false, i32 0, i32 0, null, i32 256, i1 false, null, null, i32 0, metadata !192, i32 1710} ; [ DW_TAG_subprogram ]
!856 = metadata !{i32 786453, i32 0, metadata !"", i32 0, i32 0, i64 0, i64 0, i64 0, i32 0, null, metadata !857, i32 0, i32 0} ; [ DW_TAG_subroutine_type ]
!857 = metadata !{metadata !858, metadata !863}
!858 = metadata !{i32 786454, metadata !738, metadata !"RetType", metadata !180, i32 1458, i64 0, i64 0, i64 0, i32 0, metadata !859} ; [ DW_TAG_typedef ]
!859 = metadata !{i32 786454, metadata !860, metadata !"Type", metadata !180, i32 1415, i64 0, i64 0, i64 0, i32 0, metadata !254} ; [ DW_TAG_typedef ]
!860 = metadata !{i32 786434, null, metadata !"retval<8, true>", metadata !180, i32 1414, i64 8, i64 8, i32 0, i32 0, null, metadata !337, i32 0, null, metadata !861} ; [ DW_TAG_class_type ]
!861 = metadata !{metadata !862, metadata !197}
!862 = metadata !{i32 786480, null, metadata !"_AP_N", metadata !196, i64 8, null, i32 0, i32 0} ; [ DW_TAG_template_value_parameter ]
!863 = metadata !{i32 786447, i32 0, metadata !"", i32 0, i32 0, i64 64, i64 64, i64 0, i32 64, metadata !812} ; [ DW_TAG_pointer_type ]
!864 = metadata !{i32 786478, i32 0, metadata !738, metadata !"to_bool", metadata !"to_bool", metadata !"_ZNK11ap_int_baseILi64ELb1ELb1EE7to_boolEv", metadata !180, i32 1716, metadata !865, i1 false, i1 false, i32 0, i32 0, null, i32 256, i1 false, null, null, i32 0, metadata !192, i32 1716} ; [ DW_TAG_subprogram ]
!865 = metadata !{i32 786453, i32 0, metadata !"", i32 0, i32 0, i64 0, i64 0, i64 0, i32 0, null, metadata !866, i32 0, i32 0} ; [ DW_TAG_subroutine_type ]
!866 = metadata !{metadata !198, metadata !863}
!867 = metadata !{i32 786478, i32 0, metadata !738, metadata !"to_uchar", metadata !"to_uchar", metadata !"_ZNK11ap_int_baseILi64ELb1ELb1EE8to_ucharEv", metadata !180, i32 1717, metadata !868, i1 false, i1 false, i32 0, i32 0, null, i32 256, i1 false, null, null, i32 0, metadata !192, i32 1717} ; [ DW_TAG_subprogram ]
!868 = metadata !{i32 786453, i32 0, metadata !"", i32 0, i32 0, i64 0, i64 0, i64 0, i32 0, null, metadata !869, i32 0, i32 0} ; [ DW_TAG_subroutine_type ]
!869 = metadata !{metadata !227, metadata !863}
!870 = metadata !{i32 786478, i32 0, metadata !738, metadata !"to_char", metadata !"to_char", metadata !"_ZNK11ap_int_baseILi64ELb1ELb1EE7to_charEv", metadata !180, i32 1718, metadata !871, i1 false, i1 false, i32 0, i32 0, null, i32 256, i1 false, null, null, i32 0, metadata !192, i32 1718} ; [ DW_TAG_subprogram ]
!871 = metadata !{i32 786453, i32 0, metadata !"", i32 0, i32 0, i64 0, i64 0, i64 0, i32 0, null, metadata !872, i32 0, i32 0} ; [ DW_TAG_subroutine_type ]
!872 = metadata !{metadata !223, metadata !863}
!873 = metadata !{i32 786478, i32 0, metadata !738, metadata !"to_ushort", metadata !"to_ushort", metadata !"_ZNK11ap_int_baseILi64ELb1ELb1EE9to_ushortEv", metadata !180, i32 1719, metadata !874, i1 false, i1 false, i32 0, i32 0, null, i32 256, i1 false, null, null, i32 0, metadata !192, i32 1719} ; [ DW_TAG_subprogram ]
!874 = metadata !{i32 786453, i32 0, metadata !"", i32 0, i32 0, i64 0, i64 0, i64 0, i32 0, null, metadata !875, i32 0, i32 0} ; [ DW_TAG_subroutine_type ]
!875 = metadata !{metadata !235, metadata !863}
!876 = metadata !{i32 786478, i32 0, metadata !738, metadata !"to_short", metadata !"to_short", metadata !"_ZNK11ap_int_baseILi64ELb1ELb1EE8to_shortEv", metadata !180, i32 1720, metadata !877, i1 false, i1 false, i32 0, i32 0, null, i32 256, i1 false, null, null, i32 0, metadata !192, i32 1720} ; [ DW_TAG_subprogram ]
!877 = metadata !{i32 786453, i32 0, metadata !"", i32 0, i32 0, i64 0, i64 0, i64 0, i32 0, null, metadata !878, i32 0, i32 0} ; [ DW_TAG_subroutine_type ]
!878 = metadata !{metadata !231, metadata !863}
!879 = metadata !{i32 786478, i32 0, metadata !738, metadata !"to_int", metadata !"to_int", metadata !"_ZNK11ap_int_baseILi64ELb1ELb1EE6to_intEv", metadata !180, i32 1721, metadata !880, i1 false, i1 false, i32 0, i32 0, null, i32 256, i1 false, null, null, i32 0, metadata !192, i32 1721} ; [ DW_TAG_subprogram ]
!880 = metadata !{i32 786453, i32 0, metadata !"", i32 0, i32 0, i64 0, i64 0, i64 0, i32 0, null, metadata !881, i32 0, i32 0} ; [ DW_TAG_subroutine_type ]
!881 = metadata !{metadata !196, metadata !863}
!882 = metadata !{i32 786478, i32 0, metadata !738, metadata !"to_uint", metadata !"to_uint", metadata !"_ZNK11ap_int_baseILi64ELb1ELb1EE7to_uintEv", metadata !180, i32 1722, metadata !883, i1 false, i1 false, i32 0, i32 0, null, i32 256, i1 false, null, null, i32 0, metadata !192, i32 1722} ; [ DW_TAG_subprogram ]
!883 = metadata !{i32 786453, i32 0, metadata !"", i32 0, i32 0, i64 0, i64 0, i64 0, i32 0, null, metadata !884, i32 0, i32 0} ; [ DW_TAG_subroutine_type ]
!884 = metadata !{metadata !242, metadata !863}
!885 = metadata !{i32 786478, i32 0, metadata !738, metadata !"to_long", metadata !"to_long", metadata !"_ZNK11ap_int_baseILi64ELb1ELb1EE7to_longEv", metadata !180, i32 1723, metadata !886, i1 false, i1 false, i32 0, i32 0, null, i32 256, i1 false, null, null, i32 0, metadata !192, i32 1723} ; [ DW_TAG_subprogram ]
!886 = metadata !{i32 786453, i32 0, metadata !"", i32 0, i32 0, i64 0, i64 0, i64 0, i32 0, null, metadata !887, i32 0, i32 0} ; [ DW_TAG_subroutine_type ]
!887 = metadata !{metadata !246, metadata !863}
!888 = metadata !{i32 786478, i32 0, metadata !738, metadata !"to_ulong", metadata !"to_ulong", metadata !"_ZNK11ap_int_baseILi64ELb1ELb1EE8to_ulongEv", metadata !180, i32 1724, metadata !889, i1 false, i1 false, i32 0, i32 0, null, i32 256, i1 false, null, null, i32 0, metadata !192, i32 1724} ; [ DW_TAG_subprogram ]
!889 = metadata !{i32 786453, i32 0, metadata !"", i32 0, i32 0, i64 0, i64 0, i64 0, i32 0, null, metadata !890, i32 0, i32 0} ; [ DW_TAG_subroutine_type ]
!890 = metadata !{metadata !250, metadata !863}
!891 = metadata !{i32 786478, i32 0, metadata !738, metadata !"to_int64", metadata !"to_int64", metadata !"_ZNK11ap_int_baseILi64ELb1ELb1EE8to_int64Ev", metadata !180, i32 1725, metadata !892, i1 false, i1 false, i32 0, i32 0, null, i32 256, i1 false, null, null, i32 0, metadata !192, i32 1725} ; [ DW_TAG_subprogram ]
!892 = metadata !{i32 786453, i32 0, metadata !"", i32 0, i32 0, i64 0, i64 0, i64 0, i32 0, null, metadata !893, i32 0, i32 0} ; [ DW_TAG_subroutine_type ]
!893 = metadata !{metadata !254, metadata !863}
!894 = metadata !{i32 786478, i32 0, metadata !738, metadata !"to_uint64", metadata !"to_uint64", metadata !"_ZNK11ap_int_baseILi64ELb1ELb1EE9to_uint64Ev", metadata !180, i32 1726, metadata !895, i1 false, i1 false, i32 0, i32 0, null, i32 256, i1 false, null, null, i32 0, metadata !192, i32 1726} ; [ DW_TAG_subprogram ]
!895 = metadata !{i32 786453, i32 0, metadata !"", i32 0, i32 0, i64 0, i64 0, i64 0, i32 0, null, metadata !896, i32 0, i32 0} ; [ DW_TAG_subroutine_type ]
!896 = metadata !{metadata !259, metadata !863}
!897 = metadata !{i32 786478, i32 0, metadata !738, metadata !"to_double", metadata !"to_double", metadata !"_ZNK11ap_int_baseILi64ELb1ELb1EE9to_doubleEv", metadata !180, i32 1727, metadata !898, i1 false, i1 false, i32 0, i32 0, null, i32 256, i1 false, null, null, i32 0, metadata !192, i32 1727} ; [ DW_TAG_subprogram ]
!898 = metadata !{i32 786453, i32 0, metadata !"", i32 0, i32 0, i64 0, i64 0, i64 0, i32 0, null, metadata !899, i32 0, i32 0} ; [ DW_TAG_subroutine_type ]
!899 = metadata !{metadata !273, metadata !863}
!900 = metadata !{i32 786478, i32 0, metadata !738, metadata !"length", metadata !"length", metadata !"_ZNK11ap_int_baseILi64ELb1ELb1EE6lengthEv", metadata !180, i32 1741, metadata !880, i1 false, i1 false, i32 0, i32 0, null, i32 256, i1 false, null, null, i32 0, metadata !192, i32 1741} ; [ DW_TAG_subprogram ]
!901 = metadata !{i32 786478, i32 0, metadata !738, metadata !"length", metadata !"length", metadata !"_ZNVK11ap_int_baseILi64ELb1ELb1EE6lengthEv", metadata !180, i32 1742, metadata !902, i1 false, i1 false, i32 0, i32 0, null, i32 256, i1 false, null, null, i32 0, metadata !192, i32 1742} ; [ DW_TAG_subprogram ]
!902 = metadata !{i32 786453, i32 0, metadata !"", i32 0, i32 0, i64 0, i64 0, i64 0, i32 0, null, metadata !903, i32 0, i32 0} ; [ DW_TAG_subroutine_type ]
!903 = metadata !{metadata !196, metadata !904}
!904 = metadata !{i32 786447, i32 0, metadata !"", i32 0, i32 0, i64 64, i64 64, i64 0, i32 64, metadata !817} ; [ DW_TAG_pointer_type ]
!905 = metadata !{i32 786478, i32 0, metadata !738, metadata !"reverse", metadata !"reverse", metadata !"_ZN11ap_int_baseILi64ELb1ELb1EE7reverseEv", metadata !180, i32 1747, metadata !906, i1 false, i1 false, i32 0, i32 0, null, i32 256, i1 false, null, null, i32 0, metadata !192, i32 1747} ; [ DW_TAG_subprogram ]
!906 = metadata !{i32 786453, i32 0, metadata !"", i32 0, i32 0, i64 0, i64 0, i64 0, i32 0, null, metadata !907, i32 0, i32 0} ; [ DW_TAG_subroutine_type ]
!907 = metadata !{metadata !737, metadata !754}
!908 = metadata !{i32 786478, i32 0, metadata !738, metadata !"iszero", metadata !"iszero", metadata !"_ZNK11ap_int_baseILi64ELb1ELb1EE6iszeroEv", metadata !180, i32 1753, metadata !865, i1 false, i1 false, i32 0, i32 0, null, i32 256, i1 false, null, null, i32 0, metadata !192, i32 1753} ; [ DW_TAG_subprogram ]
!909 = metadata !{i32 786478, i32 0, metadata !738, metadata !"is_zero", metadata !"is_zero", metadata !"_ZNK11ap_int_baseILi64ELb1ELb1EE7is_zeroEv", metadata !180, i32 1758, metadata !865, i1 false, i1 false, i32 0, i32 0, null, i32 256, i1 false, null, null, i32 0, metadata !192, i32 1758} ; [ DW_TAG_subprogram ]
!910 = metadata !{i32 786478, i32 0, metadata !738, metadata !"sign", metadata !"sign", metadata !"_ZNK11ap_int_baseILi64ELb1ELb1EE4signEv", metadata !180, i32 1763, metadata !865, i1 false, i1 false, i32 0, i32 0, null, i32 256, i1 false, null, null, i32 0, metadata !192, i32 1763} ; [ DW_TAG_subprogram ]
!911 = metadata !{i32 786478, i32 0, metadata !738, metadata !"clear", metadata !"clear", metadata !"_ZN11ap_int_baseILi64ELb1ELb1EE5clearEi", metadata !180, i32 1771, metadata !771, i1 false, i1 false, i32 0, i32 0, null, i32 256, i1 false, null, null, i32 0, metadata !192, i32 1771} ; [ DW_TAG_subprogram ]
!912 = metadata !{i32 786478, i32 0, metadata !738, metadata !"invert", metadata !"invert", metadata !"_ZN11ap_int_baseILi64ELb1ELb1EE6invertEi", metadata !180, i32 1777, metadata !771, i1 false, i1 false, i32 0, i32 0, null, i32 256, i1 false, null, null, i32 0, metadata !192, i32 1777} ; [ DW_TAG_subprogram ]
!913 = metadata !{i32 786478, i32 0, metadata !738, metadata !"test", metadata !"test", metadata !"_ZNK11ap_int_baseILi64ELb1ELb1EE4testEi", metadata !180, i32 1785, metadata !914, i1 false, i1 false, i32 0, i32 0, null, i32 256, i1 false, null, null, i32 0, metadata !192, i32 1785} ; [ DW_TAG_subprogram ]
!914 = metadata !{i32 786453, i32 0, metadata !"", i32 0, i32 0, i64 0, i64 0, i64 0, i32 0, null, metadata !915, i32 0, i32 0} ; [ DW_TAG_subroutine_type ]
!915 = metadata !{metadata !198, metadata !863, metadata !196}
!916 = metadata !{i32 786478, i32 0, metadata !738, metadata !"set", metadata !"set", metadata !"_ZN11ap_int_baseILi64ELb1ELb1EE3setEi", metadata !180, i32 1791, metadata !771, i1 false, i1 false, i32 0, i32 0, null, i32 256, i1 false, null, null, i32 0, metadata !192, i32 1791} ; [ DW_TAG_subprogram ]
!917 = metadata !{i32 786478, i32 0, metadata !738, metadata !"set", metadata !"set", metadata !"_ZN11ap_int_baseILi64ELb1ELb1EE3setEib", metadata !180, i32 1797, metadata !918, i1 false, i1 false, i32 0, i32 0, null, i32 256, i1 false, null, null, i32 0, metadata !192, i32 1797} ; [ DW_TAG_subprogram ]
!918 = metadata !{i32 786453, i32 0, metadata !"", i32 0, i32 0, i64 0, i64 0, i64 0, i32 0, null, metadata !919, i32 0, i32 0} ; [ DW_TAG_subroutine_type ]
!919 = metadata !{null, metadata !754, metadata !196, metadata !198}
!920 = metadata !{i32 786478, i32 0, metadata !738, metadata !"lrotate", metadata !"lrotate", metadata !"_ZN11ap_int_baseILi64ELb1ELb1EE7lrotateEi", metadata !180, i32 1804, metadata !771, i1 false, i1 false, i32 0, i32 0, null, i32 256, i1 false, null, null, i32 0, metadata !192, i32 1804} ; [ DW_TAG_subprogram ]
!921 = metadata !{i32 786478, i32 0, metadata !738, metadata !"rrotate", metadata !"rrotate", metadata !"_ZN11ap_int_baseILi64ELb1ELb1EE7rrotateEi", metadata !180, i32 1813, metadata !771, i1 false, i1 false, i32 0, i32 0, null, i32 256, i1 false, null, null, i32 0, metadata !192, i32 1813} ; [ DW_TAG_subprogram ]
!922 = metadata !{i32 786478, i32 0, metadata !738, metadata !"set_bit", metadata !"set_bit", metadata !"_ZN11ap_int_baseILi64ELb1ELb1EE7set_bitEib", metadata !180, i32 1821, metadata !918, i1 false, i1 false, i32 0, i32 0, null, i32 256, i1 false, null, null, i32 0, metadata !192, i32 1821} ; [ DW_TAG_subprogram ]
!923 = metadata !{i32 786478, i32 0, metadata !738, metadata !"get_bit", metadata !"get_bit", metadata !"_ZNK11ap_int_baseILi64ELb1ELb1EE7get_bitEi", metadata !180, i32 1826, metadata !914, i1 false, i1 false, i32 0, i32 0, null, i32 256, i1 false, null, null, i32 0, metadata !192, i32 1826} ; [ DW_TAG_subprogram ]
!924 = metadata !{i32 786478, i32 0, metadata !738, metadata !"b_not", metadata !"b_not", metadata !"_ZN11ap_int_baseILi64ELb1ELb1EE5b_notEv", metadata !180, i32 1831, metadata !752, i1 false, i1 false, i32 0, i32 0, null, i32 256, i1 false, null, null, i32 0, metadata !192, i32 1831} ; [ DW_TAG_subprogram ]
!925 = metadata !{i32 786478, i32 0, metadata !738, metadata !"countLeadingZeros", metadata !"countLeadingZeros", metadata !"_ZN11ap_int_baseILi64ELb1ELb1EE17countLeadingZerosEv", metadata !180, i32 1838, metadata !926, i1 false, i1 false, i32 0, i32 0, null, i32 256, i1 false, null, null, i32 0, metadata !192, i32 1838} ; [ DW_TAG_subprogram ]
!926 = metadata !{i32 786453, i32 0, metadata !"", i32 0, i32 0, i64 0, i64 0, i64 0, i32 0, null, metadata !927, i32 0, i32 0} ; [ DW_TAG_subroutine_type ]
!927 = metadata !{metadata !196, metadata !754}
!928 = metadata !{i32 786478, i32 0, metadata !738, metadata !"operator++", metadata !"operator++", metadata !"_ZN11ap_int_baseILi64ELb1ELb1EEppEv", metadata !180, i32 1895, metadata !906, i1 false, i1 false, i32 0, i32 0, null, i32 256, i1 false, null, null, i32 0, metadata !192, i32 1895} ; [ DW_TAG_subprogram ]
!929 = metadata !{i32 786478, i32 0, metadata !738, metadata !"operator--", metadata !"operator--", metadata !"_ZN11ap_int_baseILi64ELb1ELb1EEmmEv", metadata !180, i32 1899, metadata !906, i1 false, i1 false, i32 0, i32 0, null, i32 256, i1 false, null, null, i32 0, metadata !192, i32 1899} ; [ DW_TAG_subprogram ]
!930 = metadata !{i32 786478, i32 0, metadata !738, metadata !"operator++", metadata !"operator++", metadata !"_ZN11ap_int_baseILi64ELb1ELb1EEppEi", metadata !180, i32 1907, metadata !931, i1 false, i1 false, i32 0, i32 0, null, i32 256, i1 false, null, null, i32 0, metadata !192, i32 1907} ; [ DW_TAG_subprogram ]
!931 = metadata !{i32 786453, i32 0, metadata !"", i32 0, i32 0, i64 0, i64 0, i64 0, i32 0, null, metadata !932, i32 0, i32 0} ; [ DW_TAG_subroutine_type ]
!932 = metadata !{metadata !812, metadata !754, metadata !196}
!933 = metadata !{i32 786478, i32 0, metadata !738, metadata !"operator--", metadata !"operator--", metadata !"_ZN11ap_int_baseILi64ELb1ELb1EEmmEi", metadata !180, i32 1912, metadata !931, i1 false, i1 false, i32 0, i32 0, null, i32 256, i1 false, null, null, i32 0, metadata !192, i32 1912} ; [ DW_TAG_subprogram ]
!934 = metadata !{i32 786478, i32 0, metadata !738, metadata !"operator+", metadata !"operator+", metadata !"_ZNK11ap_int_baseILi64ELb1ELb1EEpsEv", metadata !180, i32 1921, metadata !935, i1 false, i1 false, i32 0, i32 0, null, i32 256, i1 false, null, null, i32 0, metadata !192, i32 1921} ; [ DW_TAG_subprogram ]
!935 = metadata !{i32 786453, i32 0, metadata !"", i32 0, i32 0, i64 0, i64 0, i64 0, i32 0, null, metadata !936, i32 0, i32 0} ; [ DW_TAG_subroutine_type ]
!936 = metadata !{metadata !738, metadata !863}
!937 = metadata !{i32 786478, i32 0, metadata !738, metadata !"operator!", metadata !"operator!", metadata !"_ZNK11ap_int_baseILi64ELb1ELb1EEntEv", metadata !180, i32 1927, metadata !865, i1 false, i1 false, i32 0, i32 0, null, i32 256, i1 false, null, null, i32 0, metadata !192, i32 1927} ; [ DW_TAG_subprogram ]
!938 = metadata !{i32 786478, i32 0, metadata !738, metadata !"operator-", metadata !"operator-", metadata !"_ZNK11ap_int_baseILi64ELb1ELb1EEngEv", metadata !180, i32 1932, metadata !935, i1 false, i1 false, i32 0, i32 0, null, i32 256, i1 false, null, null, i32 0, metadata !192, i32 1932} ; [ DW_TAG_subprogram ]
!939 = metadata !{i32 786478, i32 0, metadata !738, metadata !"range", metadata !"range", metadata !"_ZN11ap_int_baseILi64ELb1ELb1EE5rangeEii", metadata !180, i32 2062, metadata !940, i1 false, i1 false, i32 0, i32 0, null, i32 256, i1 false, null, null, i32 0, metadata !192, i32 2062} ; [ DW_TAG_subprogram ]
!940 = metadata !{i32 786453, i32 0, metadata !"", i32 0, i32 0, i64 0, i64 0, i64 0, i32 0, null, metadata !941, i32 0, i32 0} ; [ DW_TAG_subroutine_type ]
!941 = metadata !{metadata !734, metadata !754, metadata !196, metadata !196}
!942 = metadata !{i32 786478, i32 0, metadata !738, metadata !"operator()", metadata !"operator()", metadata !"_ZN11ap_int_baseILi64ELb1ELb1EEclEii", metadata !180, i32 2068, metadata !940, i1 false, i1 false, i32 0, i32 0, null, i32 256, i1 false, null, null, i32 0, metadata !192, i32 2068} ; [ DW_TAG_subprogram ]
!943 = metadata !{i32 786478, i32 0, metadata !738, metadata !"range", metadata !"range", metadata !"_ZNK11ap_int_baseILi64ELb1ELb1EE5rangeEii", metadata !180, i32 2074, metadata !944, i1 false, i1 false, i32 0, i32 0, null, i32 256, i1 false, null, null, i32 0, metadata !192, i32 2074} ; [ DW_TAG_subprogram ]
!944 = metadata !{i32 786453, i32 0, metadata !"", i32 0, i32 0, i64 0, i64 0, i64 0, i32 0, null, metadata !945, i32 0, i32 0} ; [ DW_TAG_subroutine_type ]
!945 = metadata !{metadata !734, metadata !863, metadata !196, metadata !196}
!946 = metadata !{i32 786478, i32 0, metadata !738, metadata !"operator()", metadata !"operator()", metadata !"_ZNK11ap_int_baseILi64ELb1ELb1EEclEii", metadata !180, i32 2080, metadata !944, i1 false, i1 false, i32 0, i32 0, null, i32 256, i1 false, null, null, i32 0, metadata !192, i32 2080} ; [ DW_TAG_subprogram ]
!947 = metadata !{i32 786478, i32 0, metadata !738, metadata !"operator[]", metadata !"operator[]", metadata !"_ZN11ap_int_baseILi64ELb1ELb1EEixEi", metadata !180, i32 2099, metadata !948, i1 false, i1 false, i32 0, i32 0, null, i32 256, i1 false, null, null, i32 0, metadata !192, i32 2099} ; [ DW_TAG_subprogram ]
!948 = metadata !{i32 786453, i32 0, metadata !"", i32 0, i32 0, i64 0, i64 0, i64 0, i32 0, null, metadata !949, i32 0, i32 0} ; [ DW_TAG_subroutine_type ]
!949 = metadata !{metadata !950, metadata !754, metadata !196}
!950 = metadata !{i32 786434, null, metadata !"ap_bit_ref<64, true>", metadata !180, i32 1249, i64 0, i64 0, i32 0, i32 4, null, null, i32 0, null, metadata !951} ; [ DW_TAG_class_type ]
!951 = metadata !{metadata !952, metadata !197}
!952 = metadata !{i32 786480, null, metadata !"_AP_W", metadata !196, i64 64, null, i32 0, i32 0} ; [ DW_TAG_template_value_parameter ]
!953 = metadata !{i32 786478, i32 0, metadata !738, metadata !"operator[]", metadata !"operator[]", metadata !"_ZNK11ap_int_baseILi64ELb1ELb1EEixEi", metadata !180, i32 2113, metadata !914, i1 false, i1 false, i32 0, i32 0, null, i32 256, i1 false, null, null, i32 0, metadata !192, i32 2113} ; [ DW_TAG_subprogram ]
!954 = metadata !{i32 786478, i32 0, metadata !738, metadata !"bit", metadata !"bit", metadata !"_ZN11ap_int_baseILi64ELb1ELb1EE3bitEi", metadata !180, i32 2127, metadata !948, i1 false, i1 false, i32 0, i32 0, null, i32 256, i1 false, null, null, i32 0, metadata !192, i32 2127} ; [ DW_TAG_subprogram ]
!955 = metadata !{i32 786478, i32 0, metadata !738, metadata !"bit", metadata !"bit", metadata !"_ZNK11ap_int_baseILi64ELb1ELb1EE3bitEi", metadata !180, i32 2141, metadata !914, i1 false, i1 false, i32 0, i32 0, null, i32 256, i1 false, null, null, i32 0, metadata !192, i32 2141} ; [ DW_TAG_subprogram ]
!956 = metadata !{i32 786478, i32 0, metadata !738, metadata !"and_reduce", metadata !"and_reduce", metadata !"_ZN11ap_int_baseILi64ELb1ELb1EE10and_reduceEv", metadata !180, i32 2321, metadata !957, i1 false, i1 false, i32 0, i32 0, null, i32 256, i1 false, null, null, i32 0, metadata !192, i32 2321} ; [ DW_TAG_subprogram ]
!957 = metadata !{i32 786453, i32 0, metadata !"", i32 0, i32 0, i64 0, i64 0, i64 0, i32 0, null, metadata !958, i32 0, i32 0} ; [ DW_TAG_subroutine_type ]
!958 = metadata !{metadata !198, metadata !754}
!959 = metadata !{i32 786478, i32 0, metadata !738, metadata !"nand_reduce", metadata !"nand_reduce", metadata !"_ZN11ap_int_baseILi64ELb1ELb1EE11nand_reduceEv", metadata !180, i32 2324, metadata !957, i1 false, i1 false, i32 0, i32 0, null, i32 256, i1 false, null, null, i32 0, metadata !192, i32 2324} ; [ DW_TAG_subprogram ]
!960 = metadata !{i32 786478, i32 0, metadata !738, metadata !"or_reduce", metadata !"or_reduce", metadata !"_ZN11ap_int_baseILi64ELb1ELb1EE9or_reduceEv", metadata !180, i32 2327, metadata !957, i1 false, i1 false, i32 0, i32 0, null, i32 256, i1 false, null, null, i32 0, metadata !192, i32 2327} ; [ DW_TAG_subprogram ]
!961 = metadata !{i32 786478, i32 0, metadata !738, metadata !"nor_reduce", metadata !"nor_reduce", metadata !"_ZN11ap_int_baseILi64ELb1ELb1EE10nor_reduceEv", metadata !180, i32 2330, metadata !957, i1 false, i1 false, i32 0, i32 0, null, i32 256, i1 false, null, null, i32 0, metadata !192, i32 2330} ; [ DW_TAG_subprogram ]
!962 = metadata !{i32 786478, i32 0, metadata !738, metadata !"xor_reduce", metadata !"xor_reduce", metadata !"_ZN11ap_int_baseILi64ELb1ELb1EE10xor_reduceEv", metadata !180, i32 2333, metadata !957, i1 false, i1 false, i32 0, i32 0, null, i32 256, i1 false, null, null, i32 0, metadata !192, i32 2333} ; [ DW_TAG_subprogram ]
!963 = metadata !{i32 786478, i32 0, metadata !738, metadata !"xnor_reduce", metadata !"xnor_reduce", metadata !"_ZN11ap_int_baseILi64ELb1ELb1EE11xnor_reduceEv", metadata !180, i32 2336, metadata !957, i1 false, i1 false, i32 0, i32 0, null, i32 256, i1 false, null, null, i32 0, metadata !192, i32 2336} ; [ DW_TAG_subprogram ]
!964 = metadata !{i32 786478, i32 0, metadata !738, metadata !"and_reduce", metadata !"and_reduce", metadata !"_ZNK11ap_int_baseILi64ELb1ELb1EE10and_reduceEv", metadata !180, i32 2340, metadata !865, i1 false, i1 false, i32 0, i32 0, null, i32 256, i1 false, null, null, i32 0, metadata !192, i32 2340} ; [ DW_TAG_subprogram ]
!965 = metadata !{i32 786478, i32 0, metadata !738, metadata !"nand_reduce", metadata !"nand_reduce", metadata !"_ZNK11ap_int_baseILi64ELb1ELb1EE11nand_reduceEv", metadata !180, i32 2343, metadata !865, i1 false, i1 false, i32 0, i32 0, null, i32 256, i1 false, null, null, i32 0, metadata !192, i32 2343} ; [ DW_TAG_subprogram ]
!966 = metadata !{i32 786478, i32 0, metadata !738, metadata !"or_reduce", metadata !"or_reduce", metadata !"_ZNK11ap_int_baseILi64ELb1ELb1EE9or_reduceEv", metadata !180, i32 2346, metadata !865, i1 false, i1 false, i32 0, i32 0, null, i32 256, i1 false, null, null, i32 0, metadata !192, i32 2346} ; [ DW_TAG_subprogram ]
!967 = metadata !{i32 786478, i32 0, metadata !738, metadata !"nor_reduce", metadata !"nor_reduce", metadata !"_ZNK11ap_int_baseILi64ELb1ELb1EE10nor_reduceEv", metadata !180, i32 2349, metadata !865, i1 false, i1 false, i32 0, i32 0, null, i32 256, i1 false, null, null, i32 0, metadata !192, i32 2349} ; [ DW_TAG_subprogram ]
!968 = metadata !{i32 786478, i32 0, metadata !738, metadata !"xor_reduce", metadata !"xor_reduce", metadata !"_ZNK11ap_int_baseILi64ELb1ELb1EE10xor_reduceEv", metadata !180, i32 2352, metadata !865, i1 false, i1 false, i32 0, i32 0, null, i32 256, i1 false, null, null, i32 0, metadata !192, i32 2352} ; [ DW_TAG_subprogram ]
!969 = metadata !{i32 786478, i32 0, metadata !738, metadata !"xnor_reduce", metadata !"xnor_reduce", metadata !"_ZNK11ap_int_baseILi64ELb1ELb1EE11xnor_reduceEv", metadata !180, i32 2355, metadata !865, i1 false, i1 false, i32 0, i32 0, null, i32 256, i1 false, null, null, i32 0, metadata !192, i32 2355} ; [ DW_TAG_subprogram ]
!970 = metadata !{i32 786478, i32 0, metadata !738, metadata !"to_string", metadata !"to_string", metadata !"_ZNK11ap_int_baseILi64ELb1ELb1EE9to_stringEPci8BaseModeb", metadata !180, i32 2362, metadata !971, i1 false, i1 false, i32 0, i32 0, null, i32 256, i1 false, null, null, i32 0, metadata !192, i32 2362} ; [ DW_TAG_subprogram ]
!971 = metadata !{i32 786453, i32 0, metadata !"", i32 0, i32 0, i64 0, i64 0, i64 0, i32 0, null, metadata !972, i32 0, i32 0} ; [ DW_TAG_subroutine_type ]
!972 = metadata !{null, metadata !863, metadata !671, metadata !196, metadata !672, metadata !198}
!973 = metadata !{i32 786478, i32 0, metadata !738, metadata !"to_string", metadata !"to_string", metadata !"_ZNK11ap_int_baseILi64ELb1ELb1EE9to_stringE8BaseModeb", metadata !180, i32 2389, metadata !974, i1 false, i1 false, i32 0, i32 0, null, i32 256, i1 false, null, null, i32 0, metadata !192, i32 2389} ; [ DW_TAG_subprogram ]
!974 = metadata !{i32 786453, i32 0, metadata !"", i32 0, i32 0, i64 0, i64 0, i64 0, i32 0, null, metadata !975, i32 0, i32 0} ; [ DW_TAG_subroutine_type ]
!975 = metadata !{metadata !671, metadata !863, metadata !672, metadata !198}
!976 = metadata !{i32 786478, i32 0, metadata !738, metadata !"to_string", metadata !"to_string", metadata !"_ZNK11ap_int_baseILi64ELb1ELb1EE9to_stringEab", metadata !180, i32 2393, metadata !977, i1 false, i1 false, i32 0, i32 0, null, i32 256, i1 false, null, null, i32 0, metadata !192, i32 2393} ; [ DW_TAG_subprogram ]
!977 = metadata !{i32 786453, i32 0, metadata !"", i32 0, i32 0, i64 0, i64 0, i64 0, i32 0, null, metadata !978, i32 0, i32 0} ; [ DW_TAG_subroutine_type ]
!978 = metadata !{metadata !671, metadata !863, metadata !223, metadata !198}
!979 = metadata !{metadata !952, metadata !197, metadata !421}
!980 = metadata !{i32 786445, metadata !734, metadata !"l_index", metadata !180, i32 927, i64 32, i64 32, i64 64, i32 0, metadata !196} ; [ DW_TAG_member ]
!981 = metadata !{i32 786445, metadata !734, metadata !"h_index", metadata !180, i32 928, i64 32, i64 32, i64 96, i32 0, metadata !196} ; [ DW_TAG_member ]
!982 = metadata !{i32 786478, i32 0, metadata !734, metadata !"ap_range_ref", metadata !"ap_range_ref", metadata !"", metadata !180, i32 931, metadata !983, i1 false, i1 false, i32 0, i32 0, null, i32 256, i1 false, null, null, i32 0, metadata !192, i32 931} ; [ DW_TAG_subprogram ]
!983 = metadata !{i32 786453, i32 0, metadata !"", i32 0, i32 0, i64 0, i64 0, i64 0, i32 0, null, metadata !984, i32 0, i32 0} ; [ DW_TAG_subroutine_type ]
!984 = metadata !{null, metadata !985, metadata !732}
!985 = metadata !{i32 786447, i32 0, metadata !"", i32 0, i32 0, i64 64, i64 64, i64 0, i32 64, metadata !734} ; [ DW_TAG_pointer_type ]
!986 = metadata !{i32 786478, i32 0, metadata !734, metadata !"ap_range_ref", metadata !"ap_range_ref", metadata !"", metadata !180, i32 934, metadata !987, i1 false, i1 false, i32 0, i32 0, null, i32 256, i1 false, null, null, i32 0, metadata !192, i32 934} ; [ DW_TAG_subprogram ]
!987 = metadata !{i32 786453, i32 0, metadata !"", i32 0, i32 0, i64 0, i64 0, i64 0, i32 0, null, metadata !988, i32 0, i32 0} ; [ DW_TAG_subroutine_type ]
!988 = metadata !{null, metadata !985, metadata !989, metadata !196, metadata !196}
!989 = metadata !{i32 786447, null, metadata !"", null, i32 0, i64 64, i64 64, i64 0, i32 0, metadata !738} ; [ DW_TAG_pointer_type ]
!990 = metadata !{i32 786478, i32 0, metadata !734, metadata !"operator ap_int_base", metadata !"operator ap_int_base", metadata !"_ZNK12ap_range_refILi64ELb1EEcv11ap_int_baseILi64ELb0ELb1EEEv", metadata !180, i32 939, metadata !991, i1 false, i1 false, i32 0, i32 0, null, i32 256, i1 false, null, null, i32 0, metadata !192, i32 939} ; [ DW_TAG_subprogram ]
!991 = metadata !{i32 786453, i32 0, metadata !"", i32 0, i32 0, i64 0, i64 0, i64 0, i32 0, null, metadata !992, i32 0, i32 0} ; [ DW_TAG_subroutine_type ]
!992 = metadata !{metadata !993, metadata !1311}
!993 = metadata !{i32 786434, null, metadata !"ap_int_base<64, false, true>", metadata !180, i32 1453, i64 64, i64 64, i32 0, i32 0, null, metadata !994, i32 0, null, metadata !1310} ; [ DW_TAG_class_type ]
!994 = metadata !{metadata !995, metadata !1010, metadata !1014, metadata !1021, metadata !1027, metadata !1030, metadata !1033, metadata !1036, metadata !1039, metadata !1042, metadata !1045, metadata !1048, metadata !1051, metadata !1054, metadata !1057, metadata !1060, metadata !1063, metadata !1066, metadata !1069, metadata !1072, metadata !1075, metadata !1079, metadata !1082, metadata !1085, metadata !1086, metadata !1090, metadata !1093, metadata !1096, metadata !1099, metadata !1102, metadata !1105, metadata !1108, metadata !1111, metadata !1114, metadata !1117, metadata !1120, metadata !1123, metadata !1131, metadata !1134, metadata !1137, metadata !1140, metadata !1143, metadata !1146, metadata !1149, metadata !1152, metadata !1155, metadata !1158, metadata !1161, metadata !1164, metadata !1167, metadata !1168, metadata !1172, metadata !1175, metadata !1176, metadata !1177, metadata !1178, metadata !1179, metadata !1180, metadata !1183, metadata !1184, metadata !1187, metadata !1188, metadata !1189, metadata !1190, metadata !1191, metadata !1192, metadata !1195, metadata !1196, metadata !1197, metadata !1200, metadata !1201, metadata !1204, metadata !1205, metadata !1208, metadata !1273, metadata !1274, metadata !1277, metadata !1278, metadata !1282, metadata !1283, metadata !1284, metadata !1285, metadata !1288, metadata !1289, metadata !1290, metadata !1291, metadata !1292, metadata !1293, metadata !1294, metadata !1295, metadata !1296, metadata !1297, metadata !1298, metadata !1299, metadata !1302, metadata !1305, metadata !1308, metadata !1309}
!995 = metadata !{i32 786460, metadata !993, null, metadata !180, i32 0, i64 0, i64 0, i64 0, i32 0, metadata !996} ; [ DW_TAG_inheritance ]
!996 = metadata !{i32 786434, null, metadata !"ssdm_int<64 + 1024 * 0, false>", metadata !184, i32 68, i64 64, i64 64, i32 0, i32 0, null, metadata !997, i32 0, null, metadata !1009} ; [ DW_TAG_class_type ]
!997 = metadata !{metadata !998, metadata !1000, metadata !1004}
!998 = metadata !{i32 786445, metadata !996, metadata !"V", metadata !184, i32 68, i64 64, i64 64, i64 0, i32 0, metadata !999} ; [ DW_TAG_member ]
!999 = metadata !{i32 786468, null, metadata !"uint64", null, i32 0, i64 64, i64 64, i64 0, i32 0, i32 7} ; [ DW_TAG_base_type ]
!1000 = metadata !{i32 786478, i32 0, metadata !996, metadata !"ssdm_int", metadata !"ssdm_int", metadata !"", metadata !184, i32 68, metadata !1001, i1 false, i1 false, i32 0, i32 0, null, i32 256, i1 false, null, null, i32 0, metadata !192, i32 68} ; [ DW_TAG_subprogram ]
!1001 = metadata !{i32 786453, i32 0, metadata !"", i32 0, i32 0, i64 0, i64 0, i64 0, i32 0, null, metadata !1002, i32 0, i32 0} ; [ DW_TAG_subroutine_type ]
!1002 = metadata !{null, metadata !1003}
!1003 = metadata !{i32 786447, i32 0, metadata !"", i32 0, i32 0, i64 64, i64 64, i64 0, i32 64, metadata !996} ; [ DW_TAG_pointer_type ]
!1004 = metadata !{i32 786478, i32 0, metadata !996, metadata !"ssdm_int", metadata !"ssdm_int", metadata !"", metadata !184, i32 68, metadata !1005, i1 false, i1 false, i32 0, i32 0, null, i32 320, i1 false, null, null, i32 0, metadata !192, i32 68} ; [ DW_TAG_subprogram ]
!1005 = metadata !{i32 786453, i32 0, metadata !"", i32 0, i32 0, i64 0, i64 0, i64 0, i32 0, null, metadata !1006, i32 0, i32 0} ; [ DW_TAG_subroutine_type ]
!1006 = metadata !{null, metadata !1003, metadata !1007}
!1007 = metadata !{i32 786448, null, null, null, i32 0, i64 0, i64 0, i64 0, i32 0, metadata !1008} ; [ DW_TAG_reference_type ]
!1008 = metadata !{i32 786470, null, metadata !"", null, i32 0, i64 0, i64 0, i64 0, i32 0, metadata !996} ; [ DW_TAG_const_type ]
!1009 = metadata !{metadata !750, metadata !439}
!1010 = metadata !{i32 786478, i32 0, metadata !993, metadata !"ap_int_base", metadata !"ap_int_base", metadata !"", metadata !180, i32 1494, metadata !1011, i1 false, i1 false, i32 0, i32 0, null, i32 256, i1 false, null, null, i32 0, metadata !192, i32 1494} ; [ DW_TAG_subprogram ]
!1011 = metadata !{i32 786453, i32 0, metadata !"", i32 0, i32 0, i64 0, i64 0, i64 0, i32 0, null, metadata !1012, i32 0, i32 0} ; [ DW_TAG_subroutine_type ]
!1012 = metadata !{null, metadata !1013}
!1013 = metadata !{i32 786447, i32 0, metadata !"", i32 0, i32 0, i64 64, i64 64, i64 0, i32 64, metadata !993} ; [ DW_TAG_pointer_type ]
!1014 = metadata !{i32 786478, i32 0, metadata !993, metadata !"ap_int_base<64, false>", metadata !"ap_int_base<64, false>", metadata !"", metadata !180, i32 1506, metadata !1015, i1 false, i1 false, i32 0, i32 0, null, i32 256, i1 false, null, metadata !1019, i32 0, metadata !192, i32 1506} ; [ DW_TAG_subprogram ]
!1015 = metadata !{i32 786453, i32 0, metadata !"", i32 0, i32 0, i64 0, i64 0, i64 0, i32 0, null, metadata !1016, i32 0, i32 0} ; [ DW_TAG_subroutine_type ]
!1016 = metadata !{null, metadata !1013, metadata !1017}
!1017 = metadata !{i32 786448, null, null, null, i32 0, i64 0, i64 0, i64 0, i32 0, metadata !1018} ; [ DW_TAG_reference_type ]
!1018 = metadata !{i32 786470, null, metadata !"", null, i32 0, i64 0, i64 0, i64 0, i32 0, metadata !993} ; [ DW_TAG_const_type ]
!1019 = metadata !{metadata !1020, metadata !448}
!1020 = metadata !{i32 786480, null, metadata !"_AP_W2", metadata !196, i64 64, null, i32 0, i32 0} ; [ DW_TAG_template_value_parameter ]
!1021 = metadata !{i32 786478, i32 0, metadata !993, metadata !"ap_int_base<64, false>", metadata !"ap_int_base<64, false>", metadata !"", metadata !180, i32 1509, metadata !1022, i1 false, i1 false, i32 0, i32 0, null, i32 256, i1 false, null, metadata !1019, i32 0, metadata !192, i32 1509} ; [ DW_TAG_subprogram ]
!1022 = metadata !{i32 786453, i32 0, metadata !"", i32 0, i32 0, i64 0, i64 0, i64 0, i32 0, null, metadata !1023, i32 0, i32 0} ; [ DW_TAG_subroutine_type ]
!1023 = metadata !{null, metadata !1013, metadata !1024}
!1024 = metadata !{i32 786448, null, null, null, i32 0, i64 0, i64 0, i64 0, i32 0, metadata !1025} ; [ DW_TAG_reference_type ]
!1025 = metadata !{i32 786470, null, metadata !"", null, i32 0, i64 0, i64 0, i64 0, i32 0, metadata !1026} ; [ DW_TAG_const_type ]
!1026 = metadata !{i32 786485, null, metadata !"", null, i32 0, i64 0, i64 0, i64 0, i32 0, metadata !993} ; [ DW_TAG_volatile_type ]
!1027 = metadata !{i32 786478, i32 0, metadata !993, metadata !"ap_int_base", metadata !"ap_int_base", metadata !"", metadata !180, i32 1516, metadata !1028, i1 false, i1 false, i32 0, i32 0, null, i32 384, i1 false, null, null, i32 0, metadata !192, i32 1516} ; [ DW_TAG_subprogram ]
!1028 = metadata !{i32 786453, i32 0, metadata !"", i32 0, i32 0, i64 0, i64 0, i64 0, i32 0, null, metadata !1029, i32 0, i32 0} ; [ DW_TAG_subroutine_type ]
!1029 = metadata !{null, metadata !1013, metadata !198}
!1030 = metadata !{i32 786478, i32 0, metadata !993, metadata !"ap_int_base", metadata !"ap_int_base", metadata !"", metadata !180, i32 1517, metadata !1031, i1 false, i1 false, i32 0, i32 0, null, i32 384, i1 false, null, null, i32 0, metadata !192, i32 1517} ; [ DW_TAG_subprogram ]
!1031 = metadata !{i32 786453, i32 0, metadata !"", i32 0, i32 0, i64 0, i64 0, i64 0, i32 0, null, metadata !1032, i32 0, i32 0} ; [ DW_TAG_subroutine_type ]
!1032 = metadata !{null, metadata !1013, metadata !223}
!1033 = metadata !{i32 786478, i32 0, metadata !993, metadata !"ap_int_base", metadata !"ap_int_base", metadata !"", metadata !180, i32 1518, metadata !1034, i1 false, i1 false, i32 0, i32 0, null, i32 384, i1 false, null, null, i32 0, metadata !192, i32 1518} ; [ DW_TAG_subprogram ]
!1034 = metadata !{i32 786453, i32 0, metadata !"", i32 0, i32 0, i64 0, i64 0, i64 0, i32 0, null, metadata !1035, i32 0, i32 0} ; [ DW_TAG_subroutine_type ]
!1035 = metadata !{null, metadata !1013, metadata !227}
!1036 = metadata !{i32 786478, i32 0, metadata !993, metadata !"ap_int_base", metadata !"ap_int_base", metadata !"", metadata !180, i32 1519, metadata !1037, i1 false, i1 false, i32 0, i32 0, null, i32 384, i1 false, null, null, i32 0, metadata !192, i32 1519} ; [ DW_TAG_subprogram ]
!1037 = metadata !{i32 786453, i32 0, metadata !"", i32 0, i32 0, i64 0, i64 0, i64 0, i32 0, null, metadata !1038, i32 0, i32 0} ; [ DW_TAG_subroutine_type ]
!1038 = metadata !{null, metadata !1013, metadata !231}
!1039 = metadata !{i32 786478, i32 0, metadata !993, metadata !"ap_int_base", metadata !"ap_int_base", metadata !"", metadata !180, i32 1520, metadata !1040, i1 false, i1 false, i32 0, i32 0, null, i32 384, i1 false, null, null, i32 0, metadata !192, i32 1520} ; [ DW_TAG_subprogram ]
!1040 = metadata !{i32 786453, i32 0, metadata !"", i32 0, i32 0, i64 0, i64 0, i64 0, i32 0, null, metadata !1041, i32 0, i32 0} ; [ DW_TAG_subroutine_type ]
!1041 = metadata !{null, metadata !1013, metadata !235}
!1042 = metadata !{i32 786478, i32 0, metadata !993, metadata !"ap_int_base", metadata !"ap_int_base", metadata !"", metadata !180, i32 1521, metadata !1043, i1 false, i1 false, i32 0, i32 0, null, i32 384, i1 false, null, null, i32 0, metadata !192, i32 1521} ; [ DW_TAG_subprogram ]
!1043 = metadata !{i32 786453, i32 0, metadata !"", i32 0, i32 0, i64 0, i64 0, i64 0, i32 0, null, metadata !1044, i32 0, i32 0} ; [ DW_TAG_subroutine_type ]
!1044 = metadata !{null, metadata !1013, metadata !196}
!1045 = metadata !{i32 786478, i32 0, metadata !993, metadata !"ap_int_base", metadata !"ap_int_base", metadata !"", metadata !180, i32 1522, metadata !1046, i1 false, i1 false, i32 0, i32 0, null, i32 384, i1 false, null, null, i32 0, metadata !192, i32 1522} ; [ DW_TAG_subprogram ]
!1046 = metadata !{i32 786453, i32 0, metadata !"", i32 0, i32 0, i64 0, i64 0, i64 0, i32 0, null, metadata !1047, i32 0, i32 0} ; [ DW_TAG_subroutine_type ]
!1047 = metadata !{null, metadata !1013, metadata !242}
!1048 = metadata !{i32 786478, i32 0, metadata !993, metadata !"ap_int_base", metadata !"ap_int_base", metadata !"", metadata !180, i32 1523, metadata !1049, i1 false, i1 false, i32 0, i32 0, null, i32 384, i1 false, null, null, i32 0, metadata !192, i32 1523} ; [ DW_TAG_subprogram ]
!1049 = metadata !{i32 786453, i32 0, metadata !"", i32 0, i32 0, i64 0, i64 0, i64 0, i32 0, null, metadata !1050, i32 0, i32 0} ; [ DW_TAG_subroutine_type ]
!1050 = metadata !{null, metadata !1013, metadata !246}
!1051 = metadata !{i32 786478, i32 0, metadata !993, metadata !"ap_int_base", metadata !"ap_int_base", metadata !"", metadata !180, i32 1524, metadata !1052, i1 false, i1 false, i32 0, i32 0, null, i32 384, i1 false, null, null, i32 0, metadata !192, i32 1524} ; [ DW_TAG_subprogram ]
!1052 = metadata !{i32 786453, i32 0, metadata !"", i32 0, i32 0, i64 0, i64 0, i64 0, i32 0, null, metadata !1053, i32 0, i32 0} ; [ DW_TAG_subroutine_type ]
!1053 = metadata !{null, metadata !1013, metadata !250}
!1054 = metadata !{i32 786478, i32 0, metadata !993, metadata !"ap_int_base", metadata !"ap_int_base", metadata !"", metadata !180, i32 1525, metadata !1055, i1 false, i1 false, i32 0, i32 0, null, i32 384, i1 false, null, null, i32 0, metadata !192, i32 1525} ; [ DW_TAG_subprogram ]
!1055 = metadata !{i32 786453, i32 0, metadata !"", i32 0, i32 0, i64 0, i64 0, i64 0, i32 0, null, metadata !1056, i32 0, i32 0} ; [ DW_TAG_subroutine_type ]
!1056 = metadata !{null, metadata !1013, metadata !254}
!1057 = metadata !{i32 786478, i32 0, metadata !993, metadata !"ap_int_base", metadata !"ap_int_base", metadata !"", metadata !180, i32 1526, metadata !1058, i1 false, i1 false, i32 0, i32 0, null, i32 384, i1 false, null, null, i32 0, metadata !192, i32 1526} ; [ DW_TAG_subprogram ]
!1058 = metadata !{i32 786453, i32 0, metadata !"", i32 0, i32 0, i64 0, i64 0, i64 0, i32 0, null, metadata !1059, i32 0, i32 0} ; [ DW_TAG_subroutine_type ]
!1059 = metadata !{null, metadata !1013, metadata !259}
!1060 = metadata !{i32 786478, i32 0, metadata !993, metadata !"ap_int_base", metadata !"ap_int_base", metadata !"", metadata !180, i32 1527, metadata !1061, i1 false, i1 false, i32 0, i32 0, null, i32 384, i1 false, null, null, i32 0, metadata !192, i32 1527} ; [ DW_TAG_subprogram ]
!1061 = metadata !{i32 786453, i32 0, metadata !"", i32 0, i32 0, i64 0, i64 0, i64 0, i32 0, null, metadata !1062, i32 0, i32 0} ; [ DW_TAG_subroutine_type ]
!1062 = metadata !{null, metadata !1013, metadata !264}
!1063 = metadata !{i32 786478, i32 0, metadata !993, metadata !"ap_int_base", metadata !"ap_int_base", metadata !"", metadata !180, i32 1528, metadata !1064, i1 false, i1 false, i32 0, i32 0, null, i32 384, i1 false, null, null, i32 0, metadata !192, i32 1528} ; [ DW_TAG_subprogram ]
!1064 = metadata !{i32 786453, i32 0, metadata !"", i32 0, i32 0, i64 0, i64 0, i64 0, i32 0, null, metadata !1065, i32 0, i32 0} ; [ DW_TAG_subroutine_type ]
!1065 = metadata !{null, metadata !1013, metadata !269}
!1066 = metadata !{i32 786478, i32 0, metadata !993, metadata !"ap_int_base", metadata !"ap_int_base", metadata !"", metadata !180, i32 1529, metadata !1067, i1 false, i1 false, i32 0, i32 0, null, i32 384, i1 false, null, null, i32 0, metadata !192, i32 1529} ; [ DW_TAG_subprogram ]
!1067 = metadata !{i32 786453, i32 0, metadata !"", i32 0, i32 0, i64 0, i64 0, i64 0, i32 0, null, metadata !1068, i32 0, i32 0} ; [ DW_TAG_subroutine_type ]
!1068 = metadata !{null, metadata !1013, metadata !273}
!1069 = metadata !{i32 786478, i32 0, metadata !993, metadata !"ap_int_base", metadata !"ap_int_base", metadata !"", metadata !180, i32 1556, metadata !1070, i1 false, i1 false, i32 0, i32 0, null, i32 256, i1 false, null, null, i32 0, metadata !192, i32 1556} ; [ DW_TAG_subprogram ]
!1070 = metadata !{i32 786453, i32 0, metadata !"", i32 0, i32 0, i64 0, i64 0, i64 0, i32 0, null, metadata !1071, i32 0, i32 0} ; [ DW_TAG_subroutine_type ]
!1071 = metadata !{null, metadata !1013, metadata !277}
!1072 = metadata !{i32 786478, i32 0, metadata !993, metadata !"ap_int_base", metadata !"ap_int_base", metadata !"", metadata !180, i32 1563, metadata !1073, i1 false, i1 false, i32 0, i32 0, null, i32 256, i1 false, null, null, i32 0, metadata !192, i32 1563} ; [ DW_TAG_subprogram ]
!1073 = metadata !{i32 786453, i32 0, metadata !"", i32 0, i32 0, i64 0, i64 0, i64 0, i32 0, null, metadata !1074, i32 0, i32 0} ; [ DW_TAG_subroutine_type ]
!1074 = metadata !{null, metadata !1013, metadata !277, metadata !223}
!1075 = metadata !{i32 786478, i32 0, metadata !993, metadata !"read", metadata !"read", metadata !"_ZNV11ap_int_baseILi64ELb0ELb1EE4readEv", metadata !180, i32 1584, metadata !1076, i1 false, i1 false, i32 0, i32 0, null, i32 256, i1 false, null, null, i32 0, metadata !192, i32 1584} ; [ DW_TAG_subprogram ]
!1076 = metadata !{i32 786453, i32 0, metadata !"", i32 0, i32 0, i64 0, i64 0, i64 0, i32 0, null, metadata !1077, i32 0, i32 0} ; [ DW_TAG_subroutine_type ]
!1077 = metadata !{metadata !993, metadata !1078}
!1078 = metadata !{i32 786447, i32 0, metadata !"", i32 0, i32 0, i64 64, i64 64, i64 0, i32 64, metadata !1026} ; [ DW_TAG_pointer_type ]
!1079 = metadata !{i32 786478, i32 0, metadata !993, metadata !"write", metadata !"write", metadata !"_ZNV11ap_int_baseILi64ELb0ELb1EE5writeERKS0_", metadata !180, i32 1590, metadata !1080, i1 false, i1 false, i32 0, i32 0, null, i32 256, i1 false, null, null, i32 0, metadata !192, i32 1590} ; [ DW_TAG_subprogram ]
!1080 = metadata !{i32 786453, i32 0, metadata !"", i32 0, i32 0, i64 0, i64 0, i64 0, i32 0, null, metadata !1081, i32 0, i32 0} ; [ DW_TAG_subroutine_type ]
!1081 = metadata !{null, metadata !1078, metadata !1017}
!1082 = metadata !{i32 786478, i32 0, metadata !993, metadata !"operator=", metadata !"operator=", metadata !"_ZNV11ap_int_baseILi64ELb0ELb1EEaSERVKS0_", metadata !180, i32 1602, metadata !1083, i1 false, i1 false, i32 0, i32 0, null, i32 256, i1 false, null, null, i32 0, metadata !192, i32 1602} ; [ DW_TAG_subprogram ]
!1083 = metadata !{i32 786453, i32 0, metadata !"", i32 0, i32 0, i64 0, i64 0, i64 0, i32 0, null, metadata !1084, i32 0, i32 0} ; [ DW_TAG_subroutine_type ]
!1084 = metadata !{null, metadata !1078, metadata !1024}
!1085 = metadata !{i32 786478, i32 0, metadata !993, metadata !"operator=", metadata !"operator=", metadata !"_ZNV11ap_int_baseILi64ELb0ELb1EEaSERKS0_", metadata !180, i32 1611, metadata !1080, i1 false, i1 false, i32 0, i32 0, null, i32 256, i1 false, null, null, i32 0, metadata !192, i32 1611} ; [ DW_TAG_subprogram ]
!1086 = metadata !{i32 786478, i32 0, metadata !993, metadata !"operator=", metadata !"operator=", metadata !"_ZN11ap_int_baseILi64ELb0ELb1EEaSERVKS0_", metadata !180, i32 1634, metadata !1087, i1 false, i1 false, i32 0, i32 0, null, i32 256, i1 false, null, null, i32 0, metadata !192, i32 1634} ; [ DW_TAG_subprogram ]
!1087 = metadata !{i32 786453, i32 0, metadata !"", i32 0, i32 0, i64 0, i64 0, i64 0, i32 0, null, metadata !1088, i32 0, i32 0} ; [ DW_TAG_subroutine_type ]
!1088 = metadata !{metadata !1089, metadata !1013, metadata !1024}
!1089 = metadata !{i32 786448, null, null, null, i32 0, i64 0, i64 0, i64 0, i32 0, metadata !993} ; [ DW_TAG_reference_type ]
!1090 = metadata !{i32 786478, i32 0, metadata !993, metadata !"operator=", metadata !"operator=", metadata !"_ZN11ap_int_baseILi64ELb0ELb1EEaSERKS0_", metadata !180, i32 1639, metadata !1091, i1 false, i1 false, i32 0, i32 0, null, i32 256, i1 false, null, null, i32 0, metadata !192, i32 1639} ; [ DW_TAG_subprogram ]
!1091 = metadata !{i32 786453, i32 0, metadata !"", i32 0, i32 0, i64 0, i64 0, i64 0, i32 0, null, metadata !1092, i32 0, i32 0} ; [ DW_TAG_subroutine_type ]
!1092 = metadata !{metadata !1089, metadata !1013, metadata !1017}
!1093 = metadata !{i32 786478, i32 0, metadata !993, metadata !"operator=", metadata !"operator=", metadata !"_ZN11ap_int_baseILi64ELb0ELb1EEaSEPKc", metadata !180, i32 1643, metadata !1094, i1 false, i1 false, i32 0, i32 0, null, i32 256, i1 false, null, null, i32 0, metadata !192, i32 1643} ; [ DW_TAG_subprogram ]
!1094 = metadata !{i32 786453, i32 0, metadata !"", i32 0, i32 0, i64 0, i64 0, i64 0, i32 0, null, metadata !1095, i32 0, i32 0} ; [ DW_TAG_subroutine_type ]
!1095 = metadata !{metadata !1089, metadata !1013, metadata !277}
!1096 = metadata !{i32 786478, i32 0, metadata !993, metadata !"set", metadata !"set", metadata !"_ZN11ap_int_baseILi64ELb0ELb1EE3setEPKca", metadata !180, i32 1651, metadata !1097, i1 false, i1 false, i32 0, i32 0, null, i32 256, i1 false, null, null, i32 0, metadata !192, i32 1651} ; [ DW_TAG_subprogram ]
!1097 = metadata !{i32 786453, i32 0, metadata !"", i32 0, i32 0, i64 0, i64 0, i64 0, i32 0, null, metadata !1098, i32 0, i32 0} ; [ DW_TAG_subroutine_type ]
!1098 = metadata !{metadata !1089, metadata !1013, metadata !277, metadata !223}
!1099 = metadata !{i32 786478, i32 0, metadata !993, metadata !"operator=", metadata !"operator=", metadata !"_ZN11ap_int_baseILi64ELb0ELb1EEaSEa", metadata !180, i32 1665, metadata !1100, i1 false, i1 false, i32 0, i32 0, null, i32 256, i1 false, null, null, i32 0, metadata !192, i32 1665} ; [ DW_TAG_subprogram ]
!1100 = metadata !{i32 786453, i32 0, metadata !"", i32 0, i32 0, i64 0, i64 0, i64 0, i32 0, null, metadata !1101, i32 0, i32 0} ; [ DW_TAG_subroutine_type ]
!1101 = metadata !{metadata !1089, metadata !1013, metadata !223}
!1102 = metadata !{i32 786478, i32 0, metadata !993, metadata !"operator=", metadata !"operator=", metadata !"_ZN11ap_int_baseILi64ELb0ELb1EEaSEh", metadata !180, i32 1666, metadata !1103, i1 false, i1 false, i32 0, i32 0, null, i32 256, i1 false, null, null, i32 0, metadata !192, i32 1666} ; [ DW_TAG_subprogram ]
!1103 = metadata !{i32 786453, i32 0, metadata !"", i32 0, i32 0, i64 0, i64 0, i64 0, i32 0, null, metadata !1104, i32 0, i32 0} ; [ DW_TAG_subroutine_type ]
!1104 = metadata !{metadata !1089, metadata !1013, metadata !227}
!1105 = metadata !{i32 786478, i32 0, metadata !993, metadata !"operator=", metadata !"operator=", metadata !"_ZN11ap_int_baseILi64ELb0ELb1EEaSEs", metadata !180, i32 1667, metadata !1106, i1 false, i1 false, i32 0, i32 0, null, i32 256, i1 false, null, null, i32 0, metadata !192, i32 1667} ; [ DW_TAG_subprogram ]
!1106 = metadata !{i32 786453, i32 0, metadata !"", i32 0, i32 0, i64 0, i64 0, i64 0, i32 0, null, metadata !1107, i32 0, i32 0} ; [ DW_TAG_subroutine_type ]
!1107 = metadata !{metadata !1089, metadata !1013, metadata !231}
!1108 = metadata !{i32 786478, i32 0, metadata !993, metadata !"operator=", metadata !"operator=", metadata !"_ZN11ap_int_baseILi64ELb0ELb1EEaSEt", metadata !180, i32 1668, metadata !1109, i1 false, i1 false, i32 0, i32 0, null, i32 256, i1 false, null, null, i32 0, metadata !192, i32 1668} ; [ DW_TAG_subprogram ]
!1109 = metadata !{i32 786453, i32 0, metadata !"", i32 0, i32 0, i64 0, i64 0, i64 0, i32 0, null, metadata !1110, i32 0, i32 0} ; [ DW_TAG_subroutine_type ]
!1110 = metadata !{metadata !1089, metadata !1013, metadata !235}
!1111 = metadata !{i32 786478, i32 0, metadata !993, metadata !"operator=", metadata !"operator=", metadata !"_ZN11ap_int_baseILi64ELb0ELb1EEaSEi", metadata !180, i32 1669, metadata !1112, i1 false, i1 false, i32 0, i32 0, null, i32 256, i1 false, null, null, i32 0, metadata !192, i32 1669} ; [ DW_TAG_subprogram ]
!1112 = metadata !{i32 786453, i32 0, metadata !"", i32 0, i32 0, i64 0, i64 0, i64 0, i32 0, null, metadata !1113, i32 0, i32 0} ; [ DW_TAG_subroutine_type ]
!1113 = metadata !{metadata !1089, metadata !1013, metadata !196}
!1114 = metadata !{i32 786478, i32 0, metadata !993, metadata !"operator=", metadata !"operator=", metadata !"_ZN11ap_int_baseILi64ELb0ELb1EEaSEj", metadata !180, i32 1670, metadata !1115, i1 false, i1 false, i32 0, i32 0, null, i32 256, i1 false, null, null, i32 0, metadata !192, i32 1670} ; [ DW_TAG_subprogram ]
!1115 = metadata !{i32 786453, i32 0, metadata !"", i32 0, i32 0, i64 0, i64 0, i64 0, i32 0, null, metadata !1116, i32 0, i32 0} ; [ DW_TAG_subroutine_type ]
!1116 = metadata !{metadata !1089, metadata !1013, metadata !242}
!1117 = metadata !{i32 786478, i32 0, metadata !993, metadata !"operator=", metadata !"operator=", metadata !"_ZN11ap_int_baseILi64ELb0ELb1EEaSEx", metadata !180, i32 1671, metadata !1118, i1 false, i1 false, i32 0, i32 0, null, i32 256, i1 false, null, null, i32 0, metadata !192, i32 1671} ; [ DW_TAG_subprogram ]
!1118 = metadata !{i32 786453, i32 0, metadata !"", i32 0, i32 0, i64 0, i64 0, i64 0, i32 0, null, metadata !1119, i32 0, i32 0} ; [ DW_TAG_subroutine_type ]
!1119 = metadata !{metadata !1089, metadata !1013, metadata !254}
!1120 = metadata !{i32 786478, i32 0, metadata !993, metadata !"operator=", metadata !"operator=", metadata !"_ZN11ap_int_baseILi64ELb0ELb1EEaSEy", metadata !180, i32 1672, metadata !1121, i1 false, i1 false, i32 0, i32 0, null, i32 256, i1 false, null, null, i32 0, metadata !192, i32 1672} ; [ DW_TAG_subprogram ]
!1121 = metadata !{i32 786453, i32 0, metadata !"", i32 0, i32 0, i64 0, i64 0, i64 0, i32 0, null, metadata !1122, i32 0, i32 0} ; [ DW_TAG_subroutine_type ]
!1122 = metadata !{metadata !1089, metadata !1013, metadata !259}
!1123 = metadata !{i32 786478, i32 0, metadata !993, metadata !"operator unsigned long long", metadata !"operator unsigned long long", metadata !"_ZNK11ap_int_baseILi64ELb0ELb1EEcvyEv", metadata !180, i32 1710, metadata !1124, i1 false, i1 false, i32 0, i32 0, null, i32 256, i1 false, null, null, i32 0, metadata !192, i32 1710} ; [ DW_TAG_subprogram ]
!1124 = metadata !{i32 786453, i32 0, metadata !"", i32 0, i32 0, i64 0, i64 0, i64 0, i32 0, null, metadata !1125, i32 0, i32 0} ; [ DW_TAG_subroutine_type ]
!1125 = metadata !{metadata !1126, metadata !1130}
!1126 = metadata !{i32 786454, metadata !993, metadata !"RetType", metadata !180, i32 1458, i64 0, i64 0, i64 0, i32 0, metadata !1127} ; [ DW_TAG_typedef ]
!1127 = metadata !{i32 786454, metadata !1128, metadata !"Type", metadata !180, i32 1419, i64 0, i64 0, i64 0, i32 0, metadata !259} ; [ DW_TAG_typedef ]
!1128 = metadata !{i32 786434, null, metadata !"retval<8, false>", metadata !180, i32 1418, i64 8, i64 8, i32 0, i32 0, null, metadata !337, i32 0, null, metadata !1129} ; [ DW_TAG_class_type ]
!1129 = metadata !{metadata !862, metadata !439}
!1130 = metadata !{i32 786447, i32 0, metadata !"", i32 0, i32 0, i64 64, i64 64, i64 0, i32 64, metadata !1018} ; [ DW_TAG_pointer_type ]
!1131 = metadata !{i32 786478, i32 0, metadata !993, metadata !"to_bool", metadata !"to_bool", metadata !"_ZNK11ap_int_baseILi64ELb0ELb1EE7to_boolEv", metadata !180, i32 1716, metadata !1132, i1 false, i1 false, i32 0, i32 0, null, i32 256, i1 false, null, null, i32 0, metadata !192, i32 1716} ; [ DW_TAG_subprogram ]
!1132 = metadata !{i32 786453, i32 0, metadata !"", i32 0, i32 0, i64 0, i64 0, i64 0, i32 0, null, metadata !1133, i32 0, i32 0} ; [ DW_TAG_subroutine_type ]
!1133 = metadata !{metadata !198, metadata !1130}
!1134 = metadata !{i32 786478, i32 0, metadata !993, metadata !"to_uchar", metadata !"to_uchar", metadata !"_ZNK11ap_int_baseILi64ELb0ELb1EE8to_ucharEv", metadata !180, i32 1717, metadata !1135, i1 false, i1 false, i32 0, i32 0, null, i32 256, i1 false, null, null, i32 0, metadata !192, i32 1717} ; [ DW_TAG_subprogram ]
!1135 = metadata !{i32 786453, i32 0, metadata !"", i32 0, i32 0, i64 0, i64 0, i64 0, i32 0, null, metadata !1136, i32 0, i32 0} ; [ DW_TAG_subroutine_type ]
!1136 = metadata !{metadata !227, metadata !1130}
!1137 = metadata !{i32 786478, i32 0, metadata !993, metadata !"to_char", metadata !"to_char", metadata !"_ZNK11ap_int_baseILi64ELb0ELb1EE7to_charEv", metadata !180, i32 1718, metadata !1138, i1 false, i1 false, i32 0, i32 0, null, i32 256, i1 false, null, null, i32 0, metadata !192, i32 1718} ; [ DW_TAG_subprogram ]
!1138 = metadata !{i32 786453, i32 0, metadata !"", i32 0, i32 0, i64 0, i64 0, i64 0, i32 0, null, metadata !1139, i32 0, i32 0} ; [ DW_TAG_subroutine_type ]
!1139 = metadata !{metadata !223, metadata !1130}
!1140 = metadata !{i32 786478, i32 0, metadata !993, metadata !"to_ushort", metadata !"to_ushort", metadata !"_ZNK11ap_int_baseILi64ELb0ELb1EE9to_ushortEv", metadata !180, i32 1719, metadata !1141, i1 false, i1 false, i32 0, i32 0, null, i32 256, i1 false, null, null, i32 0, metadata !192, i32 1719} ; [ DW_TAG_subprogram ]
!1141 = metadata !{i32 786453, i32 0, metadata !"", i32 0, i32 0, i64 0, i64 0, i64 0, i32 0, null, metadata !1142, i32 0, i32 0} ; [ DW_TAG_subroutine_type ]
!1142 = metadata !{metadata !235, metadata !1130}
!1143 = metadata !{i32 786478, i32 0, metadata !993, metadata !"to_short", metadata !"to_short", metadata !"_ZNK11ap_int_baseILi64ELb0ELb1EE8to_shortEv", metadata !180, i32 1720, metadata !1144, i1 false, i1 false, i32 0, i32 0, null, i32 256, i1 false, null, null, i32 0, metadata !192, i32 1720} ; [ DW_TAG_subprogram ]
!1144 = metadata !{i32 786453, i32 0, metadata !"", i32 0, i32 0, i64 0, i64 0, i64 0, i32 0, null, metadata !1145, i32 0, i32 0} ; [ DW_TAG_subroutine_type ]
!1145 = metadata !{metadata !231, metadata !1130}
!1146 = metadata !{i32 786478, i32 0, metadata !993, metadata !"to_int", metadata !"to_int", metadata !"_ZNK11ap_int_baseILi64ELb0ELb1EE6to_intEv", metadata !180, i32 1721, metadata !1147, i1 false, i1 false, i32 0, i32 0, null, i32 256, i1 false, null, null, i32 0, metadata !192, i32 1721} ; [ DW_TAG_subprogram ]
!1147 = metadata !{i32 786453, i32 0, metadata !"", i32 0, i32 0, i64 0, i64 0, i64 0, i32 0, null, metadata !1148, i32 0, i32 0} ; [ DW_TAG_subroutine_type ]
!1148 = metadata !{metadata !196, metadata !1130}
