; ModuleID = '/nfs/ug/thesis/thesis0/pc/Quinn/galapagos/hlsIP_adm-8k5/fireWall64/solution1/.autopilot/db/a.o.3.bc'
target datalayout = "e-p:64:64:64-i1:8:8-i8:8:8-i16:16:16-i32:32:32-i64:64:64-f32:32:32-f64:64:64-v64:64:64-v128:128:128-a0:0:64-s0:64:64-f80:128:128-n8:16:32:64-S128"
target triple = "x86_64-unknown-linux-gnu"

@llvm_global_ctors_1 = appending global [0 x void ()*] zeroinitializer ; [#uses=0 type=[0 x void ()*]*]
@llvm_global_ctors_0 = appending global [0 x i32] zeroinitializer ; [#uses=0 type=[0 x i32]*]
@fireWall64_str = internal unnamed_addr constant [11 x i8] c"fireWall64\00" ; [#uses=1 type=[11 x i8]*]
@p_str5 = private unnamed_addr constant [12 x i8] c"hls_label_0\00", align 1 ; [#uses=2 type=[12 x i8]*]
@p_str4 = private unnamed_addr constant [8 x i8] c"ap_none\00", align 1 ; [#uses=1 type=[8 x i8]*]
@p_str3 = private unnamed_addr constant [5 x i8] c"both\00", align 1 ; [#uses=2 type=[5 x i8]*]
@p_str2 = private unnamed_addr constant [5 x i8] c"axis\00", align 1 ; [#uses=2 type=[5 x i8]*]
@p_str1 = private unnamed_addr constant [1 x i8] zeroinitializer, align 1 ; [#uses=22 type=[1 x i8]*]
@p_str = private unnamed_addr constant [13 x i8] c"ap_ctrl_none\00", align 1 ; [#uses=1 type=[13 x i8]*]

; [#uses=2]
declare i64 @llvm.part.select.i64(i64, i32, i32) nounwind readnone

; [#uses=32]
declare void @llvm.dbg.value(metadata, i64, metadata) nounwind readnone

; [#uses=7]
declare void @llvm.dbg.declare(metadata, metadata) nounwind readnone

; [#uses=0]
define void @fireWall64(i48* %eth_address_V, i64* %stream_in_V_data_V, i1* %stream_in_V_last_V, i64* %stream_out_V_data_V, i8* %stream_out_V_dest_V, i1* %stream_out_V_last_V, i48* %observedAddress_out_V, i16* %dest_out_V, i1* %match_out_V) {
  %p_Val2_s = alloca i64                          ; [#uses=3 type=i64*]
  call void @llvm.dbg.declare(metadata !{i64* %p_Val2_s}, metadata !123) ; [debug variable = __Val2__]
  %p_Val2_1 = alloca i64                          ; [#uses=3 type=i64*]
  call void @llvm.dbg.declare(metadata !{i64* %p_Val2_1}, metadata !123) ; [debug variable = __Val2__]
  call void (...)* @_ssdm_op_SpecBitsMap(i48* %eth_address_V), !map !787
  call void (...)* @_ssdm_op_SpecBitsMap(i64* %stream_in_V_data_V), !map !791
  call void (...)* @_ssdm_op_SpecBitsMap(i1* %stream_in_V_last_V), !map !795
  call void (...)* @_ssdm_op_SpecBitsMap(i64* %stream_out_V_data_V), !map !799
  call void (...)* @_ssdm_op_SpecBitsMap(i8* %stream_out_V_dest_V), !map !803
  call void (...)* @_ssdm_op_SpecBitsMap(i1* %stream_out_V_last_V), !map !807
  call void (...)* @_ssdm_op_SpecBitsMap(i48* %observedAddress_out_V), !map !811
  call void (...)* @_ssdm_op_SpecBitsMap(i16* %dest_out_V), !map !815
  call void (...)* @_ssdm_op_SpecBitsMap(i1* %match_out_V), !map !819
  call void (...)* @_ssdm_op_SpecTopModule([11 x i8]* @fireWall64_str) nounwind
  call void @llvm.dbg.value(metadata !{i48* %eth_address_V}, i64 0, metadata !823), !dbg !3572 ; [debug line = 35:18] [debug variable = eth_address.V]
  call void @llvm.dbg.declare(metadata !{i64* %stream_in_V_data_V}, metadata !3573), !dbg !3585 ; [debug line = 36:28] [debug variable = stream_in.V.data.V]
  call void @llvm.dbg.declare(metadata !{i1* %stream_in_V_last_V}, metadata !3586), !dbg !3585 ; [debug line = 36:28] [debug variable = stream_in.V.last.V]
  call void @llvm.dbg.declare(metadata !{i64* %stream_out_V_data_V}, metadata !3597), !dbg !3602 ; [debug line = 37:29] [debug variable = stream_out.V.data.V]
  call void @llvm.dbg.declare(metadata !{i8* %stream_out_V_dest_V}, metadata !3603), !dbg !3602 ; [debug line = 37:29] [debug variable = stream_out.V.dest.V]
  call void @llvm.dbg.declare(metadata !{i1* %stream_out_V_last_V}, metadata !3614), !dbg !3602 ; [debug line = 37:29] [debug variable = stream_out.V.last.V]
  call void @llvm.dbg.value(metadata !{i48* %observedAddress_out_V}, i64 0, metadata !3618), !dbg !3620 ; [debug line = 38:18] [debug variable = observedAddress_out.V]
  call void @llvm.dbg.value(metadata !{i16* %dest_out_V}, i64 0, metadata !3621), !dbg !3630 ; [debug line = 40:18] [debug variable = dest_out.V]
  call void @llvm.dbg.value(metadata !{i1* %match_out_V}, i64 0, metadata !3631), !dbg !3640 ; [debug line = 41:16] [debug variable = match_out.V]
  call void (...)* @_ssdm_op_SpecInterface(i32 0, [13 x i8]* @p_str, i32 0, i32 0, [1 x i8]* @p_str1, i32 0, i32 0, [1 x i8]* @p_str1, [1 x i8]* @p_str1, [1 x i8]* @p_str1, i32 0, i32 0, i32 0, i32 0, [1 x i8]* @p_str1, [1 x i8]* @p_str1) nounwind, !dbg !3641 ; [debug line = 43:1]
  call void (...)* @_ssdm_op_SpecInterface(i64* %stream_out_V_data_V, i8* %stream_out_V_dest_V, i1* %stream_out_V_last_V, [5 x i8]* @p_str2, i32 1, i32 1, [5 x i8]* @p_str3, i32 0, i32 0, [1 x i8]* @p_str1, [1 x i8]* @p_str1, [1 x i8]* @p_str1, i32 0, i32 0, i32 0, i32 0, [1 x i8]* @p_str1, [1 x i8]* @p_str1) nounwind, !dbg !3641 ; [debug line = 43:1]
  call void (...)* @_ssdm_op_SpecInterface(i64* %stream_in_V_data_V, i1* %stream_in_V_last_V, [5 x i8]* @p_str2, i32 1, i32 1, [5 x i8]* @p_str3, i32 0, i32 0, [1 x i8]* @p_str1, [1 x i8]* @p_str1, [1 x i8]* @p_str1, i32 0, i32 0, i32 0, i32 0, [1 x i8]* @p_str1, [1 x i8]* @p_str1) nounwind, !dbg !3641 ; [debug line = 43:1]
  call void (...)* @_ssdm_op_SpecInterface(i48* %eth_address_V, [8 x i8]* @p_str4, i32 0, i32 0, [1 x i8]* @p_str1, i32 0, i32 0, [1 x i8]* @p_str1, [1 x i8]* @p_str1, [1 x i8]* @p_str1, i32 0, i32 0, i32 0, i32 0, [1 x i8]* @p_str1, [1 x i8]* @p_str1) nounwind, !dbg !3641 ; [debug line = 43:1]
  br label %1, !dbg !3643                         ; [debug line = 62:2]

; <label>:1                                       ; preds = %4, %0
  %loop_begin = call i32 (...)* @_ssdm_op_SpecLoopBegin() nounwind ; [#uses=0 type=i32]
  %tmp_1 = call i32 (...)* @_ssdm_op_SpecRegionBegin([12 x i8]* @p_str5), !dbg !3644 ; [#uses=1 type=i32] [debug line = 62:11]
  br label %2, !dbg !3646                         ; [debug line = 65:14]

; <label>:2                                       ; preds = %3, %1
  %i = phi i2 [ 0, %1 ], [ %i_1, %3 ]             ; [#uses=3 type=i2]
  %exitcond = icmp eq i2 %i, -2, !dbg !3646       ; [#uses=1 type=i1] [debug line = 65:14]
  %empty = call i32 (...)* @_ssdm_op_SpecLoopTripCount(i64 2, i64 2, i64 2) ; [#uses=0 type=i32]
  %i_1 = add i2 %i, 1, !dbg !3648                 ; [#uses=1 type=i2] [debug line = 65:21]
  br i1 %exitcond, label %.critedge, label %3, !dbg !3646 ; [debug line = 65:14]

; <label>:3                                       ; preds = %2
  %p_Val2_load_1 = load i64* %p_Val2_s, !dbg !3649 ; [#uses=1 type=i64] [debug line = 174:5@67:4]
  %p_Val2_1_load_1 = load i64* %p_Val2_1, !dbg !3649 ; [#uses=1 type=i64] [debug line = 174:5@67:4]
  call void @llvm.dbg.value(metadata !{i64* %stream_in_V_data_V}, i64 0, metadata !3654), !dbg !3659 ; [debug line = 129:56@66:14] [debug variable = stream<ap_axis_in>.V.data.V]
  call void @llvm.dbg.value(metadata !{i1* %stream_in_V_last_V}, i64 0, metadata !3661), !dbg !3659 ; [debug line = 129:56@66:14] [debug variable = stream<ap_axis_in>.V.last.V]
  %empty_5 = call { i64, i1 } @_ssdm_op_Read.axis.volatile.i64P.i1P(i64* %stream_in_V_data_V, i1* %stream_in_V_last_V), !dbg !3663 ; [#uses=1 type={ i64, i1 }] [debug line = 131:9@66:14]
  %tmp_data_V_1 = extractvalue { i64, i1 } %empty_5, 0, !dbg !3663 ; [#uses=2 type=i64] [debug line = 131:9@66:14]
  call void @llvm.dbg.value(metadata !{i64 %tmp_data_V_1}, i64 0, metadata !3665), !dbg !3663 ; [debug line = 131:9@66:14] [debug variable = tmp.data.V]
  %tmp_2 = trunc i2 %i to i1                      ; [#uses=2 type=i1]
  call void @llvm.dbg.value(metadata !{i64 %tmp_data_V_1}, i64 0, metadata !3667), !dbg !3649 ; [debug line = 174:5@67:4] [debug variable = header[0].V]
  call void @llvm.dbg.value(metadata !{i64 %tmp_data_V_1}, i64 0, metadata !3672), !dbg !3649 ; [debug line = 174:5@67:4] [debug variable = header[1].V]
  %header_1_V_1 = select i1 %tmp_2, i64 %tmp_data_V_1, i64 %p_Val2_1_load_1, !dbg !3649 ; [#uses=1 type=i64] [debug line = 174:5@67:4]
  call void @llvm.dbg.value(metadata !{i64 %header_1_V_1}, i64 0, metadata !3672), !dbg !3649 ; [debug line = 174:5@67:4] [debug variable = header[1].V]
  %p_Val2_2 = select i1 %tmp_2, i64 %p_Val2_load_1, i64 %tmp_data_V_1, !dbg !3649 ; [#uses=1 type=i64] [debug line = 174:5@67:4]
  call void @llvm.dbg.value(metadata !{i64 %p_Val2_2}, i64 0, metadata !123), !dbg !3649 ; [debug line = 174:5@67:4] [debug variable = __Val2__]
  call void @llvm.dbg.value(metadata !{i2 %i_1}, i64 0, metadata !3673), !dbg !3648 ; [debug line = 65:21] [debug variable = i]
  store i64 %header_1_V_1, i64* %p_Val2_1, !dbg !3649 ; [debug line = 174:5@67:4]
  store i64 %p_Val2_2, i64* %p_Val2_s, !dbg !3649 ; [debug line = 174:5@67:4]
  br label %2, !dbg !3648                         ; [debug line = 65:21]

.critedge:                                        ; preds = %2
  %p_Val2_load = load i64* %p_Val2_s, !dbg !3674  ; [#uses=1 type=i64] [debug line = 941:81@1538:15@91:99@91:100@77:20]
  %p_Val2_1_load = load i64* %p_Val2_1, !dbg !4018 ; [#uses=1 type=i64] [debug line = 941:81@1538:15@200:100@200:101@100:10]
  %observedAddress_V = call i48 @_ssdm_op_PartSelect.i48.i64.i32.i32(i64 %p_Val2_load, i32 16, i32 63), !dbg !3674 ; [#uses=1 type=i48] [debug line = 941:81@1538:15@91:99@91:100@77:20]
  call void @llvm.dbg.value(metadata !{i48 %observedAddress_V}, i64 0, metadata !4029), !dbg !4037 ; [debug line = 174:5@77:20] [debug variable = observedAddress.V]
  call void (...)* @_ssdm_op_Wait(i32 1) nounwind, !dbg !4040 ; [debug line = 86:2]
  %eth_address_V_read = call i48 @_ssdm_op_Read.ap_none.i48P(i48* %eth_address_V), !dbg !4041 ; [#uses=1 type=i48] [debug line = 2034:5@88:6]
  %tmp = icmp eq i48 %observedAddress_V, %eth_address_V_read, !dbg !4041 ; [#uses=1 type=i1] [debug line = 2034:5@88:6]
  call void @llvm.dbg.value(metadata !{i1* %match_out_V}, i64 0, metadata !4045), !dbg !4048 ; [debug line = 173:49@96:3] [debug variable = ssdm_int<1 + 1024 * 0, true>.V]
  call void @_ssdm_op_Write.ap_auto.i1P(i1* %match_out_V, i1 %tmp), !dbg !4050 ; [debug line = 174:5@96:3]
  %packetOut_dest_V = call i8 @_ssdm_op_PartSelect.i8.i64.i32.i32(i64 %p_Val2_1_load, i32 8, i32 15), !dbg !4018 ; [#uses=2 type=i8] [debug line = 941:81@1538:15@200:100@200:101@100:10]
  %dest_V = zext i8 %packetOut_dest_V to i16, !dbg !4019 ; [#uses=1 type=i16] [debug line = 1538:15@200:100@200:101@100:10]
  call void @llvm.dbg.value(metadata !{i16 %dest_V}, i64 0, metadata !4052), !dbg !4054 ; [debug line = 281:5@100:10] [debug variable = dest.V]
  call void @llvm.dbg.value(metadata !{i16* %dest_out_V}, i64 0, metadata !4057), !dbg !4059 ; [debug line = 280:50@105:3] [debug variable = ssdm_int<16 + 1024 * 0, false>.V]
  call void @_ssdm_op_Write.ap_auto.i16P(i16* %dest_out_V, i16 %dest_V), !dbg !4061 ; [debug line = 281:5@105:3]
  br label %._crit_edge

._crit_edge:                                      ; preds = %._crit_edge, %.critedge
  call void @llvm.dbg.value(metadata !{i64* %stream_in_V_data_V}, i64 0, metadata !3654), !dbg !4062 ; [debug line = 129:56@112:15] [debug variable = stream<ap_axis_in>.V.data.V]
  call void @llvm.dbg.value(metadata !{i1* %stream_in_V_last_V}, i64 0, metadata !3661), !dbg !4062 ; [debug line = 129:56@112:15] [debug variable = stream<ap_axis_in>.V.last.V]
  %empty_6 = call { i64, i1 } @_ssdm_op_Read.axis.volatile.i64P.i1P(i64* %stream_in_V_data_V, i1* %stream_in_V_last_V), !dbg !4065 ; [#uses=2 type={ i64, i1 }] [debug line = 131:9@112:15]
  %tmp_data_V_2 = extractvalue { i64, i1 } %empty_6, 0, !dbg !4065 ; [#uses=8 type=i64] [debug line = 131:9@112:15]
  %tmp_last_V = extractvalue { i64, i1 } %empty_6, 1, !dbg !4065 ; [#uses=2 type=i1] [debug line = 131:9@112:15]
  call void @llvm.dbg.value(metadata !{i64 %tmp_data_V_2}, i64 0, metadata !3665), !dbg !4065 ; [debug line = 131:9@112:15] [debug variable = tmp.data.V]
  call void @llvm.dbg.value(metadata !{i1 %tmp_last_V}, i64 0, metadata !4066), !dbg !4065 ; [debug line = 131:9@112:15] [debug variable = tmp.last.V]
  call void @llvm.dbg.value(metadata !{i1 %tmp_last_V}, i64 0, metadata !4067), !dbg !4069 ; [debug line = 281:5@113:4] [debug variable = packetOut.last.V]
  call void @llvm.dbg.value(metadata !{i64 %tmp_data_V_2}, i64 0, metadata !4073), !dbg !4699 ; [debug line = 3432:0@3524:0@27:7@114:21] [debug variable = lhs.V]
  %tmp_10 = trunc i64 %tmp_data_V_2 to i8         ; [#uses=1 type=i8]
  %tmp_3 = call i8 @_ssdm_op_PartSelect.i8.i64.i32.i32(i64 %tmp_data_V_2, i32 56, i32 63) ; [#uses=1 type=i8]
  %tmp_4 = call i8 @_ssdm_op_PartSelect.i8.i64.i32.i32(i64 %tmp_data_V_2, i32 8, i32 15) ; [#uses=1 type=i8]
  %tmp_5 = call i8 @_ssdm_op_PartSelect.i8.i64.i32.i32(i64 %tmp_data_V_2, i32 24, i32 31) ; [#uses=1 type=i8]
  %tmp_6 = call i8 @_ssdm_op_PartSelect.i8.i64.i32.i32(i64 %tmp_data_V_2, i32 40, i32 47) ; [#uses=1 type=i8]
  %tmp_7 = call i8 @_ssdm_op_PartSelect.i8.i64.i32.i32(i64 %tmp_data_V_2, i32 16, i32 23) ; [#uses=1 type=i8]
  %tmp_8 = call i8 @_ssdm_op_PartSelect.i8.i64.i32.i32(i64 %tmp_data_V_2, i32 32, i32 39) ; [#uses=1 type=i8]
  %tmp_9 = call i8 @_ssdm_op_PartSelect.i8.i64.i32.i32(i64 %tmp_data_V_2, i32 48, i32 55) ; [#uses=1 type=i8]
  %x_V = call i64 @_ssdm_op_BitConcatenate.i64.i8.i8.i8.i8.i8.i8.i8.i8(i8 %tmp_10, i8 %tmp_4, i8 %tmp_7, i8 %tmp_5, i8 %tmp_8, i8 %tmp_6, i8 %tmp_9, i8 %tmp_3), !dbg !4700 ; [#uses=1 type=i64] [debug line = 121:88@121:104@29:39@114:21]
  call void @llvm.dbg.value(metadata !{i64 %x_V}, i64 0, metadata !4706), !dbg !4708 ; [debug line = 174:5@29:39@114:21] [debug variable = x.V]
  call void @llvm.dbg.value(metadata !{i64 %x_V}, i64 0, metadata !4709), !dbg !4710 ; [debug line = 174:5@114:21] [debug variable = packetOut.data.V]
  call void @llvm.dbg.value(metadata !{i8 %packetOut_dest_V}, i64 0, metadata !4711), !dbg !4712 ; [debug line = 281:5@116:4] [debug variable = packetOut.dest.V]
  call void @llvm.dbg.value(metadata !{i1 %tmp_last_V}, i64 0, metadata !4716), !dbg !4718 ; [debug line = 174:5@117:4] [debug variable = last.V]
  call void @llvm.dbg.value(metadata !{i64* %stream_out_V_data_V}, i64 0, metadata !4720), !dbg !4725 ; [debug line = 144:48@118:4] [debug variable = stream<ap_axis_out>.V.data.V]
  call void @llvm.dbg.value(metadata !{i8* %stream_out_V_dest_V}, i64 0, metadata !4727), !dbg !4725 ; [debug line = 144:48@118:4] [debug variable = stream<ap_axis_out>.V.dest.V]
  call void @llvm.dbg.value(metadata !{i1* %stream_out_V_last_V}, i64 0, metadata !4729), !dbg !4725 ; [debug line = 144:48@118:4] [debug variable = stream<ap_axis_out>.V.last.V]
  call void @llvm.dbg.value(metadata !{i64 %x_V}, i64 0, metadata !4731), !dbg !4734 ; [debug line = 145:31@118:4] [debug variable = tmp.data.V]
  call void @llvm.dbg.value(metadata !{i8 %packetOut_dest_V}, i64 0, metadata !4735), !dbg !4734 ; [debug line = 145:31@118:4] [debug variable = tmp.dest.V]
  call void @llvm.dbg.value(metadata !{i1 %tmp_last_V}, i64 0, metadata !4736), !dbg !4734 ; [debug line = 145:31@118:4] [debug variable = tmp.last.V]
  call void @_ssdm_op_Write.axis.volatile.i64P.i8P.i1P(i64* %stream_out_V_data_V, i8* %stream_out_V_dest_V, i1* %stream_out_V_last_V, i64 %x_V, i8 %packetOut_dest_V, i1 %tmp_last_V), !dbg !4737 ; [debug line = 146:9@118:4]
  br i1 %tmp_last_V, label %4, label %._crit_edge, !dbg !4738 ; [debug line = 111:9]

; <label>:4                                       ; preds = %._crit_edge
  %empty_7 = call i32 (...)* @_ssdm_op_SpecRegionEnd([12 x i8]* @p_str5, i32 %tmp_1), !dbg !4739 ; [#uses=0 type=i32] [debug line = 124:2]
  br label %1, !dbg !4739                         ; [debug line = 124:2]
}

; [#uses=1]
define weak void @_ssdm_op_Write.axis.volatile.i64P.i8P.i1P(i64*, i8*, i1*, i64, i8, i1) {
entry:
  store i64 %3, i64* %0
  store i8 %4, i8* %1
  store i1 %5, i1* %2
  ret void
}

; [#uses=1]
define weak void @_ssdm_op_Write.ap_auto.i1P(i1*, i1) {
entry:
  store i1 %1, i1* %0
  ret void
}

; [#uses=1]
define weak void @_ssdm_op_Write.ap_auto.i16P(i16*, i16) {
entry:
  store i16 %1, i16* %0
  ret void
}

; [#uses=1]
define weak void @_ssdm_op_Wait(...) nounwind {
entry:
  ret void
}

; [#uses=1]
define weak void @_ssdm_op_SpecTopModule(...) {
entry:
  ret void
}

; [#uses=1]
define weak i32 @_ssdm_op_SpecRegionEnd(...) {
entry:
  ret i32 0
}

; [#uses=1]
define weak i32 @_ssdm_op_SpecRegionBegin(...) {
entry:
  ret i32 0
}

; [#uses=1]
define weak i32 @_ssdm_op_SpecLoopTripCount(...) {
entry:
  ret i32 0
}

; [#uses=1]
define weak i32 @_ssdm_op_SpecLoopBegin(...) {
entry:
  ret i32 0
}

; [#uses=4]
define weak void @_ssdm_op_SpecInterface(...) nounwind {
entry:
  ret void
}

; [#uses=9]
define weak void @_ssdm_op_SpecBitsMap(...) {
entry:
  ret void
}

; [#uses=2]
define weak { i64, i1 } @_ssdm_op_Read.axis.volatile.i64P.i1P(i64*, i1*) {
entry:
  %empty = load i64* %0                           ; [#uses=1 type=i64]
  %empty_8 = load i1* %1                          ; [#uses=1 type=i1]
  %mrv_0 = insertvalue { i64, i1 } undef, i64 %empty, 0 ; [#uses=1 type={ i64, i1 }]
  %mrv1 = insertvalue { i64, i1 } %mrv_0, i1 %empty_8, 1 ; [#uses=1 type={ i64, i1 }]
  ret { i64, i1 } %mrv1
}

; [#uses=1]
define weak i48 @_ssdm_op_Read.ap_none.i48P(i48*) {
entry:
  %empty = load i48* %0                           ; [#uses=1 type=i48]
  ret i48 %empty
}

; [#uses=8]
define weak i8 @_ssdm_op_PartSelect.i8.i64.i32.i32(i64, i32, i32) nounwind readnone {
entry:
  %empty = call i64 @llvm.part.select.i64(i64 %0, i32 %1, i32 %2) ; [#uses=1 type=i64]
  %empty_9 = trunc i64 %empty to i8               ; [#uses=1 type=i8]
  ret i8 %empty_9
}

; [#uses=1]
define weak i48 @_ssdm_op_PartSelect.i48.i64.i32.i32(i64, i32, i32) nounwind readnone {
entry:
  %empty = call i64 @llvm.part.select.i64(i64 %0, i32 %1, i32 %2) ; [#uses=1 type=i64]
  %empty_10 = trunc i64 %empty to i48             ; [#uses=1 type=i48]
  ret i48 %empty_10
}

; [#uses=0]
declare i1 @_ssdm_op_PartSelect.i1.i2.i32.i32(i2, i32, i32) nounwind readnone

; [#uses=1]
define weak i64 @_ssdm_op_BitConcatenate.i64.i8.i8.i8.i8.i8.i8.i8.i8(i8, i8, i8, i8, i8, i8, i8, i8) nounwind readnone {
entry:
  %empty = zext i8 %6 to i16                      ; [#uses=1 type=i16]
  %empty_11 = zext i8 %7 to i16                   ; [#uses=1 type=i16]
  %empty_12 = shl i16 %empty, 8                   ; [#uses=1 type=i16]
  %empty_13 = or i16 %empty_12, %empty_11         ; [#uses=1 type=i16]
  %empty_14 = zext i8 %5 to i24                   ; [#uses=1 type=i24]
  %empty_15 = zext i16 %empty_13 to i24           ; [#uses=1 type=i24]
  %empty_16 = shl i24 %empty_14, 16               ; [#uses=1 type=i24]
  %empty_17 = or i24 %empty_16, %empty_15         ; [#uses=1 type=i24]
  %empty_18 = zext i8 %4 to i32                   ; [#uses=1 type=i32]
  %empty_19 = zext i24 %empty_17 to i32           ; [#uses=1 type=i32]
  %empty_20 = shl i32 %empty_18, 24               ; [#uses=1 type=i32]
  %empty_21 = or i32 %empty_20, %empty_19         ; [#uses=1 type=i32]
  %empty_22 = zext i8 %3 to i40                   ; [#uses=1 type=i40]
  %empty_23 = zext i32 %empty_21 to i40           ; [#uses=1 type=i40]
  %empty_24 = shl i40 %empty_22, 32               ; [#uses=1 type=i40]
  %empty_25 = or i40 %empty_24, %empty_23         ; [#uses=1 type=i40]
  %empty_26 = zext i8 %2 to i48                   ; [#uses=1 type=i48]
  %empty_27 = zext i40 %empty_25 to i48           ; [#uses=1 type=i48]
  %empty_28 = shl i48 %empty_26, 40               ; [#uses=1 type=i48]
  %empty_29 = or i48 %empty_28, %empty_27         ; [#uses=1 type=i48]
  %empty_30 = zext i8 %1 to i56                   ; [#uses=1 type=i56]
  %empty_31 = zext i48 %empty_29 to i56           ; [#uses=1 type=i56]
  %empty_32 = shl i56 %empty_30, 48               ; [#uses=1 type=i56]
  %empty_33 = or i56 %empty_32, %empty_31         ; [#uses=1 type=i56]
  %empty_34 = zext i8 %0 to i64                   ; [#uses=1 type=i64]
  %empty_35 = zext i56 %empty_33 to i64           ; [#uses=1 type=i64]
  %empty_36 = shl i64 %empty_34, 56               ; [#uses=1 type=i64]
  %empty_37 = or i64 %empty_36, %empty_35         ; [#uses=1 type=i64]
  ret i64 %empty_37
}

!opencl.kernels = !{!0, !7, !10, !16, !19, !19, !22, !22, !28, !28, !22, !22, !30, !22, !33, !33, !33, !22, !22, !22, !22, !22, !36, !37, !37, !40, !42, !33, !33, !33, !22, !44, !46, !52, !52, !58, !22, !22, !22, !22, !22, !22, !22, !22, !22, !22, !22, !22, !22, !59, !62, !62, !64, !22, !67, !67, !69, !71, !22, !22, !22, !73, !73, !75, !77, !79, !79, !81, !83, !83, !85, !87, !89, !89, !22, !91, !93, !93, !95, !95, !22, !22, !97, !22, !22, !22, !99, !99, !101, !103, !105, !93, !93, !107, !22, !109, !107, !111, !112, !112, !109, !113, !22, !22, !22, !22, !22, !22, !22, !22, !22, !22}
!hls.encrypted.func = !{}
!llvm.map.gv = !{!116}

!0 = metadata !{null, metadata !1, metadata !2, metadata !3, metadata !4, metadata !5, metadata !6}
!1 = metadata !{metadata !"kernel_arg_addr_space", i32 0}
!2 = metadata !{metadata !"kernel_arg_access_qual", metadata !"none"}
!3 = metadata !{metadata !"kernel_arg_type", metadata !"ap_int<32>"}
!4 = metadata !{metadata !"kernel_arg_type_qual", metadata !""}
!5 = metadata !{metadata !"kernel_arg_name", metadata !"num"}
!6 = metadata !{metadata !"reqd_work_group_size", i32 1, i32 1, i32 1}
!7 = metadata !{null, metadata !1, metadata !2, metadata !8, metadata !4, metadata !9, metadata !6}
!8 = metadata !{metadata !"kernel_arg_type", metadata !"ap_int<64>"}
!9 = metadata !{metadata !"kernel_arg_name", metadata !"X"}
!10 = metadata !{null, metadata !11, metadata !12, metadata !13, metadata !14, metadata !15, metadata !6}
!11 = metadata !{metadata !"kernel_arg_addr_space", i32 1, i32 0, i32 0, i32 1, i32 1, i32 1}
!12 = metadata !{metadata !"kernel_arg_access_qual", metadata !"none", metadata !"none", metadata !"none", metadata !"none", metadata !"none", metadata !"none"}
!13 = metadata !{metadata !"kernel_arg_type", metadata !"ap_uint<48>*", metadata !"hls::stream<ap_axis_in>", metadata !"hls::stream<ap_axis_out>", metadata !"ap_uint<48>*", metadata !"ap_uint<16>*", metadata !"ap_int<1>*"}
!14 = metadata !{metadata !"kernel_arg_type_qual", metadata !"", metadata !"", metadata !"", metadata !"", metadata !"", metadata !""}
!15 = metadata !{metadata !"kernel_arg_name", metadata !"eth_address", metadata !"stream_in", metadata !"stream_out", metadata !"observedAddress_out", metadata !"dest_out", metadata !"match_out"}
!16 = metadata !{null, metadata !1, metadata !2, metadata !17, metadata !4, metadata !18, metadata !6}
!17 = metadata !{metadata !"kernel_arg_type", metadata !"const struct ap_axis_out &"}
!18 = metadata !{metadata !"kernel_arg_name", metadata !"din"}
!19 = metadata !{null, metadata !1, metadata !2, metadata !20, metadata !4, metadata !21, metadata !6}
!20 = metadata !{metadata !"kernel_arg_type", metadata !"const ap_uint<1> &"}
!21 = metadata !{metadata !"kernel_arg_name", metadata !"op"}
!22 = metadata !{null, metadata !23, metadata !24, metadata !25, metadata !26, metadata !27, metadata !6}
!23 = metadata !{metadata !"kernel_arg_addr_space"}
!24 = metadata !{metadata !"kernel_arg_access_qual"}
!25 = metadata !{metadata !"kernel_arg_type"}
!26 = metadata !{metadata !"kernel_arg_type_qual"}
!27 = metadata !{metadata !"kernel_arg_name"}
!28 = metadata !{null, metadata !1, metadata !2, metadata !29, metadata !4, metadata !21, metadata !6}
!29 = metadata !{metadata !"kernel_arg_type", metadata !"const ap_uint<16> &"}
!30 = metadata !{null, metadata !1, metadata !2, metadata !31, metadata !4, metadata !32, metadata !6}
!31 = metadata !{metadata !"kernel_arg_type", metadata !"const ap_uint<8> &"}
!32 = metadata !{metadata !"kernel_arg_name", metadata !"op2"}
!33 = metadata !{null, metadata !1, metadata !2, metadata !34, metadata !4, metadata !35, metadata !6}
!34 = metadata !{metadata !"kernel_arg_type", metadata !"const ap_range_ref<64, true> &"}
!35 = metadata !{metadata !"kernel_arg_name", metadata !"ref"}
!36 = metadata !{null, metadata !1, metadata !2, metadata !29, metadata !4, metadata !32, metadata !6}
!37 = metadata !{null, metadata !1, metadata !2, metadata !38, metadata !4, metadata !39, metadata !6}
!38 = metadata !{metadata !"kernel_arg_type", metadata !"int"}
!39 = metadata !{metadata !"kernel_arg_name", metadata !"val"}
!40 = metadata !{null, metadata !1, metadata !2, metadata !41, metadata !4, metadata !32, metadata !6}
!41 = metadata !{metadata !"kernel_arg_type", metadata !"const ap_int<1> &"}
!42 = metadata !{null, metadata !1, metadata !2, metadata !43, metadata !4, metadata !32, metadata !6}
!43 = metadata !{metadata !"kernel_arg_type", metadata !"const ap_int_base<48, false> &"}
!44 = metadata !{null, metadata !1, metadata !2, metadata !45, metadata !4, metadata !32, metadata !6}
!45 = metadata !{metadata !"kernel_arg_type", metadata !"const ap_int<48> &"}
!46 = metadata !{null, metadata !47, metadata !48, metadata !49, metadata !50, metadata !51, metadata !6}
!47 = metadata !{metadata !"kernel_arg_addr_space", i32 0, i32 0}
!48 = metadata !{metadata !"kernel_arg_access_qual", metadata !"none", metadata !"none"}
!49 = metadata !{metadata !"kernel_arg_type", metadata !"int", metadata !"int"}
!50 = metadata !{metadata !"kernel_arg_type_qual", metadata !"", metadata !""}
!51 = metadata !{metadata !"kernel_arg_name", metadata !"Hi", metadata !"Lo"}
!52 = metadata !{null, metadata !53, metadata !54, metadata !55, metadata !56, metadata !57, metadata !6}
!53 = metadata !{metadata !"kernel_arg_addr_space", i32 1, i32 0, i32 0}
!54 = metadata !{metadata !"kernel_arg_access_qual", metadata !"none", metadata !"none", metadata !"none"}
!55 = metadata !{metadata !"kernel_arg_type", metadata !"ap_int_base<64, true>*", metadata !"int", metadata !"int"}
!56 = metadata !{metadata !"kernel_arg_type_qual", metadata !"", metadata !"", metadata !""}
!57 = metadata !{metadata !"kernel_arg_name", metadata !"bv", metadata !"h", metadata !"l"}
!58 = metadata !{null, metadata !1, metadata !2, metadata !20, metadata !4, metadata !32, metadata !6}
!59 = metadata !{null, metadata !47, metadata !48, metadata !60, metadata !50, metadata !61, metadata !6}
!60 = metadata !{metadata !"kernel_arg_type", metadata !"const ap_int_base<64, true> &", metadata !"long"}
!61 = metadata !{metadata !"kernel_arg_name", metadata !"op", metadata !"i_op"}
!62 = metadata !{null, metadata !1, metadata !2, metadata !63, metadata !4, metadata !21, metadata !6}
!63 = metadata !{metadata !"kernel_arg_type", metadata !"long"}
!64 = metadata !{null, metadata !47, metadata !48, metadata !65, metadata !50, metadata !66, metadata !6}
!65 = metadata !{metadata !"kernel_arg_type", metadata !"const ap_int_base<64, true> &", metadata !"const ap_int_base<64, true> &"}
!66 = metadata !{metadata !"kernel_arg_name", metadata !"op", metadata !"op2"}
!67 = metadata !{null, metadata !1, metadata !2, metadata !68, metadata !4, metadata !21, metadata !6}
!68 = metadata !{metadata !"kernel_arg_type", metadata !"const ap_int_base<65, true> &"}
!69 = metadata !{null, metadata !1, metadata !2, metadata !70, metadata !4, metadata !32, metadata !6}
!70 = metadata !{metadata !"kernel_arg_type", metadata !"const ap_int<64> &"}
!71 = metadata !{null, metadata !47, metadata !48, metadata !72, metadata !50, metadata !66, metadata !6}
!72 = metadata !{metadata !"kernel_arg_type", metadata !"const ap_int_base<64, true> &", metadata !"const ap_int_base<65, true> &"}
!73 = metadata !{null, metadata !1, metadata !2, metadata !74, metadata !4, metadata !21, metadata !6}
!74 = metadata !{metadata !"kernel_arg_type", metadata !"const ap_int_base<64, true> &"}
!75 = metadata !{null, metadata !47, metadata !48, metadata !76, metadata !50, metadata !66, metadata !6}
!76 = metadata !{metadata !"kernel_arg_type", metadata !"const ap_int_base<65, true> &", metadata !"int"}
!77 = metadata !{null, metadata !47, metadata !48, metadata !78, metadata !50, metadata !61, metadata !6}
!78 = metadata !{metadata !"kernel_arg_type", metadata !"const ap_int_base<64, true> &", metadata !"ulong"}
!79 = metadata !{null, metadata !1, metadata !2, metadata !80, metadata !4, metadata !21, metadata !6}
!80 = metadata !{metadata !"kernel_arg_type", metadata !"ulong"}
!81 = metadata !{null, metadata !47, metadata !48, metadata !82, metadata !50, metadata !66, metadata !6}
!82 = metadata !{metadata !"kernel_arg_type", metadata !"const ap_int_base<64, true> &", metadata !"const ap_int_base<64, false> &"}
!83 = metadata !{null, metadata !1, metadata !2, metadata !84, metadata !4, metadata !21, metadata !6}
!84 = metadata !{metadata !"kernel_arg_type", metadata !"const ap_int_base<64, false> &"}
!85 = metadata !{null, metadata !47, metadata !48, metadata !86, metadata !50, metadata !66, metadata !6}
!86 = metadata !{metadata !"kernel_arg_type", metadata !"const ap_int_base<64, true> &", metadata !"int"}
!87 = metadata !{null, metadata !47, metadata !48, metadata !88, metadata !50, metadata !61, metadata !6}
!88 = metadata !{metadata !"kernel_arg_type", metadata !"const ap_int_base<64, true> &", metadata !"uint"}
!89 = metadata !{null, metadata !1, metadata !2, metadata !90, metadata !4, metadata !21, metadata !6}
!90 = metadata !{metadata !"kernel_arg_type", metadata !"uint"}
!91 = metadata !{null, metadata !47, metadata !48, metadata !92, metadata !50, metadata !66, metadata !6}
!92 = metadata !{metadata !"kernel_arg_type", metadata !"const ap_int_base<64, true> &", metadata !"const ap_int_base<32, false> &"}
!93 = metadata !{null, metadata !1, metadata !2, metadata !94, metadata !4, metadata !21, metadata !6}
!94 = metadata !{metadata !"kernel_arg_type", metadata !"const ap_int_base<32, false> &"}
!95 = metadata !{null, metadata !1, metadata !2, metadata !96, metadata !4, metadata !21, metadata !6}
!96 = metadata !{metadata !"kernel_arg_type", metadata !"const ap_int_base<33, true> &"}
!97 = metadata !{null, metadata !47, metadata !48, metadata !98, metadata !50, metadata !66, metadata !6}
!98 = metadata !{metadata !"kernel_arg_type", metadata !"const ap_int_base<32, true> &", metadata !"const ap_int_base<33, true> &"}
!99 = metadata !{null, metadata !1, metadata !2, metadata !100, metadata !4, metadata !21, metadata !6}
!100 = metadata !{metadata !"kernel_arg_type", metadata !"const ap_int_base<32, true> &"}
!101 = metadata !{null, metadata !47, metadata !48, metadata !102, metadata !50, metadata !66, metadata !6}
!102 = metadata !{metadata !"kernel_arg_type", metadata !"const ap_int_base<33, true> &", metadata !"int"}
!103 = metadata !{null, metadata !47, metadata !48, metadata !104, metadata !50, metadata !61, metadata !6}
!104 = metadata !{metadata !"kernel_arg_type", metadata !"const ap_int_base<32, true> &", metadata !"uint"}
!105 = metadata !{null, metadata !47, metadata !48, metadata !106, metadata !50, metadata !66, metadata !6}
!106 = metadata !{metadata !"kernel_arg_type", metadata !"const ap_int_base<32, true> &", metadata !"const ap_int_base<32, false> &"}
!107 = metadata !{null, metadata !47, metadata !48, metadata !108, metadata !50, metadata !66, metadata !6}
!108 = metadata !{metadata !"kernel_arg_type", metadata !"const ap_int_base<32, true> &", metadata !"int"}
!109 = metadata !{null, metadata !47, metadata !48, metadata !110, metadata !50, metadata !66, metadata !6}
!110 = metadata !{metadata !"kernel_arg_type", metadata !"const ap_int_base<32, true> &", metadata !"const ap_int_base<32, true> &"}
!111 = metadata !{null, metadata !47, metadata !48, metadata !108, metadata !50, metadata !61, metadata !6}
!112 = metadata !{null, metadata !1, metadata !2, metadata !38, metadata !4, metadata !21, metadata !6}
!113 = metadata !{null, metadata !1, metadata !2, metadata !114, metadata !4, metadata !115, metadata !6}
!114 = metadata !{metadata !"kernel_arg_type", metadata !"const struct ap_axis_in &"}
!115 = metadata !{metadata !"kernel_arg_name", metadata !""}
!116 = metadata !{metadata !117, [0 x i32]* @llvm_global_ctors_0}
!117 = metadata !{metadata !118}
!118 = metadata !{i32 0, i32 31, metadata !119}
!119 = metadata !{metadata !120}
!120 = metadata !{metadata !"llvm.global_ctors.0", metadata !121, metadata !"", i32 0, i32 31}
!121 = metadata !{metadata !122}
!122 = metadata !{i32 0, i32 0, i32 1}
!123 = metadata !{i32 786688, metadata !124, metadata !"__Val2__", metadata !127, i32 941, metadata !365, i32 0, i32 0} ; [ DW_TAG_auto_variable ]
!124 = metadata !{i32 786443, metadata !125, i32 941, i32 14, metadata !127, i32 21} ; [ DW_TAG_lexical_block ]
!125 = metadata !{i32 786443, metadata !126, i32 939, i32 85, metadata !127, i32 20} ; [ DW_TAG_lexical_block ]
!126 = metadata !{i32 786478, i32 0, null, metadata !"operator ap_int_base", metadata !"operator ap_int_base", metadata !"_ZNK12ap_range_refILi64ELb1EEcv11ap_int_baseILi64ELb0ELb1EEEv", metadata !127, i32 939, metadata !128, i1 false, i1 true, i32 0, i32 0, null, i32 256, i1 false, null, null, metadata !592, metadata !142, i32 939} ; [ DW_TAG_subprogram ]
!127 = metadata !{i32 786473, metadata !"/cad1/Xilinx/Vivado/2018.1/common/technology/autopilot/ap_int_syn.h", metadata !"/nfs/ug/thesis/thesis0/pc/Quinn/galapagos", null} ; [ DW_TAG_file_type ]
!128 = metadata !{i32 786453, i32 0, metadata !"", i32 0, i32 0, i64 0, i64 0, i64 0, i32 0, null, metadata !129, i32 0, i32 0} ; [ DW_TAG_subroutine_type ]
!129 = metadata !{metadata !130, metadata !596}
!130 = metadata !{i32 786434, null, metadata !"ap_int_base<64, false, true>", metadata !127, i32 1453, i64 64, i64 64, i32 0, i32 0, null, metadata !131, i32 0, null, metadata !786} ; [ DW_TAG_class_type ]
!131 = metadata !{metadata !132, metadata !149, metadata !153, metadata !156, metadata !160, metadata !164, metadata !168, metadata !172, metadata !175, metadata !179, metadata !183, metadata !187, metadata !192, metadata !197, metadata !202, metadata !206, metadata !210, metadata !216, metadata !219, metadata !224, metadata !229, metadata !234, metadata !235, metadata !239, metadata !242, metadata !245, metadata !248, metadata !251, metadata !254, metadata !257, metadata !260, metadata !263, metadata !266, metadata !269, metadata !272, metadata !282, metadata !285, metadata !288, metadata !291, metadata !294, metadata !297, metadata !300, metadata !303, metadata !306, metadata !309, metadata !312, metadata !315, metadata !318, metadata !319, metadata !323, metadata !326, metadata !327, metadata !328, metadata !329, metadata !330, metadata !331, metadata !334, metadata !335, metadata !338, metadata !339, metadata !340, metadata !341, metadata !342, metadata !343, metadata !346, metadata !347, metadata !348, metadata !351, metadata !352, metadata !355, metadata !356, metadata !687, metadata !751, metadata !752, metadata !755, metadata !756, metadata !760, metadata !761, metadata !762, metadata !763, metadata !766, metadata !767, metadata !768, metadata !769, metadata !770, metadata !771, metadata !772, metadata !773, metadata !774, metadata !775, metadata !776, metadata !777, metadata !780, metadata !783}
!132 = metadata !{i32 786460, metadata !130, null, metadata !127, i32 0, i64 0, i64 0, i64 0, i32 0, metadata !133} ; [ DW_TAG_inheritance ]
!133 = metadata !{i32 786434, null, metadata !"ssdm_int<64 + 1024 * 0, false>", metadata !134, i32 68, i64 64, i64 64, i32 0, i32 0, null, metadata !135, i32 0, null, metadata !144} ; [ DW_TAG_class_type ]
!134 = metadata !{i32 786473, metadata !"/cad1/Xilinx/Vivado/2018.1/common/technology/autopilot/etc/autopilot_dt.def", metadata !"/nfs/ug/thesis/thesis0/pc/Quinn/galapagos", null} ; [ DW_TAG_file_type ]
!135 = metadata !{metadata !136, metadata !138}
!136 = metadata !{i32 786445, metadata !133, metadata !"V", metadata !134, i32 68, i64 64, i64 64, i64 0, i32 0, metadata !137} ; [ DW_TAG_member ]
!137 = metadata !{i32 786468, null, metadata !"uint64", null, i32 0, i64 64, i64 64, i64 0, i32 0, i32 7} ; [ DW_TAG_base_type ]
!138 = metadata !{i32 786478, i32 0, metadata !133, metadata !"ssdm_int", metadata !"ssdm_int", metadata !"", metadata !134, i32 68, metadata !139, i1 false, i1 false, i32 0, i32 0, null, i32 256, i1 false, null, null, i32 0, metadata !142, i32 68} ; [ DW_TAG_subprogram ]
!139 = metadata !{i32 786453, i32 0, metadata !"", i32 0, i32 0, i64 0, i64 0, i64 0, i32 0, null, metadata !140, i32 0, i32 0} ; [ DW_TAG_subroutine_type ]
!140 = metadata !{null, metadata !141}
!141 = metadata !{i32 786447, i32 0, metadata !"", i32 0, i32 0, i64 64, i64 64, i64 0, i32 64, metadata !133} ; [ DW_TAG_pointer_type ]
!142 = metadata !{metadata !143}
!143 = metadata !{i32 786468}                     ; [ DW_TAG_base_type ]
!144 = metadata !{metadata !145, metadata !147}
!145 = metadata !{i32 786480, null, metadata !"_AP_N", metadata !146, i64 64, null, i32 0, i32 0} ; [ DW_TAG_template_value_parameter ]
!146 = metadata !{i32 786468, null, metadata !"int", null, i32 0, i64 32, i64 32, i64 0, i32 0, i32 5} ; [ DW_TAG_base_type ]
!147 = metadata !{i32 786480, null, metadata !"_AP_S", metadata !148, i64 0, null, i32 0, i32 0} ; [ DW_TAG_template_value_parameter ]
!148 = metadata !{i32 786468, null, metadata !"bool", null, i32 0, i64 8, i64 8, i64 0, i32 0, i32 2} ; [ DW_TAG_base_type ]
!149 = metadata !{i32 786478, i32 0, metadata !130, metadata !"ap_int_base", metadata !"ap_int_base", metadata !"", metadata !127, i32 1494, metadata !150, i1 false, i1 false, i32 0, i32 0, null, i32 256, i1 false, null, null, i32 0, metadata !142, i32 1494} ; [ DW_TAG_subprogram ]
!150 = metadata !{i32 786453, i32 0, metadata !"", i32 0, i32 0, i64 0, i64 0, i64 0, i32 0, null, metadata !151, i32 0, i32 0} ; [ DW_TAG_subroutine_type ]
!151 = metadata !{null, metadata !152}
!152 = metadata !{i32 786447, i32 0, metadata !"", i32 0, i32 0, i64 64, i64 64, i64 0, i32 64, metadata !130} ; [ DW_TAG_pointer_type ]
!153 = metadata !{i32 786478, i32 0, metadata !130, metadata !"ap_int_base", metadata !"ap_int_base", metadata !"", metadata !127, i32 1516, metadata !154, i1 false, i1 false, i32 0, i32 0, null, i32 384, i1 false, null, null, i32 0, metadata !142, i32 1516} ; [ DW_TAG_subprogram ]
!154 = metadata !{i32 786453, i32 0, metadata !"", i32 0, i32 0, i64 0, i64 0, i64 0, i32 0, null, metadata !155, i32 0, i32 0} ; [ DW_TAG_subroutine_type ]
!155 = metadata !{null, metadata !152, metadata !148}
!156 = metadata !{i32 786478, i32 0, metadata !130, metadata !"ap_int_base", metadata !"ap_int_base", metadata !"", metadata !127, i32 1517, metadata !157, i1 false, i1 false, i32 0, i32 0, null, i32 384, i1 false, null, null, i32 0, metadata !142, i32 1517} ; [ DW_TAG_subprogram ]
!157 = metadata !{i32 786453, i32 0, metadata !"", i32 0, i32 0, i64 0, i64 0, i64 0, i32 0, null, metadata !158, i32 0, i32 0} ; [ DW_TAG_subroutine_type ]
!158 = metadata !{null, metadata !152, metadata !159}
!159 = metadata !{i32 786468, null, metadata !"signed char", null, i32 0, i64 8, i64 8, i64 0, i32 0, i32 6} ; [ DW_TAG_base_type ]
!160 = metadata !{i32 786478, i32 0, metadata !130, metadata !"ap_int_base", metadata !"ap_int_base", metadata !"", metadata !127, i32 1518, metadata !161, i1 false, i1 false, i32 0, i32 0, null, i32 384, i1 false, null, null, i32 0, metadata !142, i32 1518} ; [ DW_TAG_subprogram ]
!161 = metadata !{i32 786453, i32 0, metadata !"", i32 0, i32 0, i64 0, i64 0, i64 0, i32 0, null, metadata !162, i32 0, i32 0} ; [ DW_TAG_subroutine_type ]
!162 = metadata !{null, metadata !152, metadata !163}
!163 = metadata !{i32 786468, null, metadata !"unsigned char", null, i32 0, i64 8, i64 8, i64 0, i32 0, i32 8} ; [ DW_TAG_base_type ]
!164 = metadata !{i32 786478, i32 0, metadata !130, metadata !"ap_int_base", metadata !"ap_int_base", metadata !"", metadata !127, i32 1519, metadata !165, i1 false, i1 false, i32 0, i32 0, null, i32 384, i1 false, null, null, i32 0, metadata !142, i32 1519} ; [ DW_TAG_subprogram ]
!165 = metadata !{i32 786453, i32 0, metadata !"", i32 0, i32 0, i64 0, i64 0, i64 0, i32 0, null, metadata !166, i32 0, i32 0} ; [ DW_TAG_subroutine_type ]
!166 = metadata !{null, metadata !152, metadata !167}
!167 = metadata !{i32 786468, null, metadata !"short", null, i32 0, i64 16, i64 16, i64 0, i32 0, i32 5} ; [ DW_TAG_base_type ]
!168 = metadata !{i32 786478, i32 0, metadata !130, metadata !"ap_int_base", metadata !"ap_int_base", metadata !"", metadata !127, i32 1520, metadata !169, i1 false, i1 false, i32 0, i32 0, null, i32 384, i1 false, null, null, i32 0, metadata !142, i32 1520} ; [ DW_TAG_subprogram ]
!169 = metadata !{i32 786453, i32 0, metadata !"", i32 0, i32 0, i64 0, i64 0, i64 0, i32 0, null, metadata !170, i32 0, i32 0} ; [ DW_TAG_subroutine_type ]
!170 = metadata !{null, metadata !152, metadata !171}
!171 = metadata !{i32 786468, null, metadata !"unsigned short", null, i32 0, i64 16, i64 16, i64 0, i32 0, i32 7} ; [ DW_TAG_base_type ]
!172 = metadata !{i32 786478, i32 0, metadata !130, metadata !"ap_int_base", metadata !"ap_int_base", metadata !"", metadata !127, i32 1521, metadata !173, i1 false, i1 false, i32 0, i32 0, null, i32 384, i1 false, null, null, i32 0, metadata !142, i32 1521} ; [ DW_TAG_subprogram ]
!173 = metadata !{i32 786453, i32 0, metadata !"", i32 0, i32 0, i64 0, i64 0, i64 0, i32 0, null, metadata !174, i32 0, i32 0} ; [ DW_TAG_subroutine_type ]
!174 = metadata !{null, metadata !152, metadata !146}
!175 = metadata !{i32 786478, i32 0, metadata !130, metadata !"ap_int_base", metadata !"ap_int_base", metadata !"", metadata !127, i32 1522, metadata !176, i1 false, i1 false, i32 0, i32 0, null, i32 384, i1 false, null, null, i32 0, metadata !142, i32 1522} ; [ DW_TAG_subprogram ]
!176 = metadata !{i32 786453, i32 0, metadata !"", i32 0, i32 0, i64 0, i64 0, i64 0, i32 0, null, metadata !177, i32 0, i32 0} ; [ DW_TAG_subroutine_type ]
!177 = metadata !{null, metadata !152, metadata !178}
!178 = metadata !{i32 786468, null, metadata !"unsigned int", null, i32 0, i64 32, i64 32, i64 0, i32 0, i32 7} ; [ DW_TAG_base_type ]
!179 = metadata !{i32 786478, i32 0, metadata !130, metadata !"ap_int_base", metadata !"ap_int_base", metadata !"", metadata !127, i32 1523, metadata !180, i1 false, i1 false, i32 0, i32 0, null, i32 384, i1 false, null, null, i32 0, metadata !142, i32 1523} ; [ DW_TAG_subprogram ]
!180 = metadata !{i32 786453, i32 0, metadata !"", i32 0, i32 0, i64 0, i64 0, i64 0, i32 0, null, metadata !181, i32 0, i32 0} ; [ DW_TAG_subroutine_type ]
!181 = metadata !{null, metadata !152, metadata !182}
!182 = metadata !{i32 786468, null, metadata !"long int", null, i32 0, i64 64, i64 64, i64 0, i32 0, i32 5} ; [ DW_TAG_base_type ]
!183 = metadata !{i32 786478, i32 0, metadata !130, metadata !"ap_int_base", metadata !"ap_int_base", metadata !"", metadata !127, i32 1524, metadata !184, i1 false, i1 false, i32 0, i32 0, null, i32 384, i1 false, null, null, i32 0, metadata !142, i32 1524} ; [ DW_TAG_subprogram ]
!184 = metadata !{i32 786453, i32 0, metadata !"", i32 0, i32 0, i64 0, i64 0, i64 0, i32 0, null, metadata !185, i32 0, i32 0} ; [ DW_TAG_subroutine_type ]
!185 = metadata !{null, metadata !152, metadata !186}
!186 = metadata !{i32 786468, null, metadata !"long unsigned int", null, i32 0, i64 64, i64 64, i64 0, i32 0, i32 7} ; [ DW_TAG_base_type ]
!187 = metadata !{i32 786478, i32 0, metadata !130, metadata !"ap_int_base", metadata !"ap_int_base", metadata !"", metadata !127, i32 1525, metadata !188, i1 false, i1 false, i32 0, i32 0, null, i32 384, i1 false, null, null, i32 0, metadata !142, i32 1525} ; [ DW_TAG_subprogram ]
!188 = metadata !{i32 786453, i32 0, metadata !"", i32 0, i32 0, i64 0, i64 0, i64 0, i32 0, null, metadata !189, i32 0, i32 0} ; [ DW_TAG_subroutine_type ]
!189 = metadata !{null, metadata !152, metadata !190}
!190 = metadata !{i32 786454, null, metadata !"ap_slong", metadata !127, i32 112, i64 0, i64 0, i64 0, i32 0, metadata !191} ; [ DW_TAG_typedef ]
!191 = metadata !{i32 786468, null, metadata !"long long int", null, i32 0, i64 64, i64 64, i64 0, i32 0, i32 5} ; [ DW_TAG_base_type ]
!192 = metadata !{i32 786478, i32 0, metadata !130, metadata !"ap_int_base", metadata !"ap_int_base", metadata !"", metadata !127, i32 1526, metadata !193, i1 false, i1 false, i32 0, i32 0, null, i32 384, i1 false, null, null, i32 0, metadata !142, i32 1526} ; [ DW_TAG_subprogram ]
!193 = metadata !{i32 786453, i32 0, metadata !"", i32 0, i32 0, i64 0, i64 0, i64 0, i32 0, null, metadata !194, i32 0, i32 0} ; [ DW_TAG_subroutine_type ]
!194 = metadata !{null, metadata !152, metadata !195}
!195 = metadata !{i32 786454, null, metadata !"ap_ulong", metadata !127, i32 111, i64 0, i64 0, i64 0, i32 0, metadata !196} ; [ DW_TAG_typedef ]
!196 = metadata !{i32 786468, null, metadata !"long long unsigned int", null, i32 0, i64 64, i64 64, i64 0, i32 0, i32 7} ; [ DW_TAG_base_type ]
!197 = metadata !{i32 786478, i32 0, metadata !130, metadata !"ap_int_base", metadata !"ap_int_base", metadata !"", metadata !127, i32 1527, metadata !198, i1 false, i1 false, i32 0, i32 0, null, i32 384, i1 false, null, null, i32 0, metadata !142, i32 1527} ; [ DW_TAG_subprogram ]
!198 = metadata !{i32 786453, i32 0, metadata !"", i32 0, i32 0, i64 0, i64 0, i64 0, i32 0, null, metadata !199, i32 0, i32 0} ; [ DW_TAG_subroutine_type ]
!199 = metadata !{null, metadata !152, metadata !200}
!200 = metadata !{i32 786454, null, metadata !"half", metadata !127, i32 54, i64 0, i64 0, i64 0, i32 0, metadata !201} ; [ DW_TAG_typedef ]
!201 = metadata !{i32 786468, null, metadata !"half", null, i32 0, i64 16, i64 16, i64 0, i32 0, i32 4} ; [ DW_TAG_base_type ]
!202 = metadata !{i32 786478, i32 0, metadata !130, metadata !"ap_int_base", metadata !"ap_int_base", metadata !"", metadata !127, i32 1528, metadata !203, i1 false, i1 false, i32 0, i32 0, null, i32 384, i1 false, null, null, i32 0, metadata !142, i32 1528} ; [ DW_TAG_subprogram ]
!203 = metadata !{i32 786453, i32 0, metadata !"", i32 0, i32 0, i64 0, i64 0, i64 0, i32 0, null, metadata !204, i32 0, i32 0} ; [ DW_TAG_subroutine_type ]
!204 = metadata !{null, metadata !152, metadata !205}
!205 = metadata !{i32 786468, null, metadata !"float", null, i32 0, i64 32, i64 32, i64 0, i32 0, i32 4} ; [ DW_TAG_base_type ]
!206 = metadata !{i32 786478, i32 0, metadata !130, metadata !"ap_int_base", metadata !"ap_int_base", metadata !"", metadata !127, i32 1529, metadata !207, i1 false, i1 false, i32 0, i32 0, null, i32 384, i1 false, null, null, i32 0, metadata !142, i32 1529} ; [ DW_TAG_subprogram ]
!207 = metadata !{i32 786453, i32 0, metadata !"", i32 0, i32 0, i64 0, i64 0, i64 0, i32 0, null, metadata !208, i32 0, i32 0} ; [ DW_TAG_subroutine_type ]
!208 = metadata !{null, metadata !152, metadata !209}
!209 = metadata !{i32 786468, null, metadata !"double", null, i32 0, i64 64, i64 64, i64 0, i32 0, i32 4} ; [ DW_TAG_base_type ]
!210 = metadata !{i32 786478, i32 0, metadata !130, metadata !"ap_int_base", metadata !"ap_int_base", metadata !"", metadata !127, i32 1556, metadata !211, i1 false, i1 false, i32 0, i32 0, null, i32 256, i1 false, null, null, i32 0, metadata !142, i32 1556} ; [ DW_TAG_subprogram ]
!211 = metadata !{i32 786453, i32 0, metadata !"", i32 0, i32 0, i64 0, i64 0, i64 0, i32 0, null, metadata !212, i32 0, i32 0} ; [ DW_TAG_subroutine_type ]
!212 = metadata !{null, metadata !152, metadata !213}
!213 = metadata !{i32 786447, null, metadata !"", null, i32 0, i64 64, i64 64, i64 0, i32 0, metadata !214} ; [ DW_TAG_pointer_type ]
!214 = metadata !{i32 786470, null, metadata !"", null, i32 0, i64 0, i64 0, i64 0, i32 0, metadata !215} ; [ DW_TAG_const_type ]
!215 = metadata !{i32 786468, null, metadata !"char", null, i32 0, i64 8, i64 8, i64 0, i32 0, i32 6} ; [ DW_TAG_base_type ]
!216 = metadata !{i32 786478, i32 0, metadata !130, metadata !"ap_int_base", metadata !"ap_int_base", metadata !"", metadata !127, i32 1563, metadata !217, i1 false, i1 false, i32 0, i32 0, null, i32 256, i1 false, null, null, i32 0, metadata !142, i32 1563} ; [ DW_TAG_subprogram ]
!217 = metadata !{i32 786453, i32 0, metadata !"", i32 0, i32 0, i64 0, i64 0, i64 0, i32 0, null, metadata !218, i32 0, i32 0} ; [ DW_TAG_subroutine_type ]
!218 = metadata !{null, metadata !152, metadata !213, metadata !159}
!219 = metadata !{i32 786478, i32 0, metadata !130, metadata !"read", metadata !"read", metadata !"_ZNV11ap_int_baseILi64ELb0ELb1EE4readEv", metadata !127, i32 1584, metadata !220, i1 false, i1 false, i32 0, i32 0, null, i32 256, i1 false, null, null, i32 0, metadata !142, i32 1584} ; [ DW_TAG_subprogram ]
!220 = metadata !{i32 786453, i32 0, metadata !"", i32 0, i32 0, i64 0, i64 0, i64 0, i32 0, null, metadata !221, i32 0, i32 0} ; [ DW_TAG_subroutine_type ]
!221 = metadata !{metadata !130, metadata !222}
!222 = metadata !{i32 786447, i32 0, metadata !"", i32 0, i32 0, i64 64, i64 64, i64 0, i32 64, metadata !223} ; [ DW_TAG_pointer_type ]
!223 = metadata !{i32 786485, null, metadata !"", null, i32 0, i64 0, i64 0, i64 0, i32 0, metadata !130} ; [ DW_TAG_volatile_type ]
!224 = metadata !{i32 786478, i32 0, metadata !130, metadata !"write", metadata !"write", metadata !"_ZNV11ap_int_baseILi64ELb0ELb1EE5writeERKS0_", metadata !127, i32 1590, metadata !225, i1 false, i1 false, i32 0, i32 0, null, i32 256, i1 false, null, null, i32 0, metadata !142, i32 1590} ; [ DW_TAG_subprogram ]
!225 = metadata !{i32 786453, i32 0, metadata !"", i32 0, i32 0, i64 0, i64 0, i64 0, i32 0, null, metadata !226, i32 0, i32 0} ; [ DW_TAG_subroutine_type ]
!226 = metadata !{null, metadata !222, metadata !227}
!227 = metadata !{i32 786448, null, null, null, i32 0, i64 0, i64 0, i64 0, i32 0, metadata !228} ; [ DW_TAG_reference_type ]
!228 = metadata !{i32 786470, null, metadata !"", null, i32 0, i64 0, i64 0, i64 0, i32 0, metadata !130} ; [ DW_TAG_const_type ]
!229 = metadata !{i32 786478, i32 0, metadata !130, metadata !"operator=", metadata !"operator=", metadata !"_ZNV11ap_int_baseILi64ELb0ELb1EEaSERVKS0_", metadata !127, i32 1602, metadata !230, i1 false, i1 false, i32 0, i32 0, null, i32 256, i1 false, null, null, i32 0, metadata !142, i32 1602} ; [ DW_TAG_subprogram ]
!230 = metadata !{i32 786453, i32 0, metadata !"", i32 0, i32 0, i64 0, i64 0, i64 0, i32 0, null, metadata !231, i32 0, i32 0} ; [ DW_TAG_subroutine_type ]
!231 = metadata !{null, metadata !222, metadata !232}
!232 = metadata !{i32 786448, null, null, null, i32 0, i64 0, i64 0, i64 0, i32 0, metadata !233} ; [ DW_TAG_reference_type ]
!233 = metadata !{i32 786470, null, metadata !"", null, i32 0, i64 0, i64 0, i64 0, i32 0, metadata !223} ; [ DW_TAG_const_type ]
!234 = metadata !{i32 786478, i32 0, metadata !130, metadata !"operator=", metadata !"operator=", metadata !"_ZNV11ap_int_baseILi64ELb0ELb1EEaSERKS0_", metadata !127, i32 1611, metadata !225, i1 false, i1 false, i32 0, i32 0, null, i32 256, i1 false, null, null, i32 0, metadata !142, i32 1611} ; [ DW_TAG_subprogram ]
!235 = metadata !{i32 786478, i32 0, metadata !130, metadata !"operator=", metadata !"operator=", metadata !"_ZN11ap_int_baseILi64ELb0ELb1EEaSERVKS0_", metadata !127, i32 1634, metadata !236, i1 false, i1 false, i32 0, i32 0, null, i32 256, i1 false, null, null, i32 0, metadata !142, i32 1634} ; [ DW_TAG_subprogram ]
!236 = metadata !{i32 786453, i32 0, metadata !"", i32 0, i32 0, i64 0, i64 0, i64 0, i32 0, null, metadata !237, i32 0, i32 0} ; [ DW_TAG_subroutine_type ]
!237 = metadata !{metadata !238, metadata !152, metadata !232}
!238 = metadata !{i32 786448, null, null, null, i32 0, i64 0, i64 0, i64 0, i32 0, metadata !130} ; [ DW_TAG_reference_type ]
!239 = metadata !{i32 786478, i32 0, metadata !130, metadata !"operator=", metadata !"operator=", metadata !"_ZN11ap_int_baseILi64ELb0ELb1EEaSERKS0_", metadata !127, i32 1639, metadata !240, i1 false, i1 false, i32 0, i32 0, null, i32 256, i1 false, null, null, i32 0, metadata !142, i32 1639} ; [ DW_TAG_subprogram ]
!240 = metadata !{i32 786453, i32 0, metadata !"", i32 0, i32 0, i64 0, i64 0, i64 0, i32 0, null, metadata !241, i32 0, i32 0} ; [ DW_TAG_subroutine_type ]
!241 = metadata !{metadata !238, metadata !152, metadata !227}
!242 = metadata !{i32 786478, i32 0, metadata !130, metadata !"operator=", metadata !"operator=", metadata !"_ZN11ap_int_baseILi64ELb0ELb1EEaSEPKc", metadata !127, i32 1643, metadata !243, i1 false, i1 false, i32 0, i32 0, null, i32 256, i1 false, null, null, i32 0, metadata !142, i32 1643} ; [ DW_TAG_subprogram ]
!243 = metadata !{i32 786453, i32 0, metadata !"", i32 0, i32 0, i64 0, i64 0, i64 0, i32 0, null, metadata !244, i32 0, i32 0} ; [ DW_TAG_subroutine_type ]
!244 = metadata !{metadata !238, metadata !152, metadata !213}
!245 = metadata !{i32 786478, i32 0, metadata !130, metadata !"set", metadata !"set", metadata !"_ZN11ap_int_baseILi64ELb0ELb1EE3setEPKca", metadata !127, i32 1651, metadata !246, i1 false, i1 false, i32 0, i32 0, null, i32 256, i1 false, null, null, i32 0, metadata !142, i32 1651} ; [ DW_TAG_subprogram ]
!246 = metadata !{i32 786453, i32 0, metadata !"", i32 0, i32 0, i64 0, i64 0, i64 0, i32 0, null, metadata !247, i32 0, i32 0} ; [ DW_TAG_subroutine_type ]
!247 = metadata !{metadata !238, metadata !152, metadata !213, metadata !159}
!248 = metadata !{i32 786478, i32 0, metadata !130, metadata !"operator=", metadata !"operator=", metadata !"_ZN11ap_int_baseILi64ELb0ELb1EEaSEa", metadata !127, i32 1665, metadata !249, i1 false, i1 false, i32 0, i32 0, null, i32 256, i1 false, null, null, i32 0, metadata !142, i32 1665} ; [ DW_TAG_subprogram ]
!249 = metadata !{i32 786453, i32 0, metadata !"", i32 0, i32 0, i64 0, i64 0, i64 0, i32 0, null, metadata !250, i32 0, i32 0} ; [ DW_TAG_subroutine_type ]
!250 = metadata !{metadata !238, metadata !152, metadata !159}
!251 = metadata !{i32 786478, i32 0, metadata !130, metadata !"operator=", metadata !"operator=", metadata !"_ZN11ap_int_baseILi64ELb0ELb1EEaSEh", metadata !127, i32 1666, metadata !252, i1 false, i1 false, i32 0, i32 0, null, i32 256, i1 false, null, null, i32 0, metadata !142, i32 1666} ; [ DW_TAG_subprogram ]
!252 = metadata !{i32 786453, i32 0, metadata !"", i32 0, i32 0, i64 0, i64 0, i64 0, i32 0, null, metadata !253, i32 0, i32 0} ; [ DW_TAG_subroutine_type ]
!253 = metadata !{metadata !238, metadata !152, metadata !163}
!254 = metadata !{i32 786478, i32 0, metadata !130, metadata !"operator=", metadata !"operator=", metadata !"_ZN11ap_int_baseILi64ELb0ELb1EEaSEs", metadata !127, i32 1667, metadata !255, i1 false, i1 false, i32 0, i32 0, null, i32 256, i1 false, null, null, i32 0, metadata !142, i32 1667} ; [ DW_TAG_subprogram ]
!255 = metadata !{i32 786453, i32 0, metadata !"", i32 0, i32 0, i64 0, i64 0, i64 0, i32 0, null, metadata !256, i32 0, i32 0} ; [ DW_TAG_subroutine_type ]
!256 = metadata !{metadata !238, metadata !152, metadata !167}
!257 = metadata !{i32 786478, i32 0, metadata !130, metadata !"operator=", metadata !"operator=", metadata !"_ZN11ap_int_baseILi64ELb0ELb1EEaSEt", metadata !127, i32 1668, metadata !258, i1 false, i1 false, i32 0, i32 0, null, i32 256, i1 false, null, null, i32 0, metadata !142, i32 1668} ; [ DW_TAG_subprogram ]
!258 = metadata !{i32 786453, i32 0, metadata !"", i32 0, i32 0, i64 0, i64 0, i64 0, i32 0, null, metadata !259, i32 0, i32 0} ; [ DW_TAG_subroutine_type ]
!259 = metadata !{metadata !238, metadata !152, metadata !171}
!260 = metadata !{i32 786478, i32 0, metadata !130, metadata !"operator=", metadata !"operator=", metadata !"_ZN11ap_int_baseILi64ELb0ELb1EEaSEi", metadata !127, i32 1669, metadata !261, i1 false, i1 false, i32 0, i32 0, null, i32 256, i1 false, null, null, i32 0, metadata !142, i32 1669} ; [ DW_TAG_subprogram ]
!261 = metadata !{i32 786453, i32 0, metadata !"", i32 0, i32 0, i64 0, i64 0, i64 0, i32 0, null, metadata !262, i32 0, i32 0} ; [ DW_TAG_subroutine_type ]
!262 = metadata !{metadata !238, metadata !152, metadata !146}
!263 = metadata !{i32 786478, i32 0, metadata !130, metadata !"operator=", metadata !"operator=", metadata !"_ZN11ap_int_baseILi64ELb0ELb1EEaSEj", metadata !127, i32 1670, metadata !264, i1 false, i1 false, i32 0, i32 0, null, i32 256, i1 false, null, null, i32 0, metadata !142, i32 1670} ; [ DW_TAG_subprogram ]
!264 = metadata !{i32 786453, i32 0, metadata !"", i32 0, i32 0, i64 0, i64 0, i64 0, i32 0, null, metadata !265, i32 0, i32 0} ; [ DW_TAG_subroutine_type ]
!265 = metadata !{metadata !238, metadata !152, metadata !178}
!266 = metadata !{i32 786478, i32 0, metadata !130, metadata !"operator=", metadata !"operator=", metadata !"_ZN11ap_int_baseILi64ELb0ELb1EEaSEx", metadata !127, i32 1671, metadata !267, i1 false, i1 false, i32 0, i32 0, null, i32 256, i1 false, null, null, i32 0, metadata !142, i32 1671} ; [ DW_TAG_subprogram ]
!267 = metadata !{i32 786453, i32 0, metadata !"", i32 0, i32 0, i64 0, i64 0, i64 0, i32 0, null, metadata !268, i32 0, i32 0} ; [ DW_TAG_subroutine_type ]
!268 = metadata !{metadata !238, metadata !152, metadata !190}
!269 = metadata !{i32 786478, i32 0, metadata !130, metadata !"operator=", metadata !"operator=", metadata !"_ZN11ap_int_baseILi64ELb0ELb1EEaSEy", metadata !127, i32 1672, metadata !270, i1 false, i1 false, i32 0, i32 0, null, i32 256, i1 false, null, null, i32 0, metadata !142, i32 1672} ; [ DW_TAG_subprogram ]
!270 = metadata !{i32 786453, i32 0, metadata !"", i32 0, i32 0, i64 0, i64 0, i64 0, i32 0, null, metadata !271, i32 0, i32 0} ; [ DW_TAG_subroutine_type ]
!271 = metadata !{metadata !238, metadata !152, metadata !195}
!272 = metadata !{i32 786478, i32 0, metadata !130, metadata !"operator unsigned long long", metadata !"operator unsigned long long", metadata !"_ZNK11ap_int_baseILi64ELb0ELb1EEcvyEv", metadata !127, i32 1710, metadata !273, i1 false, i1 false, i32 0, i32 0, null, i32 256, i1 false, null, null, i32 0, metadata !142, i32 1710} ; [ DW_TAG_subprogram ]
!273 = metadata !{i32 786453, i32 0, metadata !"", i32 0, i32 0, i64 0, i64 0, i64 0, i32 0, null, metadata !274, i32 0, i32 0} ; [ DW_TAG_subroutine_type ]
!274 = metadata !{metadata !275, metadata !281}
!275 = metadata !{i32 786454, metadata !130, metadata !"RetType", metadata !127, i32 1458, i64 0, i64 0, i64 0, i32 0, metadata !276} ; [ DW_TAG_typedef ]
!276 = metadata !{i32 786454, metadata !277, metadata !"Type", metadata !127, i32 1419, i64 0, i64 0, i64 0, i32 0, metadata !195} ; [ DW_TAG_typedef ]
!277 = metadata !{i32 786434, null, metadata !"retval<8, false>", metadata !127, i32 1418, i64 8, i64 8, i32 0, i32 0, null, metadata !278, i32 0, null, metadata !279} ; [ DW_TAG_class_type ]
!278 = metadata !{i32 0}
!279 = metadata !{metadata !280, metadata !147}
!280 = metadata !{i32 786480, null, metadata !"_AP_N", metadata !146, i64 8, null, i32 0, i32 0} ; [ DW_TAG_template_value_parameter ]
!281 = metadata !{i32 786447, i32 0, metadata !"", i32 0, i32 0, i64 64, i64 64, i64 0, i32 64, metadata !228} ; [ DW_TAG_pointer_type ]
!282 = metadata !{i32 786478, i32 0, metadata !130, metadata !"to_bool", metadata !"to_bool", metadata !"_ZNK11ap_int_baseILi64ELb0ELb1EE7to_boolEv", metadata !127, i32 1716, metadata !283, i1 false, i1 false, i32 0, i32 0, null, i32 256, i1 false, null, null, i32 0, metadata !142, i32 1716} ; [ DW_TAG_subprogram ]
!283 = metadata !{i32 786453, i32 0, metadata !"", i32 0, i32 0, i64 0, i64 0, i64 0, i32 0, null, metadata !284, i32 0, i32 0} ; [ DW_TAG_subroutine_type ]
!284 = metadata !{metadata !148, metadata !281}
!285 = metadata !{i32 786478, i32 0, metadata !130, metadata !"to_uchar", metadata !"to_uchar", metadata !"_ZNK11ap_int_baseILi64ELb0ELb1EE8to_ucharEv", metadata !127, i32 1717, metadata !286, i1 false, i1 false, i32 0, i32 0, null, i32 256, i1 false, null, null, i32 0, metadata !142, i32 1717} ; [ DW_TAG_subprogram ]
!286 = metadata !{i32 786453, i32 0, metadata !"", i32 0, i32 0, i64 0, i64 0, i64 0, i32 0, null, metadata !287, i32 0, i32 0} ; [ DW_TAG_subroutine_type ]
!287 = metadata !{metadata !163, metadata !281}
!288 = metadata !{i32 786478, i32 0, metadata !130, metadata !"to_char", metadata !"to_char", metadata !"_ZNK11ap_int_baseILi64ELb0ELb1EE7to_charEv", metadata !127, i32 1718, metadata !289, i1 false, i1 false, i32 0, i32 0, null, i32 256, i1 false, null, null, i32 0, metadata !142, i32 1718} ; [ DW_TAG_subprogram ]
!289 = metadata !{i32 786453, i32 0, metadata !"", i32 0, i32 0, i64 0, i64 0, i64 0, i32 0, null, metadata !290, i32 0, i32 0} ; [ DW_TAG_subroutine_type ]
!290 = metadata !{metadata !159, metadata !281}
!291 = metadata !{i32 786478, i32 0, metadata !130, metadata !"to_ushort", metadata !"to_ushort", metadata !"_ZNK11ap_int_baseILi64ELb0ELb1EE9to_ushortEv", metadata !127, i32 1719, metadata !292, i1 false, i1 false, i32 0, i32 0, null, i32 256, i1 false, null, null, i32 0, metadata !142, i32 1719} ; [ DW_TAG_subprogram ]
!292 = metadata !{i32 786453, i32 0, metadata !"", i32 0, i32 0, i64 0, i64 0, i64 0, i32 0, null, metadata !293, i32 0, i32 0} ; [ DW_TAG_subroutine_type ]
!293 = metadata !{metadata !171, metadata !281}
!294 = metadata !{i32 786478, i32 0, metadata !130, metadata !"to_short", metadata !"to_short", metadata !"_ZNK11ap_int_baseILi64ELb0ELb1EE8to_shortEv", metadata !127, i32 1720, metadata !295, i1 false, i1 false, i32 0, i32 0, null, i32 256, i1 false, null, null, i32 0, metadata !142, i32 1720} ; [ DW_TAG_subprogram ]
!295 = metadata !{i32 786453, i32 0, metadata !"", i32 0, i32 0, i64 0, i64 0, i64 0, i32 0, null, metadata !296, i32 0, i32 0} ; [ DW_TAG_subroutine_type ]
!296 = metadata !{metadata !167, metadata !281}
!297 = metadata !{i32 786478, i32 0, metadata !130, metadata !"to_int", metadata !"to_int", metadata !"_ZNK11ap_int_baseILi64ELb0ELb1EE6to_intEv", metadata !127, i32 1721, metadata !298, i1 false, i1 false, i32 0, i32 0, null, i32 256, i1 false, null, null, i32 0, metadata !142, i32 1721} ; [ DW_TAG_subprogram ]
!298 = metadata !{i32 786453, i32 0, metadata !"", i32 0, i32 0, i64 0, i64 0, i64 0, i32 0, null, metadata !299, i32 0, i32 0} ; [ DW_TAG_subroutine_type ]
!299 = metadata !{metadata !146, metadata !281}
!300 = metadata !{i32 786478, i32 0, metadata !130, metadata !"to_uint", metadata !"to_uint", metadata !"_ZNK11ap_int_baseILi64ELb0ELb1EE7to_uintEv", metadata !127, i32 1722, metadata !301, i1 false, i1 false, i32 0, i32 0, null, i32 256, i1 false, null, null, i32 0, metadata !142, i32 1722} ; [ DW_TAG_subprogram ]
!301 = metadata !{i32 786453, i32 0, metadata !"", i32 0, i32 0, i64 0, i64 0, i64 0, i32 0, null, metadata !302, i32 0, i32 0} ; [ DW_TAG_subroutine_type ]
!302 = metadata !{metadata !178, metadata !281}
!303 = metadata !{i32 786478, i32 0, metadata !130, metadata !"to_long", metadata !"to_long", metadata !"_ZNK11ap_int_baseILi64ELb0ELb1EE7to_longEv", metadata !127, i32 1723, metadata !304, i1 false, i1 false, i32 0, i32 0, null, i32 256, i1 false, null, null, i32 0, metadata !142, i32 1723} ; [ DW_TAG_subprogram ]
!304 = metadata !{i32 786453, i32 0, metadata !"", i32 0, i32 0, i64 0, i64 0, i64 0, i32 0, null, metadata !305, i32 0, i32 0} ; [ DW_TAG_subroutine_type ]
!305 = metadata !{metadata !182, metadata !281}
!306 = metadata !{i32 786478, i32 0, metadata !130, metadata !"to_ulong", metadata !"to_ulong", metadata !"_ZNK11ap_int_baseILi64ELb0ELb1EE8to_ulongEv", metadata !127, i32 1724, metadata !307, i1 false, i1 false, i32 0, i32 0, null, i32 256, i1 false, null, null, i32 0, metadata !142, i32 1724} ; [ DW_TAG_subprogram ]
!307 = metadata !{i32 786453, i32 0, metadata !"", i32 0, i32 0, i64 0, i64 0, i64 0, i32 0, null, metadata !308, i32 0, i32 0} ; [ DW_TAG_subroutine_type ]
!308 = metadata !{metadata !186, metadata !281}
!309 = metadata !{i32 786478, i32 0, metadata !130, metadata !"to_int64", metadata !"to_int64", metadata !"_ZNK11ap_int_baseILi64ELb0ELb1EE8to_int64Ev", metadata !127, i32 1725, metadata !310, i1 false, i1 false, i32 0, i32 0, null, i32 256, i1 false, null, null, i32 0, metadata !142, i32 1725} ; [ DW_TAG_subprogram ]
!310 = metadata !{i32 786453, i32 0, metadata !"", i32 0, i32 0, i64 0, i64 0, i64 0, i32 0, null, metadata !311, i32 0, i32 0} ; [ DW_TAG_subroutine_type ]
!311 = metadata !{metadata !190, metadata !281}
!312 = metadata !{i32 786478, i32 0, metadata !130, metadata !"to_uint64", metadata !"to_uint64", metadata !"_ZNK11ap_int_baseILi64ELb0ELb1EE9to_uint64Ev", metadata !127, i32 1726, metadata !313, i1 false, i1 false, i32 0, i32 0, null, i32 256, i1 false, null, null, i32 0, metadata !142, i32 1726} ; [ DW_TAG_subprogram ]
!313 = metadata !{i32 786453, i32 0, metadata !"", i32 0, i32 0, i64 0, i64 0, i64 0, i32 0, null, metadata !314, i32 0, i32 0} ; [ DW_TAG_subroutine_type ]
!314 = metadata !{metadata !195, metadata !281}
!315 = metadata !{i32 786478, i32 0, metadata !130, metadata !"to_double", metadata !"to_double", metadata !"_ZNK11ap_int_baseILi64ELb0ELb1EE9to_doubleEv", metadata !127, i32 1727, metadata !316, i1 false, i1 false, i32 0, i32 0, null, i32 256, i1 false, null, null, i32 0, metadata !142, i32 1727} ; [ DW_TAG_subprogram ]
!316 = metadata !{i32 786453, i32 0, metadata !"", i32 0, i32 0, i64 0, i64 0, i64 0, i32 0, null, metadata !317, i32 0, i32 0} ; [ DW_TAG_subroutine_type ]
!317 = metadata !{metadata !209, metadata !281}
!318 = metadata !{i32 786478, i32 0, metadata !130, metadata !"length", metadata !"length", metadata !"_ZNK11ap_int_baseILi64ELb0ELb1EE6lengthEv", metadata !127, i32 1741, metadata !298, i1 false, i1 false, i32 0, i32 0, null, i32 256, i1 false, null, null, i32 0, metadata !142, i32 1741} ; [ DW_TAG_subprogram ]
!319 = metadata !{i32 786478, i32 0, metadata !130, metadata !"length", metadata !"length", metadata !"_ZNVK11ap_int_baseILi64ELb0ELb1EE6lengthEv", metadata !127, i32 1742, metadata !320, i1 false, i1 false, i32 0, i32 0, null, i32 256, i1 false, null, null, i32 0, metadata !142, i32 1742} ; [ DW_TAG_subprogram ]
!320 = metadata !{i32 786453, i32 0, metadata !"", i32 0, i32 0, i64 0, i64 0, i64 0, i32 0, null, metadata !321, i32 0, i32 0} ; [ DW_TAG_subroutine_type ]
!321 = metadata !{metadata !146, metadata !322}
!322 = metadata !{i32 786447, i32 0, metadata !"", i32 0, i32 0, i64 64, i64 64, i64 0, i32 64, metadata !233} ; [ DW_TAG_pointer_type ]
!323 = metadata !{i32 786478, i32 0, metadata !130, metadata !"reverse", metadata !"reverse", metadata !"_ZN11ap_int_baseILi64ELb0ELb1EE7reverseEv", metadata !127, i32 1747, metadata !324, i1 false, i1 false, i32 0, i32 0, null, i32 256, i1 false, null, null, i32 0, metadata !142, i32 1747} ; [ DW_TAG_subprogram ]
!324 = metadata !{i32 786453, i32 0, metadata !"", i32 0, i32 0, i64 0, i64 0, i64 0, i32 0, null, metadata !325, i32 0, i32 0} ; [ DW_TAG_subroutine_type ]
!325 = metadata !{metadata !238, metadata !152}
!326 = metadata !{i32 786478, i32 0, metadata !130, metadata !"iszero", metadata !"iszero", metadata !"_ZNK11ap_int_baseILi64ELb0ELb1EE6iszeroEv", metadata !127, i32 1753, metadata !283, i1 false, i1 false, i32 0, i32 0, null, i32 256, i1 false, null, null, i32 0, metadata !142, i32 1753} ; [ DW_TAG_subprogram ]
!327 = metadata !{i32 786478, i32 0, metadata !130, metadata !"is_zero", metadata !"is_zero", metadata !"_ZNK11ap_int_baseILi64ELb0ELb1EE7is_zeroEv", metadata !127, i32 1758, metadata !283, i1 false, i1 false, i32 0, i32 0, null, i32 256, i1 false, null, null, i32 0, metadata !142, i32 1758} ; [ DW_TAG_subprogram ]
!328 = metadata !{i32 786478, i32 0, metadata !130, metadata !"sign", metadata !"sign", metadata !"_ZNK11ap_int_baseILi64ELb0ELb1EE4signEv", metadata !127, i32 1763, metadata !283, i1 false, i1 false, i32 0, i32 0, null, i32 256, i1 false, null, null, i32 0, metadata !142, i32 1763} ; [ DW_TAG_subprogram ]
!329 = metadata !{i32 786478, i32 0, metadata !130, metadata !"clear", metadata !"clear", metadata !"_ZN11ap_int_baseILi64ELb0ELb1EE5clearEi", metadata !127, i32 1771, metadata !173, i1 false, i1 false, i32 0, i32 0, null, i32 256, i1 false, null, null, i32 0, metadata !142, i32 1771} ; [ DW_TAG_subprogram ]
!330 = metadata !{i32 786478, i32 0, metadata !130, metadata !"invert", metadata !"invert", metadata !"_ZN11ap_int_baseILi64ELb0ELb1EE6invertEi", metadata !127, i32 1777, metadata !173, i1 false, i1 false, i32 0, i32 0, null, i32 256, i1 false, null, null, i32 0, metadata !142, i32 1777} ; [ DW_TAG_subprogram ]
!331 = metadata !{i32 786478, i32 0, metadata !130, metadata !"test", metadata !"test", metadata !"_ZNK11ap_int_baseILi64ELb0ELb1EE4testEi", metadata !127, i32 1785, metadata !332, i1 false, i1 false, i32 0, i32 0, null, i32 256, i1 false, null, null, i32 0, metadata !142, i32 1785} ; [ DW_TAG_subprogram ]
!332 = metadata !{i32 786453, i32 0, metadata !"", i32 0, i32 0, i64 0, i64 0, i64 0, i32 0, null, metadata !333, i32 0, i32 0} ; [ DW_TAG_subroutine_type ]
!333 = metadata !{metadata !148, metadata !281, metadata !146}
!334 = metadata !{i32 786478, i32 0, metadata !130, metadata !"set", metadata !"set", metadata !"_ZN11ap_int_baseILi64ELb0ELb1EE3setEi", metadata !127, i32 1791, metadata !173, i1 false, i1 false, i32 0, i32 0, null, i32 256, i1 false, null, null, i32 0, metadata !142, i32 1791} ; [ DW_TAG_subprogram ]
!335 = metadata !{i32 786478, i32 0, metadata !130, metadata !"set", metadata !"set", metadata !"_ZN11ap_int_baseILi64ELb0ELb1EE3setEib", metadata !127, i32 1797, metadata !336, i1 false, i1 false, i32 0, i32 0, null, i32 256, i1 false, null, null, i32 0, metadata !142, i32 1797} ; [ DW_TAG_subprogram ]
!336 = metadata !{i32 786453, i32 0, metadata !"", i32 0, i32 0, i64 0, i64 0, i64 0, i32 0, null, metadata !337, i32 0, i32 0} ; [ DW_TAG_subroutine_type ]
!337 = metadata !{null, metadata !152, metadata !146, metadata !148}
!338 = metadata !{i32 786478, i32 0, metadata !130, metadata !"lrotate", metadata !"lrotate", metadata !"_ZN11ap_int_baseILi64ELb0ELb1EE7lrotateEi", metadata !127, i32 1804, metadata !173, i1 false, i1 false, i32 0, i32 0, null, i32 256, i1 false, null, null, i32 0, metadata !142, i32 1804} ; [ DW_TAG_subprogram ]
!339 = metadata !{i32 786478, i32 0, metadata !130, metadata !"rrotate", metadata !"rrotate", metadata !"_ZN11ap_int_baseILi64ELb0ELb1EE7rrotateEi", metadata !127, i32 1813, metadata !173, i1 false, i1 false, i32 0, i32 0, null, i32 256, i1 false, null, null, i32 0, metadata !142, i32 1813} ; [ DW_TAG_subprogram ]
!340 = metadata !{i32 786478, i32 0, metadata !130, metadata !"set_bit", metadata !"set_bit", metadata !"_ZN11ap_int_baseILi64ELb0ELb1EE7set_bitEib", metadata !127, i32 1821, metadata !336, i1 false, i1 false, i32 0, i32 0, null, i32 256, i1 false, null, null, i32 0, metadata !142, i32 1821} ; [ DW_TAG_subprogram ]
!341 = metadata !{i32 786478, i32 0, metadata !130, metadata !"get_bit", metadata !"get_bit", metadata !"_ZNK11ap_int_baseILi64ELb0ELb1EE7get_bitEi", metadata !127, i32 1826, metadata !332, i1 false, i1 false, i32 0, i32 0, null, i32 256, i1 false, null, null, i32 0, metadata !142, i32 1826} ; [ DW_TAG_subprogram ]
!342 = metadata !{i32 786478, i32 0, metadata !130, metadata !"b_not", metadata !"b_not", metadata !"_ZN11ap_int_baseILi64ELb0ELb1EE5b_notEv", metadata !127, i32 1831, metadata !150, i1 false, i1 false, i32 0, i32 0, null, i32 256, i1 false, null, null, i32 0, metadata !142, i32 1831} ; [ DW_TAG_subprogram ]
!343 = metadata !{i32 786478, i32 0, metadata !130, metadata !"countLeadingZeros", metadata !"countLeadingZeros", metadata !"_ZN11ap_int_baseILi64ELb0ELb1EE17countLeadingZerosEv", metadata !127, i32 1838, metadata !344, i1 false, i1 false, i32 0, i32 0, null, i32 256, i1 false, null, null, i32 0, metadata !142, i32 1838} ; [ DW_TAG_subprogram ]
!344 = metadata !{i32 786453, i32 0, metadata !"", i32 0, i32 0, i64 0, i64 0, i64 0, i32 0, null, metadata !345, i32 0, i32 0} ; [ DW_TAG_subroutine_type ]
!345 = metadata !{metadata !146, metadata !152}
!346 = metadata !{i32 786478, i32 0, metadata !130, metadata !"operator++", metadata !"operator++", metadata !"_ZN11ap_int_baseILi64ELb0ELb1EEppEv", metadata !127, i32 1895, metadata !324, i1 false, i1 false, i32 0, i32 0, null, i32 256, i1 false, null, null, i32 0, metadata !142, i32 1895} ; [ DW_TAG_subprogram ]
!347 = metadata !{i32 786478, i32 0, metadata !130, metadata !"operator--", metadata !"operator--", metadata !"_ZN11ap_int_baseILi64ELb0ELb1EEmmEv", metadata !127, i32 1899, metadata !324, i1 false, i1 false, i32 0, i32 0, null, i32 256, i1 false, null, null, i32 0, metadata !142, i32 1899} ; [ DW_TAG_subprogram ]
!348 = metadata !{i32 786478, i32 0, metadata !130, metadata !"operator++", metadata !"operator++", metadata !"_ZN11ap_int_baseILi64ELb0ELb1EEppEi", metadata !127, i32 1907, metadata !349, i1 false, i1 false, i32 0, i32 0, null, i32 256, i1 false, null, null, i32 0, metadata !142, i32 1907} ; [ DW_TAG_subprogram ]
!349 = metadata !{i32 786453, i32 0, metadata !"", i32 0, i32 0, i64 0, i64 0, i64 0, i32 0, null, metadata !350, i32 0, i32 0} ; [ DW_TAG_subroutine_type ]
!350 = metadata !{metadata !228, metadata !152, metadata !146}
!351 = metadata !{i32 786478, i32 0, metadata !130, metadata !"operator--", metadata !"operator--", metadata !"_ZN11ap_int_baseILi64ELb0ELb1EEmmEi", metadata !127, i32 1912, metadata !349, i1 false, i1 false, i32 0, i32 0, null, i32 256, i1 false, null, null, i32 0, metadata !142, i32 1912} ; [ DW_TAG_subprogram ]
!352 = metadata !{i32 786478, i32 0, metadata !130, metadata !"operator+", metadata !"operator+", metadata !"_ZNK11ap_int_baseILi64ELb0ELb1EEpsEv", metadata !127, i32 1921, metadata !353, i1 false, i1 false, i32 0, i32 0, null, i32 256, i1 false, null, null, i32 0, metadata !142, i32 1921} ; [ DW_TAG_subprogram ]
!353 = metadata !{i32 786453, i32 0, metadata !"", i32 0, i32 0, i64 0, i64 0, i64 0, i32 0, null, metadata !354, i32 0, i32 0} ; [ DW_TAG_subroutine_type ]
!354 = metadata !{metadata !130, metadata !281}
!355 = metadata !{i32 786478, i32 0, metadata !130, metadata !"operator!", metadata !"operator!", metadata !"_ZNK11ap_int_baseILi64ELb0ELb1EEntEv", metadata !127, i32 1927, metadata !283, i1 false, i1 false, i32 0, i32 0, null, i32 256, i1 false, null, null, i32 0, metadata !142, i32 1927} ; [ DW_TAG_subprogram ]
!356 = metadata !{i32 786478, i32 0, metadata !130, metadata !"operator-", metadata !"operator-", metadata !"_ZNK11ap_int_baseILi64ELb0ELb1EEngEv", metadata !127, i32 1932, metadata !357, i1 false, i1 false, i32 0, i32 0, null, i32 256, i1 false, null, null, i32 0, metadata !142, i32 1932} ; [ DW_TAG_subprogram ]
!357 = metadata !{i32 786453, i32 0, metadata !"", i32 0, i32 0, i64 0, i64 0, i64 0, i32 0, null, metadata !358, i32 0, i32 0} ; [ DW_TAG_subroutine_type ]
!358 = metadata !{metadata !359, metadata !281}
!359 = metadata !{i32 786434, null, metadata !"ap_int_base<64, true, true>", metadata !127, i32 1453, i64 64, i64 64, i32 0, i32 0, null, metadata !360, i32 0, null, metadata !685} ; [ DW_TAG_class_type ]
!360 = metadata !{metadata !361, metadata !377, metadata !381, metadata !389, metadata !395, metadata !398, metadata !401, metadata !404, metadata !407, metadata !410, metadata !413, metadata !416, metadata !419, metadata !422, metadata !425, metadata !428, metadata !431, metadata !434, metadata !437, metadata !440, metadata !443, metadata !447, metadata !450, metadata !453, metadata !454, metadata !458, metadata !461, metadata !464, metadata !467, metadata !470, metadata !473, metadata !476, metadata !479, metadata !482, metadata !485, metadata !488, metadata !491, metadata !499, metadata !502, metadata !505, metadata !508, metadata !511, metadata !514, metadata !517, metadata !520, metadata !523, metadata !526, metadata !529, metadata !532, metadata !535, metadata !536, metadata !540, metadata !543, metadata !544, metadata !545, metadata !546, metadata !547, metadata !548, metadata !551, metadata !552, metadata !555, metadata !556, metadata !557, metadata !558, metadata !559, metadata !560, metadata !563, metadata !564, metadata !565, metadata !568, metadata !569, metadata !572, metadata !573, metadata !574, metadata !641, metadata !642, metadata !645, metadata !646, metadata !650, metadata !651, metadata !652, metadata !653, metadata !656, metadata !657, metadata !658, metadata !659, metadata !660, metadata !661, metadata !662, metadata !663, metadata !664, metadata !665, metadata !666, metadata !667, metadata !677, metadata !680, metadata !683, metadata !684}
!361 = metadata !{i32 786460, metadata !359, null, metadata !127, i32 0, i64 0, i64 0, i64 0, i32 0, metadata !362} ; [ DW_TAG_inheritance ]
!362 = metadata !{i32 786434, null, metadata !"ssdm_int<64 + 1024 * 0, true>", metadata !134, i32 68, i64 64, i64 64, i32 0, i32 0, null, metadata !363, i32 0, null, metadata !375} ; [ DW_TAG_class_type ]
!363 = metadata !{metadata !364, metadata !366, metadata !370}
!364 = metadata !{i32 786445, metadata !362, metadata !"V", metadata !134, i32 68, i64 64, i64 64, i64 0, i32 0, metadata !365} ; [ DW_TAG_member ]
!365 = metadata !{i32 786468, null, metadata !"int64", null, i32 0, i64 64, i64 64, i64 0, i32 0, i32 5} ; [ DW_TAG_base_type ]
!366 = metadata !{i32 786478, i32 0, metadata !362, metadata !"ssdm_int", metadata !"ssdm_int", metadata !"", metadata !134, i32 68, metadata !367, i1 false, i1 false, i32 0, i32 0, null, i32 256, i1 false, null, null, i32 0, metadata !142, i32 68} ; [ DW_TAG_subprogram ]
!367 = metadata !{i32 786453, i32 0, metadata !"", i32 0, i32 0, i64 0, i64 0, i64 0, i32 0, null, metadata !368, i32 0, i32 0} ; [ DW_TAG_subroutine_type ]
!368 = metadata !{null, metadata !369}
!369 = metadata !{i32 786447, i32 0, metadata !"", i32 0, i32 0, i64 64, i64 64, i64 0, i32 64, metadata !362} ; [ DW_TAG_pointer_type ]
!370 = metadata !{i32 786478, i32 0, metadata !362, metadata !"ssdm_int", metadata !"ssdm_int", metadata !"", metadata !134, i32 68, metadata !371, i1 false, i1 false, i32 0, i32 0, null, i32 320, i1 false, null, null, i32 0, metadata !142, i32 68} ; [ DW_TAG_subprogram ]
!371 = metadata !{i32 786453, i32 0, metadata !"", i32 0, i32 0, i64 0, i64 0, i64 0, i32 0, null, metadata !372, i32 0, i32 0} ; [ DW_TAG_subroutine_type ]
!372 = metadata !{null, metadata !369, metadata !373}
!373 = metadata !{i32 786448, null, null, null, i32 0, i64 0, i64 0, i64 0, i32 0, metadata !374} ; [ DW_TAG_reference_type ]
!374 = metadata !{i32 786470, null, metadata !"", null, i32 0, i64 0, i64 0, i64 0, i32 0, metadata !362} ; [ DW_TAG_const_type ]
!375 = metadata !{metadata !145, metadata !376}
!376 = metadata !{i32 786480, null, metadata !"_AP_S", metadata !148, i64 1, null, i32 0, i32 0} ; [ DW_TAG_template_value_parameter ]
!377 = metadata !{i32 786478, i32 0, metadata !359, metadata !"ap_int_base", metadata !"ap_int_base", metadata !"", metadata !127, i32 1494, metadata !378, i1 false, i1 false, i32 0, i32 0, null, i32 256, i1 false, null, null, i32 0, metadata !142, i32 1494} ; [ DW_TAG_subprogram ]
!378 = metadata !{i32 786453, i32 0, metadata !"", i32 0, i32 0, i64 0, i64 0, i64 0, i32 0, null, metadata !379, i32 0, i32 0} ; [ DW_TAG_subroutine_type ]
!379 = metadata !{null, metadata !380}
!380 = metadata !{i32 786447, i32 0, metadata !"", i32 0, i32 0, i64 64, i64 64, i64 0, i32 64, metadata !359} ; [ DW_TAG_pointer_type ]
!381 = metadata !{i32 786478, i32 0, metadata !359, metadata !"ap_int_base<64, true>", metadata !"ap_int_base<64, true>", metadata !"", metadata !127, i32 1506, metadata !382, i1 false, i1 false, i32 0, i32 0, null, i32 256, i1 false, null, metadata !386, i32 0, metadata !142, i32 1506} ; [ DW_TAG_subprogram ]
!382 = metadata !{i32 786453, i32 0, metadata !"", i32 0, i32 0, i64 0, i64 0, i64 0, i32 0, null, metadata !383, i32 0, i32 0} ; [ DW_TAG_subroutine_type ]
!383 = metadata !{null, metadata !380, metadata !384}
!384 = metadata !{i32 786448, null, null, null, i32 0, i64 0, i64 0, i64 0, i32 0, metadata !385} ; [ DW_TAG_reference_type ]
!385 = metadata !{i32 786470, null, metadata !"", null, i32 0, i64 0, i64 0, i64 0, i32 0, metadata !359} ; [ DW_TAG_const_type ]
!386 = metadata !{metadata !387, metadata !388}
!387 = metadata !{i32 786480, null, metadata !"_AP_W2", metadata !146, i64 64, null, i32 0, i32 0} ; [ DW_TAG_template_value_parameter ]
!388 = metadata !{i32 786480, null, metadata !"_AP_S2", metadata !148, i64 1, null, i32 0, i32 0} ; [ DW_TAG_template_value_parameter ]
!389 = metadata !{i32 786478, i32 0, metadata !359, metadata !"ap_int_base<64, true>", metadata !"ap_int_base<64, true>", metadata !"", metadata !127, i32 1509, metadata !390, i1 false, i1 false, i32 0, i32 0, null, i32 256, i1 false, null, metadata !386, i32 0, metadata !142, i32 1509} ; [ DW_TAG_subprogram ]
!390 = metadata !{i32 786453, i32 0, metadata !"", i32 0, i32 0, i64 0, i64 0, i64 0, i32 0, null, metadata !391, i32 0, i32 0} ; [ DW_TAG_subroutine_type ]
!391 = metadata !{null, metadata !380, metadata !392}
!392 = metadata !{i32 786448, null, null, null, i32 0, i64 0, i64 0, i64 0, i32 0, metadata !393} ; [ DW_TAG_reference_type ]
!393 = metadata !{i32 786470, null, metadata !"", null, i32 0, i64 0, i64 0, i64 0, i32 0, metadata !394} ; [ DW_TAG_const_type ]
!394 = metadata !{i32 786485, null, metadata !"", null, i32 0, i64 0, i64 0, i64 0, i32 0, metadata !359} ; [ DW_TAG_volatile_type ]
!395 = metadata !{i32 786478, i32 0, metadata !359, metadata !"ap_int_base", metadata !"ap_int_base", metadata !"", metadata !127, i32 1516, metadata !396, i1 false, i1 false, i32 0, i32 0, null, i32 384, i1 false, null, null, i32 0, metadata !142, i32 1516} ; [ DW_TAG_subprogram ]
!396 = metadata !{i32 786453, i32 0, metadata !"", i32 0, i32 0, i64 0, i64 0, i64 0, i32 0, null, metadata !397, i32 0, i32 0} ; [ DW_TAG_subroutine_type ]
!397 = metadata !{null, metadata !380, metadata !148}
!398 = metadata !{i32 786478, i32 0, metadata !359, metadata !"ap_int_base", metadata !"ap_int_base", metadata !"", metadata !127, i32 1517, metadata !399, i1 false, i1 false, i32 0, i32 0, null, i32 384, i1 false, null, null, i32 0, metadata !142, i32 1517} ; [ DW_TAG_subprogram ]
!399 = metadata !{i32 786453, i32 0, metadata !"", i32 0, i32 0, i64 0, i64 0, i64 0, i32 0, null, metadata !400, i32 0, i32 0} ; [ DW_TAG_subroutine_type ]
!400 = metadata !{null, metadata !380, metadata !159}
!401 = metadata !{i32 786478, i32 0, metadata !359, metadata !"ap_int_base", metadata !"ap_int_base", metadata !"", metadata !127, i32 1518, metadata !402, i1 false, i1 false, i32 0, i32 0, null, i32 384, i1 false, null, null, i32 0, metadata !142, i32 1518} ; [ DW_TAG_subprogram ]
!402 = metadata !{i32 786453, i32 0, metadata !"", i32 0, i32 0, i64 0, i64 0, i64 0, i32 0, null, metadata !403, i32 0, i32 0} ; [ DW_TAG_subroutine_type ]
!403 = metadata !{null, metadata !380, metadata !163}
!404 = metadata !{i32 786478, i32 0, metadata !359, metadata !"ap_int_base", metadata !"ap_int_base", metadata !"", metadata !127, i32 1519, metadata !405, i1 false, i1 false, i32 0, i32 0, null, i32 384, i1 false, null, null, i32 0, metadata !142, i32 1519} ; [ DW_TAG_subprogram ]
!405 = metadata !{i32 786453, i32 0, metadata !"", i32 0, i32 0, i64 0, i64 0, i64 0, i32 0, null, metadata !406, i32 0, i32 0} ; [ DW_TAG_subroutine_type ]
!406 = metadata !{null, metadata !380, metadata !167}
!407 = metadata !{i32 786478, i32 0, metadata !359, metadata !"ap_int_base", metadata !"ap_int_base", metadata !"", metadata !127, i32 1520, metadata !408, i1 false, i1 false, i32 0, i32 0, null, i32 384, i1 false, null, null, i32 0, metadata !142, i32 1520} ; [ DW_TAG_subprogram ]
!408 = metadata !{i32 786453, i32 0, metadata !"", i32 0, i32 0, i64 0, i64 0, i64 0, i32 0, null, metadata !409, i32 0, i32 0} ; [ DW_TAG_subroutine_type ]
!409 = metadata !{null, metadata !380, metadata !171}
!410 = metadata !{i32 786478, i32 0, metadata !359, metadata !"ap_int_base", metadata !"ap_int_base", metadata !"", metadata !127, i32 1521, metadata !411, i1 false, i1 false, i32 0, i32 0, null, i32 384, i1 false, null, null, i32 0, metadata !142, i32 1521} ; [ DW_TAG_subprogram ]
!411 = metadata !{i32 786453, i32 0, metadata !"", i32 0, i32 0, i64 0, i64 0, i64 0, i32 0, null, metadata !412, i32 0, i32 0} ; [ DW_TAG_subroutine_type ]
!412 = metadata !{null, metadata !380, metadata !146}
!413 = metadata !{i32 786478, i32 0, metadata !359, metadata !"ap_int_base", metadata !"ap_int_base", metadata !"", metadata !127, i32 1522, metadata !414, i1 false, i1 false, i32 0, i32 0, null, i32 384, i1 false, null, null, i32 0, metadata !142, i32 1522} ; [ DW_TAG_subprogram ]
!414 = metadata !{i32 786453, i32 0, metadata !"", i32 0, i32 0, i64 0, i64 0, i64 0, i32 0, null, metadata !415, i32 0, i32 0} ; [ DW_TAG_subroutine_type ]
!415 = metadata !{null, metadata !380, metadata !178}
!416 = metadata !{i32 786478, i32 0, metadata !359, metadata !"ap_int_base", metadata !"ap_int_base", metadata !"", metadata !127, i32 1523, metadata !417, i1 false, i1 false, i32 0, i32 0, null, i32 384, i1 false, null, null, i32 0, metadata !142, i32 1523} ; [ DW_TAG_subprogram ]
!417 = metadata !{i32 786453, i32 0, metadata !"", i32 0, i32 0, i64 0, i64 0, i64 0, i32 0, null, metadata !418, i32 0, i32 0} ; [ DW_TAG_subroutine_type ]
!418 = metadata !{null, metadata !380, metadata !182}
!419 = metadata !{i32 786478, i32 0, metadata !359, metadata !"ap_int_base", metadata !"ap_int_base", metadata !"", metadata !127, i32 1524, metadata !420, i1 false, i1 false, i32 0, i32 0, null, i32 384, i1 false, null, null, i32 0, metadata !142, i32 1524} ; [ DW_TAG_subprogram ]
!420 = metadata !{i32 786453, i32 0, metadata !"", i32 0, i32 0, i64 0, i64 0, i64 0, i32 0, null, metadata !421, i32 0, i32 0} ; [ DW_TAG_subroutine_type ]
!421 = metadata !{null, metadata !380, metadata !186}
!422 = metadata !{i32 786478, i32 0, metadata !359, metadata !"ap_int_base", metadata !"ap_int_base", metadata !"", metadata !127, i32 1525, metadata !423, i1 false, i1 false, i32 0, i32 0, null, i32 384, i1 false, null, null, i32 0, metadata !142, i32 1525} ; [ DW_TAG_subprogram ]
!423 = metadata !{i32 786453, i32 0, metadata !"", i32 0, i32 0, i64 0, i64 0, i64 0, i32 0, null, metadata !424, i32 0, i32 0} ; [ DW_TAG_subroutine_type ]
!424 = metadata !{null, metadata !380, metadata !190}
!425 = metadata !{i32 786478, i32 0, metadata !359, metadata !"ap_int_base", metadata !"ap_int_base", metadata !"", metadata !127, i32 1526, metadata !426, i1 false, i1 false, i32 0, i32 0, null, i32 384, i1 false, null, null, i32 0, metadata !142, i32 1526} ; [ DW_TAG_subprogram ]
!426 = metadata !{i32 786453, i32 0, metadata !"", i32 0, i32 0, i64 0, i64 0, i64 0, i32 0, null, metadata !427, i32 0, i32 0} ; [ DW_TAG_subroutine_type ]
!427 = metadata !{null, metadata !380, metadata !195}
!428 = metadata !{i32 786478, i32 0, metadata !359, metadata !"ap_int_base", metadata !"ap_int_base", metadata !"", metadata !127, i32 1527, metadata !429, i1 false, i1 false, i32 0, i32 0, null, i32 384, i1 false, null, null, i32 0, metadata !142, i32 1527} ; [ DW_TAG_subprogram ]
!429 = metadata !{i32 786453, i32 0, metadata !"", i32 0, i32 0, i64 0, i64 0, i64 0, i32 0, null, metadata !430, i32 0, i32 0} ; [ DW_TAG_subroutine_type ]
!430 = metadata !{null, metadata !380, metadata !200}
!431 = metadata !{i32 786478, i32 0, metadata !359, metadata !"ap_int_base", metadata !"ap_int_base", metadata !"", metadata !127, i32 1528, metadata !432, i1 false, i1 false, i32 0, i32 0, null, i32 384, i1 false, null, null, i32 0, metadata !142, i32 1528} ; [ DW_TAG_subprogram ]
!432 = metadata !{i32 786453, i32 0, metadata !"", i32 0, i32 0, i64 0, i64 0, i64 0, i32 0, null, metadata !433, i32 0, i32 0} ; [ DW_TAG_subroutine_type ]
!433 = metadata !{null, metadata !380, metadata !205}
!434 = metadata !{i32 786478, i32 0, metadata !359, metadata !"ap_int_base", metadata !"ap_int_base", metadata !"", metadata !127, i32 1529, metadata !435, i1 false, i1 false, i32 0, i32 0, null, i32 384, i1 false, null, null, i32 0, metadata !142, i32 1529} ; [ DW_TAG_subprogram ]
!435 = metadata !{i32 786453, i32 0, metadata !"", i32 0, i32 0, i64 0, i64 0, i64 0, i32 0, null, metadata !436, i32 0, i32 0} ; [ DW_TAG_subroutine_type ]
!436 = metadata !{null, metadata !380, metadata !209}
!437 = metadata !{i32 786478, i32 0, metadata !359, metadata !"ap_int_base", metadata !"ap_int_base", metadata !"", metadata !127, i32 1556, metadata !438, i1 false, i1 false, i32 0, i32 0, null, i32 256, i1 false, null, null, i32 0, metadata !142, i32 1556} ; [ DW_TAG_subprogram ]
!438 = metadata !{i32 786453, i32 0, metadata !"", i32 0, i32 0, i64 0, i64 0, i64 0, i32 0, null, metadata !439, i32 0, i32 0} ; [ DW_TAG_subroutine_type ]
!439 = metadata !{null, metadata !380, metadata !213}
!440 = metadata !{i32 786478, i32 0, metadata !359, metadata !"ap_int_base", metadata !"ap_int_base", metadata !"", metadata !127, i32 1563, metadata !441, i1 false, i1 false, i32 0, i32 0, null, i32 256, i1 false, null, null, i32 0, metadata !142, i32 1563} ; [ DW_TAG_subprogram ]
!441 = metadata !{i32 786453, i32 0, metadata !"", i32 0, i32 0, i64 0, i64 0, i64 0, i32 0, null, metadata !442, i32 0, i32 0} ; [ DW_TAG_subroutine_type ]
!442 = metadata !{null, metadata !380, metadata !213, metadata !159}
!443 = metadata !{i32 786478, i32 0, metadata !359, metadata !"read", metadata !"read", metadata !"_ZNV11ap_int_baseILi64ELb1ELb1EE4readEv", metadata !127, i32 1584, metadata !444, i1 false, i1 false, i32 0, i32 0, null, i32 256, i1 false, null, null, i32 0, metadata !142, i32 1584} ; [ DW_TAG_subprogram ]
!444 = metadata !{i32 786453, i32 0, metadata !"", i32 0, i32 0, i64 0, i64 0, i64 0, i32 0, null, metadata !445, i32 0, i32 0} ; [ DW_TAG_subroutine_type ]
!445 = metadata !{metadata !359, metadata !446}
!446 = metadata !{i32 786447, i32 0, metadata !"", i32 0, i32 0, i64 64, i64 64, i64 0, i32 64, metadata !394} ; [ DW_TAG_pointer_type ]
!447 = metadata !{i32 786478, i32 0, metadata !359, metadata !"write", metadata !"write", metadata !"_ZNV11ap_int_baseILi64ELb1ELb1EE5writeERKS0_", metadata !127, i32 1590, metadata !448, i1 false, i1 false, i32 0, i32 0, null, i32 256, i1 false, null, null, i32 0, metadata !142, i32 1590} ; [ DW_TAG_subprogram ]
!448 = metadata !{i32 786453, i32 0, metadata !"", i32 0, i32 0, i64 0, i64 0, i64 0, i32 0, null, metadata !449, i32 0, i32 0} ; [ DW_TAG_subroutine_type ]
!449 = metadata !{null, metadata !446, metadata !384}
!450 = metadata !{i32 786478, i32 0, metadata !359, metadata !"operator=", metadata !"operator=", metadata !"_ZNV11ap_int_baseILi64ELb1ELb1EEaSERVKS0_", metadata !127, i32 1602, metadata !451, i1 false, i1 false, i32 0, i32 0, null, i32 256, i1 false, null, null, i32 0, metadata !142, i32 1602} ; [ DW_TAG_subprogram ]
!451 = metadata !{i32 786453, i32 0, metadata !"", i32 0, i32 0, i64 0, i64 0, i64 0, i32 0, null, metadata !452, i32 0, i32 0} ; [ DW_TAG_subroutine_type ]
!452 = metadata !{null, metadata !446, metadata !392}
!453 = metadata !{i32 786478, i32 0, metadata !359, metadata !"operator=", metadata !"operator=", metadata !"_ZNV11ap_int_baseILi64ELb1ELb1EEaSERKS0_", metadata !127, i32 1611, metadata !448, i1 false, i1 false, i32 0, i32 0, null, i32 256, i1 false, null, null, i32 0, metadata !142, i32 1611} ; [ DW_TAG_subprogram ]
!454 = metadata !{i32 786478, i32 0, metadata !359, metadata !"operator=", metadata !"operator=", metadata !"_ZN11ap_int_baseILi64ELb1ELb1EEaSERVKS0_", metadata !127, i32 1634, metadata !455, i1 false, i1 false, i32 0, i32 0, null, i32 256, i1 false, null, null, i32 0, metadata !142, i32 1634} ; [ DW_TAG_subprogram ]
!455 = metadata !{i32 786453, i32 0, metadata !"", i32 0, i32 0, i64 0, i64 0, i64 0, i32 0, null, metadata !456, i32 0, i32 0} ; [ DW_TAG_subroutine_type ]
!456 = metadata !{metadata !457, metadata !380, metadata !392}
!457 = metadata !{i32 786448, null, null, null, i32 0, i64 0, i64 0, i64 0, i32 0, metadata !359} ; [ DW_TAG_reference_type ]
!458 = metadata !{i32 786478, i32 0, metadata !359, metadata !"operator=", metadata !"operator=", metadata !"_ZN11ap_int_baseILi64ELb1ELb1EEaSERKS0_", metadata !127, i32 1639, metadata !459, i1 false, i1 false, i32 0, i32 0, null, i32 256, i1 false, null, null, i32 0, metadata !142, i32 1639} ; [ DW_TAG_subprogram ]
!459 = metadata !{i32 786453, i32 0, metadata !"", i32 0, i32 0, i64 0, i64 0, i64 0, i32 0, null, metadata !460, i32 0, i32 0} ; [ DW_TAG_subroutine_type ]
!460 = metadata !{metadata !457, metadata !380, metadata !384}
!461 = metadata !{i32 786478, i32 0, metadata !359, metadata !"operator=", metadata !"operator=", metadata !"_ZN11ap_int_baseILi64ELb1ELb1EEaSEPKc", metadata !127, i32 1643, metadata !462, i1 false, i1 false, i32 0, i32 0, null, i32 256, i1 false, null, null, i32 0, metadata !142, i32 1643} ; [ DW_TAG_subprogram ]
!462 = metadata !{i32 786453, i32 0, metadata !"", i32 0, i32 0, i64 0, i64 0, i64 0, i32 0, null, metadata !463, i32 0, i32 0} ; [ DW_TAG_subroutine_type ]
!463 = metadata !{metadata !457, metadata !380, metadata !213}
!464 = metadata !{i32 786478, i32 0, metadata !359, metadata !"set", metadata !"set", metadata !"_ZN11ap_int_baseILi64ELb1ELb1EE3setEPKca", metadata !127, i32 1651, metadata !465, i1 false, i1 false, i32 0, i32 0, null, i32 256, i1 false, null, null, i32 0, metadata !142, i32 1651} ; [ DW_TAG_subprogram ]
!465 = metadata !{i32 786453, i32 0, metadata !"", i32 0, i32 0, i64 0, i64 0, i64 0, i32 0, null, metadata !466, i32 0, i32 0} ; [ DW_TAG_subroutine_type ]
!466 = metadata !{metadata !457, metadata !380, metadata !213, metadata !159}
!467 = metadata !{i32 786478, i32 0, metadata !359, metadata !"operator=", metadata !"operator=", metadata !"_ZN11ap_int_baseILi64ELb1ELb1EEaSEa", metadata !127, i32 1665, metadata !468, i1 false, i1 false, i32 0, i32 0, null, i32 256, i1 false, null, null, i32 0, metadata !142, i32 1665} ; [ DW_TAG_subprogram ]
!468 = metadata !{i32 786453, i32 0, metadata !"", i32 0, i32 0, i64 0, i64 0, i64 0, i32 0, null, metadata !469, i32 0, i32 0} ; [ DW_TAG_subroutine_type ]
!469 = metadata !{metadata !457, metadata !380, metadata !159}
!470 = metadata !{i32 786478, i32 0, metadata !359, metadata !"operator=", metadata !"operator=", metadata !"_ZN11ap_int_baseILi64ELb1ELb1EEaSEh", metadata !127, i32 1666, metadata !471, i1 false, i1 false, i32 0, i32 0, null, i32 256, i1 false, null, null, i32 0, metadata !142, i32 1666} ; [ DW_TAG_subprogram ]
!471 = metadata !{i32 786453, i32 0, metadata !"", i32 0, i32 0, i64 0, i64 0, i64 0, i32 0, null, metadata !472, i32 0, i32 0} ; [ DW_TAG_subroutine_type ]
!472 = metadata !{metadata !457, metadata !380, metadata !163}
!473 = metadata !{i32 786478, i32 0, metadata !359, metadata !"operator=", metadata !"operator=", metadata !"_ZN11ap_int_baseILi64ELb1ELb1EEaSEs", metadata !127, i32 1667, metadata !474, i1 false, i1 false, i32 0, i32 0, null, i32 256, i1 false, null, null, i32 0, metadata !142, i32 1667} ; [ DW_TAG_subprogram ]
!474 = metadata !{i32 786453, i32 0, metadata !"", i32 0, i32 0, i64 0, i64 0, i64 0, i32 0, null, metadata !475, i32 0, i32 0} ; [ DW_TAG_subroutine_type ]
!475 = metadata !{metadata !457, metadata !380, metadata !167}
!476 = metadata !{i32 786478, i32 0, metadata !359, metadata !"operator=", metadata !"operator=", metadata !"_ZN11ap_int_baseILi64ELb1ELb1EEaSEt", metadata !127, i32 1668, metadata !477, i1 false, i1 false, i32 0, i32 0, null, i32 256, i1 false, null, null, i32 0, metadata !142, i32 1668} ; [ DW_TAG_subprogram ]
!477 = metadata !{i32 786453, i32 0, metadata !"", i32 0, i32 0, i64 0, i64 0, i64 0, i32 0, null, metadata !478, i32 0, i32 0} ; [ DW_TAG_subroutine_type ]
!478 = metadata !{metadata !457, metadata !380, metadata !171}
!479 = metadata !{i32 786478, i32 0, metadata !359, metadata !"operator=", metadata !"operator=", metadata !"_ZN11ap_int_baseILi64ELb1ELb1EEaSEi", metadata !127, i32 1669, metadata !480, i1 false, i1 false, i32 0, i32 0, null, i32 256, i1 false, null, null, i32 0, metadata !142, i32 1669} ; [ DW_TAG_subprogram ]
!480 = metadata !{i32 786453, i32 0, metadata !"", i32 0, i32 0, i64 0, i64 0, i64 0, i32 0, null, metadata !481, i32 0, i32 0} ; [ DW_TAG_subroutine_type ]
!481 = metadata !{metadata !457, metadata !380, metadata !146}
!482 = metadata !{i32 786478, i32 0, metadata !359, metadata !"operator=", metadata !"operator=", metadata !"_ZN11ap_int_baseILi64ELb1ELb1EEaSEj", metadata !127, i32 1670, metadata !483, i1 false, i1 false, i32 0, i32 0, null, i32 256, i1 false, null, null, i32 0, metadata !142, i32 1670} ; [ DW_TAG_subprogram ]
!483 = metadata !{i32 786453, i32 0, metadata !"", i32 0, i32 0, i64 0, i64 0, i64 0, i32 0, null, metadata !484, i32 0, i32 0} ; [ DW_TAG_subroutine_type ]
!484 = metadata !{metadata !457, metadata !380, metadata !178}
!485 = metadata !{i32 786478, i32 0, metadata !359, metadata !"operator=", metadata !"operator=", metadata !"_ZN11ap_int_baseILi64ELb1ELb1EEaSEx", metadata !127, i32 1671, metadata !486, i1 false, i1 false, i32 0, i32 0, null, i32 256, i1 false, null, null, i32 0, metadata !142, i32 1671} ; [ DW_TAG_subprogram ]
!486 = metadata !{i32 786453, i32 0, metadata !"", i32 0, i32 0, i64 0, i64 0, i64 0, i32 0, null, metadata !487, i32 0, i32 0} ; [ DW_TAG_subroutine_type ]
!487 = metadata !{metadata !457, metadata !380, metadata !190}
!488 = metadata !{i32 786478, i32 0, metadata !359, metadata !"operator=", metadata !"operator=", metadata !"_ZN11ap_int_baseILi64ELb1ELb1EEaSEy", metadata !127, i32 1672, metadata !489, i1 false, i1 false, i32 0, i32 0, null, i32 256, i1 false, null, null, i32 0, metadata !142, i32 1672} ; [ DW_TAG_subprogram ]
!489 = metadata !{i32 786453, i32 0, metadata !"", i32 0, i32 0, i64 0, i64 0, i64 0, i32 0, null, metadata !490, i32 0, i32 0} ; [ DW_TAG_subroutine_type ]
!490 = metadata !{metadata !457, metadata !380, metadata !195}
!491 = metadata !{i32 786478, i32 0, metadata !359, metadata !"operator long long", metadata !"operator long long", metadata !"_ZNK11ap_int_baseILi64ELb1ELb1EEcvxEv", metadata !127, i32 1710, metadata !492, i1 false, i1 false, i32 0, i32 0, null, i32 256, i1 false, null, null, i32 0, metadata !142, i32 1710} ; [ DW_TAG_subprogram ]
!492 = metadata !{i32 786453, i32 0, metadata !"", i32 0, i32 0, i64 0, i64 0, i64 0, i32 0, null, metadata !493, i32 0, i32 0} ; [ DW_TAG_subroutine_type ]
!493 = metadata !{metadata !494, metadata !498}
!494 = metadata !{i32 786454, metadata !359, metadata !"RetType", metadata !127, i32 1458, i64 0, i64 0, i64 0, i32 0, metadata !495} ; [ DW_TAG_typedef ]
!495 = metadata !{i32 786454, metadata !496, metadata !"Type", metadata !127, i32 1415, i64 0, i64 0, i64 0, i32 0, metadata !190} ; [ DW_TAG_typedef ]
!496 = metadata !{i32 786434, null, metadata !"retval<8, true>", metadata !127, i32 1414, i64 8, i64 8, i32 0, i32 0, null, metadata !278, i32 0, null, metadata !497} ; [ DW_TAG_class_type ]
!497 = metadata !{metadata !280, metadata !376}
!498 = metadata !{i32 786447, i32 0, metadata !"", i32 0, i32 0, i64 64, i64 64, i64 0, i32 64, metadata !385} ; [ DW_TAG_pointer_type ]
!499 = metadata !{i32 786478, i32 0, metadata !359, metadata !"to_bool", metadata !"to_bool", metadata !"_ZNK11ap_int_baseILi64ELb1ELb1EE7to_boolEv", metadata !127, i32 1716, metadata !500, i1 false, i1 false, i32 0, i32 0, null, i32 256, i1 false, null, null, i32 0, metadata !142, i32 1716} ; [ DW_TAG_subprogram ]
!500 = metadata !{i32 786453, i32 0, metadata !"", i32 0, i32 0, i64 0, i64 0, i64 0, i32 0, null, metadata !501, i32 0, i32 0} ; [ DW_TAG_subroutine_type ]
!501 = metadata !{metadata !148, metadata !498}
!502 = metadata !{i32 786478, i32 0, metadata !359, metadata !"to_uchar", metadata !"to_uchar", metadata !"_ZNK11ap_int_baseILi64ELb1ELb1EE8to_ucharEv", metadata !127, i32 1717, metadata !503, i1 false, i1 false, i32 0, i32 0, null, i32 256, i1 false, null, null, i32 0, metadata !142, i32 1717} ; [ DW_TAG_subprogram ]
!503 = metadata !{i32 786453, i32 0, metadata !"", i32 0, i32 0, i64 0, i64 0, i64 0, i32 0, null, metadata !504, i32 0, i32 0} ; [ DW_TAG_subroutine_type ]
!504 = metadata !{metadata !163, metadata !498}
!505 = metadata !{i32 786478, i32 0, metadata !359, metadata !"to_char", metadata !"to_char", metadata !"_ZNK11ap_int_baseILi64ELb1ELb1EE7to_charEv", metadata !127, i32 1718, metadata !506, i1 false, i1 false, i32 0, i32 0, null, i32 256, i1 false, null, null, i32 0, metadata !142, i32 1718} ; [ DW_TAG_subprogram ]
!506 = metadata !{i32 786453, i32 0, metadata !"", i32 0, i32 0, i64 0, i64 0, i64 0, i32 0, null, metadata !507, i32 0, i32 0} ; [ DW_TAG_subroutine_type ]
!507 = metadata !{metadata !159, metadata !498}
!508 = metadata !{i32 786478, i32 0, metadata !359, metadata !"to_ushort", metadata !"to_ushort", metadata !"_ZNK11ap_int_baseILi64ELb1ELb1EE9to_ushortEv", metadata !127, i32 1719, metadata !509, i1 false, i1 false, i32 0, i32 0, null, i32 256, i1 false, null, null, i32 0, metadata !142, i32 1719} ; [ DW_TAG_subprogram ]
!509 = metadata !{i32 786453, i32 0, metadata !"", i32 0, i32 0, i64 0, i64 0, i64 0, i32 0, null, metadata !510, i32 0, i32 0} ; [ DW_TAG_subroutine_type ]
!510 = metadata !{metadata !171, metadata !498}
!511 = metadata !{i32 786478, i32 0, metadata !359, metadata !"to_short", metadata !"to_short", metadata !"_ZNK11ap_int_baseILi64ELb1ELb1EE8to_shortEv", metadata !127, i32 1720, metadata !512, i1 false, i1 false, i32 0, i32 0, null, i32 256, i1 false, null, null, i32 0, metadata !142, i32 1720} ; [ DW_TAG_subprogram ]
!512 = metadata !{i32 786453, i32 0, metadata !"", i32 0, i32 0, i64 0, i64 0, i64 0, i32 0, null, metadata !513, i32 0, i32 0} ; [ DW_TAG_subroutine_type ]
!513 = metadata !{metadata !167, metadata !498}
!514 = metadata !{i32 786478, i32 0, metadata !359, metadata !"to_int", metadata !"to_int", metadata !"_ZNK11ap_int_baseILi64ELb1ELb1EE6to_intEv", metadata !127, i32 1721, metadata !515, i1 false, i1 false, i32 0, i32 0, null, i32 256, i1 false, null, null, i32 0, metadata !142, i32 1721} ; [ DW_TAG_subprogram ]
!515 = metadata !{i32 786453, i32 0, metadata !"", i32 0, i32 0, i64 0, i64 0, i64 0, i32 0, null, metadata !516, i32 0, i32 0} ; [ DW_TAG_subroutine_type ]
!516 = metadata !{metadata !146, metadata !498}
!517 = metadata !{i32 786478, i32 0, metadata !359, metadata !"to_uint", metadata !"to_uint", metadata !"_ZNK11ap_int_baseILi64ELb1ELb1EE7to_uintEv", metadata !127, i32 1722, metadata !518, i1 false, i1 false, i32 0, i32 0, null, i32 256, i1 false, null, null, i32 0, metadata !142, i32 1722} ; [ DW_TAG_subprogram ]
!518 = metadata !{i32 786453, i32 0, metadata !"", i32 0, i32 0, i64 0, i64 0, i64 0, i32 0, null, metadata !519, i32 0, i32 0} ; [ DW_TAG_subroutine_type ]
!519 = metadata !{metadata !178, metadata !498}
!520 = metadata !{i32 786478, i32 0, metadata !359, metadata !"to_long", metadata !"to_long", metadata !"_ZNK11ap_int_baseILi64ELb1ELb1EE7to_longEv", metadata !127, i32 1723, metadata !521, i1 false, i1 false, i32 0, i32 0, null, i32 256, i1 false, null, null, i32 0, metadata !142, i32 1723} ; [ DW_TAG_subprogram ]
!521 = metadata !{i32 786453, i32 0, metadata !"", i32 0, i32 0, i64 0, i64 0, i64 0, i32 0, null, metadata !522, i32 0, i32 0} ; [ DW_TAG_subroutine_type ]
!522 = metadata !{metadata !182, metadata !498}
!523 = metadata !{i32 786478, i32 0, metadata !359, metadata !"to_ulong", metadata !"to_ulong", metadata !"_ZNK11ap_int_baseILi64ELb1ELb1EE8to_ulongEv", metadata !127, i32 1724, metadata !524, i1 false, i1 false, i32 0, i32 0, null, i32 256, i1 false, null, null, i32 0, metadata !142, i32 1724} ; [ DW_TAG_subprogram ]
!524 = metadata !{i32 786453, i32 0, metadata !"", i32 0, i32 0, i64 0, i64 0, i64 0, i32 0, null, metadata !525, i32 0, i32 0} ; [ DW_TAG_subroutine_type ]
!525 = metadata !{metadata !186, metadata !498}
!526 = metadata !{i32 786478, i32 0, metadata !359, metadata !"to_int64", metadata !"to_int64", metadata !"_ZNK11ap_int_baseILi64ELb1ELb1EE8to_int64Ev", metadata !127, i32 1725, metadata !527, i1 false, i1 false, i32 0, i32 0, null, i32 256, i1 false, null, null, i32 0, metadata !142, i32 1725} ; [ DW_TAG_subprogram ]
!527 = metadata !{i32 786453, i32 0, metadata !"", i32 0, i32 0, i64 0, i64 0, i64 0, i32 0, null, metadata !528, i32 0, i32 0} ; [ DW_TAG_subroutine_type ]
!528 = metadata !{metadata !190, metadata !498}
!529 = metadata !{i32 786478, i32 0, metadata !359, metadata !"to_uint64", metadata !"to_uint64", metadata !"_ZNK11ap_int_baseILi64ELb1ELb1EE9to_uint64Ev", metadata !127, i32 1726, metadata !530, i1 false, i1 false, i32 0, i32 0, null, i32 256, i1 false, null, null, i32 0, metadata !142, i32 1726} ; [ DW_TAG_subprogram ]
!530 = metadata !{i32 786453, i32 0, metadata !"", i32 0, i32 0, i64 0, i64 0, i64 0, i32 0, null, metadata !531, i32 0, i32 0} ; [ DW_TAG_subroutine_type ]
!531 = metadata !{metadata !195, metadata !498}
!532 = metadata !{i32 786478, i32 0, metadata !359, metadata !"to_double", metadata !"to_double", metadata !"_ZNK11ap_int_baseILi64ELb1ELb1EE9to_doubleEv", metadata !127, i32 1727, metadata !533, i1 false, i1 false, i32 0, i32 0, null, i32 256, i1 false, null, null, i32 0, metadata !142, i32 1727} ; [ DW_TAG_subprogram ]
!533 = metadata !{i32 786453, i32 0, metadata !"", i32 0, i32 0, i64 0, i64 0, i64 0, i32 0, null, metadata !534, i32 0, i32 0} ; [ DW_TAG_subroutine_type ]
!534 = metadata !{metadata !209, metadata !498}
!535 = metadata !{i32 786478, i32 0, metadata !359, metadata !"length", metadata !"length", metadata !"_ZNK11ap_int_baseILi64ELb1ELb1EE6lengthEv", metadata !127, i32 1741, metadata !515, i1 false, i1 false, i32 0, i32 0, null, i32 256, i1 false, null, null, i32 0, metadata !142, i32 1741} ; [ DW_TAG_subprogram ]
!536 = metadata !{i32 786478, i32 0, metadata !359, metadata !"length", metadata !"length", metadata !"_ZNVK11ap_int_baseILi64ELb1ELb1EE6lengthEv", metadata !127, i32 1742, metadata !537, i1 false, i1 false, i32 0, i32 0, null, i32 256, i1 false, null, null, i32 0, metadata !142, i32 1742} ; [ DW_TAG_subprogram ]
!537 = metadata !{i32 786453, i32 0, metadata !"", i32 0, i32 0, i64 0, i64 0, i64 0, i32 0, null, metadata !538, i32 0, i32 0} ; [ DW_TAG_subroutine_type ]
!538 = metadata !{metadata !146, metadata !539}
!539 = metadata !{i32 786447, i32 0, metadata !"", i32 0, i32 0, i64 64, i64 64, i64 0, i32 64, metadata !393} ; [ DW_TAG_pointer_type ]
!540 = metadata !{i32 786478, i32 0, metadata !359, metadata !"reverse", metadata !"reverse", metadata !"_ZN11ap_int_baseILi64ELb1ELb1EE7reverseEv", metadata !127, i32 1747, metadata !541, i1 false, i1 false, i32 0, i32 0, null, i32 256, i1 false, null, null, i32 0, metadata !142, i32 1747} ; [ DW_TAG_subprogram ]
!541 = metadata !{i32 786453, i32 0, metadata !"", i32 0, i32 0, i64 0, i64 0, i64 0, i32 0, null, metadata !542, i32 0, i32 0} ; [ DW_TAG_subroutine_type ]
!542 = metadata !{metadata !457, metadata !380}
!543 = metadata !{i32 786478, i32 0, metadata !359, metadata !"iszero", metadata !"iszero", metadata !"_ZNK11ap_int_baseILi64ELb1ELb1EE6iszeroEv", metadata !127, i32 1753, metadata !500, i1 false, i1 false, i32 0, i32 0, null, i32 256, i1 false, null, null, i32 0, metadata !142, i32 1753} ; [ DW_TAG_subprogram ]
!544 = metadata !{i32 786478, i32 0, metadata !359, metadata !"is_zero", metadata !"is_zero", metadata !"_ZNK11ap_int_baseILi64ELb1ELb1EE7is_zeroEv", metadata !127, i32 1758, metadata !500, i1 false, i1 false, i32 0, i32 0, null, i32 256, i1 false, null, null, i32 0, metadata !142, i32 1758} ; [ DW_TAG_subprogram ]
!545 = metadata !{i32 786478, i32 0, metadata !359, metadata !"sign", metadata !"sign", metadata !"_ZNK11ap_int_baseILi64ELb1ELb1EE4signEv", metadata !127, i32 1763, metadata !500, i1 false, i1 false, i32 0, i32 0, null, i32 256, i1 false, null, null, i32 0, metadata !142, i32 1763} ; [ DW_TAG_subprogram ]
!546 = metadata !{i32 786478, i32 0, metadata !359, metadata !"clear", metadata !"clear", metadata !"_ZN11ap_int_baseILi64ELb1ELb1EE5clearEi", metadata !127, i32 1771, metadata !411, i1 false, i1 false, i32 0, i32 0, null, i32 256, i1 false, null, null, i32 0, metadata !142, i32 1771} ; [ DW_TAG_subprogram ]
!547 = metadata !{i32 786478, i32 0, metadata !359, metadata !"invert", metadata !"invert", metadata !"_ZN11ap_int_baseILi64ELb1ELb1EE6invertEi", metadata !127, i32 1777, metadata !411, i1 false, i1 false, i32 0, i32 0, null, i32 256, i1 false, null, null, i32 0, metadata !142, i32 1777} ; [ DW_TAG_subprogram ]
!548 = metadata !{i32 786478, i32 0, metadata !359, metadata !"test", metadata !"test", metadata !"_ZNK11ap_int_baseILi64ELb1ELb1EE4testEi", metadata !127, i32 1785, metadata !549, i1 false, i1 false, i32 0, i32 0, null, i32 256, i1 false, null, null, i32 0, metadata !142, i32 1785} ; [ DW_TAG_subprogram ]
!549 = metadata !{i32 786453, i32 0, metadata !"", i32 0, i32 0, i64 0, i64 0, i64 0, i32 0, null, metadata !550, i32 0, i32 0} ; [ DW_TAG_subroutine_type ]
!550 = metadata !{metadata !148, metadata !498, metadata !146}
!551 = metadata !{i32 786478, i32 0, metadata !359, metadata !"set", metadata !"set", metadata !"_ZN11ap_int_baseILi64ELb1ELb1EE3setEi", metadata !127, i32 1791, metadata !411, i1 false, i1 false, i32 0, i32 0, null, i32 256, i1 false, null, null, i32 0, metadata !142, i32 1791} ; [ DW_TAG_subprogram ]
!552 = metadata !{i32 786478, i32 0, metadata !359, metadata !"set", metadata !"set", metadata !"_ZN11ap_int_baseILi64ELb1ELb1EE3setEib", metadata !127, i32 1797, metadata !553, i1 false, i1 false, i32 0, i32 0, null, i32 256, i1 false, null, null, i32 0, metadata !142, i32 1797} ; [ DW_TAG_subprogram ]
!553 = metadata !{i32 786453, i32 0, metadata !"", i32 0, i32 0, i64 0, i64 0, i64 0, i32 0, null, metadata !554, i32 0, i32 0} ; [ DW_TAG_subroutine_type ]
!554 = metadata !{null, metadata !380, metadata !146, metadata !148}
!555 = metadata !{i32 786478, i32 0, metadata !359, metadata !"lrotate", metadata !"lrotate", metadata !"_ZN11ap_int_baseILi64ELb1ELb1EE7lrotateEi", metadata !127, i32 1804, metadata !411, i1 false, i1 false, i32 0, i32 0, null, i32 256, i1 false, null, null, i32 0, metadata !142, i32 1804} ; [ DW_TAG_subprogram ]
!556 = metadata !{i32 786478, i32 0, metadata !359, metadata !"rrotate", metadata !"rrotate", metadata !"_ZN11ap_int_baseILi64ELb1ELb1EE7rrotateEi", metadata !127, i32 1813, metadata !411, i1 false, i1 false, i32 0, i32 0, null, i32 256, i1 false, null, null, i32 0, metadata !142, i32 1813} ; [ DW_TAG_subprogram ]
!557 = metadata !{i32 786478, i32 0, metadata !359, metadata !"set_bit", metadata !"set_bit", metadata !"_ZN11ap_int_baseILi64ELb1ELb1EE7set_bitEib", metadata !127, i32 1821, metadata !553, i1 false, i1 false, i32 0, i32 0, null, i32 256, i1 false, null, null, i32 0, metadata !142, i32 1821} ; [ DW_TAG_subprogram ]
!558 = metadata !{i32 786478, i32 0, metadata !359, metadata !"get_bit", metadata !"get_bit", metadata !"_ZNK11ap_int_baseILi64ELb1ELb1EE7get_bitEi", metadata !127, i32 1826, metadata !549, i1 false, i1 false, i32 0, i32 0, null, i32 256, i1 false, null, null, i32 0, metadata !142, i32 1826} ; [ DW_TAG_subprogram ]
!559 = metadata !{i32 786478, i32 0, metadata !359, metadata !"b_not", metadata !"b_not", metadata !"_ZN11ap_int_baseILi64ELb1ELb1EE5b_notEv", metadata !127, i32 1831, metadata !378, i1 false, i1 false, i32 0, i32 0, null, i32 256, i1 false, null, null, i32 0, metadata !142, i32 1831} ; [ DW_TAG_subprogram ]
!560 = metadata !{i32 786478, i32 0, metadata !359, metadata !"countLeadingZeros", metadata !"countLeadingZeros", metadata !"_ZN11ap_int_baseILi64ELb1ELb1EE17countLeadingZerosEv", metadata !127, i32 1838, metadata !561, i1 false, i1 false, i32 0, i32 0, null, i32 256, i1 false, null, null, i32 0, metadata !142, i32 1838} ; [ DW_TAG_subprogram ]
!561 = metadata !{i32 786453, i32 0, metadata !"", i32 0, i32 0, i64 0, i64 0, i64 0, i32 0, null, metadata !562, i32 0, i32 0} ; [ DW_TAG_subroutine_type ]
!562 = metadata !{metadata !146, metadata !380}
!563 = metadata !{i32 786478, i32 0, metadata !359, metadata !"operator++", metadata !"operator++", metadata !"_ZN11ap_int_baseILi64ELb1ELb1EEppEv", metadata !127, i32 1895, metadata !541, i1 false, i1 false, i32 0, i32 0, null, i32 256, i1 false, null, null, i32 0, metadata !142, i32 1895} ; [ DW_TAG_subprogram ]
!564 = metadata !{i32 786478, i32 0, metadata !359, metadata !"operator--", metadata !"operator--", metadata !"_ZN11ap_int_baseILi64ELb1ELb1EEmmEv", metadata !127, i32 1899, metadata !541, i1 false, i1 false, i32 0, i32 0, null, i32 256, i1 false, null, null, i32 0, metadata !142, i32 1899} ; [ DW_TAG_subprogram ]
!565 = metadata !{i32 786478, i32 0, metadata !359, metadata !"operator++", metadata !"operator++", metadata !"_ZN11ap_int_baseILi64ELb1ELb1EEppEi", metadata !127, i32 1907, metadata !566, i1 false, i1 false, i32 0, i32 0, null, i32 256, i1 false, null, null, i32 0, metadata !142, i32 1907} ; [ DW_TAG_subprogram ]
!566 = metadata !{i32 786453, i32 0, metadata !"", i32 0, i32 0, i64 0, i64 0, i64 0, i32 0, null, metadata !567, i32 0, i32 0} ; [ DW_TAG_subroutine_type ]
!567 = metadata !{metadata !385, metadata !380, metadata !146}
!568 = metadata !{i32 786478, i32 0, metadata !359, metadata !"operator--", metadata !"operator--", metadata !"_ZN11ap_int_baseILi64ELb1ELb1EEmmEi", metadata !127, i32 1912, metadata !566, i1 false, i1 false, i32 0, i32 0, null, i32 256, i1 false, null, null, i32 0, metadata !142, i32 1912} ; [ DW_TAG_subprogram ]
!569 = metadata !{i32 786478, i32 0, metadata !359, metadata !"operator+", metadata !"operator+", metadata !"_ZNK11ap_int_baseILi64ELb1ELb1EEpsEv", metadata !127, i32 1921, metadata !570, i1 false, i1 false, i32 0, i32 0, null, i32 256, i1 false, null, null, i32 0, metadata !142, i32 1921} ; [ DW_TAG_subprogram ]
!570 = metadata !{i32 786453, i32 0, metadata !"", i32 0, i32 0, i64 0, i64 0, i64 0, i32 0, null, metadata !571, i32 0, i32 0} ; [ DW_TAG_subroutine_type ]
!571 = metadata !{metadata !359, metadata !498}
!572 = metadata !{i32 786478, i32 0, metadata !359, metadata !"operator!", metadata !"operator!", metadata !"_ZNK11ap_int_baseILi64ELb1ELb1EEntEv", metadata !127, i32 1927, metadata !500, i1 false, i1 false, i32 0, i32 0, null, i32 256, i1 false, null, null, i32 0, metadata !142, i32 1927} ; [ DW_TAG_subprogram ]
!573 = metadata !{i32 786478, i32 0, metadata !359, metadata !"operator-", metadata !"operator-", metadata !"_ZNK11ap_int_baseILi64ELb1ELb1EEngEv", metadata !127, i32 1932, metadata !570, i1 false, i1 false, i32 0, i32 0, null, i32 256, i1 false, null, null, i32 0, metadata !142, i32 1932} ; [ DW_TAG_subprogram ]
!574 = metadata !{i32 786478, i32 0, metadata !359, metadata !"range", metadata !"range", metadata !"_ZN11ap_int_baseILi64ELb1ELb1EE5rangeEii", metadata !127, i32 2062, metadata !575, i1 false, i1 false, i32 0, i32 0, null, i32 256, i1 false, null, null, i32 0, metadata !142, i32 2062} ; [ DW_TAG_subprogram ]
!575 = metadata !{i32 786453, i32 0, metadata !"", i32 0, i32 0, i64 0, i64 0, i64 0, i32 0, null, metadata !576, i32 0, i32 0} ; [ DW_TAG_subroutine_type ]
!576 = metadata !{metadata !577, metadata !380, metadata !146, metadata !146}
!577 = metadata !{i32 786434, null, metadata !"ap_range_ref<64, true>", metadata !127, i32 925, i64 128, i64 64, i32 0, i32 0, null, metadata !578, i32 0, null, metadata !639} ; [ DW_TAG_class_type ]
!578 = metadata !{metadata !579, metadata !580, metadata !581, metadata !582, metadata !588, metadata !592, metadata !593, metadata !597, metadata !601, metadata !604, metadata !612, metadata !615, metadata !616, metadata !619, metadata !622, metadata !625, metadata !628, metadata !631, metadata !634, metadata !635, metadata !636}
!579 = metadata !{i32 786445, metadata !577, metadata !"d_bv", metadata !127, i32 926, i64 64, i64 64, i64 0, i32 0, metadata !457} ; [ DW_TAG_member ]
!580 = metadata !{i32 786445, metadata !577, metadata !"l_index", metadata !127, i32 927, i64 32, i64 32, i64 64, i32 0, metadata !146} ; [ DW_TAG_member ]
!581 = metadata !{i32 786445, metadata !577, metadata !"h_index", metadata !127, i32 928, i64 32, i64 32, i64 96, i32 0, metadata !146} ; [ DW_TAG_member ]
!582 = metadata !{i32 786478, i32 0, metadata !577, metadata !"ap_range_ref", metadata !"ap_range_ref", metadata !"", metadata !127, i32 931, metadata !583, i1 false, i1 false, i32 0, i32 0, null, i32 256, i1 false, null, null, i32 0, metadata !142, i32 931} ; [ DW_TAG_subprogram ]
!583 = metadata !{i32 786453, i32 0, metadata !"", i32 0, i32 0, i64 0, i64 0, i64 0, i32 0, null, metadata !584, i32 0, i32 0} ; [ DW_TAG_subroutine_type ]
!584 = metadata !{null, metadata !585, metadata !586}
!585 = metadata !{i32 786447, i32 0, metadata !"", i32 0, i32 0, i64 64, i64 64, i64 0, i32 64, metadata !577} ; [ DW_TAG_pointer_type ]
!586 = metadata !{i32 786448, null, null, null, i32 0, i64 0, i64 0, i64 0, i32 0, metadata !587} ; [ DW_TAG_reference_type ]
!587 = metadata !{i32 786470, null, metadata !"", null, i32 0, i64 0, i64 0, i64 0, i32 0, metadata !577} ; [ DW_TAG_const_type ]
!588 = metadata !{i32 786478, i32 0, metadata !577, metadata !"ap_range_ref", metadata !"ap_range_ref", metadata !"", metadata !127, i32 934, metadata !589, i1 false, i1 false, i32 0, i32 0, null, i32 256, i1 false, null, null, i32 0, metadata !142, i32 934} ; [ DW_TAG_subprogram ]
!589 = metadata !{i32 786453, i32 0, metadata !"", i32 0, i32 0, i64 0, i64 0, i64 0, i32 0, null, metadata !590, i32 0, i32 0} ; [ DW_TAG_subroutine_type ]
!590 = metadata !{null, metadata !585, metadata !591, metadata !146, metadata !146}
!591 = metadata !{i32 786447, null, metadata !"", null, i32 0, i64 64, i64 64, i64 0, i32 0, metadata !359} ; [ DW_TAG_pointer_type ]
!592 = metadata !{i32 786478, i32 0, metadata !577, metadata !"operator ap_int_base", metadata !"operator ap_int_base", metadata !"_ZNK12ap_range_refILi64ELb1EEcv11ap_int_baseILi64ELb0ELb1EEEv", metadata !127, i32 939, metadata !128, i1 false, i1 false, i32 0, i32 0, null, i32 256, i1 false, null, null, i32 0, metadata !142, i32 939} ; [ DW_TAG_subprogram ]
!593 = metadata !{i32 786478, i32 0, metadata !577, metadata !"operator unsigned long long", metadata !"operator unsigned long long", metadata !"_ZNK12ap_range_refILi64ELb1EEcvyEv", metadata !127, i32 945, metadata !594, i1 false, i1 false, i32 0, i32 0, null, i32 256, i1 false, null, null, i32 0, metadata !142, i32 945} ; [ DW_TAG_subprogram ]
!594 = metadata !{i32 786453, i32 0, metadata !"", i32 0, i32 0, i64 0, i64 0, i64 0, i32 0, null, metadata !595, i32 0, i32 0} ; [ DW_TAG_subroutine_type ]
!595 = metadata !{metadata !196, metadata !596}
!596 = metadata !{i32 786447, i32 0, metadata !"", i32 0, i32 0, i64 64, i64 64, i64 0, i32 64, metadata !587} ; [ DW_TAG_pointer_type ]
!597 = metadata !{i32 786478, i32 0, metadata !577, metadata !"operator=", metadata !"operator=", metadata !"_ZN12ap_range_refILi64ELb1EEaSEy", metadata !127, i32 949, metadata !598, i1 false, i1 false, i32 0, i32 0, null, i32 256, i1 false, null, null, i32 0, metadata !142, i32 949} ; [ DW_TAG_subprogram ]
!598 = metadata !{i32 786453, i32 0, metadata !"", i32 0, i32 0, i64 0, i64 0, i64 0, i32 0, null, metadata !599, i32 0, i32 0} ; [ DW_TAG_subroutine_type ]
!599 = metadata !{metadata !600, metadata !585, metadata !196}
!600 = metadata !{i32 786448, null, null, null, i32 0, i64 0, i64 0, i64 0, i32 0, metadata !577} ; [ DW_TAG_reference_type ]
!601 = metadata !{i32 786478, i32 0, metadata !577, metadata !"operator=", metadata !"operator=", metadata !"_ZN12ap_range_refILi64ELb1EEaSERKS0_", metadata !127, i32 967, metadata !602, i1 false, i1 false, i32 0, i32 0, null, i32 256, i1 false, null, null, i32 0, metadata !142, i32 967} ; [ DW_TAG_subprogram ]
!602 = metadata !{i32 786453, i32 0, metadata !"", i32 0, i32 0, i64 0, i64 0, i64 0, i32 0, null, metadata !603, i32 0, i32 0} ; [ DW_TAG_subroutine_type ]
!603 = metadata !{metadata !600, metadata !585, metadata !586}
!604 = metadata !{i32 786478, i32 0, metadata !577, metadata !"operator,", metadata !"operator,", metadata !"_ZN12ap_range_refILi64ELb1EEcmER11ap_int_baseILi64ELb1ELb1EE", metadata !127, i32 1022, metadata !605, i1 false, i1 false, i32 0, i32 0, null, i32 256, i1 false, null, null, i32 0, metadata !142, i32 1022} ; [ DW_TAG_subprogram ]
!605 = metadata !{i32 786453, i32 0, metadata !"", i32 0, i32 0, i64 0, i64 0, i64 0, i32 0, null, metadata !606, i32 0, i32 0} ; [ DW_TAG_subroutine_type ]
!606 = metadata !{metadata !607, metadata !585, metadata !457}
!607 = metadata !{i32 786434, null, metadata !"ap_concat_ref<64, ap_range_ref<64, true>, 64, ap_int_base<64, true, true> >", metadata !127, i32 688, i64 0, i64 0, i32 0, i32 4, null, null, i32 0, null, metadata !608} ; [ DW_TAG_class_type ]
!608 = metadata !{metadata !609, metadata !610, metadata !387, metadata !611}
!609 = metadata !{i32 786480, null, metadata !"_AP_W1", metadata !146, i64 64, null, i32 0, i32 0} ; [ DW_TAG_template_value_parameter ]
!610 = metadata !{i32 786479, null, metadata !"_AP_T1", metadata !577, null, i32 0, i32 0} ; [ DW_TAG_template_type_parameter ]
!611 = metadata !{i32 786479, null, metadata !"_AP_T2", metadata !359, null, i32 0, i32 0} ; [ DW_TAG_template_type_parameter ]
!612 = metadata !{i32 786478, i32 0, metadata !577, metadata !"length", metadata !"length", metadata !"_ZNK12ap_range_refILi64ELb1EE6lengthEv", metadata !127, i32 1187, metadata !613, i1 false, i1 false, i32 0, i32 0, null, i32 256, i1 false, null, null, i32 0, metadata !142, i32 1187} ; [ DW_TAG_subprogram ]
!613 = metadata !{i32 786453, i32 0, metadata !"", i32 0, i32 0, i64 0, i64 0, i64 0, i32 0, null, metadata !614, i32 0, i32 0} ; [ DW_TAG_subroutine_type ]
!614 = metadata !{metadata !146, metadata !596}
!615 = metadata !{i32 786478, i32 0, metadata !577, metadata !"to_int", metadata !"to_int", metadata !"_ZNK12ap_range_refILi64ELb1EE6to_intEv", metadata !127, i32 1191, metadata !613, i1 false, i1 false, i32 0, i32 0, null, i32 256, i1 false, null, null, i32 0, metadata !142, i32 1191} ; [ DW_TAG_subprogram ]
!616 = metadata !{i32 786478, i32 0, metadata !577, metadata !"to_uint", metadata !"to_uint", metadata !"_ZNK12ap_range_refILi64ELb1EE7to_uintEv", metadata !127, i32 1194, metadata !617, i1 false, i1 false, i32 0, i32 0, null, i32 256, i1 false, null, null, i32 0, metadata !142, i32 1194} ; [ DW_TAG_subprogram ]
!617 = metadata !{i32 786453, i32 0, metadata !"", i32 0, i32 0, i64 0, i64 0, i64 0, i32 0, null, metadata !618, i32 0, i32 0} ; [ DW_TAG_subroutine_type ]
!618 = metadata !{metadata !178, metadata !596}
!619 = metadata !{i32 786478, i32 0, metadata !577, metadata !"to_long", metadata !"to_long", metadata !"_ZNK12ap_range_refILi64ELb1EE7to_longEv", metadata !127, i32 1197, metadata !620, i1 false, i1 false, i32 0, i32 0, null, i32 256, i1 false, null, null, i32 0, metadata !142, i32 1197} ; [ DW_TAG_subprogram ]
!620 = metadata !{i32 786453, i32 0, metadata !"", i32 0, i32 0, i64 0, i64 0, i64 0, i32 0, null, metadata !621, i32 0, i32 0} ; [ DW_TAG_subroutine_type ]
!621 = metadata !{metadata !182, metadata !596}
!622 = metadata !{i32 786478, i32 0, metadata !577, metadata !"to_ulong", metadata !"to_ulong", metadata !"_ZNK12ap_range_refILi64ELb1EE8to_ulongEv", metadata !127, i32 1200, metadata !623, i1 false, i1 false, i32 0, i32 0, null, i32 256, i1 false, null, null, i32 0, metadata !142, i32 1200} ; [ DW_TAG_subprogram ]
!623 = metadata !{i32 786453, i32 0, metadata !"", i32 0, i32 0, i64 0, i64 0, i64 0, i32 0, null, metadata !624, i32 0, i32 0} ; [ DW_TAG_subroutine_type ]
!624 = metadata !{metadata !186, metadata !596}
!625 = metadata !{i32 786478, i32 0, metadata !577, metadata !"to_int64", metadata !"to_int64", metadata !"_ZNK12ap_range_refILi64ELb1EE8to_int64Ev", metadata !127, i32 1203, metadata !626, i1 false, i1 false, i32 0, i32 0, null, i32 256, i1 false, null, null, i32 0, metadata !142, i32 1203} ; [ DW_TAG_subprogram ]
!626 = metadata !{i32 786453, i32 0, metadata !"", i32 0, i32 0, i64 0, i64 0, i64 0, i32 0, null, metadata !627, i32 0, i32 0} ; [ DW_TAG_subroutine_type ]
!627 = metadata !{metadata !190, metadata !596}
!628 = metadata !{i32 786478, i32 0, metadata !577, metadata !"to_uint64", metadata !"to_uint64", metadata !"_ZNK12ap_range_refILi64ELb1EE9to_uint64Ev", metadata !127, i32 1206, metadata !629, i1 false, i1 false, i32 0, i32 0, null, i32 256, i1 false, null, null, i32 0, metadata !142, i32 1206} ; [ DW_TAG_subprogram ]
!629 = metadata !{i32 786453, i32 0, metadata !"", i32 0, i32 0, i64 0, i64 0, i64 0, i32 0, null, metadata !630, i32 0, i32 0} ; [ DW_TAG_subroutine_type ]
!630 = metadata !{metadata !195, metadata !596}
!631 = metadata !{i32 786478, i32 0, metadata !577, metadata !"and_reduce", metadata !"and_reduce", metadata !"_ZNK12ap_range_refILi64ELb1EE10and_reduceEv", metadata !127, i32 1209, metadata !632, i1 false, i1 false, i32 0, i32 0, null, i32 256, i1 false, null, null, i32 0, metadata !142, i32 1209} ; [ DW_TAG_subprogram ]
!632 = metadata !{i32 786453, i32 0, metadata !"", i32 0, i32 0, i64 0, i64 0, i64 0, i32 0, null, metadata !633, i32 0, i32 0} ; [ DW_TAG_subroutine_type ]
!633 = metadata !{metadata !148, metadata !596}
!634 = metadata !{i32 786478, i32 0, metadata !577, metadata !"or_reduce", metadata !"or_reduce", metadata !"_ZNK12ap_range_refILi64ELb1EE9or_reduceEv", metadata !127, i32 1220, metadata !632, i1 false, i1 false, i32 0, i32 0, null, i32 256, i1 false, null, null, i32 0, metadata !142, i32 1220} ; [ DW_TAG_subprogram ]
!635 = metadata !{i32 786478, i32 0, metadata !577, metadata !"xor_reduce", metadata !"xor_reduce", metadata !"_ZNK12ap_range_refILi64ELb1EE10xor_reduceEv", metadata !127, i32 1231, metadata !632, i1 false, i1 false, i32 0, i32 0, null, i32 256, i1 false, null, null, i32 0, metadata !142, i32 1231} ; [ DW_TAG_subprogram ]
!636 = metadata !{i32 786478, i32 0, metadata !577, metadata !"~ap_range_ref", metadata !"~ap_range_ref", metadata !"", metadata !127, i32 925, metadata !637, i1 false, i1 false, i32 0, i32 0, null, i32 320, i1 false, null, null, i32 0, metadata !142, i32 925} ; [ DW_TAG_subprogram ]
!637 = metadata !{i32 786453, i32 0, metadata !"", i32 0, i32 0, i64 0, i64 0, i64 0, i32 0, null, metadata !638, i32 0, i32 0} ; [ DW_TAG_subroutine_type ]
!638 = metadata !{null, metadata !585}
!639 = metadata !{metadata !640, metadata !376}
!640 = metadata !{i32 786480, null, metadata !"_AP_W", metadata !146, i64 64, null, i32 0, i32 0} ; [ DW_TAG_template_value_parameter ]
!641 = metadata !{i32 786478, i32 0, metadata !359, metadata !"operator()", metadata !"operator()", metadata !"_ZN11ap_int_baseILi64ELb1ELb1EEclEii", metadata !127, i32 2068, metadata !575, i1 false, i1 false, i32 0, i32 0, null, i32 256, i1 false, null, null, i32 0, metadata !142, i32 2068} ; [ DW_TAG_subprogram ]
!642 = metadata !{i32 786478, i32 0, metadata !359, metadata !"range", metadata !"range", metadata !"_ZNK11ap_int_baseILi64ELb1ELb1EE5rangeEii", metadata !127, i32 2074, metadata !643, i1 false, i1 false, i32 0, i32 0, null, i32 256, i1 false, null, null, i32 0, metadata !142, i32 2074} ; [ DW_TAG_subprogram ]
!643 = metadata !{i32 786453, i32 0, metadata !"", i32 0, i32 0, i64 0, i64 0, i64 0, i32 0, null, metadata !644, i32 0, i32 0} ; [ DW_TAG_subroutine_type ]
!644 = metadata !{metadata !577, metadata !498, metadata !146, metadata !146}
!645 = metadata !{i32 786478, i32 0, metadata !359, metadata !"operator()", metadata !"operator()", metadata !"_ZNK11ap_int_baseILi64ELb1ELb1EEclEii", metadata !127, i32 2080, metadata !643, i1 false, i1 false, i32 0, i32 0, null, i32 256, i1 false, null, null, i32 0, metadata !142, i32 2080} ; [ DW_TAG_subprogram ]
!646 = metadata !{i32 786478, i32 0, metadata !359, metadata !"operator[]", metadata !"operator[]", metadata !"_ZN11ap_int_baseILi64ELb1ELb1EEixEi", metadata !127, i32 2099, metadata !647, i1 false, i1 false, i32 0, i32 0, null, i32 256, i1 false, null, null, i32 0, metadata !142, i32 2099} ; [ DW_TAG_subprogram ]
!647 = metadata !{i32 786453, i32 0, metadata !"", i32 0, i32 0, i64 0, i64 0, i64 0, i32 0, null, metadata !648, i32 0, i32 0} ; [ DW_TAG_subroutine_type ]
!648 = metadata !{metadata !649, metadata !380, metadata !146}
!649 = metadata !{i32 786434, null, metadata !"ap_bit_ref<64, true>", metadata !127, i32 1249, i64 0, i64 0, i32 0, i32 4, null, null, i32 0, null, metadata !639} ; [ DW_TAG_class_type ]
!650 = metadata !{i32 786478, i32 0, metadata !359, metadata !"operator[]", metadata !"operator[]", metadata !"_ZNK11ap_int_baseILi64ELb1ELb1EEixEi", metadata !127, i32 2113, metadata !549, i1 false, i1 false, i32 0, i32 0, null, i32 256, i1 false, null, null, i32 0, metadata !142, i32 2113} ; [ DW_TAG_subprogram ]
!651 = metadata !{i32 786478, i32 0, metadata !359, metadata !"bit", metadata !"bit", metadata !"_ZN11ap_int_baseILi64ELb1ELb1EE3bitEi", metadata !127, i32 2127, metadata !647, i1 false, i1 false, i32 0, i32 0, null, i32 256, i1 false, null, null, i32 0, metadata !142, i32 2127} ; [ DW_TAG_subprogram ]
!652 = metadata !{i32 786478, i32 0, metadata !359, metadata !"bit", metadata !"bit", metadata !"_ZNK11ap_int_baseILi64ELb1ELb1EE3bitEi", metadata !127, i32 2141, metadata !549, i1 false, i1 false, i32 0, i32 0, null, i32 256, i1 false, null, null, i32 0, metadata !142, i32 2141} ; [ DW_TAG_subprogram ]
!653 = metadata !{i32 786478, i32 0, metadata !359, metadata !"and_reduce", metadata !"and_reduce", metadata !"_ZN11ap_int_baseILi64ELb1ELb1EE10and_reduceEv", metadata !127, i32 2321, metadata !654, i1 false, i1 false, i32 0, i32 0, null, i32 256, i1 false, null, null, i32 0, metadata !142, i32 2321} ; [ DW_TAG_subprogram ]
!654 = metadata !{i32 786453, i32 0, metadata !"", i32 0, i32 0, i64 0, i64 0, i64 0, i32 0, null, metadata !655, i32 0, i32 0} ; [ DW_TAG_subroutine_type ]
!655 = metadata !{metadata !148, metadata !380}
!656 = metadata !{i32 786478, i32 0, metadata !359, metadata !"nand_reduce", metadata !"nand_reduce", metadata !"_ZN11ap_int_baseILi64ELb1ELb1EE11nand_reduceEv", metadata !127, i32 2324, metadata !654, i1 false, i1 false, i32 0, i32 0, null, i32 256, i1 false, null, null, i32 0, metadata !142, i32 2324} ; [ DW_TAG_subprogram ]
!657 = metadata !{i32 786478, i32 0, metadata !359, metadata !"or_reduce", metadata !"or_reduce", metadata !"_ZN11ap_int_baseILi64ELb1ELb1EE9or_reduceEv", metadata !127, i32 2327, metadata !654, i1 false, i1 false, i32 0, i32 0, null, i32 256, i1 false, null, null, i32 0, metadata !142, i32 2327} ; [ DW_TAG_subprogram ]
!658 = metadata !{i32 786478, i32 0, metadata !359, metadata !"nor_reduce", metadata !"nor_reduce", metadata !"_ZN11ap_int_baseILi64ELb1ELb1EE10nor_reduceEv", metadata !127, i32 2330, metadata !654, i1 false, i1 false, i32 0, i32 0, null, i32 256, i1 false, null, null, i32 0, metadata !142, i32 2330} ; [ DW_TAG_subprogram ]
!659 = metadata !{i32 786478, i32 0, metadata !359, metadata !"xor_reduce", metadata !"xor_reduce", metadata !"_ZN11ap_int_baseILi64ELb1ELb1EE10xor_reduceEv", metadata !127, i32 2333, metadata !654, i1 false, i1 false, i32 0, i32 0, null, i32 256, i1 false, null, null, i32 0, metadata !142, i32 2333} ; [ DW_TAG_subprogram ]
!660 = metadata !{i32 786478, i32 0, metadata !359, metadata !"xnor_reduce", metadata !"xnor_reduce", metadata !"_ZN11ap_int_baseILi64ELb1ELb1EE11xnor_reduceEv", metadata !127, i32 2336, metadata !654, i1 false, i1 false, i32 0, i32 0, null, i32 256, i1 false, null, null, i32 0, metadata !142, i32 2336} ; [ DW_TAG_subprogram ]
!661 = metadata !{i32 786478, i32 0, metadata !359, metadata !"and_reduce", metadata !"and_reduce", metadata !"_ZNK11ap_int_baseILi64ELb1ELb1EE10and_reduceEv", metadata !127, i32 2340, metadata !500, i1 false, i1 false, i32 0, i32 0, null, i32 256, i1 false, null, null, i32 0, metadata !142, i32 2340} ; [ DW_TAG_subprogram ]
!662 = metadata !{i32 786478, i32 0, metadata !359, metadata !"nand_reduce", metadata !"nand_reduce", metadata !"_ZNK11ap_int_baseILi64ELb1ELb1EE11nand_reduceEv", metadata !127, i32 2343, metadata !500, i1 false, i1 false, i32 0, i32 0, null, i32 256, i1 false, null, null, i32 0, metadata !142, i32 2343} ; [ DW_TAG_subprogram ]
!663 = metadata !{i32 786478, i32 0, metadata !359, metadata !"or_reduce", metadata !"or_reduce", metadata !"_ZNK11ap_int_baseILi64ELb1ELb1EE9or_reduceEv", metadata !127, i32 2346, metadata !500, i1 false, i1 false, i32 0, i32 0, null, i32 256, i1 false, null, null, i32 0, metadata !142, i32 2346} ; [ DW_TAG_subprogram ]
!664 = metadata !{i32 786478, i32 0, metadata !359, metadata !"nor_reduce", metadata !"nor_reduce", metadata !"_ZNK11ap_int_baseILi64ELb1ELb1EE10nor_reduceEv", metadata !127, i32 2349, metadata !500, i1 false, i1 false, i32 0, i32 0, null, i32 256, i1 false, null, null, i32 0, metadata !142, i32 2349} ; [ DW_TAG_subprogram ]
!665 = metadata !{i32 786478, i32 0, metadata !359, metadata !"xor_reduce", metadata !"xor_reduce", metadata !"_ZNK11ap_int_baseILi64ELb1ELb1EE10xor_reduceEv", metadata !127, i32 2352, metadata !500, i1 false, i1 false, i32 0, i32 0, null, i32 256, i1 false, null, null, i32 0, metadata !142, i32 2352} ; [ DW_TAG_subprogram ]
!666 = metadata !{i32 786478, i32 0, metadata !359, metadata !"xnor_reduce", metadata !"xnor_reduce", metadata !"_ZNK11ap_int_baseILi64ELb1ELb1EE11xnor_reduceEv", metadata !127, i32 2355, metadata !500, i1 false, i1 false, i32 0, i32 0, null, i32 256, i1 false, null, null, i32 0, metadata !142, i32 2355} ; [ DW_TAG_subprogram ]
!667 = metadata !{i32 786478, i32 0, metadata !359, metadata !"to_string", metadata !"to_string", metadata !"_ZNK11ap_int_baseILi64ELb1ELb1EE9to_stringEPci8BaseModeb", metadata !127, i32 2362, metadata !668, i1 false, i1 false, i32 0, i32 0, null, i32 256, i1 false, null, null, i32 0, metadata !142, i32 2362} ; [ DW_TAG_subprogram ]
!668 = metadata !{i32 786453, i32 0, metadata !"", i32 0, i32 0, i64 0, i64 0, i64 0, i32 0, null, metadata !669, i32 0, i32 0} ; [ DW_TAG_subroutine_type ]
!669 = metadata !{null, metadata !498, metadata !670, metadata !146, metadata !671, metadata !148}
!670 = metadata !{i32 786447, null, metadata !"", null, i32 0, i64 64, i64 64, i64 0, i32 0, metadata !215} ; [ DW_TAG_pointer_type ]
!671 = metadata !{i32 786436, null, metadata !"BaseMode", metadata !127, i32 603, i64 5, i64 8, i32 0, i32 0, null, metadata !672, i32 0, i32 0} ; [ DW_TAG_enumeration_type ]
!672 = metadata !{metadata !673, metadata !674, metadata !675, metadata !676}
!673 = metadata !{i32 786472, metadata !"SC_BIN", i64 2} ; [ DW_TAG_enumerator ]
!674 = metadata !{i32 786472, metadata !"SC_OCT", i64 8} ; [ DW_TAG_enumerator ]
!675 = metadata !{i32 786472, metadata !"SC_DEC", i64 10} ; [ DW_TAG_enumerator ]
!676 = metadata !{i32 786472, metadata !"SC_HEX", i64 16} ; [ DW_TAG_enumerator ]
!677 = metadata !{i32 786478, i32 0, metadata !359, metadata !"to_string", metadata !"to_string", metadata !"_ZNK11ap_int_baseILi64ELb1ELb1EE9to_stringE8BaseModeb", metadata !127, i32 2389, metadata !678, i1 false, i1 false, i32 0, i32 0, null, i32 256, i1 false, null, null, i32 0, metadata !142, i32 2389} ; [ DW_TAG_subprogram ]
!678 = metadata !{i32 786453, i32 0, metadata !"", i32 0, i32 0, i64 0, i64 0, i64 0, i32 0, null, metadata !679, i32 0, i32 0} ; [ DW_TAG_subroutine_type ]
!679 = metadata !{metadata !670, metadata !498, metadata !671, metadata !148}
!680 = metadata !{i32 786478, i32 0, metadata !359, metadata !"to_string", metadata !"to_string", metadata !"_ZNK11ap_int_baseILi64ELb1ELb1EE9to_stringEab", metadata !127, i32 2393, metadata !681, i1 false, i1 false, i32 0, i32 0, null, i32 256, i1 false, null, null, i32 0, metadata !142, i32 2393} ; [ DW_TAG_subprogram ]
!681 = metadata !{i32 786453, i32 0, metadata !"", i32 0, i32 0, i64 0, i64 0, i64 0, i32 0, null, metadata !682, i32 0, i32 0} ; [ DW_TAG_subroutine_type ]
!682 = metadata !{metadata !670, metadata !498, metadata !159, metadata !148}
!683 = metadata !{i32 786478, i32 0, metadata !359, metadata !"ap_int_base", metadata !"ap_int_base", metadata !"", metadata !127, i32 1453, metadata !382, i1 false, i1 false, i32 0, i32 0, null, i32 320, i1 false, null, null, i32 0, metadata !142, i32 1453} ; [ DW_TAG_subprogram ]
!684 = metadata !{i32 786478, i32 0, metadata !359, metadata !"~ap_int_base", metadata !"~ap_int_base", metadata !"", metadata !127, i32 1453, metadata !378, i1 false, i1 false, i32 0, i32 0, null, i32 320, i1 false, null, null, i32 0, metadata !142, i32 1453} ; [ DW_TAG_subprogram ]
!685 = metadata !{metadata !640, metadata !376, metadata !686}
!686 = metadata !{i32 786480, null, metadata !"_AP_C", metadata !148, i64 1, null, i32 0, i32 0} ; [ DW_TAG_template_value_parameter ]
!687 = metadata !{i32 786478, i32 0, metadata !130, metadata !"range", metadata !"range", metadata !"_ZN11ap_int_baseILi64ELb0ELb1EE5rangeEii", metadata !127, i32 2062, metadata !688, i1 false, i1 false, i32 0, i32 0, null, i32 256, i1 false, null, null, i32 0, metadata !142, i32 2062} ; [ DW_TAG_subprogram ]
!688 = metadata !{i32 786453, i32 0, metadata !"", i32 0, i32 0, i64 0, i64 0, i64 0, i32 0, null, metadata !689, i32 0, i32 0} ; [ DW_TAG_subroutine_type ]
!689 = metadata !{metadata !690, metadata !152, metadata !146, metadata !146}
!690 = metadata !{i32 786434, null, metadata !"ap_range_ref<64, false>", metadata !127, i32 925, i64 128, i64 64, i32 0, i32 0, null, metadata !691, i32 0, null, metadata !750} ; [ DW_TAG_class_type ]
!691 = metadata !{metadata !692, metadata !693, metadata !694, metadata !695, metadata !701, metadata !705, metadata !709, metadata !712, metadata !716, metadata !719, metadata !726, metadata !729, metadata !730, metadata !733, metadata !736, metadata !739, metadata !742, metadata !745, metadata !748, metadata !749}
!692 = metadata !{i32 786445, metadata !690, metadata !"d_bv", metadata !127, i32 926, i64 64, i64 64, i64 0, i32 0, metadata !238} ; [ DW_TAG_member ]
!693 = metadata !{i32 786445, metadata !690, metadata !"l_index", metadata !127, i32 927, i64 32, i64 32, i64 64, i32 0, metadata !146} ; [ DW_TAG_member ]
!694 = metadata !{i32 786445, metadata !690, metadata !"h_index", metadata !127, i32 928, i64 32, i64 32, i64 96, i32 0, metadata !146} ; [ DW_TAG_member ]
!695 = metadata !{i32 786478, i32 0, metadata !690, metadata !"ap_range_ref", metadata !"ap_range_ref", metadata !"", metadata !127, i32 931, metadata !696, i1 false, i1 false, i32 0, i32 0, null, i32 256, i1 false, null, null, i32 0, metadata !142, i32 931} ; [ DW_TAG_subprogram ]
!696 = metadata !{i32 786453, i32 0, metadata !"", i32 0, i32 0, i64 0, i64 0, i64 0, i32 0, null, metadata !697, i32 0, i32 0} ; [ DW_TAG_subroutine_type ]
!697 = metadata !{null, metadata !698, metadata !699}
!698 = metadata !{i32 786447, i32 0, metadata !"", i32 0, i32 0, i64 64, i64 64, i64 0, i32 64, metadata !690} ; [ DW_TAG_pointer_type ]
!699 = metadata !{i32 786448, null, null, null, i32 0, i64 0, i64 0, i64 0, i32 0, metadata !700} ; [ DW_TAG_reference_type ]
!700 = metadata !{i32 786470, null, metadata !"", null, i32 0, i64 0, i64 0, i64 0, i32 0, metadata !690} ; [ DW_TAG_const_type ]
!701 = metadata !{i32 786478, i32 0, metadata !690, metadata !"ap_range_ref", metadata !"ap_range_ref", metadata !"", metadata !127, i32 934, metadata !702, i1 false, i1 false, i32 0, i32 0, null, i32 256, i1 false, null, null, i32 0, metadata !142, i32 934} ; [ DW_TAG_subprogram ]
!702 = metadata !{i32 786453, i32 0, metadata !"", i32 0, i32 0, i64 0, i64 0, i64 0, i32 0, null, metadata !703, i32 0, i32 0} ; [ DW_TAG_subroutine_type ]
!703 = metadata !{null, metadata !698, metadata !704, metadata !146, metadata !146}
!704 = metadata !{i32 786447, null, metadata !"", null, i32 0, i64 64, i64 64, i64 0, i32 0, metadata !130} ; [ DW_TAG_pointer_type ]
!705 = metadata !{i32 786478, i32 0, metadata !690, metadata !"operator ap_int_base", metadata !"operator ap_int_base", metadata !"_ZNK12ap_range_refILi64ELb0EEcv11ap_int_baseILi64ELb0ELb1EEEv", metadata !127, i32 939, metadata !706, i1 false, i1 false, i32 0, i32 0, null, i32 256, i1 false, null, null, i32 0, metadata !142, i32 939} ; [ DW_TAG_subprogram ]
!706 = metadata !{i32 786453, i32 0, metadata !"", i32 0, i32 0, i64 0, i64 0, i64 0, i32 0, null, metadata !707, i32 0, i32 0} ; [ DW_TAG_subroutine_type ]
!707 = metadata !{metadata !130, metadata !708}
!708 = metadata !{i32 786447, i32 0, metadata !"", i32 0, i32 0, i64 64, i64 64, i64 0, i32 64, metadata !700} ; [ DW_TAG_pointer_type ]
!709 = metadata !{i32 786478, i32 0, metadata !690, metadata !"operator unsigned long long", metadata !"operator unsigned long long", metadata !"_ZNK12ap_range_refILi64ELb0EEcvyEv", metadata !127, i32 945, metadata !710, i1 false, i1 false, i32 0, i32 0, null, i32 256, i1 false, null, null, i32 0, metadata !142, i32 945} ; [ DW_TAG_subprogram ]
!710 = metadata !{i32 786453, i32 0, metadata !"", i32 0, i32 0, i64 0, i64 0, i64 0, i32 0, null, metadata !711, i32 0, i32 0} ; [ DW_TAG_subroutine_type ]
!711 = metadata !{metadata !196, metadata !708}
!712 = metadata !{i32 786478, i32 0, metadata !690, metadata !"operator=", metadata !"operator=", metadata !"_ZN12ap_range_refILi64ELb0EEaSEy", metadata !127, i32 949, metadata !713, i1 false, i1 false, i32 0, i32 0, null, i32 256, i1 false, null, null, i32 0, metadata !142, i32 949} ; [ DW_TAG_subprogram ]
!713 = metadata !{i32 786453, i32 0, metadata !"", i32 0, i32 0, i64 0, i64 0, i64 0, i32 0, null, metadata !714, i32 0, i32 0} ; [ DW_TAG_subroutine_type ]
!714 = metadata !{metadata !715, metadata !698, metadata !196}
!715 = metadata !{i32 786448, null, null, null, i32 0, i64 0, i64 0, i64 0, i32 0, metadata !690} ; [ DW_TAG_reference_type ]
!716 = metadata !{i32 786478, i32 0, metadata !690, metadata !"operator=", metadata !"operator=", metadata !"_ZN12ap_range_refILi64ELb0EEaSERKS0_", metadata !127, i32 967, metadata !717, i1 false, i1 false, i32 0, i32 0, null, i32 256, i1 false, null, null, i32 0, metadata !142, i32 967} ; [ DW_TAG_subprogram ]
!717 = metadata !{i32 786453, i32 0, metadata !"", i32 0, i32 0, i64 0, i64 0, i64 0, i32 0, null, metadata !718, i32 0, i32 0} ; [ DW_TAG_subroutine_type ]
!718 = metadata !{metadata !715, metadata !698, metadata !699}
!719 = metadata !{i32 786478, i32 0, metadata !690, metadata !"operator,", metadata !"operator,", metadata !"_ZN12ap_range_refILi64ELb0EEcmER11ap_int_baseILi64ELb0ELb1EE", metadata !127, i32 1022, metadata !720, i1 false, i1 false, i32 0, i32 0, null, i32 256, i1 false, null, null, i32 0, metadata !142, i32 1022} ; [ DW_TAG_subprogram ]
!720 = metadata !{i32 786453, i32 0, metadata !"", i32 0, i32 0, i64 0, i64 0, i64 0, i32 0, null, metadata !721, i32 0, i32 0} ; [ DW_TAG_subroutine_type ]
!721 = metadata !{metadata !722, metadata !698, metadata !238}
!722 = metadata !{i32 786434, null, metadata !"ap_concat_ref<64, ap_range_ref<64, false>, 64, ap_int_base<64, false, true> >", metadata !127, i32 688, i64 0, i64 0, i32 0, i32 4, null, null, i32 0, null, metadata !723} ; [ DW_TAG_class_type ]
!723 = metadata !{metadata !609, metadata !724, metadata !387, metadata !725}
!724 = metadata !{i32 786479, null, metadata !"_AP_T1", metadata !690, null, i32 0, i32 0} ; [ DW_TAG_template_type_parameter ]
!725 = metadata !{i32 786479, null, metadata !"_AP_T2", metadata !130, null, i32 0, i32 0} ; [ DW_TAG_template_type_parameter ]
!726 = metadata !{i32 786478, i32 0, metadata !690, metadata !"length", metadata !"length", metadata !"_ZNK12ap_range_refILi64ELb0EE6lengthEv", metadata !127, i32 1187, metadata !727, i1 false, i1 false, i32 0, i32 0, null, i32 256, i1 false, null, null, i32 0, metadata !142, i32 1187} ; [ DW_TAG_subprogram ]
!727 = metadata !{i32 786453, i32 0, metadata !"", i32 0, i32 0, i64 0, i64 0, i64 0, i32 0, null, metadata !728, i32 0, i32 0} ; [ DW_TAG_subroutine_type ]
!728 = metadata !{metadata !146, metadata !708}
!729 = metadata !{i32 786478, i32 0, metadata !690, metadata !"to_int", metadata !"to_int", metadata !"_ZNK12ap_range_refILi64ELb0EE6to_intEv", metadata !127, i32 1191, metadata !727, i1 false, i1 false, i32 0, i32 0, null, i32 256, i1 false, null, null, i32 0, metadata !142, i32 1191} ; [ DW_TAG_subprogram ]
!730 = metadata !{i32 786478, i32 0, metadata !690, metadata !"to_uint", metadata !"to_uint", metadata !"_ZNK12ap_range_refILi64ELb0EE7to_uintEv", metadata !127, i32 1194, metadata !731, i1 false, i1 false, i32 0, i32 0, null, i32 256, i1 false, null, null, i32 0, metadata !142, i32 1194} ; [ DW_TAG_subprogram ]
!731 = metadata !{i32 786453, i32 0, metadata !"", i32 0, i32 0, i64 0, i64 0, i64 0, i32 0, null, metadata !732, i32 0, i32 0} ; [ DW_TAG_subroutine_type ]
!732 = metadata !{metadata !178, metadata !708}
!733 = metadata !{i32 786478, i32 0, metadata !690, metadata !"to_long", metadata !"to_long", metadata !"_ZNK12ap_range_refILi64ELb0EE7to_longEv", metadata !127, i32 1197, metadata !734, i1 false, i1 false, i32 0, i32 0, null, i32 256, i1 false, null, null, i32 0, metadata !142, i32 1197} ; [ DW_TAG_subprogram ]
!734 = metadata !{i32 786453, i32 0, metadata !"", i32 0, i32 0, i64 0, i64 0, i64 0, i32 0, null, metadata !735, i32 0, i32 0} ; [ DW_TAG_subroutine_type ]
!735 = metadata !{metadata !182, metadata !708}
!736 = metadata !{i32 786478, i32 0, metadata !690, metadata !"to_ulong", metadata !"to_ulong", metadata !"_ZNK12ap_range_refILi64ELb0EE8to_ulongEv", metadata !127, i32 1200, metadata !737, i1 false, i1 false, i32 0, i32 0, null, i32 256, i1 false, null, null, i32 0, metadata !142, i32 1200} ; [ DW_TAG_subprogram ]
!737 = metadata !{i32 786453, i32 0, metadata !"", i32 0, i32 0, i64 0, i64 0, i64 0, i32 0, null, metadata !738, i32 0, i32 0} ; [ DW_TAG_subroutine_type ]
!738 = metadata !{metadata !186, metadata !708}
!739 = metadata !{i32 786478, i32 0, metadata !690, metadata !"to_int64", metadata !"to_int64", metadata !"_ZNK12ap_range_refILi64ELb0EE8to_int64Ev", metadata !127, i32 1203, metadata !740, i1 false, i1 false, i32 0, i32 0, null, i32 256, i1 false, null, null, i32 0, metadata !142, i32 1203} ; [ DW_TAG_subprogram ]
!740 = metadata !{i32 786453, i32 0, metadata !"", i32 0, i32 0, i64 0, i64 0, i64 0, i32 0, null, metadata !741, i32 0, i32 0} ; [ DW_TAG_subroutine_type ]
!741 = metadata !{metadata !190, metadata !708}
!742 = metadata !{i32 786478, i32 0, metadata !690, metadata !"to_uint64", metadata !"to_uint64", metadata !"_ZNK12ap_range_refILi64ELb0EE9to_uint64Ev", metadata !127, i32 1206, metadata !743, i1 false, i1 false, i32 0, i32 0, null, i32 256, i1 false, null, null, i32 0, metadata !142, i32 1206} ; [ DW_TAG_subprogram ]
!743 = metadata !{i32 786453, i32 0, metadata !"", i32 0, i32 0, i64 0, i64 0, i64 0, i32 0, null, metadata !744, i32 0, i32 0} ; [ DW_TAG_subroutine_type ]
!744 = metadata !{metadata !195, metadata !708}
!745 = metadata !{i32 786478, i32 0, metadata !690, metadata !"and_reduce", metadata !"and_reduce", metadata !"_ZNK12ap_range_refILi64ELb0EE10and_reduceEv", metadata !127, i32 1209, metadata !746, i1 false, i1 false, i32 0, i32 0, null, i32 256, i1 false, null, null, i32 0, metadata !142, i32 1209} ; [ DW_TAG_subprogram ]
!746 = metadata !{i32 786453, i32 0, metadata !"", i32 0, i32 0, i64 0, i64 0, i64 0, i32 0, null, metadata !747, i32 0, i32 0} ; [ DW_TAG_subroutine_type ]
!747 = metadata !{metadata !148, metadata !708}
!748 = metadata !{i32 786478, i32 0, metadata !690, metadata !"or_reduce", metadata !"or_reduce", metadata !"_ZNK12ap_range_refILi64ELb0EE9or_reduceEv", metadata !127, i32 1220, metadata !746, i1 false, i1 false, i32 0, i32 0, null, i32 256, i1 false, null, null, i32 0, metadata !142, i32 1220} ; [ DW_TAG_subprogram ]
!749 = metadata !{i32 786478, i32 0, metadata !690, metadata !"xor_reduce", metadata !"xor_reduce", metadata !"_ZNK12ap_range_refILi64ELb0EE10xor_reduceEv", metadata !127, i32 1231, metadata !746, i1 false, i1 false, i32 0, i32 0, null, i32 256, i1 false, null, null, i32 0, metadata !142, i32 1231} ; [ DW_TAG_subprogram ]
!750 = metadata !{metadata !640, metadata !147}
!751 = metadata !{i32 786478, i32 0, metadata !130, metadata !"operator()", metadata !"operator()", metadata !"_ZN11ap_int_baseILi64ELb0ELb1EEclEii", metadata !127, i32 2068, metadata !688, i1 false, i1 false, i32 0, i32 0, null, i32 256, i1 false, null, null, i32 0, metadata !142, i32 2068} ; [ DW_TAG_subprogram ]
!752 = metadata !{i32 786478, i32 0, metadata !130, metadata !"range", metadata !"range", metadata !"_ZNK11ap_int_baseILi64ELb0ELb1EE5rangeEii", metadata !127, i32 2074, metadata !753, i1 false, i1 false, i32 0, i32 0, null, i32 256, i1 false, null, null, i32 0, metadata !142, i32 2074} ; [ DW_TAG_subprogram ]
!753 = metadata !{i32 786453, i32 0, metadata !"", i32 0, i32 0, i64 0, i64 0, i64 0, i32 0, null, metadata !754, i32 0, i32 0} ; [ DW_TAG_subroutine_type ]
!754 = metadata !{metadata !690, metadata !281, metadata !146, metadata !146}
!755 = metadata !{i32 786478, i32 0, metadata !130, metadata !"operator()", metadata !"operator()", metadata !"_ZNK11ap_int_baseILi64ELb0ELb1EEclEii", metadata !127, i32 2080, metadata !753, i1 false, i1 false, i32 0, i32 0, null, i32 256, i1 false, null, null, i32 0, metadata !142, i32 2080} ; [ DW_TAG_subprogram ]
!756 = metadata !{i32 786478, i32 0, metadata !130, metadata !"operator[]", metadata !"operator[]", metadata !"_ZN11ap_int_baseILi64ELb0ELb1EEixEi", metadata !127, i32 2099, metadata !757, i1 false, i1 false, i32 0, i32 0, null, i32 256, i1 false, null, null, i32 0, metadata !142, i32 2099} ; [ DW_TAG_subprogram ]
!757 = metadata !{i32 786453, i32 0, metadata !"", i32 0, i32 0, i64 0, i64 0, i64 0, i32 0, null, metadata !758, i32 0, i32 0} ; [ DW_TAG_subroutine_type ]
!758 = metadata !{metadata !759, metadata !152, metadata !146}
!759 = metadata !{i32 786434, null, metadata !"ap_bit_ref<64, false>", metadata !127, i32 1249, i64 0, i64 0, i32 0, i32 4, null, null, i32 0, null, metadata !750} ; [ DW_TAG_class_type ]
!760 = metadata !{i32 786478, i32 0, metadata !130, metadata !"operator[]", metadata !"operator[]", metadata !"_ZNK11ap_int_baseILi64ELb0ELb1EEixEi", metadata !127, i32 2113, metadata !332, i1 false, i1 false, i32 0, i32 0, null, i32 256, i1 false, null, null, i32 0, metadata !142, i32 2113} ; [ DW_TAG_subprogram ]
!761 = metadata !{i32 786478, i32 0, metadata !130, metadata !"bit", metadata !"bit", metadata !"_ZN11ap_int_baseILi64ELb0ELb1EE3bitEi", metadata !127, i32 2127, metadata !757, i1 false, i1 false, i32 0, i32 0, null, i32 256, i1 false, null, null, i32 0, metadata !142, i32 2127} ; [ DW_TAG_subprogram ]
!762 = metadata !{i32 786478, i32 0, metadata !130, metadata !"bit", metadata !"bit", metadata !"_ZNK11ap_int_baseILi64ELb0ELb1EE3bitEi", metadata !127, i32 2141, metadata !332, i1 false, i1 false, i32 0, i32 0, null, i32 256, i1 false, null, null, i32 0, metadata !142, i32 2141} ; [ DW_TAG_subprogram ]
!763 = metadata !{i32 786478, i32 0, metadata !130, metadata !"and_reduce", metadata !"and_reduce", metadata !"_ZN11ap_int_baseILi64ELb0ELb1EE10and_reduceEv", metadata !127, i32 2321, metadata !764, i1 false, i1 false, i32 0, i32 0, null, i32 256, i1 false, null, null, i32 0, metadata !142, i32 2321} ; [ DW_TAG_subprogram ]
!764 = metadata !{i32 786453, i32 0, metadata !"", i32 0, i32 0, i64 0, i64 0, i64 0, i32 0, null, metadata !765, i32 0, i32 0} ; [ DW_TAG_subroutine_type ]
!765 = metadata !{metadata !148, metadata !152}
!766 = metadata !{i32 786478, i32 0, metadata !130, metadata !"nand_reduce", metadata !"nand_reduce", metadata !"_ZN11ap_int_baseILi64ELb0ELb1EE11nand_reduceEv", metadata !127, i32 2324, metadata !764, i1 false, i1 false, i32 0, i32 0, null, i32 256, i1 false, null, null, i32 0, metadata !142, i32 2324} ; [ DW_TAG_subprogram ]
!767 = metadata !{i32 786478, i32 0, metadata !130, metadata !"or_reduce", metadata !"or_reduce", metadata !"_ZN11ap_int_baseILi64ELb0ELb1EE9or_reduceEv", metadata !127, i32 2327, metadata !764, i1 false, i1 false, i32 0, i32 0, null, i32 256, i1 false, null, null, i32 0, metadata !142, i32 2327} ; [ DW_TAG_subprogram ]
!768 = metadata !{i32 786478, i32 0, metadata !130, metadata !"nor_reduce", metadata !"nor_reduce", metadata !"_ZN11ap_int_baseILi64ELb0ELb1EE10nor_reduceEv", metadata !127, i32 2330, metadata !764, i1 false, i1 false, i32 0, i32 0, null, i32 256, i1 false, null, null, i32 0, metadata !142, i32 2330} ; [ DW_TAG_subprogram ]
!769 = metadata !{i32 786478, i32 0, metadata !130, metadata !"xor_reduce", metadata !"xor_reduce", metadata !"_ZN11ap_int_baseILi64ELb0ELb1EE10xor_reduceEv", metadata !127, i32 2333, metadata !764, i1 false, i1 false, i32 0, i32 0, null, i32 256, i1 false, null, null, i32 0, metadata !142, i32 2333} ; [ DW_TAG_subprogram ]
!770 = metadata !{i32 786478, i32 0, metadata !130, metadata !"xnor_reduce", metadata !"xnor_reduce", metadata !"_ZN11ap_int_baseILi64ELb0ELb1EE11xnor_reduceEv", metadata !127, i32 2336, metadata !764, i1 false, i1 false, i32 0, i32 0, null, i32 256, i1 false, null, null, i32 0, metadata !142, i32 2336} ; [ DW_TAG_subprogram ]
!771 = metadata !{i32 786478, i32 0, metadata !130, metadata !"and_reduce", metadata !"and_reduce", metadata !"_ZNK11ap_int_baseILi64ELb0ELb1EE10and_reduceEv", metadata !127, i32 2340, metadata !283, i1 false, i1 false, i32 0, i32 0, null, i32 256, i1 false, null, null, i32 0, metadata !142, i32 2340} ; [ DW_TAG_subprogram ]
!772 = metadata !{i32 786478, i32 0, metadata !130, metadata !"nand_reduce", metadata !"nand_reduce", metadata !"_ZNK11ap_int_baseILi64ELb0ELb1EE11nand_reduceEv", metadata !127, i32 2343, metadata !283, i1 false, i1 false, i32 0, i32 0, null, i32 256, i1 false, null, null, i32 0, metadata !142, i32 2343} ; [ DW_TAG_subprogram ]
!773 = metadata !{i32 786478, i32 0, metadata !130, metadata !"or_reduce", metadata !"or_reduce", metadata !"_ZNK11ap_int_baseILi64ELb0ELb1EE9or_reduceEv", metadata !127, i32 2346, metadata !283, i1 false, i1 false, i32 0, i32 0, null, i32 256, i1 false, null, null, i32 0, metadata !142, i32 2346} ; [ DW_TAG_subprogram ]
!774 = metadata !{i32 786478, i32 0, metadata !130, metadata !"nor_reduce", metadata !"nor_reduce", metadata !"_ZNK11ap_int_baseILi64ELb0ELb1EE10nor_reduceEv", metadata !127, i32 2349, metadata !283, i1 false, i1 false, i32 0, i32 0, null, i32 256, i1 false, null, null, i32 0, metadata !142, i32 2349} ; [ DW_TAG_subprogram ]
!775 = metadata !{i32 786478, i32 0, metadata !130, metadata !"xor_reduce", metadata !"xor_reduce", metadata !"_ZNK11ap_int_baseILi64ELb0ELb1EE10xor_reduceEv", metadata !127, i32 2352, metadata !283, i1 false, i1 false, i32 0, i32 0, null, i32 256, i1 false, null, null, i32 0, metadata !142, i32 2352} ; [ DW_TAG_subprogram ]
!776 = metadata !{i32 786478, i32 0, metadata !130, metadata !"xnor_reduce", metadata !"xnor_reduce", metadata !"_ZNK11ap_int_baseILi64ELb0ELb1EE11xnor_reduceEv", metadata !127, i32 2355, metadata !283, i1 false, i1 false, i32 0, i32 0, null, i32 256, i1 false, null, null, i32 0, metadata !142, i32 2355} ; [ DW_TAG_subprogram ]
!777 = metadata !{i32 786478, i32 0, metadata !130, metadata !"to_string", metadata !"to_string", metadata !"_ZNK11ap_int_baseILi64ELb0ELb1EE9to_stringEPci8BaseModeb", metadata !127, i32 2362, metadata !778, i1 false, i1 false, i32 0, i32 0, null, i32 256, i1 false, null, null, i32 0, metadata !142, i32 2362} ; [ DW_TAG_subprogram ]
!778 = metadata !{i32 786453, i32 0, metadata !"", i32 0, i32 0, i64 0, i64 0, i64 0, i32 0, null, metadata !779, i32 0, i32 0} ; [ DW_TAG_subroutine_type ]
!779 = metadata !{null, metadata !281, metadata !670, metadata !146, metadata !671, metadata !148}
!780 = metadata !{i32 786478, i32 0, metadata !130, metadata !"to_string", metadata !"to_string", metadata !"_ZNK11ap_int_baseILi64ELb0ELb1EE9to_stringE8BaseModeb", metadata !127, i32 2389, metadata !781, i1 false, i1 false, i32 0, i32 0, null, i32 256, i1 false, null, null, i32 0, metadata !142, i32 2389} ; [ DW_TAG_subprogram ]
!781 = metadata !{i32 786453, i32 0, metadata !"", i32 0, i32 0, i64 0, i64 0, i64 0, i32 0, null, metadata !782, i32 0, i32 0} ; [ DW_TAG_subroutine_type ]
!782 = metadata !{metadata !670, metadata !281, metadata !671, metadata !148}
!783 = metadata !{i32 786478, i32 0, metadata !130, metadata !"to_string", metadata !"to_string", metadata !"_ZNK11ap_int_baseILi64ELb0ELb1EE9to_stringEab", metadata !127, i32 2393, metadata !784, i1 false, i1 false, i32 0, i32 0, null, i32 256, i1 false, null, null, i32 0, metadata !142, i32 2393} ; [ DW_TAG_subprogram ]
!784 = metadata !{i32 786453, i32 0, metadata !"", i32 0, i32 0, i64 0, i64 0, i64 0, i32 0, null, metadata !785, i32 0, i32 0} ; [ DW_TAG_subroutine_type ]
!785 = metadata !{metadata !670, metadata !281, metadata !159, metadata !148}
!786 = metadata !{metadata !640, metadata !147, metadata !686}
!787 = metadata !{metadata !788}
!788 = metadata !{i32 0, i32 47, metadata !789}
!789 = metadata !{metadata !790}
!790 = metadata !{metadata !"eth_address.V", metadata !121, metadata !"uint48", i32 0, i32 47}
!791 = metadata !{metadata !792}
!792 = metadata !{i32 0, i32 63, metadata !793}
!793 = metadata !{metadata !794}
!794 = metadata !{metadata !"stream_in.V.data.V", metadata !121, metadata !"int64", i32 0, i32 63}
!795 = metadata !{metadata !796}
!796 = metadata !{i32 0, i32 0, metadata !797}
!797 = metadata !{metadata !798}
!798 = metadata !{metadata !"stream_in.V.last.V", metadata !121, metadata !"uint1", i32 0, i32 0}
!799 = metadata !{metadata !800}
!800 = metadata !{i32 0, i32 63, metadata !801}
!801 = metadata !{metadata !802}
!802 = metadata !{metadata !"stream_out.V.data.V", metadata !121, metadata !"int64", i32 0, i32 63}
!803 = metadata !{metadata !804}
!804 = metadata !{i32 0, i32 7, metadata !805}
!805 = metadata !{metadata !806}
!806 = metadata !{metadata !"stream_out.V.dest.V", metadata !121, metadata !"uint8", i32 0, i32 7}
!807 = metadata !{metadata !808}
!808 = metadata !{i32 0, i32 0, metadata !809}
!809 = metadata !{metadata !810}
!810 = metadata !{metadata !"stream_out.V.last.V", metadata !121, metadata !"uint1", i32 0, i32 0}
!811 = metadata !{metadata !812}
!812 = metadata !{i32 0, i32 47, metadata !813}
!813 = metadata !{metadata !814}
!814 = metadata !{metadata !"observedAddress_out.V", metadata !121, metadata !"uint48", i32 0, i32 47}
!815 = metadata !{metadata !816}
!816 = metadata !{i32 0, i32 15, metadata !817}
!817 = metadata !{metadata !818}
!818 = metadata !{metadata !"dest_out.V", metadata !121, metadata !"uint16", i32 0, i32 15}
!819 = metadata !{metadata !820}
!820 = metadata !{i32 0, i32 0, metadata !821}
!821 = metadata !{metadata !822}
!822 = metadata !{metadata !"match_out.V", metadata !121, metadata !"int1", i32 0, i32 0}
!823 = metadata !{i32 790531, metadata !824, metadata !"eth_address.V", null, i32 35, metadata !3565, i32 0, i32 0} ; [ DW_TAG_arg_variable_field ]
!824 = metadata !{i32 786689, metadata !825, metadata !"eth_address", metadata !826, i32 16777251, metadata !829, i32 0, i32 0} ; [ DW_TAG_arg_variable ]
!825 = metadata !{i32 786478, i32 0, metadata !826, metadata !"fireWall64", metadata !"fireWall64", metadata !"_Z10fireWall64P7ap_uintILi48EEN3hls6streamI10ap_axis_inEENS3_I11ap_axis_outEES1_PS_ILi16EEP6ap_intILi1EE", metadata !826, i32 34, metadata !827, i1 false, i1 true, i32 0, i32 0, null, i32 256, i1 false, null, null, null, metadata !142, i32 42} ; [ DW_TAG_subprogram ]
!826 = metadata !{i32 786473, metadata !"../hlsSources/srcs/fireWall64.cpp", metadata !"/nfs/ug/thesis/thesis0/pc/Quinn/galapagos", null} ; [ DW_TAG_file_type ]
!827 = metadata !{i32 786453, i32 0, metadata !"", i32 0, i32 0, i64 0, i64 0, i64 0, i32 0, null, metadata !828, i32 0, i32 0} ; [ DW_TAG_subroutine_type ]
!828 = metadata !{null, metadata !829, metadata !1155, metadata !1932, metadata !829, metadata !3230, metadata !3231}
!829 = metadata !{i32 786447, null, metadata !"", null, i32 0, i64 64, i64 64, i64 0, i32 0, metadata !830} ; [ DW_TAG_pointer_type ]
!830 = metadata !{i32 786434, null, metadata !"ap_uint<48>", metadata !831, i32 183, i64 64, i64 64, i32 0, i32 0, null, metadata !832, i32 0, null, metadata !1154} ; [ DW_TAG_class_type ]
!831 = metadata !{i32 786473, metadata !"/cad1/Xilinx/Vivado/2018.1/common/technology/autopilot/ap_int.h", metadata !"/nfs/ug/thesis/thesis0/pc/Quinn/galapagos", null} ; [ DW_TAG_file_type ]
!832 = metadata !{metadata !833, metadata !1083, metadata !1087, metadata !1090, metadata !1093, metadata !1096, metadata !1099, metadata !1102, metadata !1105, metadata !1108, metadata !1111, metadata !1114, metadata !1117, metadata !1120, metadata !1123, metadata !1126, metadata !1129, metadata !1132, metadata !1135, metadata !1142, metadata !1147, metadata !1151}
!833 = metadata !{i32 786460, metadata !830, null, metadata !831, i32 0, i64 0, i64 0, i64 0, i32 0, metadata !834} ; [ DW_TAG_inheritance ]
!834 = metadata !{i32 786434, null, metadata !"ap_int_base<48, false, true>", metadata !127, i32 1453, i64 64, i64 64, i32 0, i32 0, null, metadata !835, i32 0, null, metadata !1082} ; [ DW_TAG_class_type ]
!835 = metadata !{metadata !836, metadata !847, metadata !851, metadata !854, metadata !857, metadata !860, metadata !863, metadata !866, metadata !869, metadata !872, metadata !875, metadata !878, metadata !881, metadata !884, metadata !887, metadata !890, metadata !893, metadata !896, metadata !899, metadata !904, metadata !909, metadata !914, metadata !915, metadata !919, metadata !922, metadata !925, metadata !928, metadata !931, metadata !934, metadata !937, metadata !940, metadata !943, metadata !946, metadata !949, metadata !952, metadata !961, metadata !964, metadata !967, metadata !970, metadata !973, metadata !976, metadata !979, metadata !982, metadata !985, metadata !988, metadata !991, metadata !994, metadata !997, metadata !998, metadata !1002, metadata !1005, metadata !1006, metadata !1007, metadata !1008, metadata !1009, metadata !1010, metadata !1013, metadata !1014, metadata !1017, metadata !1018, metadata !1019, metadata !1020, metadata !1021, metadata !1022, metadata !1025, metadata !1026, metadata !1027, metadata !1030, metadata !1031, metadata !1034, metadata !1035, metadata !1041, metadata !1047, metadata !1048, metadata !1051, metadata !1052, metadata !1056, metadata !1057, metadata !1058, metadata !1059, metadata !1062, metadata !1063, metadata !1064, metadata !1065, metadata !1066, metadata !1067, metadata !1068, metadata !1069, metadata !1070, metadata !1071, metadata !1072, metadata !1073, metadata !1076, metadata !1079}
!836 = metadata !{i32 786460, metadata !834, null, metadata !127, i32 0, i64 0, i64 0, i64 0, i32 0, metadata !837} ; [ DW_TAG_inheritance ]
!837 = metadata !{i32 786434, null, metadata !"ssdm_int<48 + 1024 * 0, false>", metadata !134, i32 50, i64 64, i64 64, i32 0, i32 0, null, metadata !838, i32 0, null, metadata !845} ; [ DW_TAG_class_type ]
!838 = metadata !{metadata !839, metadata !841}
!839 = metadata !{i32 786445, metadata !837, metadata !"V", metadata !134, i32 50, i64 48, i64 64, i64 0, i32 0, metadata !840} ; [ DW_TAG_member ]
!840 = metadata !{i32 786468, null, metadata !"uint48", null, i32 0, i64 48, i64 64, i64 0, i32 0, i32 7} ; [ DW_TAG_base_type ]
!841 = metadata !{i32 786478, i32 0, metadata !837, metadata !"ssdm_int", metadata !"ssdm_int", metadata !"", metadata !134, i32 50, metadata !842, i1 false, i1 false, i32 0, i32 0, null, i32 256, i1 false, null, null, i32 0, metadata !142, i32 50} ; [ DW_TAG_subprogram ]
!842 = metadata !{i32 786453, i32 0, metadata !"", i32 0, i32 0, i64 0, i64 0, i64 0, i32 0, null, metadata !843, i32 0, i32 0} ; [ DW_TAG_subroutine_type ]
!843 = metadata !{null, metadata !844}
!844 = metadata !{i32 786447, i32 0, metadata !"", i32 0, i32 0, i64 64, i64 64, i64 0, i32 64, metadata !837} ; [ DW_TAG_pointer_type ]
!845 = metadata !{metadata !846, metadata !147}
!846 = metadata !{i32 786480, null, metadata !"_AP_N", metadata !146, i64 48, null, i32 0, i32 0} ; [ DW_TAG_template_value_parameter ]
!847 = metadata !{i32 786478, i32 0, metadata !834, metadata !"ap_int_base", metadata !"ap_int_base", metadata !"", metadata !127, i32 1494, metadata !848, i1 false, i1 false, i32 0, i32 0, null, i32 256, i1 false, null, null, i32 0, metadata !142, i32 1494} ; [ DW_TAG_subprogram ]
!848 = metadata !{i32 786453, i32 0, metadata !"", i32 0, i32 0, i64 0, i64 0, i64 0, i32 0, null, metadata !849, i32 0, i32 0} ; [ DW_TAG_subroutine_type ]
!849 = metadata !{null, metadata !850}
!850 = metadata !{i32 786447, i32 0, metadata !"", i32 0, i32 0, i64 64, i64 64, i64 0, i32 64, metadata !834} ; [ DW_TAG_pointer_type ]
!851 = metadata !{i32 786478, i32 0, metadata !834, metadata !"ap_int_base", metadata !"ap_int_base", metadata !"", metadata !127, i32 1516, metadata !852, i1 false, i1 false, i32 0, i32 0, null, i32 384, i1 false, null, null, i32 0, metadata !142, i32 1516} ; [ DW_TAG_subprogram ]
!852 = metadata !{i32 786453, i32 0, metadata !"", i32 0, i32 0, i64 0, i64 0, i64 0, i32 0, null, metadata !853, i32 0, i32 0} ; [ DW_TAG_subroutine_type ]
!853 = metadata !{null, metadata !850, metadata !148}
!854 = metadata !{i32 786478, i32 0, metadata !834, metadata !"ap_int_base", metadata !"ap_int_base", metadata !"", metadata !127, i32 1517, metadata !855, i1 false, i1 false, i32 0, i32 0, null, i32 384, i1 false, null, null, i32 0, metadata !142, i32 1517} ; [ DW_TAG_subprogram ]
!855 = metadata !{i32 786453, i32 0, metadata !"", i32 0, i32 0, i64 0, i64 0, i64 0, i32 0, null, metadata !856, i32 0, i32 0} ; [ DW_TAG_subroutine_type ]
!856 = metadata !{null, metadata !850, metadata !159}
!857 = metadata !{i32 786478, i32 0, metadata !834, metadata !"ap_int_base", metadata !"ap_int_base", metadata !"", metadata !127, i32 1518, metadata !858, i1 false, i1 false, i32 0, i32 0, null, i32 384, i1 false, null, null, i32 0, metadata !142, i32 1518} ; [ DW_TAG_subprogram ]
!858 = metadata !{i32 786453, i32 0, metadata !"", i32 0, i32 0, i64 0, i64 0, i64 0, i32 0, null, metadata !859, i32 0, i32 0} ; [ DW_TAG_subroutine_type ]
!859 = metadata !{null, metadata !850, metadata !163}
!860 = metadata !{i32 786478, i32 0, metadata !834, metadata !"ap_int_base", metadata !"ap_int_base", metadata !"", metadata !127, i32 1519, metadata !861, i1 false, i1 false, i32 0, i32 0, null, i32 384, i1 false, null, null, i32 0, metadata !142, i32 1519} ; [ DW_TAG_subprogram ]
!861 = metadata !{i32 786453, i32 0, metadata !"", i32 0, i32 0, i64 0, i64 0, i64 0, i32 0, null, metadata !862, i32 0, i32 0} ; [ DW_TAG_subroutine_type ]
!862 = metadata !{null, metadata !850, metadata !167}
!863 = metadata !{i32 786478, i32 0, metadata !834, metadata !"ap_int_base", metadata !"ap_int_base", metadata !"", metadata !127, i32 1520, metadata !864, i1 false, i1 false, i32 0, i32 0, null, i32 384, i1 false, null, null, i32 0, metadata !142, i32 1520} ; [ DW_TAG_subprogram ]
!864 = metadata !{i32 786453, i32 0, metadata !"", i32 0, i32 0, i64 0, i64 0, i64 0, i32 0, null, metadata !865, i32 0, i32 0} ; [ DW_TAG_subroutine_type ]
!865 = metadata !{null, metadata !850, metadata !171}
!866 = metadata !{i32 786478, i32 0, metadata !834, metadata !"ap_int_base", metadata !"ap_int_base", metadata !"", metadata !127, i32 1521, metadata !867, i1 false, i1 false, i32 0, i32 0, null, i32 384, i1 false, null, null, i32 0, metadata !142, i32 1521} ; [ DW_TAG_subprogram ]
!867 = metadata !{i32 786453, i32 0, metadata !"", i32 0, i32 0, i64 0, i64 0, i64 0, i32 0, null, metadata !868, i32 0, i32 0} ; [ DW_TAG_subroutine_type ]
!868 = metadata !{null, metadata !850, metadata !146}
!869 = metadata !{i32 786478, i32 0, metadata !834, metadata !"ap_int_base", metadata !"ap_int_base", metadata !"", metadata !127, i32 1522, metadata !870, i1 false, i1 false, i32 0, i32 0, null, i32 384, i1 false, null, null, i32 0, metadata !142, i32 1522} ; [ DW_TAG_subprogram ]
!870 = metadata !{i32 786453, i32 0, metadata !"", i32 0, i32 0, i64 0, i64 0, i64 0, i32 0, null, metadata !871, i32 0, i32 0} ; [ DW_TAG_subroutine_type ]
!871 = metadata !{null, metadata !850, metadata !178}
!872 = metadata !{i32 786478, i32 0, metadata !834, metadata !"ap_int_base", metadata !"ap_int_base", metadata !"", metadata !127, i32 1523, metadata !873, i1 false, i1 false, i32 0, i32 0, null, i32 384, i1 false, null, null, i32 0, metadata !142, i32 1523} ; [ DW_TAG_subprogram ]
!873 = metadata !{i32 786453, i32 0, metadata !"", i32 0, i32 0, i64 0, i64 0, i64 0, i32 0, null, metadata !874, i32 0, i32 0} ; [ DW_TAG_subroutine_type ]
!874 = metadata !{null, metadata !850, metadata !182}
!875 = metadata !{i32 786478, i32 0, metadata !834, metadata !"ap_int_base", metadata !"ap_int_base", metadata !"", metadata !127, i32 1524, metadata !876, i1 false, i1 false, i32 0, i32 0, null, i32 384, i1 false, null, null, i32 0, metadata !142, i32 1524} ; [ DW_TAG_subprogram ]
!876 = metadata !{i32 786453, i32 0, metadata !"", i32 0, i32 0, i64 0, i64 0, i64 0, i32 0, null, metadata !877, i32 0, i32 0} ; [ DW_TAG_subroutine_type ]
!877 = metadata !{null, metadata !850, metadata !186}
!878 = metadata !{i32 786478, i32 0, metadata !834, metadata !"ap_int_base", metadata !"ap_int_base", metadata !"", metadata !127, i32 1525, metadata !879, i1 false, i1 false, i32 0, i32 0, null, i32 384, i1 false, null, null, i32 0, metadata !142, i32 1525} ; [ DW_TAG_subprogram ]
!879 = metadata !{i32 786453, i32 0, metadata !"", i32 0, i32 0, i64 0, i64 0, i64 0, i32 0, null, metadata !880, i32 0, i32 0} ; [ DW_TAG_subroutine_type ]
!880 = metadata !{null, metadata !850, metadata !190}
!881 = metadata !{i32 786478, i32 0, metadata !834, metadata !"ap_int_base", metadata !"ap_int_base", metadata !"", metadata !127, i32 1526, metadata !882, i1 false, i1 false, i32 0, i32 0, null, i32 384, i1 false, null, null, i32 0, metadata !142, i32 1526} ; [ DW_TAG_subprogram ]
!882 = metadata !{i32 786453, i32 0, metadata !"", i32 0, i32 0, i64 0, i64 0, i64 0, i32 0, null, metadata !883, i32 0, i32 0} ; [ DW_TAG_subroutine_type ]
!883 = metadata !{null, metadata !850, metadata !195}
!884 = metadata !{i32 786478, i32 0, metadata !834, metadata !"ap_int_base", metadata !"ap_int_base", metadata !"", metadata !127, i32 1527, metadata !885, i1 false, i1 false, i32 0, i32 0, null, i32 384, i1 false, null, null, i32 0, metadata !142, i32 1527} ; [ DW_TAG_subprogram ]
!885 = metadata !{i32 786453, i32 0, metadata !"", i32 0, i32 0, i64 0, i64 0, i64 0, i32 0, null, metadata !886, i32 0, i32 0} ; [ DW_TAG_subroutine_type ]
!886 = metadata !{null, metadata !850, metadata !200}
!887 = metadata !{i32 786478, i32 0, metadata !834, metadata !"ap_int_base", metadata !"ap_int_base", metadata !"", metadata !127, i32 1528, metadata !888, i1 false, i1 false, i32 0, i32 0, null, i32 384, i1 false, null, null, i32 0, metadata !142, i32 1528} ; [ DW_TAG_subprogram ]
!888 = metadata !{i32 786453, i32 0, metadata !"", i32 0, i32 0, i64 0, i64 0, i64 0, i32 0, null, metadata !889, i32 0, i32 0} ; [ DW_TAG_subroutine_type ]
!889 = metadata !{null, metadata !850, metadata !205}
!890 = metadata !{i32 786478, i32 0, metadata !834, metadata !"ap_int_base", metadata !"ap_int_base", metadata !"", metadata !127, i32 1529, metadata !891, i1 false, i1 false, i32 0, i32 0, null, i32 384, i1 false, null, null, i32 0, metadata !142, i32 1529} ; [ DW_TAG_subprogram ]
!891 = metadata !{i32 786453, i32 0, metadata !"", i32 0, i32 0, i64 0, i64 0, i64 0, i32 0, null, metadata !892, i32 0, i32 0} ; [ DW_TAG_subroutine_type ]
!892 = metadata !{null, metadata !850, metadata !209}
!893 = metadata !{i32 786478, i32 0, metadata !834, metadata !"ap_int_base", metadata !"ap_int_base", metadata !"", metadata !127, i32 1556, metadata !894, i1 false, i1 false, i32 0, i32 0, null, i32 256, i1 false, null, null, i32 0, metadata !142, i32 1556} ; [ DW_TAG_subprogram ]
!894 = metadata !{i32 786453, i32 0, metadata !"", i32 0, i32 0, i64 0, i64 0, i64 0, i32 0, null, metadata !895, i32 0, i32 0} ; [ DW_TAG_subroutine_type ]
!895 = metadata !{null, metadata !850, metadata !213}
!896 = metadata !{i32 786478, i32 0, metadata !834, metadata !"ap_int_base", metadata !"ap_int_base", metadata !"", metadata !127, i32 1563, metadata !897, i1 false, i1 false, i32 0, i32 0, null, i32 256, i1 false, null, null, i32 0, metadata !142, i32 1563} ; [ DW_TAG_subprogram ]
!897 = metadata !{i32 786453, i32 0, metadata !"", i32 0, i32 0, i64 0, i64 0, i64 0, i32 0, null, metadata !898, i32 0, i32 0} ; [ DW_TAG_subroutine_type ]
!898 = metadata !{null, metadata !850, metadata !213, metadata !159}
!899 = metadata !{i32 786478, i32 0, metadata !834, metadata !"read", metadata !"read", metadata !"_ZNV11ap_int_baseILi48ELb0ELb1EE4readEv", metadata !127, i32 1584, metadata !900, i1 false, i1 false, i32 0, i32 0, null, i32 256, i1 false, null, null, i32 0, metadata !142, i32 1584} ; [ DW_TAG_subprogram ]
!900 = metadata !{i32 786453, i32 0, metadata !"", i32 0, i32 0, i64 0, i64 0, i64 0, i32 0, null, metadata !901, i32 0, i32 0} ; [ DW_TAG_subroutine_type ]
!901 = metadata !{metadata !834, metadata !902}
!902 = metadata !{i32 786447, i32 0, metadata !"", i32 0, i32 0, i64 64, i64 64, i64 0, i32 64, metadata !903} ; [ DW_TAG_pointer_type ]
!903 = metadata !{i32 786485, null, metadata !"", null, i32 0, i64 0, i64 0, i64 0, i32 0, metadata !834} ; [ DW_TAG_volatile_type ]
!904 = metadata !{i32 786478, i32 0, metadata !834, metadata !"write", metadata !"write", metadata !"_ZNV11ap_int_baseILi48ELb0ELb1EE5writeERKS0_", metadata !127, i32 1590, metadata !905, i1 false, i1 false, i32 0, i32 0, null, i32 256, i1 false, null, null, i32 0, metadata !142, i32 1590} ; [ DW_TAG_subprogram ]
!905 = metadata !{i32 786453, i32 0, metadata !"", i32 0, i32 0, i64 0, i64 0, i64 0, i32 0, null, metadata !906, i32 0, i32 0} ; [ DW_TAG_subroutine_type ]
!906 = metadata !{null, metadata !902, metadata !907}
!907 = metadata !{i32 786448, null, null, null, i32 0, i64 0, i64 0, i64 0, i32 0, metadata !908} ; [ DW_TAG_reference_type ]
!908 = metadata !{i32 786470, null, metadata !"", null, i32 0, i64 0, i64 0, i64 0, i32 0, metadata !834} ; [ DW_TAG_const_type ]
!909 = metadata !{i32 786478, i32 0, metadata !834, metadata !"operator=", metadata !"operator=", metadata !"_ZNV11ap_int_baseILi48ELb0ELb1EEaSERVKS0_", metadata !127, i32 1602, metadata !910, i1 false, i1 false, i32 0, i32 0, null, i32 256, i1 false, null, null, i32 0, metadata !142, i32 1602} ; [ DW_TAG_subprogram ]
!910 = metadata !{i32 786453, i32 0, metadata !"", i32 0, i32 0, i64 0, i64 0, i64 0, i32 0, null, metadata !911, i32 0, i32 0} ; [ DW_TAG_subroutine_type ]
!911 = metadata !{null, metadata !902, metadata !912}
!912 = metadata !{i32 786448, null, null, null, i32 0, i64 0, i64 0, i64 0, i32 0, metadata !913} ; [ DW_TAG_reference_type ]
!913 = metadata !{i32 786470, null, metadata !"", null, i32 0, i64 0, i64 0, i64 0, i32 0, metadata !903} ; [ DW_TAG_const_type ]
!914 = metadata !{i32 786478, i32 0, metadata !834, metadata !"operator=", metadata !"operator=", metadata !"_ZNV11ap_int_baseILi48ELb0ELb1EEaSERKS0_", metadata !127, i32 1611, metadata !905, i1 false, i1 false, i32 0, i32 0, null, i32 256, i1 false, null, null, i32 0, metadata !142, i32 1611} ; [ DW_TAG_subprogram ]
!915 = metadata !{i32 786478, i32 0, metadata !834, metadata !"operator=", metadata !"operator=", metadata !"_ZN11ap_int_baseILi48ELb0ELb1EEaSERVKS0_", metadata !127, i32 1634, metadata !916, i1 false, i1 false, i32 0, i32 0, null, i32 256, i1 false, null, null, i32 0, metadata !142, i32 1634} ; [ DW_TAG_subprogram ]
!916 = metadata !{i32 786453, i32 0, metadata !"", i32 0, i32 0, i64 0, i64 0, i64 0, i32 0, null, metadata !917, i32 0, i32 0} ; [ DW_TAG_subroutine_type ]
!917 = metadata !{metadata !918, metadata !850, metadata !912}
!918 = metadata !{i32 786448, null, null, null, i32 0, i64 0, i64 0, i64 0, i32 0, metadata !834} ; [ DW_TAG_reference_type ]
!919 = metadata !{i32 786478, i32 0, metadata !834, metadata !"operator=", metadata !"operator=", metadata !"_ZN11ap_int_baseILi48ELb0ELb1EEaSERKS0_", metadata !127, i32 1639, metadata !920, i1 false, i1 false, i32 0, i32 0, null, i32 256, i1 false, null, null, i32 0, metadata !142, i32 1639} ; [ DW_TAG_subprogram ]
!920 = metadata !{i32 786453, i32 0, metadata !"", i32 0, i32 0, i64 0, i64 0, i64 0, i32 0, null, metadata !921, i32 0, i32 0} ; [ DW_TAG_subroutine_type ]
!921 = metadata !{metadata !918, metadata !850, metadata !907}
!922 = metadata !{i32 786478, i32 0, metadata !834, metadata !"operator=", metadata !"operator=", metadata !"_ZN11ap_int_baseILi48ELb0ELb1EEaSEPKc", metadata !127, i32 1643, metadata !923, i1 false, i1 false, i32 0, i32 0, null, i32 256, i1 false, null, null, i32 0, metadata !142, i32 1643} ; [ DW_TAG_subprogram ]
!923 = metadata !{i32 786453, i32 0, metadata !"", i32 0, i32 0, i64 0, i64 0, i64 0, i32 0, null, metadata !924, i32 0, i32 0} ; [ DW_TAG_subroutine_type ]
!924 = metadata !{metadata !918, metadata !850, metadata !213}
!925 = metadata !{i32 786478, i32 0, metadata !834, metadata !"set", metadata !"set", metadata !"_ZN11ap_int_baseILi48ELb0ELb1EE3setEPKca", metadata !127, i32 1651, metadata !926, i1 false, i1 false, i32 0, i32 0, null, i32 256, i1 false, null, null, i32 0, metadata !142, i32 1651} ; [ DW_TAG_subprogram ]
!926 = metadata !{i32 786453, i32 0, metadata !"", i32 0, i32 0, i64 0, i64 0, i64 0, i32 0, null, metadata !927, i32 0, i32 0} ; [ DW_TAG_subroutine_type ]
!927 = metadata !{metadata !918, metadata !850, metadata !213, metadata !159}
!928 = metadata !{i32 786478, i32 0, metadata !834, metadata !"operator=", metadata !"operator=", metadata !"_ZN11ap_int_baseILi48ELb0ELb1EEaSEa", metadata !127, i32 1665, metadata !929, i1 false, i1 false, i32 0, i32 0, null, i32 256, i1 false, null, null, i32 0, metadata !142, i32 1665} ; [ DW_TAG_subprogram ]
!929 = metadata !{i32 786453, i32 0, metadata !"", i32 0, i32 0, i64 0, i64 0, i64 0, i32 0, null, metadata !930, i32 0, i32 0} ; [ DW_TAG_subroutine_type ]
!930 = metadata !{metadata !918, metadata !850, metadata !159}
!931 = metadata !{i32 786478, i32 0, metadata !834, metadata !"operator=", metadata !"operator=", metadata !"_ZN11ap_int_baseILi48ELb0ELb1EEaSEh", metadata !127, i32 1666, metadata !932, i1 false, i1 false, i32 0, i32 0, null, i32 256, i1 false, null, null, i32 0, metadata !142, i32 1666} ; [ DW_TAG_subprogram ]
!932 = metadata !{i32 786453, i32 0, metadata !"", i32 0, i32 0, i64 0, i64 0, i64 0, i32 0, null, metadata !933, i32 0, i32 0} ; [ DW_TAG_subroutine_type ]
!933 = metadata !{metadata !918, metadata !850, metadata !163}
!934 = metadata !{i32 786478, i32 0, metadata !834, metadata !"operator=", metadata !"operator=", metadata !"_ZN11ap_int_baseILi48ELb0ELb1EEaSEs", metadata !127, i32 1667, metadata !935, i1 false, i1 false, i32 0, i32 0, null, i32 256, i1 false, null, null, i32 0, metadata !142, i32 1667} ; [ DW_TAG_subprogram ]
!935 = metadata !{i32 786453, i32 0, metadata !"", i32 0, i32 0, i64 0, i64 0, i64 0, i32 0, null, metadata !936, i32 0, i32 0} ; [ DW_TAG_subroutine_type ]
!936 = metadata !{metadata !918, metadata !850, metadata !167}
!937 = metadata !{i32 786478, i32 0, metadata !834, metadata !"operator=", metadata !"operator=", metadata !"_ZN11ap_int_baseILi48ELb0ELb1EEaSEt", metadata !127, i32 1668, metadata !938, i1 false, i1 false, i32 0, i32 0, null, i32 256, i1 false, null, null, i32 0, metadata !142, i32 1668} ; [ DW_TAG_subprogram ]
!938 = metadata !{i32 786453, i32 0, metadata !"", i32 0, i32 0, i64 0, i64 0, i64 0, i32 0, null, metadata !939, i32 0, i32 0} ; [ DW_TAG_subroutine_type ]
!939 = metadata !{metadata !918, metadata !850, metadata !171}
!940 = metadata !{i32 786478, i32 0, metadata !834, metadata !"operator=", metadata !"operator=", metadata !"_ZN11ap_int_baseILi48ELb0ELb1EEaSEi", metadata !127, i32 1669, metadata !941, i1 false, i1 false, i32 0, i32 0, null, i32 256, i1 false, null, null, i32 0, metadata !142, i32 1669} ; [ DW_TAG_subprogram ]
!941 = metadata !{i32 786453, i32 0, metadata !"", i32 0, i32 0, i64 0, i64 0, i64 0, i32 0, null, metadata !942, i32 0, i32 0} ; [ DW_TAG_subroutine_type ]
!942 = metadata !{metadata !918, metadata !850, metadata !146}
!943 = metadata !{i32 786478, i32 0, metadata !834, metadata !"operator=", metadata !"operator=", metadata !"_ZN11ap_int_baseILi48ELb0ELb1EEaSEj", metadata !127, i32 1670, metadata !944, i1 false, i1 false, i32 0, i32 0, null, i32 256, i1 false, null, null, i32 0, metadata !142, i32 1670} ; [ DW_TAG_subprogram ]
!944 = metadata !{i32 786453, i32 0, metadata !"", i32 0, i32 0, i64 0, i64 0, i64 0, i32 0, null, metadata !945, i32 0, i32 0} ; [ DW_TAG_subroutine_type ]
!945 = metadata !{metadata !918, metadata !850, metadata !178}
!946 = metadata !{i32 786478, i32 0, metadata !834, metadata !"operator=", metadata !"operator=", metadata !"_ZN11ap_int_baseILi48ELb0ELb1EEaSEx", metadata !127, i32 1671, metadata !947, i1 false, i1 false, i32 0, i32 0, null, i32 256, i1 false, null, null, i32 0, metadata !142, i32 1671} ; [ DW_TAG_subprogram ]
!947 = metadata !{i32 786453, i32 0, metadata !"", i32 0, i32 0, i64 0, i64 0, i64 0, i32 0, null, metadata !948, i32 0, i32 0} ; [ DW_TAG_subroutine_type ]
!948 = metadata !{metadata !918, metadata !850, metadata !190}
!949 = metadata !{i32 786478, i32 0, metadata !834, metadata !"operator=", metadata !"operator=", metadata !"_ZN11ap_int_baseILi48ELb0ELb1EEaSEy", metadata !127, i32 1672, metadata !950, i1 false, i1 false, i32 0, i32 0, null, i32 256, i1 false, null, null, i32 0, metadata !142, i32 1672} ; [ DW_TAG_subprogram ]
!950 = metadata !{i32 786453, i32 0, metadata !"", i32 0, i32 0, i64 0, i64 0, i64 0, i32 0, null, metadata !951, i32 0, i32 0} ; [ DW_TAG_subroutine_type ]
!951 = metadata !{metadata !918, metadata !850, metadata !195}
!952 = metadata !{i32 786478, i32 0, metadata !834, metadata !"operator unsigned long long", metadata !"operator unsigned long long", metadata !"_ZNK11ap_int_baseILi48ELb0ELb1EEcvyEv", metadata !127, i32 1710, metadata !953, i1 false, i1 false, i32 0, i32 0, null, i32 256, i1 false, null, null, i32 0, metadata !142, i32 1710} ; [ DW_TAG_subprogram ]
!953 = metadata !{i32 786453, i32 0, metadata !"", i32 0, i32 0, i64 0, i64 0, i64 0, i32 0, null, metadata !954, i32 0, i32 0} ; [ DW_TAG_subroutine_type ]
!954 = metadata !{metadata !955, metadata !960}
!955 = metadata !{i32 786454, metadata !834, metadata !"RetType", metadata !127, i32 1458, i64 0, i64 0, i64 0, i32 0, metadata !956} ; [ DW_TAG_typedef ]
!956 = metadata !{i32 786454, metadata !957, metadata !"Type", metadata !127, i32 1419, i64 0, i64 0, i64 0, i32 0, metadata !195} ; [ DW_TAG_typedef ]
!957 = metadata !{i32 786434, null, metadata !"retval<6, false>", metadata !127, i32 1418, i64 8, i64 8, i32 0, i32 0, null, metadata !278, i32 0, null, metadata !958} ; [ DW_TAG_class_type ]
!958 = metadata !{metadata !959, metadata !147}
!959 = metadata !{i32 786480, null, metadata !"_AP_N", metadata !146, i64 6, null, i32 0, i32 0} ; [ DW_TAG_template_value_parameter ]
!960 = metadata !{i32 786447, i32 0, metadata !"", i32 0, i32 0, i64 64, i64 64, i64 0, i32 64, metadata !908} ; [ DW_TAG_pointer_type ]
!961 = metadata !{i32 786478, i32 0, metadata !834, metadata !"to_bool", metadata !"to_bool", metadata !"_ZNK11ap_int_baseILi48ELb0ELb1EE7to_boolEv", metadata !127, i32 1716, metadata !962, i1 false, i1 false, i32 0, i32 0, null, i32 256, i1 false, null, null, i32 0, metadata !142, i32 1716} ; [ DW_TAG_subprogram ]
!962 = metadata !{i32 786453, i32 0, metadata !"", i32 0, i32 0, i64 0, i64 0, i64 0, i32 0, null, metadata !963, i32 0, i32 0} ; [ DW_TAG_subroutine_type ]
!963 = metadata !{metadata !148, metadata !960}
!964 = metadata !{i32 786478, i32 0, metadata !834, metadata !"to_uchar", metadata !"to_uchar", metadata !"_ZNK11ap_int_baseILi48ELb0ELb1EE8to_ucharEv", metadata !127, i32 1717, metadata !965, i1 false, i1 false, i32 0, i32 0, null, i32 256, i1 false, null, null, i32 0, metadata !142, i32 1717} ; [ DW_TAG_subprogram ]
!965 = metadata !{i32 786453, i32 0, metadata !"", i32 0, i32 0, i64 0, i64 0, i64 0, i32 0, null, metadata !966, i32 0, i32 0} ; [ DW_TAG_subroutine_type ]
!966 = metadata !{metadata !163, metadata !960}
!967 = metadata !{i32 786478, i32 0, metadata !834, metadata !"to_char", metadata !"to_char", metadata !"_ZNK11ap_int_baseILi48ELb0ELb1EE7to_charEv", metadata !127, i32 1718, metadata !968, i1 false, i1 false, i32 0, i32 0, null, i32 256, i1 false, null, null, i32 0, metadata !142, i32 1718} ; [ DW_TAG_subprogram ]
!968 = metadata !{i32 786453, i32 0, metadata !"", i32 0, i32 0, i64 0, i64 0, i64 0, i32 0, null, metadata !969, i32 0, i32 0} ; [ DW_TAG_subroutine_type ]
!969 = metadata !{metadata !159, metadata !960}
!970 = metadata !{i32 786478, i32 0, metadata !834, metadata !"to_ushort", metadata !"to_ushort", metadata !"_ZNK11ap_int_baseILi48ELb0ELb1EE9to_ushortEv", metadata !127, i32 1719, metadata !971, i1 false, i1 false, i32 0, i32 0, null, i32 256, i1 false, null, null, i32 0, metadata !142, i32 1719} ; [ DW_TAG_subprogram ]
!971 = metadata !{i32 786453, i32 0, metadata !"", i32 0, i32 0, i64 0, i64 0, i64 0, i32 0, null, metadata !972, i32 0, i32 0} ; [ DW_TAG_subroutine_type ]
!972 = metadata !{metadata !171, metadata !960}
!973 = metadata !{i32 786478, i32 0, metadata !834, metadata !"to_short", metadata !"to_short", metadata !"_ZNK11ap_int_baseILi48ELb0ELb1EE8to_shortEv", metadata !127, i32 1720, metadata !974, i1 false, i1 false, i32 0, i32 0, null, i32 256, i1 false, null, null, i32 0, metadata !142, i32 1720} ; [ DW_TAG_subprogram ]
!974 = metadata !{i32 786453, i32 0, metadata !"", i32 0, i32 0, i64 0, i64 0, i64 0, i32 0, null, metadata !975, i32 0, i32 0} ; [ DW_TAG_subroutine_type ]
!975 = metadata !{metadata !167, metadata !960}
!976 = metadata !{i32 786478, i32 0, metadata !834, metadata !"to_int", metadata !"to_int", metadata !"_ZNK11ap_int_baseILi48ELb0ELb1EE6to_intEv", metadata !127, i32 1721, metadata !977, i1 false, i1 false, i32 0, i32 0, null, i32 256, i1 false, null, null, i32 0, metadata !142, i32 1721} ; [ DW_TAG_subprogram ]
!977 = metadata !{i32 786453, i32 0, metadata !"", i32 0, i32 0, i64 0, i64 0, i64 0, i32 0, null, metadata !978, i32 0, i32 0} ; [ DW_TAG_subroutine_type ]
!978 = metadata !{metadata !146, metadata !960}
!979 = metadata !{i32 786478, i32 0, metadata !834, metadata !"to_uint", metadata !"to_uint", metadata !"_ZNK11ap_int_baseILi48ELb0ELb1EE7to_uintEv", metadata !127, i32 1722, metadata !980, i1 false, i1 false, i32 0, i32 0, null, i32 256, i1 false, null, null, i32 0, metadata !142, i32 1722} ; [ DW_TAG_subprogram ]
!980 = metadata !{i32 786453, i32 0, metadata !"", i32 0, i32 0, i64 0, i64 0, i64 0, i32 0, null, metadata !981, i32 0, i32 0} ; [ DW_TAG_subroutine_type ]
!981 = metadata !{metadata !178, metadata !960}
!982 = metadata !{i32 786478, i32 0, metadata !834, metadata !"to_long", metadata !"to_long", metadata !"_ZNK11ap_int_baseILi48ELb0ELb1EE7to_longEv", metadata !127, i32 1723, metadata !983, i1 false, i1 false, i32 0, i32 0, null, i32 256, i1 false, null, null, i32 0, metadata !142, i32 1723} ; [ DW_TAG_subprogram ]
!983 = metadata !{i32 786453, i32 0, metadata !"", i32 0, i32 0, i64 0, i64 0, i64 0, i32 0, null, metadata !984, i32 0, i32 0} ; [ DW_TAG_subroutine_type ]
!984 = metadata !{metadata !182, metadata !960}
!985 = metadata !{i32 786478, i32 0, metadata !834, metadata !"to_ulong", metadata !"to_ulong", metadata !"_ZNK11ap_int_baseILi48ELb0ELb1EE8to_ulongEv", metadata !127, i32 1724, metadata !986, i1 false, i1 false, i32 0, i32 0, null, i32 256, i1 false, null, null, i32 0, metadata !142, i32 1724} ; [ DW_TAG_subprogram ]
!986 = metadata !{i32 786453, i32 0, metadata !"", i32 0, i32 0, i64 0, i64 0, i64 0, i32 0, null, metadata !987, i32 0, i32 0} ; [ DW_TAG_subroutine_type ]
!987 = metadata !{metadata !186, metadata !960}
!988 = metadata !{i32 786478, i32 0, metadata !834, metadata !"to_int64", metadata !"to_int64", metadata !"_ZNK11ap_int_baseILi48ELb0ELb1EE8to_int64Ev", metadata !127, i32 1725, metadata !989, i1 false, i1 false, i32 0, i32 0, null, i32 256, i1 false, null, null, i32 0, metadata !142, i32 1725} ; [ DW_TAG_subprogram ]
!989 = metadata !{i32 786453, i32 0, metadata !"", i32 0, i32 0, i64 0, i64 0, i64 0, i32 0, null, metadata !990, i32 0, i32 0} ; [ DW_TAG_subroutine_type ]
!990 = metadata !{metadata !190, metadata !960}
!991 = metadata !{i32 786478, i32 0, metadata !834, metadata !"to_uint64", metadata !"to_uint64", metadata !"_ZNK11ap_int_baseILi48ELb0ELb1EE9to_uint64Ev", metadata !127, i32 1726, metadata !992, i1 false, i1 false, i32 0, i32 0, null, i32 256, i1 false, null, null, i32 0, metadata !142, i32 1726} ; [ DW_TAG_subprogram ]
!992 = metadata !{i32 786453, i32 0, metadata !"", i32 0, i32 0, i64 0, i64 0, i64 0, i32 0, null, metadata !993, i32 0, i32 0} ; [ DW_TAG_subroutine_type ]
!993 = metadata !{metadata !195, metadata !960}
!994 = metadata !{i32 786478, i32 0, metadata !834, metadata !"to_double", metadata !"to_double", metadata !"_ZNK11ap_int_baseILi48ELb0ELb1EE9to_doubleEv", metadata !127, i32 1727, metadata !995, i1 false, i1 false, i32 0, i32 0, null, i32 256, i1 false, null, null, i32 0, metadata !142, i32 1727} ; [ DW_TAG_subprogram ]
!995 = metadata !{i32 786453, i32 0, metadata !"", i32 0, i32 0, i64 0, i64 0, i64 0, i32 0, null, metadata !996, i32 0, i32 0} ; [ DW_TAG_subroutine_type ]
!996 = metadata !{metadata !209, metadata !960}
!997 = metadata !{i32 786478, i32 0, metadata !834, metadata !"length", metadata !"length", metadata !"_ZNK11ap_int_baseILi48ELb0ELb1EE6lengthEv", metadata !127, i32 1741, metadata !977, i1 false, i1 false, i32 0, i32 0, null, i32 256, i1 false, null, null, i32 0, metadata !142, i32 1741} ; [ DW_TAG_subprogram ]
!998 = metadata !{i32 786478, i32 0, metadata !834, metadata !"length", metadata !"length", metadata !"_ZNVK11ap_int_baseILi48ELb0ELb1EE6lengthEv", metadata !127, i32 1742, metadata !999, i1 false, i1 false, i32 0, i32 0, null, i32 256, i1 false, null, null, i32 0, metadata !142, i32 1742} ; [ DW_TAG_subprogram ]
!999 = metadata !{i32 786453, i32 0, metadata !"", i32 0, i32 0, i64 0, i64 0, i64 0, i32 0, null, metadata !1000, i32 0, i32 0} ; [ DW_TAG_subroutine_type ]
!1000 = metadata !{metadata !146, metadata !1001}
!1001 = metadata !{i32 786447, i32 0, metadata !"", i32 0, i32 0, i64 64, i64 64, i64 0, i32 64, metadata !913} ; [ DW_TAG_pointer_type ]
!1002 = metadata !{i32 786478, i32 0, metadata !834, metadata !"reverse", metadata !"reverse", metadata !"_ZN11ap_int_baseILi48ELb0ELb1EE7reverseEv", metadata !127, i32 1747, metadata !1003, i1 false, i1 false, i32 0, i32 0, null, i32 256, i1 false, null, null, i32 0, metadata !142, i32 1747} ; [ DW_TAG_subprogram ]
!1003 = metadata !{i32 786453, i32 0, metadata !"", i32 0, i32 0, i64 0, i64 0, i64 0, i32 0, null, metadata !1004, i32 0, i32 0} ; [ DW_TAG_subroutine_type ]
!1004 = metadata !{metadata !918, metadata !850}
!1005 = metadata !{i32 786478, i32 0, metadata !834, metadata !"iszero", metadata !"iszero", metadata !"_ZNK11ap_int_baseILi48ELb0ELb1EE6iszeroEv", metadata !127, i32 1753, metadata !962, i1 false, i1 false, i32 0, i32 0, null, i32 256, i1 false, null, null, i32 0, metadata !142, i32 1753} ; [ DW_TAG_subprogram ]
!1006 = metadata !{i32 786478, i32 0, metadata !834, metadata !"is_zero", metadata !"is_zero", metadata !"_ZNK11ap_int_baseILi48ELb0ELb1EE7is_zeroEv", metadata !127, i32 1758, metadata !962, i1 false, i1 false, i32 0, i32 0, null, i32 256, i1 false, null, null, i32 0, metadata !142, i32 1758} ; [ DW_TAG_subprogram ]
!1007 = metadata !{i32 786478, i32 0, metadata !834, metadata !"sign", metadata !"sign", metadata !"_ZNK11ap_int_baseILi48ELb0ELb1EE4signEv", metadata !127, i32 1763, metadata !962, i1 false, i1 false, i32 0, i32 0, null, i32 256, i1 false, null, null, i32 0, metadata !142, i32 1763} ; [ DW_TAG_subprogram ]
!1008 = metadata !{i32 786478, i32 0, metadata !834, metadata !"clear", metadata !"clear", metadata !"_ZN11ap_int_baseILi48ELb0ELb1EE5clearEi", metadata !127, i32 1771, metadata !867, i1 false, i1 false, i32 0, i32 0, null, i32 256, i1 false, null, null, i32 0, metadata !142, i32 1771} ; [ DW_TAG_subprogram ]
!1009 = metadata !{i32 786478, i32 0, metadata !834, metadata !"invert", metadata !"invert", metadata !"_ZN11ap_int_baseILi48ELb0ELb1EE6invertEi", metadata !127, i32 1777, metadata !867, i1 false, i1 false, i32 0, i32 0, null, i32 256, i1 false, null, null, i32 0, metadata !142, i32 1777} ; [ DW_TAG_subprogram ]
!1010 = metadata !{i32 786478, i32 0, metadata !834, metadata !"test", metadata !"test", metadata !"_ZNK11ap_int_baseILi48ELb0ELb1EE4testEi", metadata !127, i32 1785, metadata !1011, i1 false, i1 false, i32 0, i32 0, null, i32 256, i1 false, null, null, i32 0, metadata !142, i32 1785} ; [ DW_TAG_subprogram ]
!1011 = metadata !{i32 786453, i32 0, metadata !"", i32 0, i32 0, i64 0, i64 0, i64 0, i32 0, null, metadata !1012, i32 0, i32 0} ; [ DW_TAG_subroutine_type ]
!1012 = metadata !{metadata !148, metadata !960, metadata !146}
!1013 = metadata !{i32 786478, i32 0, metadata !834, metadata !"set", metadata !"set", metadata !"_ZN11ap_int_baseILi48ELb0ELb1EE3setEi", metadata !127, i32 1791, metadata !867, i1 false, i1 false, i32 0, i32 0, null, i32 256, i1 false, null, null, i32 0, metadata !142, i32 1791} ; [ DW_TAG_subprogram ]
!1014 = metadata !{i32 786478, i32 0, metadata !834, metadata !"set", metadata !"set", metadata !"_ZN11ap_int_baseILi48ELb0ELb1EE3setEib", metadata !127, i32 1797, metadata !1015, i1 false, i1 false, i32 0, i32 0, null, i32 256, i1 false, null, null, i32 0, metadata !142, i32 1797} ; [ DW_TAG_subprogram ]
!1015 = metadata !{i32 786453, i32 0, metadata !"", i32 0, i32 0, i64 0, i64 0, i64 0, i32 0, null, metadata !1016, i32 0, i32 0} ; [ DW_TAG_subroutine_type ]
!1016 = metadata !{null, metadata !850, metadata !146, metadata !148}
!1017 = metadata !{i32 786478, i32 0, metadata !834, metadata !"lrotate", metadata !"lrotate", metadata !"_ZN11ap_int_baseILi48ELb0ELb1EE7lrotateEi", metadata !127, i32 1804, metadata !867, i1 false, i1 false, i32 0, i32 0, null, i32 256, i1 false, null, null, i32 0, metadata !142, i32 1804} ; [ DW_TAG_subprogram ]
!1018 = metadata !{i32 786478, i32 0, metadata !834, metadata !"rrotate", metadata !"rrotate", metadata !"_ZN11ap_int_baseILi48ELb0ELb1EE7rrotateEi", metadata !127, i32 1813, metadata !867, i1 false, i1 false, i32 0, i32 0, null, i32 256, i1 false, null, null, i32 0, metadata !142, i32 1813} ; [ DW_TAG_subprogram ]
!1019 = metadata !{i32 786478, i32 0, metadata !834, metadata !"set_bit", metadata !"set_bit", metadata !"_ZN11ap_int_baseILi48ELb0ELb1EE7set_bitEib", metadata !127, i32 1821, metadata !1015, i1 false, i1 false, i32 0, i32 0, null, i32 256, i1 false, null, null, i32 0, metadata !142, i32 1821} ; [ DW_TAG_subprogram ]
!1020 = metadata !{i32 786478, i32 0, metadata !834, metadata !"get_bit", metadata !"get_bit", metadata !"_ZNK11ap_int_baseILi48ELb0ELb1EE7get_bitEi", metadata !127, i32 1826, metadata !1011, i1 false, i1 false, i32 0, i32 0, null, i32 256, i1 false, null, null, i32 0, metadata !142, i32 1826} ; [ DW_TAG_subprogram ]
!1021 = metadata !{i32 786478, i32 0, metadata !834, metadata !"b_not", metadata !"b_not", metadata !"_ZN11ap_int_baseILi48ELb0ELb1EE5b_notEv", metadata !127, i32 1831, metadata !848, i1 false, i1 false, i32 0, i32 0, null, i32 256, i1 false, null, null, i32 0, metadata !142, i32 1831} ; [ DW_TAG_subprogram ]
!1022 = metadata !{i32 786478, i32 0, metadata !834, metadata !"countLeadingZeros", metadata !"countLeadingZeros", metadata !"_ZN11ap_int_baseILi48ELb0ELb1EE17countLeadingZerosEv", metadata !127, i32 1838, metadata !1023, i1 false, i1 false, i32 0, i32 0, null, i32 256, i1 false, null, null, i32 0, metadata !142, i32 1838} ; [ DW_TAG_subprogram ]
!1023 = metadata !{i32 786453, i32 0, metadata !"", i32 0, i32 0, i64 0, i64 0, i64 0, i32 0, null, metadata !1024, i32 0, i32 0} ; [ DW_TAG_subroutine_type ]
!1024 = metadata !{metadata !146, metadata !850}
!1025 = metadata !{i32 786478, i32 0, metadata !834, metadata !"operator++", metadata !"operator++", metadata !"_ZN11ap_int_baseILi48ELb0ELb1EEppEv", metadata !127, i32 1895, metadata !1003, i1 false, i1 false, i32 0, i32 0, null, i32 256, i1 false, null, null, i32 0, metadata !142, i32 1895} ; [ DW_TAG_subprogram ]
!1026 = metadata !{i32 786478, i32 0, metadata !834, metadata !"operator--", metadata !"operator--", metadata !"_ZN11ap_int_baseILi48ELb0ELb1EEmmEv", metadata !127, i32 1899, metadata !1003, i1 false, i1 false, i32 0, i32 0, null, i32 256, i1 false, null, null, i32 0, metadata !142, i32 1899} ; [ DW_TAG_subprogram ]
!1027 = metadata !{i32 786478, i32 0, metadata !834, metadata !"operator++", metadata !"operator++", metadata !"_ZN11ap_int_baseILi48ELb0ELb1EEppEi", metadata !127, i32 1907, metadata !1028, i1 false, i1 false, i32 0, i32 0, null, i32 256, i1 false, null, null, i32 0, metadata !142, i32 1907} ; [ DW_TAG_subprogram ]
!1028 = metadata !{i32 786453, i32 0, metadata !"", i32 0, i32 0, i64 0, i64 0, i64 0, i32 0, null, metadata !1029, i32 0, i32 0} ; [ DW_TAG_subroutine_type ]
!1029 = metadata !{metadata !908, metadata !850, metadata !146}
!1030 = metadata !{i32 786478, i32 0, metadata !834, metadata !"operator--", metadata !"operator--", metadata !"_ZN11ap_int_baseILi48ELb0ELb1EEmmEi", metadata !127, i32 1912, metadata !1028, i1 false, i1 false, i32 0, i32 0, null, i32 256, i1 false, null, null, i32 0, metadata !142, i32 1912} ; [ DW_TAG_subprogram ]
!1031 = metadata !{i32 786478, i32 0, metadata !834, metadata !"operator+", metadata !"operator+", metadata !"_ZNK11ap_int_baseILi48ELb0ELb1EEpsEv", metadata !127, i32 1921, metadata !1032, i1 false, i1 false, i32 0, i32 0, null, i32 256, i1 false, null, null, i32 0, metadata !142, i32 1921} ; [ DW_TAG_subprogram ]
!1032 = metadata !{i32 786453, i32 0, metadata !"", i32 0, i32 0, i64 0, i64 0, i64 0, i32 0, null, metadata !1033, i32 0, i32 0} ; [ DW_TAG_subroutine_type ]
!1033 = metadata !{metadata !834, metadata !960}
!1034 = metadata !{i32 786478, i32 0, metadata !834, metadata !"operator!", metadata !"operator!", metadata !"_ZNK11ap_int_baseILi48ELb0ELb1EEntEv", metadata !127, i32 1927, metadata !962, i1 false, i1 false, i32 0, i32 0, null, i32 256, i1 false, null, null, i32 0, metadata !142, i32 1927} ; [ DW_TAG_subprogram ]
!1035 = metadata !{i32 786478, i32 0, metadata !834, metadata !"operator-", metadata !"operator-", metadata !"_ZNK11ap_int_baseILi48ELb0ELb1EEngEv", metadata !127, i32 1932, metadata !1036, i1 false, i1 false, i32 0, i32 0, null, i32 256, i1 false, null, null, i32 0, metadata !142, i32 1932} ; [ DW_TAG_subprogram ]
!1036 = metadata !{i32 786453, i32 0, metadata !"", i32 0, i32 0, i64 0, i64 0, i64 0, i32 0, null, metadata !1037, i32 0, i32 0} ; [ DW_TAG_subroutine_type ]
!1037 = metadata !{metadata !1038, metadata !960}
!1038 = metadata !{i32 786434, null, metadata !"ap_int_base<49, true, true>", metadata !127, i32 651, i64 0, i64 0, i32 0, i32 4, null, null, i32 0, null, metadata !1039} ; [ DW_TAG_class_type ]
!1039 = metadata !{metadata !1040, metadata !376, metadata !686}
!1040 = metadata !{i32 786480, null, metadata !"_AP_W", metadata !146, i64 49, null, i32 0, i32 0} ; [ DW_TAG_template_value_parameter ]
!1041 = metadata !{i32 786478, i32 0, metadata !834, metadata !"range", metadata !"range", metadata !"_ZN11ap_int_baseILi48ELb0ELb1EE5rangeEii", metadata !127, i32 2062, metadata !1042, i1 false, i1 false, i32 0, i32 0, null, i32 256, i1 false, null, null, i32 0, metadata !142, i32 2062} ; [ DW_TAG_subprogram ]
!1042 = metadata !{i32 786453, i32 0, metadata !"", i32 0, i32 0, i64 0, i64 0, i64 0, i32 0, null, metadata !1043, i32 0, i32 0} ; [ DW_TAG_subroutine_type ]
!1043 = metadata !{metadata !1044, metadata !850, metadata !146, metadata !146}
!1044 = metadata !{i32 786434, null, metadata !"ap_range_ref<48, false>", metadata !127, i32 925, i64 0, i64 0, i32 0, i32 4, null, null, i32 0, null, metadata !1045} ; [ DW_TAG_class_type ]
!1045 = metadata !{metadata !1046, metadata !147}
!1046 = metadata !{i32 786480, null, metadata !"_AP_W", metadata !146, i64 48, null, i32 0, i32 0} ; [ DW_TAG_template_value_parameter ]
!1047 = metadata !{i32 786478, i32 0, metadata !834, metadata !"operator()", metadata !"operator()", metadata !"_ZN11ap_int_baseILi48ELb0ELb1EEclEii", metadata !127, i32 2068, metadata !1042, i1 false, i1 false, i32 0, i32 0, null, i32 256, i1 false, null, null, i32 0, metadata !142, i32 2068} ; [ DW_TAG_subprogram ]
!1048 = metadata !{i32 786478, i32 0, metadata !834, metadata !"range", metadata !"range", metadata !"_ZNK11ap_int_baseILi48ELb0ELb1EE5rangeEii", metadata !127, i32 2074, metadata !1049, i1 false, i1 false, i32 0, i32 0, null, i32 256, i1 false, null, null, i32 0, metadata !142, i32 2074} ; [ DW_TAG_subprogram ]
!1049 = metadata !{i32 786453, i32 0, metadata !"", i32 0, i32 0, i64 0, i64 0, i64 0, i32 0, null, metadata !1050, i32 0, i32 0} ; [ DW_TAG_subroutine_type ]
!1050 = metadata !{metadata !1044, metadata !960, metadata !146, metadata !146}
!1051 = metadata !{i32 786478, i32 0, metadata !834, metadata !"operator()", metadata !"operator()", metadata !"_ZNK11ap_int_baseILi48ELb0ELb1EEclEii", metadata !127, i32 2080, metadata !1049, i1 false, i1 false, i32 0, i32 0, null, i32 256, i1 false, null, null, i32 0, metadata !142, i32 2080} ; [ DW_TAG_subprogram ]
!1052 = metadata !{i32 786478, i32 0, metadata !834, metadata !"operator[]", metadata !"operator[]", metadata !"_ZN11ap_int_baseILi48ELb0ELb1EEixEi", metadata !127, i32 2099, metadata !1053, i1 false, i1 false, i32 0, i32 0, null, i32 256, i1 false, null, null, i32 0, metadata !142, i32 2099} ; [ DW_TAG_subprogram ]
!1053 = metadata !{i32 786453, i32 0, metadata !"", i32 0, i32 0, i64 0, i64 0, i64 0, i32 0, null, metadata !1054, i32 0, i32 0} ; [ DW_TAG_subroutine_type ]
!1054 = metadata !{metadata !1055, metadata !850, metadata !146}
!1055 = metadata !{i32 786434, null, metadata !"ap_bit_ref<48, false>", metadata !127, i32 1249, i64 0, i64 0, i32 0, i32 4, null, null, i32 0, null, metadata !1045} ; [ DW_TAG_class_type ]
!1056 = metadata !{i32 786478, i32 0, metadata !834, metadata !"operator[]", metadata !"operator[]", metadata !"_ZNK11ap_int_baseILi48ELb0ELb1EEixEi", metadata !127, i32 2113, metadata !1011, i1 false, i1 false, i32 0, i32 0, null, i32 256, i1 false, null, null, i32 0, metadata !142, i32 2113} ; [ DW_TAG_subprogram ]
!1057 = metadata !{i32 786478, i32 0, metadata !834, metadata !"bit", metadata !"bit", metadata !"_ZN11ap_int_baseILi48ELb0ELb1EE3bitEi", metadata !127, i32 2127, metadata !1053, i1 false, i1 false, i32 0, i32 0, null, i32 256, i1 false, null, null, i32 0, metadata !142, i32 2127} ; [ DW_TAG_subprogram ]
!1058 = metadata !{i32 786478, i32 0, metadata !834, metadata !"bit", metadata !"bit", metadata !"_ZNK11ap_int_baseILi48ELb0ELb1EE3bitEi", metadata !127, i32 2141, metadata !1011, i1 false, i1 false, i32 0, i32 0, null, i32 256, i1 false, null, null, i32 0, metadata !142, i32 2141} ; [ DW_TAG_subprogram ]
!1059 = metadata !{i32 786478, i32 0, metadata !834, metadata !"and_reduce", metadata !"and_reduce", metadata !"_ZN11ap_int_baseILi48ELb0ELb1EE10and_reduceEv", metadata !127, i32 2321, metadata !1060, i1 false, i1 false, i32 0, i32 0, null, i32 256, i1 false, null, null, i32 0, metadata !142, i32 2321} ; [ DW_TAG_subprogram ]
!1060 = metadata !{i32 786453, i32 0, metadata !"", i32 0, i32 0, i64 0, i64 0, i64 0, i32 0, null, metadata !1061, i32 0, i32 0} ; [ DW_TAG_subroutine_type ]
!1061 = metadata !{metadata !148, metadata !850}
!1062 = metadata !{i32 786478, i32 0, metadata !834, metadata !"nand_reduce", metadata !"nand_reduce", metadata !"_ZN11ap_int_baseILi48ELb0ELb1EE11nand_reduceEv", metadata !127, i32 2324, metadata !1060, i1 false, i1 false, i32 0, i32 0, null, i32 256, i1 false, null, null, i32 0, metadata !142, i32 2324} ; [ DW_TAG_subprogram ]
!1063 = metadata !{i32 786478, i32 0, metadata !834, metadata !"or_reduce", metadata !"or_reduce", metadata !"_ZN11ap_int_baseILi48ELb0ELb1EE9or_reduceEv", metadata !127, i32 2327, metadata !1060, i1 false, i1 false, i32 0, i32 0, null, i32 256, i1 false, null, null, i32 0, metadata !142, i32 2327} ; [ DW_TAG_subprogram ]
!1064 = metadata !{i32 786478, i32 0, metadata !834, metadata !"nor_reduce", metadata !"nor_reduce", metadata !"_ZN11ap_int_baseILi48ELb0ELb1EE10nor_reduceEv", metadata !127, i32 2330, metadata !1060, i1 false, i1 false, i32 0, i32 0, null, i32 256, i1 false, null, null, i32 0, metadata !142, i32 2330} ; [ DW_TAG_subprogram ]
!1065 = metadata !{i32 786478, i32 0, metadata !834, metadata !"xor_reduce", metadata !"xor_reduce", metadata !"_ZN11ap_int_baseILi48ELb0ELb1EE10xor_reduceEv", metadata !127, i32 2333, metadata !1060, i1 false, i1 false, i32 0, i32 0, null, i32 256, i1 false, null, null, i32 0, metadata !142, i32 2333} ; [ DW_TAG_subprogram ]
!1066 = metadata !{i32 786478, i32 0, metadata !834, metadata !"xnor_reduce", metadata !"xnor_reduce", metadata !"_ZN11ap_int_baseILi48ELb0ELb1EE11xnor_reduceEv", metadata !127, i32 2336, metadata !1060, i1 false, i1 false, i32 0, i32 0, null, i32 256, i1 false, null, null, i32 0, metadata !142, i32 2336} ; [ DW_TAG_subprogram ]
!1067 = metadata !{i32 786478, i32 0, metadata !834, metadata !"and_reduce", metadata !"and_reduce", metadata !"_ZNK11ap_int_baseILi48ELb0ELb1EE10and_reduceEv", metadata !127, i32 2340, metadata !962, i1 false, i1 false, i32 0, i32 0, null, i32 256, i1 false, null, null, i32 0, metadata !142, i32 2340} ; [ DW_TAG_subprogram ]
!1068 = metadata !{i32 786478, i32 0, metadata !834, metadata !"nand_reduce", metadata !"nand_reduce", metadata !"_ZNK11ap_int_baseILi48ELb0ELb1EE11nand_reduceEv", metadata !127, i32 2343, metadata !962, i1 false, i1 false, i32 0, i32 0, null, i32 256, i1 false, null, null, i32 0, metadata !142, i32 2343} ; [ DW_TAG_subprogram ]
!1069 = metadata !{i32 786478, i32 0, metadata !834, metadata !"or_reduce", metadata !"or_reduce", metadata !"_ZNK11ap_int_baseILi48ELb0ELb1EE9or_reduceEv", metadata !127, i32 2346, metadata !962, i1 false, i1 false, i32 0, i32 0, null, i32 256, i1 false, null, null, i32 0, metadata !142, i32 2346} ; [ DW_TAG_subprogram ]
!1070 = metadata !{i32 786478, i32 0, metadata !834, metadata !"nor_reduce", metadata !"nor_reduce", metadata !"_ZNK11ap_int_baseILi48ELb0ELb1EE10nor_reduceEv", metadata !127, i32 2349, metadata !962, i1 false, i1 false, i32 0, i32 0, null, i32 256, i1 false, null, null, i32 0, metadata !142, i32 2349} ; [ DW_TAG_subprogram ]
!1071 = metadata !{i32 786478, i32 0, metadata !834, metadata !"xor_reduce", metadata !"xor_reduce", metadata !"_ZNK11ap_int_baseILi48ELb0ELb1EE10xor_reduceEv", metadata !127, i32 2352, metadata !962, i1 false, i1 false, i32 0, i32 0, null, i32 256, i1 false, null, null, i32 0, metadata !142, i32 2352} ; [ DW_TAG_subprogram ]
!1072 = metadata !{i32 786478, i32 0, metadata !834, metadata !"xnor_reduce", metadata !"xnor_reduce", metadata !"_ZNK11ap_int_baseILi48ELb0ELb1EE11xnor_reduceEv", metadata !127, i32 2355, metadata !962, i1 false, i1 false, i32 0, i32 0, null, i32 256, i1 false, null, null, i32 0, metadata !142, i32 2355} ; [ DW_TAG_subprogram ]
!1073 = metadata !{i32 786478, i32 0, metadata !834, metadata !"to_string", metadata !"to_string", metadata !"_ZNK11ap_int_baseILi48ELb0ELb1EE9to_stringEPci8BaseModeb", metadata !127, i32 2362, metadata !1074, i1 false, i1 false, i32 0, i32 0, null, i32 256, i1 false, null, null, i32 0, metadata !142, i32 2362} ; [ DW_TAG_subprogram ]
!1074 = metadata !{i32 786453, i32 0, metadata !"", i32 0, i32 0, i64 0, i64 0, i64 0, i32 0, null, metadata !1075, i32 0, i32 0} ; [ DW_TAG_subroutine_type ]
!1075 = metadata !{null, metadata !960, metadata !670, metadata !146, metadata !671, metadata !148}
!1076 = metadata !{i32 786478, i32 0, metadata !834, metadata !"to_string", metadata !"to_string", metadata !"_ZNK11ap_int_baseILi48ELb0ELb1EE9to_stringE8BaseModeb", metadata !127, i32 2389, metadata !1077, i1 false, i1 false, i32 0, i32 0, null, i32 256, i1 false, null, null, i32 0, metadata !142, i32 2389} ; [ DW_TAG_subprogram ]
!1077 = metadata !{i32 786453, i32 0, metadata !"", i32 0, i32 0, i64 0, i64 0, i64 0, i32 0, null, metadata !1078, i32 0, i32 0} ; [ DW_TAG_subroutine_type ]
!1078 = metadata !{metadata !670, metadata !960, metadata !671, metadata !148}
!1079 = metadata !{i32 786478, i32 0, metadata !834, metadata !"to_string", metadata !"to_string", metadata !"_ZNK11ap_int_baseILi48ELb0ELb1EE9to_stringEab", metadata !127, i32 2393, metadata !1080, i1 false, i1 false, i32 0, i32 0, null, i32 256, i1 false, null, null, i32 0, metadata !142, i32 2393} ; [ DW_TAG_subprogram ]
!1080 = metadata !{i32 786453, i32 0, metadata !"", i32 0, i32 0, i64 0, i64 0, i64 0, i32 0, null, metadata !1081, i32 0, i32 0} ; [ DW_TAG_subroutine_type ]
!1081 = metadata !{metadata !670, metadata !960, metadata !159, metadata !148}
!1082 = metadata !{metadata !1046, metadata !147, metadata !686}
!1083 = metadata !{i32 786478, i32 0, metadata !830, metadata !"ap_uint", metadata !"ap_uint", metadata !"", metadata !831, i32 186, metadata !1084, i1 false, i1 false, i32 0, i32 0, null, i32 256, i1 false, null, null, i32 0, metadata !142, i32 186} ; [ DW_TAG_subprogram ]
!1084 = metadata !{i32 786453, i32 0, metadata !"", i32 0, i32 0, i64 0, i64 0, i64 0, i32 0, null, metadata !1085, i32 0, i32 0} ; [ DW_TAG_subroutine_type ]
!1085 = metadata !{null, metadata !1086}
!1086 = metadata !{i32 786447, i32 0, metadata !"", i32 0, i32 0, i64 64, i64 64, i64 0, i32 64, metadata !830} ; [ DW_TAG_pointer_type ]
!1087 = metadata !{i32 786478, i32 0, metadata !830, metadata !"ap_uint", metadata !"ap_uint", metadata !"", metadata !831, i32 248, metadata !1088, i1 false, i1 false, i32 0, i32 0, null, i32 256, i1 false, null, null, i32 0, metadata !142, i32 248} ; [ DW_TAG_subprogram ]
!1088 = metadata !{i32 786453, i32 0, metadata !"", i32 0, i32 0, i64 0, i64 0, i64 0, i32 0, null, metadata !1089, i32 0, i32 0} ; [ DW_TAG_subroutine_type ]
!1089 = metadata !{null, metadata !1086, metadata !148}
!1090 = metadata !{i32 786478, i32 0, metadata !830, metadata !"ap_uint", metadata !"ap_uint", metadata !"", metadata !831, i32 249, metadata !1091, i1 false, i1 false, i32 0, i32 0, null, i32 256, i1 false, null, null, i32 0, metadata !142, i32 249} ; [ DW_TAG_subprogram ]
!1091 = metadata !{i32 786453, i32 0, metadata !"", i32 0, i32 0, i64 0, i64 0, i64 0, i32 0, null, metadata !1092, i32 0, i32 0} ; [ DW_TAG_subroutine_type ]
!1092 = metadata !{null, metadata !1086, metadata !159}
!1093 = metadata !{i32 786478, i32 0, metadata !830, metadata !"ap_uint", metadata !"ap_uint", metadata !"", metadata !831, i32 250, metadata !1094, i1 false, i1 false, i32 0, i32 0, null, i32 256, i1 false, null, null, i32 0, metadata !142, i32 250} ; [ DW_TAG_subprogram ]
!1094 = metadata !{i32 786453, i32 0, metadata !"", i32 0, i32 0, i64 0, i64 0, i64 0, i32 0, null, metadata !1095, i32 0, i32 0} ; [ DW_TAG_subroutine_type ]
!1095 = metadata !{null, metadata !1086, metadata !163}
!1096 = metadata !{i32 786478, i32 0, metadata !830, metadata !"ap_uint", metadata !"ap_uint", metadata !"", metadata !831, i32 251, metadata !1097, i1 false, i1 false, i32 0, i32 0, null, i32 256, i1 false, null, null, i32 0, metadata !142, i32 251} ; [ DW_TAG_subprogram ]
!1097 = metadata !{i32 786453, i32 0, metadata !"", i32 0, i32 0, i64 0, i64 0, i64 0, i32 0, null, metadata !1098, i32 0, i32 0} ; [ DW_TAG_subroutine_type ]
!1098 = metadata !{null, metadata !1086, metadata !167}
!1099 = metadata !{i32 786478, i32 0, metadata !830, metadata !"ap_uint", metadata !"ap_uint", metadata !"", metadata !831, i32 252, metadata !1100, i1 false, i1 false, i32 0, i32 0, null, i32 256, i1 false, null, null, i32 0, metadata !142, i32 252} ; [ DW_TAG_subprogram ]
!1100 = metadata !{i32 786453, i32 0, metadata !"", i32 0, i32 0, i64 0, i64 0, i64 0, i32 0, null, metadata !1101, i32 0, i32 0} ; [ DW_TAG_subroutine_type ]
!1101 = metadata !{null, metadata !1086, metadata !171}
!1102 = metadata !{i32 786478, i32 0, metadata !830, metadata !"ap_uint", metadata !"ap_uint", metadata !"", metadata !831, i32 253, metadata !1103, i1 false, i1 false, i32 0, i32 0, null, i32 256, i1 false, null, null, i32 0, metadata !142, i32 253} ; [ DW_TAG_subprogram ]
!1103 = metadata !{i32 786453, i32 0, metadata !"", i32 0, i32 0, i64 0, i64 0, i64 0, i32 0, null, metadata !1104, i32 0, i32 0} ; [ DW_TAG_subroutine_type ]
!1104 = metadata !{null, metadata !1086, metadata !146}
!1105 = metadata !{i32 786478, i32 0, metadata !830, metadata !"ap_uint", metadata !"ap_uint", metadata !"", metadata !831, i32 254, metadata !1106, i1 false, i1 false, i32 0, i32 0, null, i32 256, i1 false, null, null, i32 0, metadata !142, i32 254} ; [ DW_TAG_subprogram ]
!1106 = metadata !{i32 786453, i32 0, metadata !"", i32 0, i32 0, i64 0, i64 0, i64 0, i32 0, null, metadata !1107, i32 0, i32 0} ; [ DW_TAG_subroutine_type ]
!1107 = metadata !{null, metadata !1086, metadata !178}
!1108 = metadata !{i32 786478, i32 0, metadata !830, metadata !"ap_uint", metadata !"ap_uint", metadata !"", metadata !831, i32 255, metadata !1109, i1 false, i1 false, i32 0, i32 0, null, i32 256, i1 false, null, null, i32 0, metadata !142, i32 255} ; [ DW_TAG_subprogram ]
!1109 = metadata !{i32 786453, i32 0, metadata !"", i32 0, i32 0, i64 0, i64 0, i64 0, i32 0, null, metadata !1110, i32 0, i32 0} ; [ DW_TAG_subroutine_type ]
!1110 = metadata !{null, metadata !1086, metadata !182}
!1111 = metadata !{i32 786478, i32 0, metadata !830, metadata !"ap_uint", metadata !"ap_uint", metadata !"", metadata !831, i32 256, metadata !1112, i1 false, i1 false, i32 0, i32 0, null, i32 256, i1 false, null, null, i32 0, metadata !142, i32 256} ; [ DW_TAG_subprogram ]
!1112 = metadata !{i32 786453, i32 0, metadata !"", i32 0, i32 0, i64 0, i64 0, i64 0, i32 0, null, metadata !1113, i32 0, i32 0} ; [ DW_TAG_subroutine_type ]
!1113 = metadata !{null, metadata !1086, metadata !186}
!1114 = metadata !{i32 786478, i32 0, metadata !830, metadata !"ap_uint", metadata !"ap_uint", metadata !"", metadata !831, i32 257, metadata !1115, i1 false, i1 false, i32 0, i32 0, null, i32 256, i1 false, null, null, i32 0, metadata !142, i32 257} ; [ DW_TAG_subprogram ]
!1115 = metadata !{i32 786453, i32 0, metadata !"", i32 0, i32 0, i64 0, i64 0, i64 0, i32 0, null, metadata !1116, i32 0, i32 0} ; [ DW_TAG_subroutine_type ]
!1116 = metadata !{null, metadata !1086, metadata !196}
!1117 = metadata !{i32 786478, i32 0, metadata !830, metadata !"ap_uint", metadata !"ap_uint", metadata !"", metadata !831, i32 258, metadata !1118, i1 false, i1 false, i32 0, i32 0, null, i32 256, i1 false, null, null, i32 0, metadata !142, i32 258} ; [ DW_TAG_subprogram ]
!1118 = metadata !{i32 786453, i32 0, metadata !"", i32 0, i32 0, i64 0, i64 0, i64 0, i32 0, null, metadata !1119, i32 0, i32 0} ; [ DW_TAG_subroutine_type ]
!1119 = metadata !{null, metadata !1086, metadata !191}
!1120 = metadata !{i32 786478, i32 0, metadata !830, metadata !"ap_uint", metadata !"ap_uint", metadata !"", metadata !831, i32 259, metadata !1121, i1 false, i1 false, i32 0, i32 0, null, i32 256, i1 false, null, null, i32 0, metadata !142, i32 259} ; [ DW_TAG_subprogram ]
!1121 = metadata !{i32 786453, i32 0, metadata !"", i32 0, i32 0, i64 0, i64 0, i64 0, i32 0, null, metadata !1122, i32 0, i32 0} ; [ DW_TAG_subroutine_type ]
!1122 = metadata !{null, metadata !1086, metadata !200}
!1123 = metadata !{i32 786478, i32 0, metadata !830, metadata !"ap_uint", metadata !"ap_uint", metadata !"", metadata !831, i32 260, metadata !1124, i1 false, i1 false, i32 0, i32 0, null, i32 256, i1 false, null, null, i32 0, metadata !142, i32 260} ; [ DW_TAG_subprogram ]
!1124 = metadata !{i32 786453, i32 0, metadata !"", i32 0, i32 0, i64 0, i64 0, i64 0, i32 0, null, metadata !1125, i32 0, i32 0} ; [ DW_TAG_subroutine_type ]
!1125 = metadata !{null, metadata !1086, metadata !205}
!1126 = metadata !{i32 786478, i32 0, metadata !830, metadata !"ap_uint", metadata !"ap_uint", metadata !"", metadata !831, i32 261, metadata !1127, i1 false, i1 false, i32 0, i32 0, null, i32 256, i1 false, null, null, i32 0, metadata !142, i32 261} ; [ DW_TAG_subprogram ]
!1127 = metadata !{i32 786453, i32 0, metadata !"", i32 0, i32 0, i64 0, i64 0, i64 0, i32 0, null, metadata !1128, i32 0, i32 0} ; [ DW_TAG_subroutine_type ]
!1128 = metadata !{null, metadata !1086, metadata !209}
!1129 = metadata !{i32 786478, i32 0, metadata !830, metadata !"ap_uint", metadata !"ap_uint", metadata !"", metadata !831, i32 263, metadata !1130, i1 false, i1 false, i32 0, i32 0, null, i32 256, i1 false, null, null, i32 0, metadata !142, i32 263} ; [ DW_TAG_subprogram ]
!1130 = metadata !{i32 786453, i32 0, metadata !"", i32 0, i32 0, i64 0, i64 0, i64 0, i32 0, null, metadata !1131, i32 0, i32 0} ; [ DW_TAG_subroutine_type ]
!1131 = metadata !{null, metadata !1086, metadata !213}
!1132 = metadata !{i32 786478, i32 0, metadata !830, metadata !"ap_uint", metadata !"ap_uint", metadata !"", metadata !831, i32 264, metadata !1133, i1 false, i1 false, i32 0, i32 0, null, i32 256, i1 false, null, null, i32 0, metadata !142, i32 264} ; [ DW_TAG_subprogram ]
!1133 = metadata !{i32 786453, i32 0, metadata !"", i32 0, i32 0, i64 0, i64 0, i64 0, i32 0, null, metadata !1134, i32 0, i32 0} ; [ DW_TAG_subroutine_type ]
!1134 = metadata !{null, metadata !1086, metadata !213, metadata !159}
!1135 = metadata !{i32 786478, i32 0, metadata !830, metadata !"operator=", metadata !"operator=", metadata !"_ZNV7ap_uintILi48EEaSERKS0_", metadata !831, i32 267, metadata !1136, i1 false, i1 false, i32 0, i32 0, null, i32 256, i1 false, null, null, i32 0, metadata !142, i32 267} ; [ DW_TAG_subprogram ]
!1136 = metadata !{i32 786453, i32 0, metadata !"", i32 0, i32 0, i64 0, i64 0, i64 0, i32 0, null, metadata !1137, i32 0, i32 0} ; [ DW_TAG_subroutine_type ]
!1137 = metadata !{null, metadata !1138, metadata !1140}
!1138 = metadata !{i32 786447, i32 0, metadata !"", i32 0, i32 0, i64 64, i64 64, i64 0, i32 64, metadata !1139} ; [ DW_TAG_pointer_type ]
!1139 = metadata !{i32 786485, null, metadata !"", null, i32 0, i64 0, i64 0, i64 0, i32 0, metadata !830} ; [ DW_TAG_volatile_type ]
!1140 = metadata !{i32 786448, null, null, null, i32 0, i64 0, i64 0, i64 0, i32 0, metadata !1141} ; [ DW_TAG_reference_type ]
!1141 = metadata !{i32 786470, null, metadata !"", null, i32 0, i64 0, i64 0, i64 0, i32 0, metadata !830} ; [ DW_TAG_const_type ]
!1142 = metadata !{i32 786478, i32 0, metadata !830, metadata !"operator=", metadata !"operator=", metadata !"_ZNV7ap_uintILi48EEaSERVKS0_", metadata !831, i32 271, metadata !1143, i1 false, i1 false, i32 0, i32 0, null, i32 256, i1 false, null, null, i32 0, metadata !142, i32 271} ; [ DW_TAG_subprogram ]
!1143 = metadata !{i32 786453, i32 0, metadata !"", i32 0, i32 0, i64 0, i64 0, i64 0, i32 0, null, metadata !1144, i32 0, i32 0} ; [ DW_TAG_subroutine_type ]
!1144 = metadata !{null, metadata !1138, metadata !1145}
!1145 = metadata !{i32 786448, null, null, null, i32 0, i64 0, i64 0, i64 0, i32 0, metadata !1146} ; [ DW_TAG_reference_type ]
!1146 = metadata !{i32 786470, null, metadata !"", null, i32 0, i64 0, i64 0, i64 0, i32 0, metadata !1139} ; [ DW_TAG_const_type ]
!1147 = metadata !{i32 786478, i32 0, metadata !830, metadata !"operator=", metadata !"operator=", metadata !"_ZN7ap_uintILi48EEaSERVKS0_", metadata !831, i32 275, metadata !1148, i1 false, i1 false, i32 0, i32 0, null, i32 256, i1 false, null, null, i32 0, metadata !142, i32 275} ; [ DW_TAG_subprogram ]
!1148 = metadata !{i32 786453, i32 0, metadata !"", i32 0, i32 0, i64 0, i64 0, i64 0, i32 0, null, metadata !1149, i32 0, i32 0} ; [ DW_TAG_subroutine_type ]
!1149 = metadata !{metadata !1150, metadata !1086, metadata !1145}
!1150 = metadata !{i32 786448, null, null, null, i32 0, i64 0, i64 0, i64 0, i32 0, metadata !830} ; [ DW_TAG_reference_type ]
!1151 = metadata !{i32 786478, i32 0, metadata !830, metadata !"operator=", metadata !"operator=", metadata !"_ZN7ap_uintILi48EEaSERKS0_", metadata !831, i32 280, metadata !1152, i1 false, i1 false, i32 0, i32 0, null, i32 256, i1 false, null, null, i32 0, metadata !142, i32 280} ; [ DW_TAG_subprogram ]
!1152 = metadata !{i32 786453, i32 0, metadata !"", i32 0, i32 0, i64 0, i64 0, i64 0, i32 0, null, metadata !1153, i32 0, i32 0} ; [ DW_TAG_subroutine_type ]
!1153 = metadata !{metadata !1150, metadata !1086, metadata !1140}
!1154 = metadata !{metadata !1046}
!1155 = metadata !{i32 786434, metadata !1156, metadata !"stream<ap_axis_in>", metadata !1157, i32 79, i64 128, i64 64, i32 0, i32 0, null, metadata !1158, i32 0, null, metadata !1930} ; [ DW_TAG_class_type ]
!1156 = metadata !{i32 786489, null, metadata !"hls", metadata !1157, i32 69} ; [ DW_TAG_namespace ]
!1157 = metadata !{i32 786473, metadata !"/cad1/Xilinx/Vivado/2018.1/common/technology/autopilot/hls_stream.h", metadata !"/nfs/ug/thesis/thesis0/pc/Quinn/galapagos", null} ; [ DW_TAG_file_type ]
!1158 = metadata !{metadata !1159, metadata !1889, metadata !1893, metadata !1896, metadata !1901, metadata !1905, metadata !1908, metadata !1911, metadata !1915, metadata !1916, metadata !1917, metadata !1920, metadata !1923, metadata !1924, metadata !1927}
!1159 = metadata !{i32 786445, metadata !1155, metadata !"V", metadata !1157, i32 163, i64 128, i64 64, i64 0, i32 0, metadata !1160} ; [ DW_TAG_member ]
!1160 = metadata !{i32 786434, null, metadata !"ap_axis_in", metadata !826, i32 6, i64 128, i64 64, i32 0, i32 0, null, metadata !1161, i32 0, null, null} ; [ DW_TAG_class_type ]
!1161 = metadata !{metadata !1162, metadata !1539, metadata !1878, metadata !1882, metadata !1883}
!1162 = metadata !{i32 786445, metadata !1160, metadata !"data", metadata !826, i32 8, i64 64, i64 64, i64 0, i32 0, metadata !1163} ; [ DW_TAG_member ]
!1163 = metadata !{i32 786434, null, metadata !"ap_int<64>", metadata !831, i32 74, i64 64, i64 64, i32 0, i32 0, null, metadata !1164, i32 0, null, metadata !1538} ; [ DW_TAG_class_type ]
!1164 = metadata !{metadata !1165, metadata !1166, metadata !1170, metadata !1176, metadata !1182, metadata !1185, metadata !1474, metadata !1477, metadata !1480, metadata !1483, metadata !1486, metadata !1489, metadata !1492, metadata !1495, metadata !1498, metadata !1501, metadata !1504, metadata !1507, metadata !1510, metadata !1513, metadata !1516, metadata !1519, metadata !1522, metadata !1526, metadata !1529, metadata !1533, metadata !1536, metadata !1537}
!1165 = metadata !{i32 786460, metadata !1163, null, metadata !831, i32 0, i64 0, i64 0, i64 0, i32 0, metadata !359} ; [ DW_TAG_inheritance ]
!1166 = metadata !{i32 786478, i32 0, metadata !1163, metadata !"ap_int", metadata !"ap_int", metadata !"", metadata !831, i32 77, metadata !1167, i1 false, i1 false, i32 0, i32 0, null, i32 256, i1 false, null, null, i32 0, metadata !142, i32 77} ; [ DW_TAG_subprogram ]
!1167 = metadata !{i32 786453, i32 0, metadata !"", i32 0, i32 0, i64 0, i64 0, i64 0, i32 0, null, metadata !1168, i32 0, i32 0} ; [ DW_TAG_subroutine_type ]
!1168 = metadata !{null, metadata !1169}
!1169 = metadata !{i32 786447, i32 0, metadata !"", i32 0, i32 0, i64 64, i64 64, i64 0, i32 64, metadata !1163} ; [ DW_TAG_pointer_type ]
!1170 = metadata !{i32 786478, i32 0, metadata !1163, metadata !"ap_int<64>", metadata !"ap_int<64>", metadata !"", metadata !831, i32 79, metadata !1171, i1 false, i1 false, i32 0, i32 0, null, i32 256, i1 false, null, metadata !1175, i32 0, metadata !142, i32 79} ; [ DW_TAG_subprogram ]
!1171 = metadata !{i32 786453, i32 0, metadata !"", i32 0, i32 0, i64 0, i64 0, i64 0, i32 0, null, metadata !1172, i32 0, i32 0} ; [ DW_TAG_subroutine_type ]
!1172 = metadata !{null, metadata !1169, metadata !1173}
!1173 = metadata !{i32 786448, null, null, null, i32 0, i64 0, i64 0, i64 0, i32 0, metadata !1174} ; [ DW_TAG_reference_type ]
!1174 = metadata !{i32 786470, null, metadata !"", null, i32 0, i64 0, i64 0, i64 0, i32 0, metadata !1163} ; [ DW_TAG_const_type ]
!1175 = metadata !{metadata !387}
!1176 = metadata !{i32 786478, i32 0, metadata !1163, metadata !"ap_int<64>", metadata !"ap_int<64>", metadata !"", metadata !831, i32 82, metadata !1177, i1 false, i1 false, i32 0, i32 0, null, i32 256, i1 false, null, metadata !1175, i32 0, metadata !142, i32 82} ; [ DW_TAG_subprogram ]
!1177 = metadata !{i32 786453, i32 0, metadata !"", i32 0, i32 0, i64 0, i64 0, i64 0, i32 0, null, metadata !1178, i32 0, i32 0} ; [ DW_TAG_subroutine_type ]
!1178 = metadata !{null, metadata !1169, metadata !1179}
!1179 = metadata !{i32 786448, null, null, null, i32 0, i64 0, i64 0, i64 0, i32 0, metadata !1180} ; [ DW_TAG_reference_type ]
!1180 = metadata !{i32 786470, null, metadata !"", null, i32 0, i64 0, i64 0, i64 0, i32 0, metadata !1181} ; [ DW_TAG_const_type ]
!1181 = metadata !{i32 786485, null, metadata !"", null, i32 0, i64 0, i64 0, i64 0, i32 0, metadata !1163} ; [ DW_TAG_volatile_type ]
!1182 = metadata !{i32 786478, i32 0, metadata !1163, metadata !"ap_int<64, true>", metadata !"ap_int<64, true>", metadata !"", metadata !831, i32 121, metadata !1183, i1 false, i1 false, i32 0, i32 0, null, i32 256, i1 false, null, metadata !386, i32 0, metadata !142, i32 121} ; [ DW_TAG_subprogram ]
!1183 = metadata !{i32 786453, i32 0, metadata !"", i32 0, i32 0, i64 0, i64 0, i64 0, i32 0, null, metadata !1184, i32 0, i32 0} ; [ DW_TAG_subroutine_type ]
!1184 = metadata !{null, metadata !1169, metadata !384}
!1185 = metadata !{i32 786478, i32 0, metadata !1163, metadata !"ap_int<65, true>", metadata !"ap_int<65, true>", metadata !"", metadata !831, i32 121, metadata !1186, i1 false, i1 false, i32 0, i32 0, null, i32 256, i1 false, null, metadata !1210, i32 0, metadata !142, i32 121} ; [ DW_TAG_subprogram ]
!1186 = metadata !{i32 786453, i32 0, metadata !"", i32 0, i32 0, i64 0, i64 0, i64 0, i32 0, null, metadata !1187, i32 0, i32 0} ; [ DW_TAG_subroutine_type ]
!1187 = metadata !{null, metadata !1169, metadata !1188}
!1188 = metadata !{i32 786448, null, null, null, i32 0, i64 0, i64 0, i64 0, i32 0, metadata !1189} ; [ DW_TAG_reference_type ]
!1189 = metadata !{i32 786470, null, metadata !"", null, i32 0, i64 0, i64 0, i64 0, i32 0, metadata !1190} ; [ DW_TAG_const_type ]
!1190 = metadata !{i32 786434, null, metadata !"ap_int_base<65, true, false>", metadata !127, i32 2398, i64 128, i64 64, i32 0, i32 0, null, metadata !1191, i32 0, null, metadata !1473} ; [ DW_TAG_class_type ]
!1191 = metadata !{metadata !1192, metadata !1203, metadata !1207, metadata !1212, metadata !1218, metadata !1221, metadata !1224, metadata !1227, metadata !1230, metadata !1233, metadata !1236, metadata !1239, metadata !1242, metadata !1245, metadata !1248, metadata !1251, metadata !1254, metadata !1257, metadata !1260, metadata !1263, metadata !1266, metadata !1270, metadata !1273, metadata !1276, metadata !1277, metadata !1281, metadata !1284, metadata !1287, metadata !1290, metadata !1293, metadata !1296, metadata !1299, metadata !1302, metadata !1305, metadata !1308, metadata !1311, metadata !1314, metadata !1319, metadata !1322, metadata !1323, metadata !1324, metadata !1325, metadata !1326, metadata !1329, metadata !1332, metadata !1335, metadata !1338, metadata !1341, metadata !1344, metadata !1347, metadata !1348, metadata !1352, metadata !1355, metadata !1356, metadata !1357, metadata !1358, metadata !1359, metadata !1360, metadata !1363, metadata !1364, metadata !1367, metadata !1368, metadata !1369, metadata !1370, metadata !1371, metadata !1372, metadata !1375, metadata !1376, metadata !1377, metadata !1380, metadata !1381, metadata !1384, metadata !1396, metadata !1397, metadata !1398, metadata !1404, metadata !1405, metadata !1408, metadata !1409, metadata !1446, metadata !1447, metadata !1448, metadata !1449, metadata !1452, metadata !1453, metadata !1454, metadata !1455, metadata !1456, metadata !1457, metadata !1458, metadata !1459, metadata !1460, metadata !1461, metadata !1462, metadata !1463, metadata !1466, metadata !1469, metadata !1472}
!1192 = metadata !{i32 786460, metadata !1190, null, metadata !127, i32 0, i64 0, i64 0, i64 0, i32 0, metadata !1193} ; [ DW_TAG_inheritance ]
!1193 = metadata !{i32 786434, null, metadata !"ssdm_int<65 + 1024 * 0, true>", metadata !134, i32 73, i64 128, i64 64, i32 0, i32 0, null, metadata !1194, i32 0, null, metadata !1201} ; [ DW_TAG_class_type ]
!1194 = metadata !{metadata !1195, metadata !1197}
!1195 = metadata !{i32 786445, metadata !1193, metadata !"V", metadata !134, i32 73, i64 65, i64 64, i64 0, i32 0, metadata !1196} ; [ DW_TAG_member ]
!1196 = metadata !{i32 786468, null, metadata !"int65", null, i32 0, i64 65, i64 64, i64 0, i32 0, i32 5} ; [ DW_TAG_base_type ]
!1197 = metadata !{i32 786478, i32 0, metadata !1193, metadata !"ssdm_int", metadata !"ssdm_int", metadata !"", metadata !134, i32 73, metadata !1198, i1 false, i1 false, i32 0, i32 0, null, i32 256, i1 false, null, null, i32 0, metadata !142, i32 73} ; [ DW_TAG_subprogram ]
!1198 = metadata !{i32 786453, i32 0, metadata !"", i32 0, i32 0, i64 0, i64 0, i64 0, i32 0, null, metadata !1199, i32 0, i32 0} ; [ DW_TAG_subroutine_type ]
!1199 = metadata !{null, metadata !1200}
!1200 = metadata !{i32 786447, i32 0, metadata !"", i32 0, i32 0, i64 64, i64 64, i64 0, i32 64, metadata !1193} ; [ DW_TAG_pointer_type ]
!1201 = metadata !{metadata !1202, metadata !376}
!1202 = metadata !{i32 786480, null, metadata !"_AP_N", metadata !146, i64 65, null, i32 0, i32 0} ; [ DW_TAG_template_value_parameter ]
!1203 = metadata !{i32 786478, i32 0, metadata !1190, metadata !"ap_int_base", metadata !"ap_int_base", metadata !"", metadata !127, i32 2436, metadata !1204, i1 false, i1 false, i32 0, i32 0, null, i32 256, i1 false, null, null, i32 0, metadata !142, i32 2436} ; [ DW_TAG_subprogram ]
!1204 = metadata !{i32 786453, i32 0, metadata !"", i32 0, i32 0, i64 0, i64 0, i64 0, i32 0, null, metadata !1205, i32 0, i32 0} ; [ DW_TAG_subroutine_type ]
!1205 = metadata !{null, metadata !1206}
!1206 = metadata !{i32 786447, i32 0, metadata !"", i32 0, i32 0, i64 64, i64 64, i64 0, i32 64, metadata !1190} ; [ DW_TAG_pointer_type ]
!1207 = metadata !{i32 786478, i32 0, metadata !1190, metadata !"ap_int_base<65, true>", metadata !"ap_int_base<65, true>", metadata !"", metadata !127, i32 2448, metadata !1208, i1 false, i1 false, i32 0, i32 0, null, i32 256, i1 false, null, metadata !1210, i32 0, metadata !142, i32 2448} ; [ DW_TAG_subprogram ]
!1208 = metadata !{i32 786453, i32 0, metadata !"", i32 0, i32 0, i64 0, i64 0, i64 0, i32 0, null, metadata !1209, i32 0, i32 0} ; [ DW_TAG_subroutine_type ]
!1209 = metadata !{null, metadata !1206, metadata !1188}
!1210 = metadata !{metadata !1211, metadata !388}
!1211 = metadata !{i32 786480, null, metadata !"_AP_W2", metadata !146, i64 65, null, i32 0, i32 0} ; [ DW_TAG_template_value_parameter ]
!1212 = metadata !{i32 786478, i32 0, metadata !1190, metadata !"ap_int_base<65, true>", metadata !"ap_int_base<65, true>", metadata !"", metadata !127, i32 2451, metadata !1213, i1 false, i1 false, i32 0, i32 0, null, i32 256, i1 false, null, metadata !1210, i32 0, metadata !142, i32 2451} ; [ DW_TAG_subprogram ]
!1213 = metadata !{i32 786453, i32 0, metadata !"", i32 0, i32 0, i64 0, i64 0, i64 0, i32 0, null, metadata !1214, i32 0, i32 0} ; [ DW_TAG_subroutine_type ]
!1214 = metadata !{null, metadata !1206, metadata !1215}
!1215 = metadata !{i32 786448, null, null, null, i32 0, i64 0, i64 0, i64 0, i32 0, metadata !1216} ; [ DW_TAG_reference_type ]
!1216 = metadata !{i32 786470, null, metadata !"", null, i32 0, i64 0, i64 0, i64 0, i32 0, metadata !1217} ; [ DW_TAG_const_type ]
!1217 = metadata !{i32 786485, null, metadata !"", null, i32 0, i64 0, i64 0, i64 0, i32 0, metadata !1190} ; [ DW_TAG_volatile_type ]
!1218 = metadata !{i32 786478, i32 0, metadata !1190, metadata !"ap_int_base", metadata !"ap_int_base", metadata !"", metadata !127, i32 2458, metadata !1219, i1 false, i1 false, i32 0, i32 0, null, i32 384, i1 false, null, null, i32 0, metadata !142, i32 2458} ; [ DW_TAG_subprogram ]
!1219 = metadata !{i32 786453, i32 0, metadata !"", i32 0, i32 0, i64 0, i64 0, i64 0, i32 0, null, metadata !1220, i32 0, i32 0} ; [ DW_TAG_subroutine_type ]
!1220 = metadata !{null, metadata !1206, metadata !148}
!1221 = metadata !{i32 786478, i32 0, metadata !1190, metadata !"ap_int_base", metadata !"ap_int_base", metadata !"", metadata !127, i32 2459, metadata !1222, i1 false, i1 false, i32 0, i32 0, null, i32 384, i1 false, null, null, i32 0, metadata !142, i32 2459} ; [ DW_TAG_subprogram ]
!1222 = metadata !{i32 786453, i32 0, metadata !"", i32 0, i32 0, i64 0, i64 0, i64 0, i32 0, null, metadata !1223, i32 0, i32 0} ; [ DW_TAG_subroutine_type ]
!1223 = metadata !{null, metadata !1206, metadata !159}
!1224 = metadata !{i32 786478, i32 0, metadata !1190, metadata !"ap_int_base", metadata !"ap_int_base", metadata !"", metadata !127, i32 2460, metadata !1225, i1 false, i1 false, i32 0, i32 0, null, i32 384, i1 false, null, null, i32 0, metadata !142, i32 2460} ; [ DW_TAG_subprogram ]
!1225 = metadata !{i32 786453, i32 0, metadata !"", i32 0, i32 0, i64 0, i64 0, i64 0, i32 0, null, metadata !1226, i32 0, i32 0} ; [ DW_TAG_subroutine_type ]
!1226 = metadata !{null, metadata !1206, metadata !163}
!1227 = metadata !{i32 786478, i32 0, metadata !1190, metadata !"ap_int_base", metadata !"ap_int_base", metadata !"", metadata !127, i32 2461, metadata !1228, i1 false, i1 false, i32 0, i32 0, null, i32 384, i1 false, null, null, i32 0, metadata !142, i32 2461} ; [ DW_TAG_subprogram ]
!1228 = metadata !{i32 786453, i32 0, metadata !"", i32 0, i32 0, i64 0, i64 0, i64 0, i32 0, null, metadata !1229, i32 0, i32 0} ; [ DW_TAG_subroutine_type ]
!1229 = metadata !{null, metadata !1206, metadata !167}
!1230 = metadata !{i32 786478, i32 0, metadata !1190, metadata !"ap_int_base", metadata !"ap_int_base", metadata !"", metadata !127, i32 2462, metadata !1231, i1 false, i1 false, i32 0, i32 0, null, i32 384, i1 false, null, null, i32 0, metadata !142, i32 2462} ; [ DW_TAG_subprogram ]
!1231 = metadata !{i32 786453, i32 0, metadata !"", i32 0, i32 0, i64 0, i64 0, i64 0, i32 0, null, metadata !1232, i32 0, i32 0} ; [ DW_TAG_subroutine_type ]
!1232 = metadata !{null, metadata !1206, metadata !171}
!1233 = metadata !{i32 786478, i32 0, metadata !1190, metadata !"ap_int_base", metadata !"ap_int_base", metadata !"", metadata !127, i32 2463, metadata !1234, i1 false, i1 false, i32 0, i32 0, null, i32 384, i1 false, null, null, i32 0, metadata !142, i32 2463} ; [ DW_TAG_subprogram ]
!1234 = metadata !{i32 786453, i32 0, metadata !"", i32 0, i32 0, i64 0, i64 0, i64 0, i32 0, null, metadata !1235, i32 0, i32 0} ; [ DW_TAG_subroutine_type ]
!1235 = metadata !{null, metadata !1206, metadata !146}
!1236 = metadata !{i32 786478, i32 0, metadata !1190, metadata !"ap_int_base", metadata !"ap_int_base", metadata !"", metadata !127, i32 2464, metadata !1237, i1 false, i1 false, i32 0, i32 0, null, i32 384, i1 false, null, null, i32 0, metadata !142, i32 2464} ; [ DW_TAG_subprogram ]
!1237 = metadata !{i32 786453, i32 0, metadata !"", i32 0, i32 0, i64 0, i64 0, i64 0, i32 0, null, metadata !1238, i32 0, i32 0} ; [ DW_TAG_subroutine_type ]
!1238 = metadata !{null, metadata !1206, metadata !178}
!1239 = metadata !{i32 786478, i32 0, metadata !1190, metadata !"ap_int_base", metadata !"ap_int_base", metadata !"", metadata !127, i32 2465, metadata !1240, i1 false, i1 false, i32 0, i32 0, null, i32 384, i1 false, null, null, i32 0, metadata !142, i32 2465} ; [ DW_TAG_subprogram ]
!1240 = metadata !{i32 786453, i32 0, metadata !"", i32 0, i32 0, i64 0, i64 0, i64 0, i32 0, null, metadata !1241, i32 0, i32 0} ; [ DW_TAG_subroutine_type ]
!1241 = metadata !{null, metadata !1206, metadata !182}
!1242 = metadata !{i32 786478, i32 0, metadata !1190, metadata !"ap_int_base", metadata !"ap_int_base", metadata !"", metadata !127, i32 2466, metadata !1243, i1 false, i1 false, i32 0, i32 0, null, i32 384, i1 false, null, null, i32 0, metadata !142, i32 2466} ; [ DW_TAG_subprogram ]
!1243 = metadata !{i32 786453, i32 0, metadata !"", i32 0, i32 0, i64 0, i64 0, i64 0, i32 0, null, metadata !1244, i32 0, i32 0} ; [ DW_TAG_subroutine_type ]
!1244 = metadata !{null, metadata !1206, metadata !186}
!1245 = metadata !{i32 786478, i32 0, metadata !1190, metadata !"ap_int_base", metadata !"ap_int_base", metadata !"", metadata !127, i32 2467, metadata !1246, i1 false, i1 false, i32 0, i32 0, null, i32 384, i1 false, null, null, i32 0, metadata !142, i32 2467} ; [ DW_TAG_subprogram ]
!1246 = metadata !{i32 786453, i32 0, metadata !"", i32 0, i32 0, i64 0, i64 0, i64 0, i32 0, null, metadata !1247, i32 0, i32 0} ; [ DW_TAG_subroutine_type ]
!1247 = metadata !{null, metadata !1206, metadata !190}
!1248 = metadata !{i32 786478, i32 0, metadata !1190, metadata !"ap_int_base", metadata !"ap_int_base", metadata !"", metadata !127, i32 2468, metadata !1249, i1 false, i1 false, i32 0, i32 0, null, i32 384, i1 false, null, null, i32 0, metadata !142, i32 2468} ; [ DW_TAG_subprogram ]
!1249 = metadata !{i32 786453, i32 0, metadata !"", i32 0, i32 0, i64 0, i64 0, i64 0, i32 0, null, metadata !1250, i32 0, i32 0} ; [ DW_TAG_subroutine_type ]
!1250 = metadata !{null, metadata !1206, metadata !195}
!1251 = metadata !{i32 786478, i32 0, metadata !1190, metadata !"ap_int_base", metadata !"ap_int_base", metadata !"", metadata !127, i32 2469, metadata !1252, i1 false, i1 false, i32 0, i32 0, null, i32 384, i1 false, null, null, i32 0, metadata !142, i32 2469} ; [ DW_TAG_subprogram ]
!1252 = metadata !{i32 786453, i32 0, metadata !"", i32 0, i32 0, i64 0, i64 0, i64 0, i32 0, null, metadata !1253, i32 0, i32 0} ; [ DW_TAG_subroutine_type ]
!1253 = metadata !{null, metadata !1206, metadata !200}
!1254 = metadata !{i32 786478, i32 0, metadata !1190, metadata !"ap_int_base", metadata !"ap_int_base", metadata !"", metadata !127, i32 2470, metadata !1255, i1 false, i1 false, i32 0, i32 0, null, i32 384, i1 false, null, null, i32 0, metadata !142, i32 2470} ; [ DW_TAG_subprogram ]
!1255 = metadata !{i32 786453, i32 0, metadata !"", i32 0, i32 0, i64 0, i64 0, i64 0, i32 0, null, metadata !1256, i32 0, i32 0} ; [ DW_TAG_subroutine_type ]
!1256 = metadata !{null, metadata !1206, metadata !205}
!1257 = metadata !{i32 786478, i32 0, metadata !1190, metadata !"ap_int_base", metadata !"ap_int_base", metadata !"", metadata !127, i32 2471, metadata !1258, i1 false, i1 false, i32 0, i32 0, null, i32 384, i1 false, null, null, i32 0, metadata !142, i32 2471} ; [ DW_TAG_subprogram ]
!1258 = metadata !{i32 786453, i32 0, metadata !"", i32 0, i32 0, i64 0, i64 0, i64 0, i32 0, null, metadata !1259, i32 0, i32 0} ; [ DW_TAG_subroutine_type ]
!1259 = metadata !{null, metadata !1206, metadata !209}
!1260 = metadata !{i32 786478, i32 0, metadata !1190, metadata !"ap_int_base", metadata !"ap_int_base", metadata !"", metadata !127, i32 2498, metadata !1261, i1 false, i1 false, i32 0, i32 0, null, i32 256, i1 false, null, null, i32 0, metadata !142, i32 2498} ; [ DW_TAG_subprogram ]
!1261 = metadata !{i32 786453, i32 0, metadata !"", i32 0, i32 0, i64 0, i64 0, i64 0, i32 0, null, metadata !1262, i32 0, i32 0} ; [ DW_TAG_subroutine_type ]
!1262 = metadata !{null, metadata !1206, metadata !213}
!1263 = metadata !{i32 786478, i32 0, metadata !1190, metadata !"ap_int_base", metadata !"ap_int_base", metadata !"", metadata !127, i32 2505, metadata !1264, i1 false, i1 false, i32 0, i32 0, null, i32 256, i1 false, null, null, i32 0, metadata !142, i32 2505} ; [ DW_TAG_subprogram ]
!1264 = metadata !{i32 786453, i32 0, metadata !"", i32 0, i32 0, i64 0, i64 0, i64 0, i32 0, null, metadata !1265, i32 0, i32 0} ; [ DW_TAG_subroutine_type ]
!1265 = metadata !{null, metadata !1206, metadata !213, metadata !159}
!1266 = metadata !{i32 786478, i32 0, metadata !1190, metadata !"read", metadata !"read", metadata !"_ZNV11ap_int_baseILi65ELb1ELb0EE4readEv", metadata !127, i32 2526, metadata !1267, i1 false, i1 false, i32 0, i32 0, null, i32 256, i1 false, null, null, i32 0, metadata !142, i32 2526} ; [ DW_TAG_subprogram ]
!1267 = metadata !{i32 786453, i32 0, metadata !"", i32 0, i32 0, i64 0, i64 0, i64 0, i32 0, null, metadata !1268, i32 0, i32 0} ; [ DW_TAG_subroutine_type ]
!1268 = metadata !{metadata !1190, metadata !1269}
!1269 = metadata !{i32 786447, i32 0, metadata !"", i32 0, i32 0, i64 64, i64 64, i64 0, i32 64, metadata !1217} ; [ DW_TAG_pointer_type ]
!1270 = metadata !{i32 786478, i32 0, metadata !1190, metadata !"write", metadata !"write", metadata !"_ZNV11ap_int_baseILi65ELb1ELb0EE5writeERKS0_", metadata !127, i32 2532, metadata !1271, i1 false, i1 false, i32 0, i32 0, null, i32 256, i1 false, null, null, i32 0, metadata !142, i32 2532} ; [ DW_TAG_subprogram ]
!1271 = metadata !{i32 786453, i32 0, metadata !"", i32 0, i32 0, i64 0, i64 0, i64 0, i32 0, null, metadata !1272, i32 0, i32 0} ; [ DW_TAG_subroutine_type ]
!1272 = metadata !{null, metadata !1269, metadata !1188}
!1273 = metadata !{i32 786478, i32 0, metadata !1190, metadata !"operator=", metadata !"operator=", metadata !"_ZNV11ap_int_baseILi65ELb1ELb0EEaSERVKS0_", metadata !127, i32 2544, metadata !1274, i1 false, i1 false, i32 0, i32 0, null, i32 256, i1 false, null, null, i32 0, metadata !142, i32 2544} ; [ DW_TAG_subprogram ]
!1274 = metadata !{i32 786453, i32 0, metadata !"", i32 0, i32 0, i64 0, i64 0, i64 0, i32 0, null, metadata !1275, i32 0, i32 0} ; [ DW_TAG_subroutine_type ]
!1275 = metadata !{null, metadata !1269, metadata !1215}
!1276 = metadata !{i32 786478, i32 0, metadata !1190, metadata !"operator=", metadata !"operator=", metadata !"_ZNV11ap_int_baseILi65ELb1ELb0EEaSERKS0_", metadata !127, i32 2553, metadata !1271, i1 false, i1 false, i32 0, i32 0, null, i32 256, i1 false, null, null, i32 0, metadata !142, i32 2553} ; [ DW_TAG_subprogram ]
!1277 = metadata !{i32 786478, i32 0, metadata !1190, metadata !"operator=", metadata !"operator=", metadata !"_ZN11ap_int_baseILi65ELb1ELb0EEaSERVKS0_", metadata !127, i32 2576, metadata !1278, i1 false, i1 false, i32 0, i32 0, null, i32 256, i1 false, null, null, i32 0, metadata !142, i32 2576} ; [ DW_TAG_subprogram ]
!1278 = metadata !{i32 786453, i32 0, metadata !"", i32 0, i32 0, i64 0, i64 0, i64 0, i32 0, null, metadata !1279, i32 0, i32 0} ; [ DW_TAG_subroutine_type ]
!1279 = metadata !{metadata !1280, metadata !1206, metadata !1215}
!1280 = metadata !{i32 786448, null, null, null, i32 0, i64 0, i64 0, i64 0, i32 0, metadata !1190} ; [ DW_TAG_reference_type ]
!1281 = metadata !{i32 786478, i32 0, metadata !1190, metadata !"operator=", metadata !"operator=", metadata !"_ZN11ap_int_baseILi65ELb1ELb0EEaSERKS0_", metadata !127, i32 2581, metadata !1282, i1 false, i1 false, i32 0, i32 0, null, i32 256, i1 false, null, null, i32 0, metadata !142, i32 2581} ; [ DW_TAG_subprogram ]
!1282 = metadata !{i32 786453, i32 0, metadata !"", i32 0, i32 0, i64 0, i64 0, i64 0, i32 0, null, metadata !1283, i32 0, i32 0} ; [ DW_TAG_subroutine_type ]
!1283 = metadata !{metadata !1280, metadata !1206, metadata !1188}
!1284 = metadata !{i32 786478, i32 0, metadata !1190, metadata !"operator=", metadata !"operator=", metadata !"_ZN11ap_int_baseILi65ELb1ELb0EEaSEPKc", metadata !127, i32 2585, metadata !1285, i1 false, i1 false, i32 0, i32 0, null, i32 256, i1 false, null, null, i32 0, metadata !142, i32 2585} ; [ DW_TAG_subprogram ]
!1285 = metadata !{i32 786453, i32 0, metadata !"", i32 0, i32 0, i64 0, i64 0, i64 0, i32 0, null, metadata !1286, i32 0, i32 0} ; [ DW_TAG_subroutine_type ]
!1286 = metadata !{metadata !1280, metadata !1206, metadata !213}
!1287 = metadata !{i32 786478, i32 0, metadata !1190, metadata !"set", metadata !"set", metadata !"_ZN11ap_int_baseILi65ELb1ELb0EE3setEPKca", metadata !127, i32 2593, metadata !1288, i1 false, i1 false, i32 0, i32 0, null, i32 256, i1 false, null, null, i32 0, metadata !142, i32 2593} ; [ DW_TAG_subprogram ]
!1288 = metadata !{i32 786453, i32 0, metadata !"", i32 0, i32 0, i64 0, i64 0, i64 0, i32 0, null, metadata !1289, i32 0, i32 0} ; [ DW_TAG_subroutine_type ]
!1289 = metadata !{metadata !1280, metadata !1206, metadata !213, metadata !159}
!1290 = metadata !{i32 786478, i32 0, metadata !1190, metadata !"operator=", metadata !"operator=", metadata !"_ZN11ap_int_baseILi65ELb1ELb0EEaSEc", metadata !127, i32 2607, metadata !1291, i1 false, i1 false, i32 0, i32 0, null, i32 256, i1 false, null, null, i32 0, metadata !142, i32 2607} ; [ DW_TAG_subprogram ]
!1291 = metadata !{i32 786453, i32 0, metadata !"", i32 0, i32 0, i64 0, i64 0, i64 0, i32 0, null, metadata !1292, i32 0, i32 0} ; [ DW_TAG_subroutine_type ]
!1292 = metadata !{metadata !1280, metadata !1206, metadata !215}
!1293 = metadata !{i32 786478, i32 0, metadata !1190, metadata !"operator=", metadata !"operator=", metadata !"_ZN11ap_int_baseILi65ELb1ELb0EEaSEh", metadata !127, i32 2608, metadata !1294, i1 false, i1 false, i32 0, i32 0, null, i32 256, i1 false, null, null, i32 0, metadata !142, i32 2608} ; [ DW_TAG_subprogram ]
!1294 = metadata !{i32 786453, i32 0, metadata !"", i32 0, i32 0, i64 0, i64 0, i64 0, i32 0, null, metadata !1295, i32 0, i32 0} ; [ DW_TAG_subroutine_type ]
!1295 = metadata !{metadata !1280, metadata !1206, metadata !163}
!1296 = metadata !{i32 786478, i32 0, metadata !1190, metadata !"operator=", metadata !"operator=", metadata !"_ZN11ap_int_baseILi65ELb1ELb0EEaSEs", metadata !127, i32 2609, metadata !1297, i1 false, i1 false, i32 0, i32 0, null, i32 256, i1 false, null, null, i32 0, metadata !142, i32 2609} ; [ DW_TAG_subprogram ]
!1297 = metadata !{i32 786453, i32 0, metadata !"", i32 0, i32 0, i64 0, i64 0, i64 0, i32 0, null, metadata !1298, i32 0, i32 0} ; [ DW_TAG_subroutine_type ]
!1298 = metadata !{metadata !1280, metadata !1206, metadata !167}
!1299 = metadata !{i32 786478, i32 0, metadata !1190, metadata !"operator=", metadata !"operator=", metadata !"_ZN11ap_int_baseILi65ELb1ELb0EEaSEt", metadata !127, i32 2610, metadata !1300, i1 false, i1 false, i32 0, i32 0, null, i32 256, i1 false, null, null, i32 0, metadata !142, i32 2610} ; [ DW_TAG_subprogram ]
!1300 = metadata !{i32 786453, i32 0, metadata !"", i32 0, i32 0, i64 0, i64 0, i64 0, i32 0, null, metadata !1301, i32 0, i32 0} ; [ DW_TAG_subroutine_type ]
!1301 = metadata !{metadata !1280, metadata !1206, metadata !171}
!1302 = metadata !{i32 786478, i32 0, metadata !1190, metadata !"operator=", metadata !"operator=", metadata !"_ZN11ap_int_baseILi65ELb1ELb0EEaSEi", metadata !127, i32 2611, metadata !1303, i1 false, i1 false, i32 0, i32 0, null, i32 256, i1 false, null, null, i32 0, metadata !142, i32 2611} ; [ DW_TAG_subprogram ]
!1303 = metadata !{i32 786453, i32 0, metadata !"", i32 0, i32 0, i64 0, i64 0, i64 0, i32 0, null, metadata !1304, i32 0, i32 0} ; [ DW_TAG_subroutine_type ]
!1304 = metadata !{metadata !1280, metadata !1206, metadata !146}
!1305 = metadata !{i32 786478, i32 0, metadata !1190, metadata !"operator=", metadata !"operator=", metadata !"_ZN11ap_int_baseILi65ELb1ELb0EEaSEj", metadata !127, i32 2612, metadata !1306, i1 false, i1 false, i32 0, i32 0, null, i32 256, i1 false, null, null, i32 0, metadata !142, i32 2612} ; [ DW_TAG_subprogram ]
!1306 = metadata !{i32 786453, i32 0, metadata !"", i32 0, i32 0, i64 0, i64 0, i64 0, i32 0, null, metadata !1307, i32 0, i32 0} ; [ DW_TAG_subroutine_type ]
!1307 = metadata !{metadata !1280, metadata !1206, metadata !178}
!1308 = metadata !{i32 786478, i32 0, metadata !1190, metadata !"operator=", metadata !"operator=", metadata !"_ZN11ap_int_baseILi65ELb1ELb0EEaSEx", metadata !127, i32 2613, metadata !1309, i1 false, i1 false, i32 0, i32 0, null, i32 256, i1 false, null, null, i32 0, metadata !142, i32 2613} ; [ DW_TAG_subprogram ]
!1309 = metadata !{i32 786453, i32 0, metadata !"", i32 0, i32 0, i64 0, i64 0, i64 0, i32 0, null, metadata !1310, i32 0, i32 0} ; [ DW_TAG_subroutine_type ]
!1310 = metadata !{metadata !1280, metadata !1206, metadata !190}
!1311 = metadata !{i32 786478, i32 0, metadata !1190, metadata !"operator=", metadata !"operator=", metadata !"_ZN11ap_int_baseILi65ELb1ELb0EEaSEy", metadata !127, i32 2614, metadata !1312, i1 false, i1 false, i32 0, i32 0, null, i32 256, i1 false, null, null, i32 0, metadata !142, i32 2614} ; [ DW_TAG_subprogram ]
!1312 = metadata !{i32 786453, i32 0, metadata !"", i32 0, i32 0, i64 0, i64 0, i64 0, i32 0, null, metadata !1313, i32 0, i32 0} ; [ DW_TAG_subroutine_type ]
!1313 = metadata !{metadata !1280, metadata !1206, metadata !195}
!1314 = metadata !{i32 786478, i32 0, metadata !1190, metadata !"operator long long", metadata !"operator long long", metadata !"_ZNK11ap_int_baseILi65ELb1ELb0EEcvxEv", metadata !127, i32 2653, metadata !1315, i1 false, i1 false, i32 0, i32 0, null, i32 256, i1 false, null, null, i32 0, metadata !142, i32 2653} ; [ DW_TAG_subprogram ]
!1315 = metadata !{i32 786453, i32 0, metadata !"", i32 0, i32 0, i64 0, i64 0, i64 0, i32 0, null, metadata !1316, i32 0, i32 0} ; [ DW_TAG_subroutine_type ]
!1316 = metadata !{metadata !1317, metadata !1318}
!1317 = metadata !{i32 786454, metadata !1190, metadata !"RetType", metadata !127, i32 2402, i64 0, i64 0, i64 0, i32 0, metadata !495} ; [ DW_TAG_typedef ]
!1318 = metadata !{i32 786447, i32 0, metadata !"", i32 0, i32 0, i64 64, i64 64, i64 0, i32 64, metadata !1189} ; [ DW_TAG_pointer_type ]
!1319 = metadata !{i32 786478, i32 0, metadata !1190, metadata !"to_bool", metadata !"to_bool", metadata !"_ZNK11ap_int_baseILi65ELb1ELb0EE7to_boolEv", metadata !127, i32 2659, metadata !1320, i1 false, i1 false, i32 0, i32 0, null, i32 256, i1 false, null, null, i32 0, metadata !142, i32 2659} ; [ DW_TAG_subprogram ]
!1320 = metadata !{i32 786453, i32 0, metadata !"", i32 0, i32 0, i64 0, i64 0, i64 0, i32 0, null, metadata !1321, i32 0, i32 0} ; [ DW_TAG_subroutine_type ]
!1321 = metadata !{metadata !148, metadata !1318}
!1322 = metadata !{i32 786478, i32 0, metadata !1190, metadata !"to_uchar", metadata !"to_uchar", metadata !"_ZNK11ap_int_baseILi65ELb1ELb0EE8to_ucharEv", metadata !127, i32 2660, metadata !1320, i1 false, i1 false, i32 0, i32 0, null, i32 256, i1 false, null, null, i32 0, metadata !142, i32 2660} ; [ DW_TAG_subprogram ]
!1323 = metadata !{i32 786478, i32 0, metadata !1190, metadata !"to_char", metadata !"to_char", metadata !"_ZNK11ap_int_baseILi65ELb1ELb0EE7to_charEv", metadata !127, i32 2661, metadata !1320, i1 false, i1 false, i32 0, i32 0, null, i32 256, i1 false, null, null, i32 0, metadata !142, i32 2661} ; [ DW_TAG_subprogram ]
