; ModuleID = '/nfs/ug/thesis/thesis0/pc/Quinn/galapagos/hlsIP_adm-8k5/packetFormatter_hardcode_64/solution1/.autopilot/db/a.o.3.bc'
target datalayout = "e-p:64:64:64-i1:8:8-i8:8:8-i16:16:16-i32:32:32-i64:64:64-f32:32:32-f64:64:64-v64:64:64-v128:128:128-a0:0:64-s0:64:64-f80:128:128-n8:16:32:64-S128"
target triple = "x86_64-unknown-linux-gnu"

@packetFormatter_hard = internal unnamed_addr constant [28 x i8] c"packetFormatter_hardcode_64\00" ; [#uses=1 type=[28 x i8]*]
@llvm_global_ctors_1 = appending global [0 x void ()*] zeroinitializer ; [#uses=0 type=[0 x void ()*]*]
@llvm_global_ctors_0 = appending global [0 x i32] zeroinitializer ; [#uses=0 type=[0 x i32]*]
@p_str4 = private unnamed_addr constant [13 x i8] c"ap_ctrl_none\00", align 1 ; [#uses=1 type=[13 x i8]*]
@p_str3 = private unnamed_addr constant [8 x i8] c"ap_none\00", align 1 ; [#uses=2 type=[8 x i8]*]
@p_str2 = private unnamed_addr constant [1 x i8] zeroinitializer, align 1 ; [#uses=28 type=[1 x i8]*]
@p_str1 = private unnamed_addr constant [5 x i8] c"both\00", align 1 ; [#uses=2 type=[5 x i8]*]
@p_str = private unnamed_addr constant [5 x i8] c"axis\00", align 1 ; [#uses=2 type=[5 x i8]*]

; [#uses=0]
define void @packetFormatter_hardcode_64(i64* %packetIn_V_data_V, i1* %packetIn_V_last_V, i8* %packetIn_V_dest_V, i8* %packetIn_V_keep_V, i48 %eth_dst_V, i48 %eth_src_V, i64* %packetOut_V_data_V, i1* %packetOut_V_last_V, i8* %packetOut_V_keep_V) {
  call void (...)* @_ssdm_op_SpecBitsMap(i64* %packetIn_V_data_V), !map !95
  call void (...)* @_ssdm_op_SpecBitsMap(i1* %packetIn_V_last_V), !map !99
  call void (...)* @_ssdm_op_SpecBitsMap(i8* %packetIn_V_dest_V), !map !103
  call void (...)* @_ssdm_op_SpecBitsMap(i8* %packetIn_V_keep_V), !map !107
  call void (...)* @_ssdm_op_SpecBitsMap(i48 %eth_dst_V), !map !111
  call void (...)* @_ssdm_op_SpecBitsMap(i48 %eth_src_V), !map !117
  call void (...)* @_ssdm_op_SpecBitsMap(i64* %packetOut_V_data_V), !map !121
  call void (...)* @_ssdm_op_SpecBitsMap(i1* %packetOut_V_last_V), !map !125
  call void (...)* @_ssdm_op_SpecBitsMap(i8* %packetOut_V_keep_V), !map !129
  call void (...)* @_ssdm_op_SpecTopModule([28 x i8]* @packetFormatter_hard) nounwind
  %eth_src_V_read = call i48 @_ssdm_op_Read.ap_none.i48(i48 %eth_src_V) ; [#uses=2 type=i48]
  %eth_dst_V_read = call i48 @_ssdm_op_Read.ap_none.i48(i48 %eth_dst_V) ; [#uses=1 type=i48]
  call void @llvm.dbg.declare(metadata !{i64* %packetIn_V_data_V}, metadata !133), !dbg !4583 ; [debug line = 49:30] [debug variable = packetIn.V.data.V]
  call void @llvm.dbg.declare(metadata !{i1* %packetIn_V_last_V}, metadata !4584), !dbg !4583 ; [debug line = 49:30] [debug variable = packetIn.V.last.V]
  call void @llvm.dbg.declare(metadata !{i8* %packetIn_V_dest_V}, metadata !4595), !dbg !4583 ; [debug line = 49:30] [debug variable = packetIn.V.dest.V]
  call void @llvm.dbg.declare(metadata !{i8* %packetIn_V_keep_V}, metadata !4606), !dbg !4583 ; [debug line = 49:30] [debug variable = packetIn.V.keep.V]
  call void @llvm.dbg.declare(metadata !{i64* %packetOut_V_data_V}, metadata !4607), !dbg !4612 ; [debug line = 54:26] [debug variable = packetOut.V.data.V]
  call void @llvm.dbg.declare(metadata !{i1* %packetOut_V_last_V}, metadata !4613), !dbg !4612 ; [debug line = 54:26] [debug variable = packetOut.V.last.V]
  call void @llvm.dbg.declare(metadata !{i8* %packetOut_V_keep_V}, metadata !4617), !dbg !4612 ; [debug line = 54:26] [debug variable = packetOut.V.keep.V]
  call void (...)* @_ssdm_op_SpecInterface(i64* %packetIn_V_data_V, i1* %packetIn_V_last_V, i8* %packetIn_V_dest_V, i8* %packetIn_V_keep_V, [5 x i8]* @p_str, i32 1, i32 1, [5 x i8]* @p_str1, i32 0, i32 0, [1 x i8]* @p_str2, [1 x i8]* @p_str2, [1 x i8]* @p_str2, i32 0, i32 0, i32 0, i32 0, [1 x i8]* @p_str2, [1 x i8]* @p_str2) nounwind, !dbg !4621 ; [debug line = 61:1]
  call void (...)* @_ssdm_op_SpecInterface(i64* %packetOut_V_data_V, i1* %packetOut_V_last_V, i8* %packetOut_V_keep_V, [5 x i8]* @p_str, i32 1, i32 1, [5 x i8]* @p_str1, i32 0, i32 0, [1 x i8]* @p_str2, [1 x i8]* @p_str2, [1 x i8]* @p_str2, i32 0, i32 0, i32 0, i32 0, [1 x i8]* @p_str2, [1 x i8]* @p_str2) nounwind, !dbg !4621 ; [debug line = 61:1]
  call void (...)* @_ssdm_op_SpecInterface(i48 %eth_src_V, [8 x i8]* @p_str3, i32 0, i32 0, [1 x i8]* @p_str2, i32 0, i32 0, [1 x i8]* @p_str2, [1 x i8]* @p_str2, [1 x i8]* @p_str2, i32 0, i32 0, i32 0, i32 0, [1 x i8]* @p_str2, [1 x i8]* @p_str2) nounwind, !dbg !4621 ; [debug line = 61:1]
  call void (...)* @_ssdm_op_SpecInterface(i48 %eth_dst_V, [8 x i8]* @p_str3, i32 0, i32 0, [1 x i8]* @p_str2, i32 0, i32 0, [1 x i8]* @p_str2, [1 x i8]* @p_str2, [1 x i8]* @p_str2, i32 0, i32 0, i32 0, i32 0, [1 x i8]* @p_str2, [1 x i8]* @p_str2) nounwind, !dbg !4621 ; [debug line = 61:1]
  call void (...)* @_ssdm_op_SpecInterface(i32 0, [13 x i8]* @p_str4, i32 0, i32 0, [1 x i8]* @p_str2, i32 0, i32 0, [1 x i8]* @p_str2, [1 x i8]* @p_str2, [1 x i8]* @p_str2, i32 0, i32 0, i32 0, i32 0, [1 x i8]* @p_str2, [1 x i8]* @p_str2) nounwind, !dbg !4621 ; [debug line = 61:1]
  call void @llvm.dbg.value(metadata !{i48 %eth_src_V}, i64 0, metadata !4623), !dbg !4627 ; [debug line = 886:181@2490:87@97:116@97:117@69:16] [debug variable = __Repl2__]
  call void @llvm.dbg.value(metadata !{i48 %eth_dst_V}, i64 0, metadata !4720), !dbg !4722 ; [debug line = 888:181@2490:87@97:116@97:117@69:16] [debug variable = __Repl2__]
  %tmp = call i16 @_ssdm_op_PartSelect.i16.i48.i32.i32(i48 %eth_src_V_read, i32 32, i32 47) ; [#uses=1 type=i16]
  %packetHeader0_data_V = call i64 @_ssdm_op_BitConcatenate.i64.i48.i16(i48 %eth_dst_V_read, i16 %tmp), !dbg !4723 ; [#uses=1 type=i64] [debug line = 941:81@1538:15@91:99@91:100@72:23]
  call void @llvm.dbg.value(metadata !{i64 %packetHeader0_data_V}, i64 0, metadata !4737), !dbg !4739 ; [debug line = 174:5@72:23] [debug variable = packetHeader0.data.V]
  %temp_V = trunc i48 %eth_src_V_read to i32, !dbg !4742 ; [#uses=1 type=i32] [debug line = 941:81@1538:15@91:99@91:100@77:21]
  call void @llvm.dbg.value(metadata !{i32 %temp_V}, i64 0, metadata !4843), !dbg !4743 ; [debug line = 1538:15@91:99@91:100@77:21] [debug variable = temp.V]
  call void @llvm.dbg.value(metadata !{i32 %temp_V}, i64 0, metadata !4851), !dbg !4856 ; [debug line = 888:181@1548:87@97:116@97:117@79:22] [debug variable = __Repl2__]
  call void @llvm.dbg.value(metadata !{i64* %packetIn_V_data_V}, i64 0, metadata !4867), !dbg !4872 ; [debug line = 129:56@87:18] [debug variable = stream<ap_axis_dest>.V.data.V]
  call void @llvm.dbg.value(metadata !{i1* %packetIn_V_last_V}, i64 0, metadata !4874), !dbg !4872 ; [debug line = 129:56@87:18] [debug variable = stream<ap_axis_dest>.V.last.V]
  call void @llvm.dbg.value(metadata !{i8* %packetIn_V_dest_V}, i64 0, metadata !4876), !dbg !4872 ; [debug line = 129:56@87:18] [debug variable = stream<ap_axis_dest>.V.dest.V]
  call void @llvm.dbg.value(metadata !{i8* %packetIn_V_keep_V}, i64 0, metadata !4878), !dbg !4872 ; [debug line = 129:56@87:18] [debug variable = stream<ap_axis_dest>.V.keep.V]
  %empty = call { i64, i1, i8, i8 } @_ssdm_op_Read.axis.volatile.i64P.i1P.i8P.i8P(i64* %packetIn_V_data_V, i1* %packetIn_V_last_V, i8* %packetIn_V_dest_V, i8* %packetIn_V_keep_V), !dbg !4879 ; [#uses=3 type={ i64, i1, i8, i8 }] [debug line = 131:9@87:18]
  %tmp_data_V_2 = extractvalue { i64, i1, i8, i8 } %empty, 0, !dbg !4879 ; [#uses=1 type=i64] [debug line = 131:9@87:18]
  %tmp_last_V = extractvalue { i64, i1, i8, i8 } %empty, 1, !dbg !4879 ; [#uses=2 type=i1] [debug line = 131:9@87:18]
  %tmp_dest_V = extractvalue { i64, i1, i8, i8 } %empty, 2, !dbg !4879 ; [#uses=1 type=i8] [debug line = 131:9@87:18]
  call void @llvm.dbg.value(metadata !{i64 %tmp_data_V_2}, i64 0, metadata !4881), !dbg !4879 ; [debug line = 131:9@87:18] [debug variable = tmp.data.V]
  call void @llvm.dbg.value(metadata !{i1 %tmp_last_V}, i64 0, metadata !4883), !dbg !4879 ; [debug line = 131:9@87:18] [debug variable = tmp.last.V]
  call void @llvm.dbg.value(metadata !{i8 %tmp_dest_V}, i64 0, metadata !4884), !dbg !4879 ; [debug line = 131:9@87:18] [debug variable = tmp.dest.V]
  call void (...)* @_ssdm_op_Wait(i32 1) nounwind, !dbg !4885 ; [debug line = 88:2]
  call void @llvm.dbg.value(metadata !{i8 %tmp_dest_V}, i64 0, metadata !4886), !dbg !4890 ; [debug line = 888:181@1548:87@206:117@206:118@89:10] [debug variable = __Repl2__]
  call void @llvm.dbg.value(metadata !{i64 %tmp_data_V_2}, i64 0, metadata !4983), !dbg !4985 ; [debug line = 174:5@91:2] [debug variable = currPayloadOut.data.V]
  call void @llvm.dbg.value(metadata !{i1 %tmp_last_V}, i64 0, metadata !4987), !dbg !4988 ; [debug line = 281:5@94:2] [debug variable = currPayloadOut.last.V]
  %p_Result_s = call i64 @_ssdm_op_BitConcatenate.i64.i32.i16.i8.i8(i32 %temp_V, i16 29696, i8 %tmp_dest_V, i8 0), !dbg !4992 ; [#uses=1 type=i64] [debug line = 888:183@1548:87@97:116@97:117@98:23]
  call void @llvm.dbg.value(metadata !{i64 %p_Result_s}, i64 0, metadata !5006), !dbg !4992 ; [debug line = 888:183@1548:87@97:116@97:117@98:23] [debug variable = __Result__]
  call void @llvm.dbg.value(metadata !{i64 %p_Result_s}, i64 0, metadata !5007), !dbg !5013 ; [debug line = 888:0@1548:87@97:116@97:117@98:23] [debug variable = tmpVal.V]
  call void @llvm.dbg.value(metadata !{i64 %p_Result_s}, i64 0, metadata !5014), !dbg !5016 ; [debug line = 174:5@98:23] [debug variable = packetHeader1.data.V]
  call void @llvm.dbg.value(metadata !{i64* %packetOut_V_data_V}, i64 0, metadata !5017), !dbg !5022 ; [debug line = 144:48@105:2] [debug variable = stream<ap_axis>.V.data.V]
  call void @llvm.dbg.value(metadata !{i1* %packetOut_V_last_V}, i64 0, metadata !5024), !dbg !5022 ; [debug line = 144:48@105:2] [debug variable = stream<ap_axis>.V.last.V]
  call void @llvm.dbg.value(metadata !{i8* %packetOut_V_keep_V}, i64 0, metadata !5026), !dbg !5022 ; [debug line = 144:48@105:2] [debug variable = stream<ap_axis>.V.keep.V]
  call void @llvm.dbg.value(metadata !{i64 %packetHeader0_data_V}, i64 0, metadata !5028), !dbg !5031 ; [debug line = 145:31@105:2] [debug variable = tmp.data.V]
  call void @_ssdm_op_Write.axis.volatile.i64P.i1P.i8P(i64* %packetOut_V_data_V, i1* %packetOut_V_last_V, i8* %packetOut_V_keep_V, i64 %packetHeader0_data_V, i1 undef, i8 -1), !dbg !5032 ; [debug line = 146:9@105:2]
  call void @llvm.dbg.value(metadata !{i64 %p_Result_s}, i64 0, metadata !5028), !dbg !5033 ; [debug line = 145:31@106:2] [debug variable = tmp.data.V]
  call void @_ssdm_op_Write.axis.volatile.i64P.i1P.i8P(i64* %packetOut_V_data_V, i1* %packetOut_V_last_V, i8* %packetOut_V_keep_V, i64 %p_Result_s, i1 undef, i8 -1), !dbg !5035 ; [debug line = 146:9@106:2]
  call void @llvm.dbg.value(metadata !{i64 %tmp_data_V_2}, i64 0, metadata !5028), !dbg !5036 ; [debug line = 145:31@107:2] [debug variable = tmp.data.V]
  call void @llvm.dbg.value(metadata !{i1 %tmp_last_V}, i64 0, metadata !5038), !dbg !5036 ; [debug line = 145:31@107:2] [debug variable = tmp.last.V]
  call void @_ssdm_op_Write.axis.volatile.i64P.i1P.i8P(i64* %packetOut_V_data_V, i1* %packetOut_V_last_V, i8* %packetOut_V_keep_V, i64 %tmp_data_V_2, i1 %tmp_last_V, i8 -1), !dbg !5039 ; [debug line = 146:9@107:2]
  call void @llvm.dbg.value(metadata !{i1 %tmp_last_V}, i64 0, metadata !5040), !dbg !5397 ; [debug line = 174:5@110:2] [debug variable = last.V]
  br label %1, !dbg !5401                         ; [debug line = 111:2]

; <label>:1                                       ; preds = %2, %0
  %p_s = phi i1 [ %tmp_last_V, %0 ], [ %tmp_last_V_1, %2 ] ; [#uses=1 type=i1]
  br i1 %p_s, label %3, label %2, !dbg !5402      ; [debug line = 111:8]

; <label>:2                                       ; preds = %1
  call void @llvm.dbg.value(metadata !{i64* %packetIn_V_data_V}, i64 0, metadata !4867), !dbg !5403 ; [debug line = 129:56@113:19] [debug variable = stream<ap_axis_dest>.V.data.V]
  call void @llvm.dbg.value(metadata !{i1* %packetIn_V_last_V}, i64 0, metadata !4874), !dbg !5403 ; [debug line = 129:56@113:19] [debug variable = stream<ap_axis_dest>.V.last.V]
  call void @llvm.dbg.value(metadata !{i8* %packetIn_V_dest_V}, i64 0, metadata !4876), !dbg !5403 ; [debug line = 129:56@113:19] [debug variable = stream<ap_axis_dest>.V.dest.V]
  call void @llvm.dbg.value(metadata !{i8* %packetIn_V_keep_V}, i64 0, metadata !4878), !dbg !5403 ; [debug line = 129:56@113:19] [debug variable = stream<ap_axis_dest>.V.keep.V]
  %empty_5 = call { i64, i1, i8, i8 } @_ssdm_op_Read.axis.volatile.i64P.i1P.i8P.i8P(i64* %packetIn_V_data_V, i1* %packetIn_V_last_V, i8* %packetIn_V_dest_V, i8* %packetIn_V_keep_V), !dbg !5406 ; [#uses=3 type={ i64, i1, i8, i8 }] [debug line = 131:9@113:19]
  %tmp_data_V_4 = extractvalue { i64, i1, i8, i8 } %empty_5, 0, !dbg !5406 ; [#uses=1 type=i64] [debug line = 131:9@113:19]
  %tmp_last_V_1 = extractvalue { i64, i1, i8, i8 } %empty_5, 1, !dbg !5406 ; [#uses=2 type=i1] [debug line = 131:9@113:19]
  %tmp_keep_V = extractvalue { i64, i1, i8, i8 } %empty_5, 3, !dbg !5406 ; [#uses=1 type=i8] [debug line = 131:9@113:19]
  call void @llvm.dbg.value(metadata !{i64 %tmp_data_V_4}, i64 0, metadata !4881), !dbg !5406 ; [debug line = 131:9@113:19] [debug variable = tmp.data.V]
  call void @llvm.dbg.value(metadata !{i1 %tmp_last_V_1}, i64 0, metadata !4883), !dbg !5406 ; [debug line = 131:9@113:19] [debug variable = tmp.last.V]
  call void @llvm.dbg.value(metadata !{i8 %tmp_keep_V}, i64 0, metadata !5407), !dbg !5406 ; [debug line = 131:9@113:19] [debug variable = tmp.keep.V]
  call void @llvm.dbg.value(metadata !{i64 %tmp_data_V_4}, i64 0, metadata !4983), !dbg !5408 ; [debug line = 174:5@115:3] [debug variable = currPayloadOut.data.V]
  call void @llvm.dbg.value(metadata !{i1 %tmp_last_V_1}, i64 0, metadata !4987), !dbg !5410 ; [debug line = 281:5@116:3] [debug variable = currPayloadOut.last.V]
  call void @llvm.dbg.value(metadata !{i8 %tmp_keep_V}, i64 0, metadata !5412), !dbg !5413 ; [debug line = 281:5@117:3] [debug variable = currPayloadOut.keep.V]
  call void @llvm.dbg.value(metadata !{i64* %packetOut_V_data_V}, i64 0, metadata !5017), !dbg !5417 ; [debug line = 144:48@118:3] [debug variable = stream<ap_axis>.V.data.V]
  call void @llvm.dbg.value(metadata !{i1* %packetOut_V_last_V}, i64 0, metadata !5024), !dbg !5417 ; [debug line = 144:48@118:3] [debug variable = stream<ap_axis>.V.last.V]
  call void @llvm.dbg.value(metadata !{i8* %packetOut_V_keep_V}, i64 0, metadata !5026), !dbg !5417 ; [debug line = 144:48@118:3] [debug variable = stream<ap_axis>.V.keep.V]
  call void @llvm.dbg.value(metadata !{i64 %tmp_data_V_4}, i64 0, metadata !5028), !dbg !5419 ; [debug line = 145:31@118:3] [debug variable = tmp.data.V]
  call void @llvm.dbg.value(metadata !{i1 %tmp_last_V_1}, i64 0, metadata !5038), !dbg !5419 ; [debug line = 145:31@118:3] [debug variable = tmp.last.V]
  call void @llvm.dbg.value(metadata !{i8 %tmp_keep_V}, i64 0, metadata !5420), !dbg !5419 ; [debug line = 145:31@118:3] [debug variable = tmp.keep.V]
  call void @_ssdm_op_Write.axis.volatile.i64P.i1P.i8P(i64* %packetOut_V_data_V, i1* %packetOut_V_last_V, i8* %packetOut_V_keep_V, i64 %tmp_data_V_4, i1 %tmp_last_V_1, i8 %tmp_keep_V), !dbg !5421 ; [debug line = 146:9@118:3]
  call void @llvm.dbg.value(metadata !{i1 %tmp_last_V_1}, i64 0, metadata !5040), !dbg !5422 ; [debug line = 174:5@119:3] [debug variable = last.V]
  br label %1, !dbg !5424                         ; [debug line = 120:2]

; <label>:3                                       ; preds = %1
  ret void, !dbg !5425                            ; [debug line = 121:1]
}

; [#uses=1]
declare i48 @llvm.part.select.i48(i48, i32, i32) nounwind readnone

; [#uses=43]
declare void @llvm.dbg.value(metadata, i64, metadata) nounwind readnone

; [#uses=7]
declare void @llvm.dbg.declare(metadata, metadata) nounwind readnone

; [#uses=4]
define weak void @_ssdm_op_Write.axis.volatile.i64P.i1P.i8P(i64*, i1*, i8*, i64, i1, i8) {
entry:
  store i64 %3, i64* %0
  store i1 %4, i1* %1
  store i8 %5, i8* %2
  ret void
}

; [#uses=1]
define weak void @_ssdm_op_Wait(...) nounwind {
entry:
  ret void
}

; [#uses=1]
define weak void @_ssdm_op_SpecTopModule(...) {
entry:
  ret void
}

; [#uses=5]
define weak void @_ssdm_op_SpecInterface(...) nounwind {
entry:
  ret void
}

; [#uses=9]
define weak void @_ssdm_op_SpecBitsMap(...) {
entry:
  ret void
}

; [#uses=2]
define weak { i64, i1, i8, i8 } @_ssdm_op_Read.axis.volatile.i64P.i1P.i8P.i8P(i64*, i1*, i8*, i8*) {
entry:
  %empty = load i64* %0                           ; [#uses=1 type=i64]
  %empty_6 = load i1* %1                          ; [#uses=1 type=i1]
  %empty_7 = load i8* %2                          ; [#uses=1 type=i8]
  %empty_8 = load i8* %3                          ; [#uses=1 type=i8]
  %mrv_0 = insertvalue { i64, i1, i8, i8 } undef, i64 %empty, 0 ; [#uses=1 type={ i64, i1, i8, i8 }]
  %mrv1 = insertvalue { i64, i1, i8, i8 } %mrv_0, i1 %empty_6, 1 ; [#uses=1 type={ i64, i1, i8, i8 }]
  %mrv2 = insertvalue { i64, i1, i8, i8 } %mrv1, i8 %empty_7, 2 ; [#uses=1 type={ i64, i1, i8, i8 }]
  %mrv3 = insertvalue { i64, i1, i8, i8 } %mrv2, i8 %empty_8, 3 ; [#uses=1 type={ i64, i1, i8, i8 }]
  ret { i64, i1, i8, i8 } %mrv3
}

; [#uses=2]
define weak i48 @_ssdm_op_Read.ap_none.i48(i48) {
entry:
  ret i48 %0
}

; [#uses=0]
declare i32 @_ssdm_op_PartSelect.i32.i48.i32.i32(i48, i32, i32) nounwind readnone

; [#uses=1]
define weak i16 @_ssdm_op_PartSelect.i16.i48.i32.i32(i48, i32, i32) nounwind readnone {
entry:
  %empty = call i48 @llvm.part.select.i48(i48 %0, i32 %1, i32 %2) ; [#uses=1 type=i48]
  %empty_9 = trunc i48 %empty to i16              ; [#uses=1 type=i16]
  ret i16 %empty_9
}

; [#uses=1]
define weak i64 @_ssdm_op_BitConcatenate.i64.i48.i16(i48, i16) nounwind readnone {
entry:
  %empty = zext i48 %0 to i64                     ; [#uses=1 type=i64]
  %empty_10 = zext i16 %1 to i64                  ; [#uses=1 type=i64]
  %empty_11 = shl i64 %empty, 16                  ; [#uses=1 type=i64]
  %empty_12 = or i64 %empty_11, %empty_10         ; [#uses=1 type=i64]
  ret i64 %empty_12
}

; [#uses=1]
define weak i64 @_ssdm_op_BitConcatenate.i64.i32.i16.i8.i8(i32, i16, i8, i8) nounwind readnone {
entry:
  %empty = zext i8 %2 to i16                      ; [#uses=1 type=i16]
  %empty_13 = zext i8 %3 to i16                   ; [#uses=1 type=i16]
  %empty_14 = shl i16 %empty, 8                   ; [#uses=1 type=i16]
  %empty_15 = or i16 %empty_14, %empty_13         ; [#uses=1 type=i16]
  %empty_16 = zext i16 %1 to i32                  ; [#uses=1 type=i32]
  %empty_17 = zext i16 %empty_15 to i32           ; [#uses=1 type=i32]
  %empty_18 = shl i32 %empty_16, 16               ; [#uses=1 type=i32]
  %empty_19 = or i32 %empty_18, %empty_17         ; [#uses=1 type=i32]
  %empty_20 = zext i32 %0 to i64                  ; [#uses=1 type=i64]
  %empty_21 = zext i32 %empty_19 to i64           ; [#uses=1 type=i64]
  %empty_22 = shl i64 %empty_20, 32               ; [#uses=1 type=i64]
  %empty_23 = or i64 %empty_22, %empty_21         ; [#uses=1 type=i64]
  ret i64 %empty_23
}

!opencl.kernels = !{!0, !7, !13, !13, !7, !7, !19, !22, !25, !25, !25, !7, !28, !28, !7, !7, !7, !30, !30, !7, !7, !32, !35, !35, !41, !41, !41, !7, !7, !30, !30, !7, !43, !45, !47, !47, !49, !51, !7, !52, !52, !7, !7, !7, !7, !7, !52, !52, !54, !54, !54, !7, !56, !56, !7, !58, !58, !7, !7, !30, !30, !7, !60, !62, !62, !52, !52, !7, !7, !64, !64, !64, !7, !7, !7, !7, !7, !64, !64, !64, !66, !68, !71, !71, !77, !77, !77, !7, !30, !30, !7, !79, !81, !83, !83, !7, !7, !7, !7, !7, !7, !7, !85, !7, !7, !7, !7, !7, !7, !7, !7, !7, !7, !7, !7, !7}
!hls.encrypted.func = !{}
!llvm.map.gv = !{!88}

!0 = metadata !{null, metadata !1, metadata !2, metadata !3, metadata !4, metadata !5, metadata !6}
!1 = metadata !{metadata !"kernel_arg_addr_space", i32 0, i32 0, i32 0, i32 0}
!2 = metadata !{metadata !"kernel_arg_access_qual", metadata !"none", metadata !"none", metadata !"none", metadata !"none"}
!3 = metadata !{metadata !"kernel_arg_type", metadata !"hls::stream<ap_axis_dest>", metadata !"ap_int<48>", metadata !"ap_int<48>", metadata !"hls::stream<ap_axis>"}
!4 = metadata !{metadata !"kernel_arg_type_qual", metadata !"", metadata !"", metadata !"", metadata !""}
!5 = metadata !{metadata !"kernel_arg_name", metadata !"packetIn", metadata !"eth_dst", metadata !"eth_src", metadata !"packetOut"}
!6 = metadata !{metadata !"reqd_work_group_size", i32 1, i32 1, i32 1}
!7 = metadata !{null, metadata !8, metadata !9, metadata !10, metadata !11, metadata !12, metadata !6}
!8 = metadata !{metadata !"kernel_arg_addr_space"}
!9 = metadata !{metadata !"kernel_arg_access_qual"}
!10 = metadata !{metadata !"kernel_arg_type"}
!11 = metadata !{metadata !"kernel_arg_type_qual"}
!12 = metadata !{metadata !"kernel_arg_name"}
!13 = metadata !{null, metadata !14, metadata !15, metadata !16, metadata !17, metadata !18, metadata !6}
!14 = metadata !{metadata !"kernel_arg_addr_space", i32 0}
!15 = metadata !{metadata !"kernel_arg_access_qual", metadata !"none"}
!16 = metadata !{metadata !"kernel_arg_type", metadata !"const ap_uint<1> &"}
!17 = metadata !{metadata !"kernel_arg_type_qual", metadata !""}
!18 = metadata !{metadata !"kernel_arg_name", metadata !"op"}
!19 = metadata !{null, metadata !14, metadata !15, metadata !20, metadata !17, metadata !21, metadata !6}
!20 = metadata !{metadata !"kernel_arg_type", metadata !"const ap_int<1> &"}
!21 = metadata !{metadata !"kernel_arg_name", metadata !"op2"}
!22 = metadata !{null, metadata !14, metadata !15, metadata !23, metadata !17, metadata !24, metadata !6}
!23 = metadata !{metadata !"kernel_arg_type", metadata !"const struct ap_axis &"}
!24 = metadata !{metadata !"kernel_arg_name", metadata !"din"}
!25 = metadata !{null, metadata !14, metadata !15, metadata !26, metadata !17, metadata !27, metadata !6}
!26 = metadata !{metadata !"kernel_arg_type", metadata !"const ap_concat_ref<48, struct ap_int_base<48, true, true>, 16, struct ap_int_base<16, false, true> > &"}
!27 = metadata !{metadata !"kernel_arg_name", metadata !"ref"}
!28 = metadata !{null, metadata !14, metadata !15, metadata !29, metadata !17, metadata !18, metadata !6}
!29 = metadata !{metadata !"kernel_arg_type", metadata !"const ap_int_base<48, true> &"}
!30 = metadata !{null, metadata !14, metadata !15, metadata !31, metadata !17, metadata !18, metadata !6}
!31 = metadata !{metadata !"kernel_arg_type", metadata !"int"}
!32 = metadata !{null, metadata !14, metadata !15, metadata !33, metadata !17, metadata !34, metadata !6}
!33 = metadata !{metadata !"kernel_arg_type", metadata !"ap_int_base<16, false> &"}
!34 = metadata !{metadata !"kernel_arg_name", metadata !"a2"}
!35 = metadata !{null, metadata !36, metadata !37, metadata !38, metadata !39, metadata !40, metadata !6}
!36 = metadata !{metadata !"kernel_arg_addr_space", i32 0, i32 0}
!37 = metadata !{metadata !"kernel_arg_access_qual", metadata !"none", metadata !"none"}
!38 = metadata !{metadata !"kernel_arg_type", metadata !"struct ap_int_base<48, true, true> &", metadata !"struct ap_int_base<16, false, true> &"}
!39 = metadata !{metadata !"kernel_arg_type_qual", metadata !"", metadata !""}
!40 = metadata !{metadata !"kernel_arg_name", metadata !"bv1", metadata !"bv2"}
!41 = metadata !{null, metadata !14, metadata !15, metadata !42, metadata !17, metadata !27, metadata !6}
!42 = metadata !{metadata !"kernel_arg_type", metadata !"const ap_concat_ref<8, struct ap_int_base<8, false, true>, 8, struct ap_int_base<8, false, true> > &"}
!43 = metadata !{null, metadata !14, metadata !15, metadata !44, metadata !17, metadata !21, metadata !6}
!44 = metadata !{metadata !"kernel_arg_type", metadata !"const ap_uint<16> &"}
!45 = metadata !{null, metadata !14, metadata !15, metadata !46, metadata !17, metadata !34, metadata !6}
!46 = metadata !{metadata !"kernel_arg_type", metadata !"ap_int_base<8, false> &"}
!47 = metadata !{null, metadata !36, metadata !37, metadata !48, metadata !39, metadata !40, metadata !6}
!48 = metadata !{metadata !"kernel_arg_type", metadata !"struct ap_int_base<8, false, true> &", metadata !"struct ap_int_base<8, false, true> &"}
!49 = metadata !{null, metadata !14, metadata !15, metadata !50, metadata !17, metadata !21, metadata !6}
!50 = metadata !{metadata !"kernel_arg_type", metadata !"const ap_uint<8> &"}
!51 = metadata !{null, metadata !14, metadata !15, metadata !16, metadata !17, metadata !21, metadata !6}
!52 = metadata !{null, metadata !14, metadata !15, metadata !31, metadata !17, metadata !53, metadata !6}
!53 = metadata !{metadata !"kernel_arg_name", metadata !"val"}
!54 = metadata !{null, metadata !14, metadata !15, metadata !55, metadata !17, metadata !27, metadata !6}
!55 = metadata !{metadata !"kernel_arg_type", metadata !"const ap_concat_ref<32, struct ap_int_base<32, true, true>, 16, struct ap_int_base<16, true, true> > &"}
!56 = metadata !{null, metadata !14, metadata !15, metadata !57, metadata !17, metadata !18, metadata !6}
!57 = metadata !{metadata !"kernel_arg_type", metadata !"const ap_int_base<32, true> &"}
!58 = metadata !{null, metadata !14, metadata !15, metadata !59, metadata !17, metadata !18, metadata !6}
!59 = metadata !{metadata !"kernel_arg_type", metadata !"const ap_int_base<16, true> &"}
!60 = metadata !{null, metadata !14, metadata !15, metadata !61, metadata !17, metadata !34, metadata !6}
!61 = metadata !{metadata !"kernel_arg_type", metadata !"ap_int_base<16, true> &"}
!62 = metadata !{null, metadata !36, metadata !37, metadata !63, metadata !39, metadata !40, metadata !6}
!63 = metadata !{metadata !"kernel_arg_type", metadata !"struct ap_int_base<32, true, true> &", metadata !"struct ap_int_base<16, true, true> &"}
!64 = metadata !{null, metadata !14, metadata !15, metadata !65, metadata !17, metadata !27, metadata !6}
!65 = metadata !{metadata !"kernel_arg_type", metadata !"const ap_range_ref<96, true> &"}
!66 = metadata !{null, metadata !14, metadata !15, metadata !67, metadata !17, metadata !21, metadata !6}
!67 = metadata !{metadata !"kernel_arg_type", metadata !"const ap_int<64> &"}
!68 = metadata !{null, metadata !36, metadata !37, metadata !69, metadata !39, metadata !70, metadata !6}
!69 = metadata !{metadata !"kernel_arg_type", metadata !"int", metadata !"int"}
!70 = metadata !{metadata !"kernel_arg_name", metadata !"Hi", metadata !"Lo"}
!71 = metadata !{null, metadata !72, metadata !73, metadata !74, metadata !75, metadata !76, metadata !6}
!72 = metadata !{metadata !"kernel_arg_addr_space", i32 1, i32 0, i32 0}
!73 = metadata !{metadata !"kernel_arg_access_qual", metadata !"none", metadata !"none", metadata !"none"}
!74 = metadata !{metadata !"kernel_arg_type", metadata !"ap_int_base<96, true>*", metadata !"int", metadata !"int"}
!75 = metadata !{metadata !"kernel_arg_type_qual", metadata !"", metadata !"", metadata !""}
!76 = metadata !{metadata !"kernel_arg_name", metadata !"bv", metadata !"h", metadata !"l"}
!77 = metadata !{null, metadata !14, metadata !15, metadata !78, metadata !17, metadata !27, metadata !6}
!78 = metadata !{metadata !"kernel_arg_type", metadata !"const ap_concat_ref<48, struct ap_int_base<48, true, true>, 48, struct ap_int_base<48, true, true> > &"}
!79 = metadata !{null, metadata !14, metadata !15, metadata !80, metadata !17, metadata !21, metadata !6}
!80 = metadata !{metadata !"kernel_arg_type", metadata !"const ap_int<96> &"}
!81 = metadata !{null, metadata !14, metadata !15, metadata !82, metadata !17, metadata !34, metadata !6}
!82 = metadata !{metadata !"kernel_arg_type", metadata !"ap_int_base<48, true> &"}
!83 = metadata !{null, metadata !36, metadata !37, metadata !84, metadata !39, metadata !40, metadata !6}
!84 = metadata !{metadata !"kernel_arg_type", metadata !"struct ap_int_base<48, true, true> &", metadata !"struct ap_int_base<48, true, true> &"}
!85 = metadata !{null, metadata !14, metadata !15, metadata !86, metadata !17, metadata !87, metadata !6}
!86 = metadata !{metadata !"kernel_arg_type", metadata !"const struct ap_axis_dest &"}
!87 = metadata !{metadata !"kernel_arg_name", metadata !""}
!88 = metadata !{metadata !89, [0 x i32]* @llvm_global_ctors_0}
!89 = metadata !{metadata !90}
!90 = metadata !{i32 0, i32 31, metadata !91}
!91 = metadata !{metadata !92}
!92 = metadata !{metadata !"llvm.global_ctors.0", metadata !93, metadata !"", i32 0, i32 31}
!93 = metadata !{metadata !94}
!94 = metadata !{i32 0, i32 0, i32 1}
!95 = metadata !{metadata !96}
!96 = metadata !{i32 0, i32 63, metadata !97}
!97 = metadata !{metadata !98}
!98 = metadata !{metadata !"packetIn.V.data.V", metadata !93, metadata !"int64", i32 0, i32 63}
!99 = metadata !{metadata !100}
!100 = metadata !{i32 0, i32 0, metadata !101}
!101 = metadata !{metadata !102}
!102 = metadata !{metadata !"packetIn.V.last.V", metadata !93, metadata !"uint1", i32 0, i32 0}
!103 = metadata !{metadata !104}
!104 = metadata !{i32 0, i32 7, metadata !105}
!105 = metadata !{metadata !106}
!106 = metadata !{metadata !"packetIn.V.dest.V", metadata !93, metadata !"uint8", i32 0, i32 7}
!107 = metadata !{metadata !108}
!108 = metadata !{i32 0, i32 7, metadata !109}
!109 = metadata !{metadata !110}
!110 = metadata !{metadata !"packetIn.V.keep.V", metadata !93, metadata !"uint8", i32 0, i32 7}
!111 = metadata !{metadata !112}
!112 = metadata !{i32 0, i32 47, metadata !113}
!113 = metadata !{metadata !114}
!114 = metadata !{metadata !"eth_dst.V", metadata !115, metadata !"int48", i32 0, i32 47}
!115 = metadata !{metadata !116}
!116 = metadata !{i32 0, i32 0, i32 0}
!117 = metadata !{metadata !118}
!118 = metadata !{i32 0, i32 47, metadata !119}
!119 = metadata !{metadata !120}
!120 = metadata !{metadata !"eth_src.V", metadata !115, metadata !"int48", i32 0, i32 47}
!121 = metadata !{metadata !122}
!122 = metadata !{i32 0, i32 63, metadata !123}
!123 = metadata !{metadata !124}
!124 = metadata !{metadata !"packetOut.V.data.V", metadata !93, metadata !"int64", i32 0, i32 63}
!125 = metadata !{metadata !126}
!126 = metadata !{i32 0, i32 0, metadata !127}
!127 = metadata !{metadata !128}
!128 = metadata !{metadata !"packetOut.V.last.V", metadata !93, metadata !"uint1", i32 0, i32 0}
!129 = metadata !{metadata !130}
!130 = metadata !{i32 0, i32 7, metadata !131}
!131 = metadata !{metadata !132}
!132 = metadata !{metadata !"packetOut.V.keep.V", metadata !93, metadata !"uint8", i32 0, i32 7}
!133 = metadata !{i32 790531, metadata !134, metadata !"packetIn.V.data.V", null, i32 49, metadata !4573, i32 0, i32 0} ; [ DW_TAG_arg_variable_field ]
!134 = metadata !{i32 786689, metadata !135, metadata !"packetIn", metadata !136, i32 16777265, metadata !3304, i32 0, i32 0} ; [ DW_TAG_arg_variable ]
!135 = metadata !{i32 786478, i32 0, metadata !136, metadata !"packetFormatter_hardcode_64", metadata !"packetFormatter_hardcode_64", metadata !"_Z27packetFormatter_hardcode_64N3hls6streamI12ap_axis_destEE6ap_intILi48EES4_NS0_I7ap_axisEE", metadata !136, i32 47, metadata !137, i1 false, i1 true, i32 0, i32 0, null, i32 256, i1 false, null, null, null, metadata !164, i32 60} ; [ DW_TAG_subprogram ]
!136 = metadata !{i32 786473, metadata !"../hlsSources/srcs/packetFormatter_hardcode_64.cpp", metadata !"/nfs/ug/thesis/thesis0/pc/Quinn/galapagos", null} ; [ DW_TAG_file_type ]
!137 = metadata !{i32 786453, i32 0, metadata !"", i32 0, i32 0, i64 0, i64 0, i64 0, i32 0, null, metadata !138, i32 0, i32 0} ; [ DW_TAG_subroutine_type ]
!138 = metadata !{null, metadata !139, metadata !3332, metadata !3332, metadata !4515}
!139 = metadata !{i32 786434, metadata !140, metadata !"stream<ap_axis_dest>", metadata !141, i32 79, i64 128, i64 64, i32 0, i32 0, null, metadata !142, i32 0, null, metadata !3330} ; [ DW_TAG_class_type ]
!140 = metadata !{i32 786489, null, metadata !"hls", metadata !141, i32 69} ; [ DW_TAG_namespace ]
!141 = metadata !{i32 786473, metadata !"/cad1/Xilinx/Vivado/2018.1/common/technology/autopilot/hls_stream.h", metadata !"/nfs/ug/thesis/thesis0/pc/Quinn/galapagos", null} ; [ DW_TAG_file_type ]
!142 = metadata !{metadata !143, metadata !3289, metadata !3293, metadata !3296, metadata !3301, metadata !3305, metadata !3308, metadata !3311, metadata !3315, metadata !3316, metadata !3317, metadata !3320, metadata !3323, metadata !3324, metadata !3327}
!143 = metadata !{i32 786445, metadata !139, metadata !"V", metadata !141, i32 163, i64 128, i64 64, i64 0, i32 0, metadata !144} ; [ DW_TAG_member ]
!144 = metadata !{i32 786434, null, metadata !"ap_axis_dest", metadata !136, i32 17, i64 128, i64 64, i32 0, i32 0, null, metadata !145, i32 0, null, null} ; [ DW_TAG_class_type ]
!145 = metadata !{metadata !146, metadata !2271, metadata !2610, metadata !3277, metadata !3278, metadata !3282, metadata !3283}
!146 = metadata !{i32 786445, metadata !144, metadata !"data", metadata !136, i32 18, i64 64, i64 64, i64 0, i32 0, metadata !147} ; [ DW_TAG_member ]
!147 = metadata !{i32 786434, null, metadata !"ap_int<64>", metadata !148, i32 74, i64 64, i64 64, i32 0, i32 0, null, metadata !149, i32 0, null, metadata !2270} ; [ DW_TAG_class_type ]
!148 = metadata !{i32 786473, metadata !"/cad1/Xilinx/Vivado/2018.1/common/technology/autopilot/ap_int.h", metadata !"/nfs/ug/thesis/thesis0/pc/Quinn/galapagos", null} ; [ DW_TAG_file_type ]
!149 = metadata !{metadata !150, metadata !438, metadata !442, metadata !448, metadata !454, metadata !1013, metadata !2204, metadata !2207, metadata !2210, metadata !2213, metadata !2216, metadata !2219, metadata !2222, metadata !2225, metadata !2228, metadata !2231, metadata !2234, metadata !2237, metadata !2240, metadata !2243, metadata !2246, metadata !2249, metadata !2252, metadata !2255, metadata !2259, metadata !2262, metadata !2266, metadata !2269}
!150 = metadata !{i32 786460, metadata !147, null, metadata !148, i32 0, i64 0, i64 0, i64 0, i32 0, metadata !151} ; [ DW_TAG_inheritance ]
!151 = metadata !{i32 786434, null, metadata !"ap_int_base<64, true, true>", metadata !152, i32 1453, i64 64, i64 64, i32 0, i32 0, null, metadata !153, i32 0, null, metadata !436} ; [ DW_TAG_class_type ]
!152 = metadata !{i32 786473, metadata !"/cad1/Xilinx/Vivado/2018.1/common/technology/autopilot/ap_int_syn.h", metadata !"/nfs/ug/thesis/thesis0/pc/Quinn/galapagos", null} ; [ DW_TAG_file_type ]
!153 = metadata !{metadata !154, metadata !171, metadata !175, metadata !183, metadata !189, metadata !192, metadata !196, metadata !200, metadata !204, metadata !208, metadata !211, metadata !215, metadata !219, metadata !223, metadata !228, metadata !233, metadata !238, metadata !242, metadata !246, metadata !252, metadata !255, metadata !259, metadata !262, metadata !265, metadata !266, metadata !270, metadata !273, metadata !276, metadata !279, metadata !282, metadata !285, metadata !288, metadata !291, metadata !294, metadata !297, metadata !300, metadata !303, metadata !313, metadata !316, metadata !319, metadata !322, metadata !325, metadata !328, metadata !331, metadata !334, metadata !337, metadata !340, metadata !343, metadata !346, metadata !349, metadata !350, metadata !354, metadata !357, metadata !358, metadata !359, metadata !360, metadata !361, metadata !362, metadata !365, metadata !366, metadata !369, metadata !370, metadata !371, metadata !372, metadata !373, metadata !374, metadata !377, metadata !378, metadata !379, metadata !382, metadata !383, metadata !386, metadata !387, metadata !388, metadata !394, metadata !395, metadata !398, metadata !399, metadata !403, metadata !404, metadata !405, metadata !406, metadata !409, metadata !410, metadata !411, metadata !412, metadata !413, metadata !414, metadata !415, metadata !416, metadata !417, metadata !418, metadata !419, metadata !420, metadata !430, metadata !433}
!154 = metadata !{i32 786460, metadata !151, null, metadata !152, i32 0, i64 0, i64 0, i64 0, i32 0, metadata !155} ; [ DW_TAG_inheritance ]
!155 = metadata !{i32 786434, null, metadata !"ssdm_int<64 + 1024 * 0, true>", metadata !156, i32 68, i64 64, i64 64, i32 0, i32 0, null, metadata !157, i32 0, null, metadata !166} ; [ DW_TAG_class_type ]
!156 = metadata !{i32 786473, metadata !"/cad1/Xilinx/Vivado/2018.1/common/technology/autopilot/etc/autopilot_dt.def", metadata !"/nfs/ug/thesis/thesis0/pc/Quinn/galapagos", null} ; [ DW_TAG_file_type ]
!157 = metadata !{metadata !158, metadata !160}
!158 = metadata !{i32 786445, metadata !155, metadata !"V", metadata !156, i32 68, i64 64, i64 64, i64 0, i32 0, metadata !159} ; [ DW_TAG_member ]
!159 = metadata !{i32 786468, null, metadata !"int64", null, i32 0, i64 64, i64 64, i64 0, i32 0, i32 5} ; [ DW_TAG_base_type ]
!160 = metadata !{i32 786478, i32 0, metadata !155, metadata !"ssdm_int", metadata !"ssdm_int", metadata !"", metadata !156, i32 68, metadata !161, i1 false, i1 false, i32 0, i32 0, null, i32 256, i1 false, null, null, i32 0, metadata !164, i32 68} ; [ DW_TAG_subprogram ]
!161 = metadata !{i32 786453, i32 0, metadata !"", i32 0, i32 0, i64 0, i64 0, i64 0, i32 0, null, metadata !162, i32 0, i32 0} ; [ DW_TAG_subroutine_type ]
!162 = metadata !{null, metadata !163}
!163 = metadata !{i32 786447, i32 0, metadata !"", i32 0, i32 0, i64 64, i64 64, i64 0, i32 64, metadata !155} ; [ DW_TAG_pointer_type ]
!164 = metadata !{metadata !165}
!165 = metadata !{i32 786468}                     ; [ DW_TAG_base_type ]
!166 = metadata !{metadata !167, metadata !169}
!167 = metadata !{i32 786480, null, metadata !"_AP_N", metadata !168, i64 64, null, i32 0, i32 0} ; [ DW_TAG_template_value_parameter ]
!168 = metadata !{i32 786468, null, metadata !"int", null, i32 0, i64 32, i64 32, i64 0, i32 0, i32 5} ; [ DW_TAG_base_type ]
!169 = metadata !{i32 786480, null, metadata !"_AP_S", metadata !170, i64 1, null, i32 0, i32 0} ; [ DW_TAG_template_value_parameter ]
!170 = metadata !{i32 786468, null, metadata !"bool", null, i32 0, i64 8, i64 8, i64 0, i32 0, i32 2} ; [ DW_TAG_base_type ]
!171 = metadata !{i32 786478, i32 0, metadata !151, metadata !"ap_int_base", metadata !"ap_int_base", metadata !"", metadata !152, i32 1494, metadata !172, i1 false, i1 false, i32 0, i32 0, null, i32 256, i1 false, null, null, i32 0, metadata !164, i32 1494} ; [ DW_TAG_subprogram ]
!172 = metadata !{i32 786453, i32 0, metadata !"", i32 0, i32 0, i64 0, i64 0, i64 0, i32 0, null, metadata !173, i32 0, i32 0} ; [ DW_TAG_subroutine_type ]
!173 = metadata !{null, metadata !174}
!174 = metadata !{i32 786447, i32 0, metadata !"", i32 0, i32 0, i64 64, i64 64, i64 0, i32 64, metadata !151} ; [ DW_TAG_pointer_type ]
!175 = metadata !{i32 786478, i32 0, metadata !151, metadata !"ap_int_base<64, true>", metadata !"ap_int_base<64, true>", metadata !"", metadata !152, i32 1506, metadata !176, i1 false, i1 false, i32 0, i32 0, null, i32 256, i1 false, null, metadata !180, i32 0, metadata !164, i32 1506} ; [ DW_TAG_subprogram ]
!176 = metadata !{i32 786453, i32 0, metadata !"", i32 0, i32 0, i64 0, i64 0, i64 0, i32 0, null, metadata !177, i32 0, i32 0} ; [ DW_TAG_subroutine_type ]
!177 = metadata !{null, metadata !174, metadata !178}
!178 = metadata !{i32 786448, null, null, null, i32 0, i64 0, i64 0, i64 0, i32 0, metadata !179} ; [ DW_TAG_reference_type ]
!179 = metadata !{i32 786470, null, metadata !"", null, i32 0, i64 0, i64 0, i64 0, i32 0, metadata !151} ; [ DW_TAG_const_type ]
!180 = metadata !{metadata !181, metadata !182}
!181 = metadata !{i32 786480, null, metadata !"_AP_W2", metadata !168, i64 64, null, i32 0, i32 0} ; [ DW_TAG_template_value_parameter ]
!182 = metadata !{i32 786480, null, metadata !"_AP_S2", metadata !170, i64 1, null, i32 0, i32 0} ; [ DW_TAG_template_value_parameter ]
!183 = metadata !{i32 786478, i32 0, metadata !151, metadata !"ap_int_base<64, true>", metadata !"ap_int_base<64, true>", metadata !"", metadata !152, i32 1509, metadata !184, i1 false, i1 false, i32 0, i32 0, null, i32 256, i1 false, null, metadata !180, i32 0, metadata !164, i32 1509} ; [ DW_TAG_subprogram ]
!184 = metadata !{i32 786453, i32 0, metadata !"", i32 0, i32 0, i64 0, i64 0, i64 0, i32 0, null, metadata !185, i32 0, i32 0} ; [ DW_TAG_subroutine_type ]
!185 = metadata !{null, metadata !174, metadata !186}
!186 = metadata !{i32 786448, null, null, null, i32 0, i64 0, i64 0, i64 0, i32 0, metadata !187} ; [ DW_TAG_reference_type ]
!187 = metadata !{i32 786470, null, metadata !"", null, i32 0, i64 0, i64 0, i64 0, i32 0, metadata !188} ; [ DW_TAG_const_type ]
!188 = metadata !{i32 786485, null, metadata !"", null, i32 0, i64 0, i64 0, i64 0, i32 0, metadata !151} ; [ DW_TAG_volatile_type ]
!189 = metadata !{i32 786478, i32 0, metadata !151, metadata !"ap_int_base", metadata !"ap_int_base", metadata !"", metadata !152, i32 1516, metadata !190, i1 false, i1 false, i32 0, i32 0, null, i32 384, i1 false, null, null, i32 0, metadata !164, i32 1516} ; [ DW_TAG_subprogram ]
!190 = metadata !{i32 786453, i32 0, metadata !"", i32 0, i32 0, i64 0, i64 0, i64 0, i32 0, null, metadata !191, i32 0, i32 0} ; [ DW_TAG_subroutine_type ]
!191 = metadata !{null, metadata !174, metadata !170}
!192 = metadata !{i32 786478, i32 0, metadata !151, metadata !"ap_int_base", metadata !"ap_int_base", metadata !"", metadata !152, i32 1517, metadata !193, i1 false, i1 false, i32 0, i32 0, null, i32 384, i1 false, null, null, i32 0, metadata !164, i32 1517} ; [ DW_TAG_subprogram ]
!193 = metadata !{i32 786453, i32 0, metadata !"", i32 0, i32 0, i64 0, i64 0, i64 0, i32 0, null, metadata !194, i32 0, i32 0} ; [ DW_TAG_subroutine_type ]
!194 = metadata !{null, metadata !174, metadata !195}
!195 = metadata !{i32 786468, null, metadata !"signed char", null, i32 0, i64 8, i64 8, i64 0, i32 0, i32 6} ; [ DW_TAG_base_type ]
!196 = metadata !{i32 786478, i32 0, metadata !151, metadata !"ap_int_base", metadata !"ap_int_base", metadata !"", metadata !152, i32 1518, metadata !197, i1 false, i1 false, i32 0, i32 0, null, i32 384, i1 false, null, null, i32 0, metadata !164, i32 1518} ; [ DW_TAG_subprogram ]
!197 = metadata !{i32 786453, i32 0, metadata !"", i32 0, i32 0, i64 0, i64 0, i64 0, i32 0, null, metadata !198, i32 0, i32 0} ; [ DW_TAG_subroutine_type ]
!198 = metadata !{null, metadata !174, metadata !199}
!199 = metadata !{i32 786468, null, metadata !"unsigned char", null, i32 0, i64 8, i64 8, i64 0, i32 0, i32 8} ; [ DW_TAG_base_type ]
!200 = metadata !{i32 786478, i32 0, metadata !151, metadata !"ap_int_base", metadata !"ap_int_base", metadata !"", metadata !152, i32 1519, metadata !201, i1 false, i1 false, i32 0, i32 0, null, i32 384, i1 false, null, null, i32 0, metadata !164, i32 1519} ; [ DW_TAG_subprogram ]
!201 = metadata !{i32 786453, i32 0, metadata !"", i32 0, i32 0, i64 0, i64 0, i64 0, i32 0, null, metadata !202, i32 0, i32 0} ; [ DW_TAG_subroutine_type ]
!202 = metadata !{null, metadata !174, metadata !203}
!203 = metadata !{i32 786468, null, metadata !"short", null, i32 0, i64 16, i64 16, i64 0, i32 0, i32 5} ; [ DW_TAG_base_type ]
!204 = metadata !{i32 786478, i32 0, metadata !151, metadata !"ap_int_base", metadata !"ap_int_base", metadata !"", metadata !152, i32 1520, metadata !205, i1 false, i1 false, i32 0, i32 0, null, i32 384, i1 false, null, null, i32 0, metadata !164, i32 1520} ; [ DW_TAG_subprogram ]
!205 = metadata !{i32 786453, i32 0, metadata !"", i32 0, i32 0, i64 0, i64 0, i64 0, i32 0, null, metadata !206, i32 0, i32 0} ; [ DW_TAG_subroutine_type ]
!206 = metadata !{null, metadata !174, metadata !207}
!207 = metadata !{i32 786468, null, metadata !"unsigned short", null, i32 0, i64 16, i64 16, i64 0, i32 0, i32 7} ; [ DW_TAG_base_type ]
!208 = metadata !{i32 786478, i32 0, metadata !151, metadata !"ap_int_base", metadata !"ap_int_base", metadata !"", metadata !152, i32 1521, metadata !209, i1 false, i1 false, i32 0, i32 0, null, i32 384, i1 false, null, null, i32 0, metadata !164, i32 1521} ; [ DW_TAG_subprogram ]
!209 = metadata !{i32 786453, i32 0, metadata !"", i32 0, i32 0, i64 0, i64 0, i64 0, i32 0, null, metadata !210, i32 0, i32 0} ; [ DW_TAG_subroutine_type ]
!210 = metadata !{null, metadata !174, metadata !168}
!211 = metadata !{i32 786478, i32 0, metadata !151, metadata !"ap_int_base", metadata !"ap_int_base", metadata !"", metadata !152, i32 1522, metadata !212, i1 false, i1 false, i32 0, i32 0, null, i32 384, i1 false, null, null, i32 0, metadata !164, i32 1522} ; [ DW_TAG_subprogram ]
!212 = metadata !{i32 786453, i32 0, metadata !"", i32 0, i32 0, i64 0, i64 0, i64 0, i32 0, null, metadata !213, i32 0, i32 0} ; [ DW_TAG_subroutine_type ]
!213 = metadata !{null, metadata !174, metadata !214}
!214 = metadata !{i32 786468, null, metadata !"unsigned int", null, i32 0, i64 32, i64 32, i64 0, i32 0, i32 7} ; [ DW_TAG_base_type ]
!215 = metadata !{i32 786478, i32 0, metadata !151, metadata !"ap_int_base", metadata !"ap_int_base", metadata !"", metadata !152, i32 1523, metadata !216, i1 false, i1 false, i32 0, i32 0, null, i32 384, i1 false, null, null, i32 0, metadata !164, i32 1523} ; [ DW_TAG_subprogram ]
!216 = metadata !{i32 786453, i32 0, metadata !"", i32 0, i32 0, i64 0, i64 0, i64 0, i32 0, null, metadata !217, i32 0, i32 0} ; [ DW_TAG_subroutine_type ]
!217 = metadata !{null, metadata !174, metadata !218}
!218 = metadata !{i32 786468, null, metadata !"long int", null, i32 0, i64 64, i64 64, i64 0, i32 0, i32 5} ; [ DW_TAG_base_type ]
!219 = metadata !{i32 786478, i32 0, metadata !151, metadata !"ap_int_base", metadata !"ap_int_base", metadata !"", metadata !152, i32 1524, metadata !220, i1 false, i1 false, i32 0, i32 0, null, i32 384, i1 false, null, null, i32 0, metadata !164, i32 1524} ; [ DW_TAG_subprogram ]
!220 = metadata !{i32 786453, i32 0, metadata !"", i32 0, i32 0, i64 0, i64 0, i64 0, i32 0, null, metadata !221, i32 0, i32 0} ; [ DW_TAG_subroutine_type ]
!221 = metadata !{null, metadata !174, metadata !222}
!222 = metadata !{i32 786468, null, metadata !"long unsigned int", null, i32 0, i64 64, i64 64, i64 0, i32 0, i32 7} ; [ DW_TAG_base_type ]
!223 = metadata !{i32 786478, i32 0, metadata !151, metadata !"ap_int_base", metadata !"ap_int_base", metadata !"", metadata !152, i32 1525, metadata !224, i1 false, i1 false, i32 0, i32 0, null, i32 384, i1 false, null, null, i32 0, metadata !164, i32 1525} ; [ DW_TAG_subprogram ]
!224 = metadata !{i32 786453, i32 0, metadata !"", i32 0, i32 0, i64 0, i64 0, i64 0, i32 0, null, metadata !225, i32 0, i32 0} ; [ DW_TAG_subroutine_type ]
!225 = metadata !{null, metadata !174, metadata !226}
!226 = metadata !{i32 786454, null, metadata !"ap_slong", metadata !152, i32 112, i64 0, i64 0, i64 0, i32 0, metadata !227} ; [ DW_TAG_typedef ]
!227 = metadata !{i32 786468, null, metadata !"long long int", null, i32 0, i64 64, i64 64, i64 0, i32 0, i32 5} ; [ DW_TAG_base_type ]
!228 = metadata !{i32 786478, i32 0, metadata !151, metadata !"ap_int_base", metadata !"ap_int_base", metadata !"", metadata !152, i32 1526, metadata !229, i1 false, i1 false, i32 0, i32 0, null, i32 384, i1 false, null, null, i32 0, metadata !164, i32 1526} ; [ DW_TAG_subprogram ]
!229 = metadata !{i32 786453, i32 0, metadata !"", i32 0, i32 0, i64 0, i64 0, i64 0, i32 0, null, metadata !230, i32 0, i32 0} ; [ DW_TAG_subroutine_type ]
!230 = metadata !{null, metadata !174, metadata !231}
!231 = metadata !{i32 786454, null, metadata !"ap_ulong", metadata !152, i32 111, i64 0, i64 0, i64 0, i32 0, metadata !232} ; [ DW_TAG_typedef ]
!232 = metadata !{i32 786468, null, metadata !"long long unsigned int", null, i32 0, i64 64, i64 64, i64 0, i32 0, i32 7} ; [ DW_TAG_base_type ]
!233 = metadata !{i32 786478, i32 0, metadata !151, metadata !"ap_int_base", metadata !"ap_int_base", metadata !"", metadata !152, i32 1527, metadata !234, i1 false, i1 false, i32 0, i32 0, null, i32 384, i1 false, null, null, i32 0, metadata !164, i32 1527} ; [ DW_TAG_subprogram ]
!234 = metadata !{i32 786453, i32 0, metadata !"", i32 0, i32 0, i64 0, i64 0, i64 0, i32 0, null, metadata !235, i32 0, i32 0} ; [ DW_TAG_subroutine_type ]
!235 = metadata !{null, metadata !174, metadata !236}
!236 = metadata !{i32 786454, null, metadata !"half", metadata !152, i32 54, i64 0, i64 0, i64 0, i32 0, metadata !237} ; [ DW_TAG_typedef ]
!237 = metadata !{i32 786468, null, metadata !"half", null, i32 0, i64 16, i64 16, i64 0, i32 0, i32 4} ; [ DW_TAG_base_type ]
!238 = metadata !{i32 786478, i32 0, metadata !151, metadata !"ap_int_base", metadata !"ap_int_base", metadata !"", metadata !152, i32 1528, metadata !239, i1 false, i1 false, i32 0, i32 0, null, i32 384, i1 false, null, null, i32 0, metadata !164, i32 1528} ; [ DW_TAG_subprogram ]
!239 = metadata !{i32 786453, i32 0, metadata !"", i32 0, i32 0, i64 0, i64 0, i64 0, i32 0, null, metadata !240, i32 0, i32 0} ; [ DW_TAG_subroutine_type ]
!240 = metadata !{null, metadata !174, metadata !241}
!241 = metadata !{i32 786468, null, metadata !"float", null, i32 0, i64 32, i64 32, i64 0, i32 0, i32 4} ; [ DW_TAG_base_type ]
!242 = metadata !{i32 786478, i32 0, metadata !151, metadata !"ap_int_base", metadata !"ap_int_base", metadata !"", metadata !152, i32 1529, metadata !243, i1 false, i1 false, i32 0, i32 0, null, i32 384, i1 false, null, null, i32 0, metadata !164, i32 1529} ; [ DW_TAG_subprogram ]
!243 = metadata !{i32 786453, i32 0, metadata !"", i32 0, i32 0, i64 0, i64 0, i64 0, i32 0, null, metadata !244, i32 0, i32 0} ; [ DW_TAG_subroutine_type ]
!244 = metadata !{null, metadata !174, metadata !245}
!245 = metadata !{i32 786468, null, metadata !"double", null, i32 0, i64 64, i64 64, i64 0, i32 0, i32 4} ; [ DW_TAG_base_type ]
!246 = metadata !{i32 786478, i32 0, metadata !151, metadata !"ap_int_base", metadata !"ap_int_base", metadata !"", metadata !152, i32 1556, metadata !247, i1 false, i1 false, i32 0, i32 0, null, i32 256, i1 false, null, null, i32 0, metadata !164, i32 1556} ; [ DW_TAG_subprogram ]
!247 = metadata !{i32 786453, i32 0, metadata !"", i32 0, i32 0, i64 0, i64 0, i64 0, i32 0, null, metadata !248, i32 0, i32 0} ; [ DW_TAG_subroutine_type ]
!248 = metadata !{null, metadata !174, metadata !249}
!249 = metadata !{i32 786447, null, metadata !"", null, i32 0, i64 64, i64 64, i64 0, i32 0, metadata !250} ; [ DW_TAG_pointer_type ]
!250 = metadata !{i32 786470, null, metadata !"", null, i32 0, i64 0, i64 0, i64 0, i32 0, metadata !251} ; [ DW_TAG_const_type ]
!251 = metadata !{i32 786468, null, metadata !"char", null, i32 0, i64 8, i64 8, i64 0, i32 0, i32 6} ; [ DW_TAG_base_type ]
!252 = metadata !{i32 786478, i32 0, metadata !151, metadata !"ap_int_base", metadata !"ap_int_base", metadata !"", metadata !152, i32 1563, metadata !253, i1 false, i1 false, i32 0, i32 0, null, i32 256, i1 false, null, null, i32 0, metadata !164, i32 1563} ; [ DW_TAG_subprogram ]
!253 = metadata !{i32 786453, i32 0, metadata !"", i32 0, i32 0, i64 0, i64 0, i64 0, i32 0, null, metadata !254, i32 0, i32 0} ; [ DW_TAG_subroutine_type ]
!254 = metadata !{null, metadata !174, metadata !249, metadata !195}
!255 = metadata !{i32 786478, i32 0, metadata !151, metadata !"read", metadata !"read", metadata !"_ZNV11ap_int_baseILi64ELb1ELb1EE4readEv", metadata !152, i32 1584, metadata !256, i1 false, i1 false, i32 0, i32 0, null, i32 256, i1 false, null, null, i32 0, metadata !164, i32 1584} ; [ DW_TAG_subprogram ]
!256 = metadata !{i32 786453, i32 0, metadata !"", i32 0, i32 0, i64 0, i64 0, i64 0, i32 0, null, metadata !257, i32 0, i32 0} ; [ DW_TAG_subroutine_type ]
!257 = metadata !{metadata !151, metadata !258}
!258 = metadata !{i32 786447, i32 0, metadata !"", i32 0, i32 0, i64 64, i64 64, i64 0, i32 64, metadata !188} ; [ DW_TAG_pointer_type ]
!259 = metadata !{i32 786478, i32 0, metadata !151, metadata !"write", metadata !"write", metadata !"_ZNV11ap_int_baseILi64ELb1ELb1EE5writeERKS0_", metadata !152, i32 1590, metadata !260, i1 false, i1 false, i32 0, i32 0, null, i32 256, i1 false, null, null, i32 0, metadata !164, i32 1590} ; [ DW_TAG_subprogram ]
!260 = metadata !{i32 786453, i32 0, metadata !"", i32 0, i32 0, i64 0, i64 0, i64 0, i32 0, null, metadata !261, i32 0, i32 0} ; [ DW_TAG_subroutine_type ]
!261 = metadata !{null, metadata !258, metadata !178}
!262 = metadata !{i32 786478, i32 0, metadata !151, metadata !"operator=", metadata !"operator=", metadata !"_ZNV11ap_int_baseILi64ELb1ELb1EEaSERVKS0_", metadata !152, i32 1602, metadata !263, i1 false, i1 false, i32 0, i32 0, null, i32 256, i1 false, null, null, i32 0, metadata !164, i32 1602} ; [ DW_TAG_subprogram ]
!263 = metadata !{i32 786453, i32 0, metadata !"", i32 0, i32 0, i64 0, i64 0, i64 0, i32 0, null, metadata !264, i32 0, i32 0} ; [ DW_TAG_subroutine_type ]
!264 = metadata !{null, metadata !258, metadata !186}
!265 = metadata !{i32 786478, i32 0, metadata !151, metadata !"operator=", metadata !"operator=", metadata !"_ZNV11ap_int_baseILi64ELb1ELb1EEaSERKS0_", metadata !152, i32 1611, metadata !260, i1 false, i1 false, i32 0, i32 0, null, i32 256, i1 false, null, null, i32 0, metadata !164, i32 1611} ; [ DW_TAG_subprogram ]
!266 = metadata !{i32 786478, i32 0, metadata !151, metadata !"operator=", metadata !"operator=", metadata !"_ZN11ap_int_baseILi64ELb1ELb1EEaSERVKS0_", metadata !152, i32 1634, metadata !267, i1 false, i1 false, i32 0, i32 0, null, i32 256, i1 false, null, null, i32 0, metadata !164, i32 1634} ; [ DW_TAG_subprogram ]
!267 = metadata !{i32 786453, i32 0, metadata !"", i32 0, i32 0, i64 0, i64 0, i64 0, i32 0, null, metadata !268, i32 0, i32 0} ; [ DW_TAG_subroutine_type ]
!268 = metadata !{metadata !269, metadata !174, metadata !186}
!269 = metadata !{i32 786448, null, null, null, i32 0, i64 0, i64 0, i64 0, i32 0, metadata !151} ; [ DW_TAG_reference_type ]
!270 = metadata !{i32 786478, i32 0, metadata !151, metadata !"operator=", metadata !"operator=", metadata !"_ZN11ap_int_baseILi64ELb1ELb1EEaSERKS0_", metadata !152, i32 1639, metadata !271, i1 false, i1 false, i32 0, i32 0, null, i32 256, i1 false, null, null, i32 0, metadata !164, i32 1639} ; [ DW_TAG_subprogram ]
!271 = metadata !{i32 786453, i32 0, metadata !"", i32 0, i32 0, i64 0, i64 0, i64 0, i32 0, null, metadata !272, i32 0, i32 0} ; [ DW_TAG_subroutine_type ]
!272 = metadata !{metadata !269, metadata !174, metadata !178}
!273 = metadata !{i32 786478, i32 0, metadata !151, metadata !"operator=", metadata !"operator=", metadata !"_ZN11ap_int_baseILi64ELb1ELb1EEaSEPKc", metadata !152, i32 1643, metadata !274, i1 false, i1 false, i32 0, i32 0, null, i32 256, i1 false, null, null, i32 0, metadata !164, i32 1643} ; [ DW_TAG_subprogram ]
!274 = metadata !{i32 786453, i32 0, metadata !"", i32 0, i32 0, i64 0, i64 0, i64 0, i32 0, null, metadata !275, i32 0, i32 0} ; [ DW_TAG_subroutine_type ]
!275 = metadata !{metadata !269, metadata !174, metadata !249}
!276 = metadata !{i32 786478, i32 0, metadata !151, metadata !"set", metadata !"set", metadata !"_ZN11ap_int_baseILi64ELb1ELb1EE3setEPKca", metadata !152, i32 1651, metadata !277, i1 false, i1 false, i32 0, i32 0, null, i32 256, i1 false, null, null, i32 0, metadata !164, i32 1651} ; [ DW_TAG_subprogram ]
!277 = metadata !{i32 786453, i32 0, metadata !"", i32 0, i32 0, i64 0, i64 0, i64 0, i32 0, null, metadata !278, i32 0, i32 0} ; [ DW_TAG_subroutine_type ]
!278 = metadata !{metadata !269, metadata !174, metadata !249, metadata !195}
!279 = metadata !{i32 786478, i32 0, metadata !151, metadata !"operator=", metadata !"operator=", metadata !"_ZN11ap_int_baseILi64ELb1ELb1EEaSEa", metadata !152, i32 1665, metadata !280, i1 false, i1 false, i32 0, i32 0, null, i32 256, i1 false, null, null, i32 0, metadata !164, i32 1665} ; [ DW_TAG_subprogram ]
!280 = metadata !{i32 786453, i32 0, metadata !"", i32 0, i32 0, i64 0, i64 0, i64 0, i32 0, null, metadata !281, i32 0, i32 0} ; [ DW_TAG_subroutine_type ]
!281 = metadata !{metadata !269, metadata !174, metadata !195}
!282 = metadata !{i32 786478, i32 0, metadata !151, metadata !"operator=", metadata !"operator=", metadata !"_ZN11ap_int_baseILi64ELb1ELb1EEaSEh", metadata !152, i32 1666, metadata !283, i1 false, i1 false, i32 0, i32 0, null, i32 256, i1 false, null, null, i32 0, metadata !164, i32 1666} ; [ DW_TAG_subprogram ]
!283 = metadata !{i32 786453, i32 0, metadata !"", i32 0, i32 0, i64 0, i64 0, i64 0, i32 0, null, metadata !284, i32 0, i32 0} ; [ DW_TAG_subroutine_type ]
!284 = metadata !{metadata !269, metadata !174, metadata !199}
!285 = metadata !{i32 786478, i32 0, metadata !151, metadata !"operator=", metadata !"operator=", metadata !"_ZN11ap_int_baseILi64ELb1ELb1EEaSEs", metadata !152, i32 1667, metadata !286, i1 false, i1 false, i32 0, i32 0, null, i32 256, i1 false, null, null, i32 0, metadata !164, i32 1667} ; [ DW_TAG_subprogram ]
!286 = metadata !{i32 786453, i32 0, metadata !"", i32 0, i32 0, i64 0, i64 0, i64 0, i32 0, null, metadata !287, i32 0, i32 0} ; [ DW_TAG_subroutine_type ]
!287 = metadata !{metadata !269, metadata !174, metadata !203}
!288 = metadata !{i32 786478, i32 0, metadata !151, metadata !"operator=", metadata !"operator=", metadata !"_ZN11ap_int_baseILi64ELb1ELb1EEaSEt", metadata !152, i32 1668, metadata !289, i1 false, i1 false, i32 0, i32 0, null, i32 256, i1 false, null, null, i32 0, metadata !164, i32 1668} ; [ DW_TAG_subprogram ]
!289 = metadata !{i32 786453, i32 0, metadata !"", i32 0, i32 0, i64 0, i64 0, i64 0, i32 0, null, metadata !290, i32 0, i32 0} ; [ DW_TAG_subroutine_type ]
!290 = metadata !{metadata !269, metadata !174, metadata !207}
!291 = metadata !{i32 786478, i32 0, metadata !151, metadata !"operator=", metadata !"operator=", metadata !"_ZN11ap_int_baseILi64ELb1ELb1EEaSEi", metadata !152, i32 1669, metadata !292, i1 false, i1 false, i32 0, i32 0, null, i32 256, i1 false, null, null, i32 0, metadata !164, i32 1669} ; [ DW_TAG_subprogram ]
!292 = metadata !{i32 786453, i32 0, metadata !"", i32 0, i32 0, i64 0, i64 0, i64 0, i32 0, null, metadata !293, i32 0, i32 0} ; [ DW_TAG_subroutine_type ]
!293 = metadata !{metadata !269, metadata !174, metadata !168}
!294 = metadata !{i32 786478, i32 0, metadata !151, metadata !"operator=", metadata !"operator=", metadata !"_ZN11ap_int_baseILi64ELb1ELb1EEaSEj", metadata !152, i32 1670, metadata !295, i1 false, i1 false, i32 0, i32 0, null, i32 256, i1 false, null, null, i32 0, metadata !164, i32 1670} ; [ DW_TAG_subprogram ]
!295 = metadata !{i32 786453, i32 0, metadata !"", i32 0, i32 0, i64 0, i64 0, i64 0, i32 0, null, metadata !296, i32 0, i32 0} ; [ DW_TAG_subroutine_type ]
!296 = metadata !{metadata !269, metadata !174, metadata !214}
!297 = metadata !{i32 786478, i32 0, metadata !151, metadata !"operator=", metadata !"operator=", metadata !"_ZN11ap_int_baseILi64ELb1ELb1EEaSEx", metadata !152, i32 1671, metadata !298, i1 false, i1 false, i32 0, i32 0, null, i32 256, i1 false, null, null, i32 0, metadata !164, i32 1671} ; [ DW_TAG_subprogram ]
!298 = metadata !{i32 786453, i32 0, metadata !"", i32 0, i32 0, i64 0, i64 0, i64 0, i32 0, null, metadata !299, i32 0, i32 0} ; [ DW_TAG_subroutine_type ]
!299 = metadata !{metadata !269, metadata !174, metadata !226}
!300 = metadata !{i32 786478, i32 0, metadata !151, metadata !"operator=", metadata !"operator=", metadata !"_ZN11ap_int_baseILi64ELb1ELb1EEaSEy", metadata !152, i32 1672, metadata !301, i1 false, i1 false, i32 0, i32 0, null, i32 256, i1 false, null, null, i32 0, metadata !164, i32 1672} ; [ DW_TAG_subprogram ]
!301 = metadata !{i32 786453, i32 0, metadata !"", i32 0, i32 0, i64 0, i64 0, i64 0, i32 0, null, metadata !302, i32 0, i32 0} ; [ DW_TAG_subroutine_type ]
!302 = metadata !{metadata !269, metadata !174, metadata !231}
!303 = metadata !{i32 786478, i32 0, metadata !151, metadata !"operator long long", metadata !"operator long long", metadata !"_ZNK11ap_int_baseILi64ELb1ELb1EEcvxEv", metadata !152, i32 1710, metadata !304, i1 false, i1 false, i32 0, i32 0, null, i32 256, i1 false, null, null, i32 0, metadata !164, i32 1710} ; [ DW_TAG_subprogram ]
!304 = metadata !{i32 786453, i32 0, metadata !"", i32 0, i32 0, i64 0, i64 0, i64 0, i32 0, null, metadata !305, i32 0, i32 0} ; [ DW_TAG_subroutine_type ]
!305 = metadata !{metadata !306, metadata !312}
!306 = metadata !{i32 786454, metadata !151, metadata !"RetType", metadata !152, i32 1458, i64 0, i64 0, i64 0, i32 0, metadata !307} ; [ DW_TAG_typedef ]
!307 = metadata !{i32 786454, metadata !308, metadata !"Type", metadata !152, i32 1415, i64 0, i64 0, i64 0, i32 0, metadata !226} ; [ DW_TAG_typedef ]
!308 = metadata !{i32 786434, null, metadata !"retval<8, true>", metadata !152, i32 1414, i64 8, i64 8, i32 0, i32 0, null, metadata !309, i32 0, null, metadata !310} ; [ DW_TAG_class_type ]
!309 = metadata !{i32 0}
!310 = metadata !{metadata !311, metadata !169}
!311 = metadata !{i32 786480, null, metadata !"_AP_N", metadata !168, i64 8, null, i32 0, i32 0} ; [ DW_TAG_template_value_parameter ]
!312 = metadata !{i32 786447, i32 0, metadata !"", i32 0, i32 0, i64 64, i64 64, i64 0, i32 64, metadata !179} ; [ DW_TAG_pointer_type ]
!313 = metadata !{i32 786478, i32 0, metadata !151, metadata !"to_bool", metadata !"to_bool", metadata !"_ZNK11ap_int_baseILi64ELb1ELb1EE7to_boolEv", metadata !152, i32 1716, metadata !314, i1 false, i1 false, i32 0, i32 0, null, i32 256, i1 false, null, null, i32 0, metadata !164, i32 1716} ; [ DW_TAG_subprogram ]
!314 = metadata !{i32 786453, i32 0, metadata !"", i32 0, i32 0, i64 0, i64 0, i64 0, i32 0, null, metadata !315, i32 0, i32 0} ; [ DW_TAG_subroutine_type ]
!315 = metadata !{metadata !170, metadata !312}
!316 = metadata !{i32 786478, i32 0, metadata !151, metadata !"to_uchar", metadata !"to_uchar", metadata !"_ZNK11ap_int_baseILi64ELb1ELb1EE8to_ucharEv", metadata !152, i32 1717, metadata !317, i1 false, i1 false, i32 0, i32 0, null, i32 256, i1 false, null, null, i32 0, metadata !164, i32 1717} ; [ DW_TAG_subprogram ]
!317 = metadata !{i32 786453, i32 0, metadata !"", i32 0, i32 0, i64 0, i64 0, i64 0, i32 0, null, metadata !318, i32 0, i32 0} ; [ DW_TAG_subroutine_type ]
!318 = metadata !{metadata !199, metadata !312}
!319 = metadata !{i32 786478, i32 0, metadata !151, metadata !"to_char", metadata !"to_char", metadata !"_ZNK11ap_int_baseILi64ELb1ELb1EE7to_charEv", metadata !152, i32 1718, metadata !320, i1 false, i1 false, i32 0, i32 0, null, i32 256, i1 false, null, null, i32 0, metadata !164, i32 1718} ; [ DW_TAG_subprogram ]
!320 = metadata !{i32 786453, i32 0, metadata !"", i32 0, i32 0, i64 0, i64 0, i64 0, i32 0, null, metadata !321, i32 0, i32 0} ; [ DW_TAG_subroutine_type ]
!321 = metadata !{metadata !195, metadata !312}
!322 = metadata !{i32 786478, i32 0, metadata !151, metadata !"to_ushort", metadata !"to_ushort", metadata !"_ZNK11ap_int_baseILi64ELb1ELb1EE9to_ushortEv", metadata !152, i32 1719, metadata !323, i1 false, i1 false, i32 0, i32 0, null, i32 256, i1 false, null, null, i32 0, metadata !164, i32 1719} ; [ DW_TAG_subprogram ]
!323 = metadata !{i32 786453, i32 0, metadata !"", i32 0, i32 0, i64 0, i64 0, i64 0, i32 0, null, metadata !324, i32 0, i32 0} ; [ DW_TAG_subroutine_type ]
!324 = metadata !{metadata !207, metadata !312}
!325 = metadata !{i32 786478, i32 0, metadata !151, metadata !"to_short", metadata !"to_short", metadata !"_ZNK11ap_int_baseILi64ELb1ELb1EE8to_shortEv", metadata !152, i32 1720, metadata !326, i1 false, i1 false, i32 0, i32 0, null, i32 256, i1 false, null, null, i32 0, metadata !164, i32 1720} ; [ DW_TAG_subprogram ]
!326 = metadata !{i32 786453, i32 0, metadata !"", i32 0, i32 0, i64 0, i64 0, i64 0, i32 0, null, metadata !327, i32 0, i32 0} ; [ DW_TAG_subroutine_type ]
!327 = metadata !{metadata !203, metadata !312}
!328 = metadata !{i32 786478, i32 0, metadata !151, metadata !"to_int", metadata !"to_int", metadata !"_ZNK11ap_int_baseILi64ELb1ELb1EE6to_intEv", metadata !152, i32 1721, metadata !329, i1 false, i1 false, i32 0, i32 0, null, i32 256, i1 false, null, null, i32 0, metadata !164, i32 1721} ; [ DW_TAG_subprogram ]
!329 = metadata !{i32 786453, i32 0, metadata !"", i32 0, i32 0, i64 0, i64 0, i64 0, i32 0, null, metadata !330, i32 0, i32 0} ; [ DW_TAG_subroutine_type ]
!330 = metadata !{metadata !168, metadata !312}
!331 = metadata !{i32 786478, i32 0, metadata !151, metadata !"to_uint", metadata !"to_uint", metadata !"_ZNK11ap_int_baseILi64ELb1ELb1EE7to_uintEv", metadata !152, i32 1722, metadata !332, i1 false, i1 false, i32 0, i32 0, null, i32 256, i1 false, null, null, i32 0, metadata !164, i32 1722} ; [ DW_TAG_subprogram ]
!332 = metadata !{i32 786453, i32 0, metadata !"", i32 0, i32 0, i64 0, i64 0, i64 0, i32 0, null, metadata !333, i32 0, i32 0} ; [ DW_TAG_subroutine_type ]
!333 = metadata !{metadata !214, metadata !312}
!334 = metadata !{i32 786478, i32 0, metadata !151, metadata !"to_long", metadata !"to_long", metadata !"_ZNK11ap_int_baseILi64ELb1ELb1EE7to_longEv", metadata !152, i32 1723, metadata !335, i1 false, i1 false, i32 0, i32 0, null, i32 256, i1 false, null, null, i32 0, metadata !164, i32 1723} ; [ DW_TAG_subprogram ]
!335 = metadata !{i32 786453, i32 0, metadata !"", i32 0, i32 0, i64 0, i64 0, i64 0, i32 0, null, metadata !336, i32 0, i32 0} ; [ DW_TAG_subroutine_type ]
!336 = metadata !{metadata !218, metadata !312}
!337 = metadata !{i32 786478, i32 0, metadata !151, metadata !"to_ulong", metadata !"to_ulong", metadata !"_ZNK11ap_int_baseILi64ELb1ELb1EE8to_ulongEv", metadata !152, i32 1724, metadata !338, i1 false, i1 false, i32 0, i32 0, null, i32 256, i1 false, null, null, i32 0, metadata !164, i32 1724} ; [ DW_TAG_subprogram ]
!338 = metadata !{i32 786453, i32 0, metadata !"", i32 0, i32 0, i64 0, i64 0, i64 0, i32 0, null, metadata !339, i32 0, i32 0} ; [ DW_TAG_subroutine_type ]
!339 = metadata !{metadata !222, metadata !312}
!340 = metadata !{i32 786478, i32 0, metadata !151, metadata !"to_int64", metadata !"to_int64", metadata !"_ZNK11ap_int_baseILi64ELb1ELb1EE8to_int64Ev", metadata !152, i32 1725, metadata !341, i1 false, i1 false, i32 0, i32 0, null, i32 256, i1 false, null, null, i32 0, metadata !164, i32 1725} ; [ DW_TAG_subprogram ]
!341 = metadata !{i32 786453, i32 0, metadata !"", i32 0, i32 0, i64 0, i64 0, i64 0, i32 0, null, metadata !342, i32 0, i32 0} ; [ DW_TAG_subroutine_type ]
!342 = metadata !{metadata !226, metadata !312}
!343 = metadata !{i32 786478, i32 0, metadata !151, metadata !"to_uint64", metadata !"to_uint64", metadata !"_ZNK11ap_int_baseILi64ELb1ELb1EE9to_uint64Ev", metadata !152, i32 1726, metadata !344, i1 false, i1 false, i32 0, i32 0, null, i32 256, i1 false, null, null, i32 0, metadata !164, i32 1726} ; [ DW_TAG_subprogram ]
!344 = metadata !{i32 786453, i32 0, metadata !"", i32 0, i32 0, i64 0, i64 0, i64 0, i32 0, null, metadata !345, i32 0, i32 0} ; [ DW_TAG_subroutine_type ]
!345 = metadata !{metadata !231, metadata !312}
!346 = metadata !{i32 786478, i32 0, metadata !151, metadata !"to_double", metadata !"to_double", metadata !"_ZNK11ap_int_baseILi64ELb1ELb1EE9to_doubleEv", metadata !152, i32 1727, metadata !347, i1 false, i1 false, i32 0, i32 0, null, i32 256, i1 false, null, null, i32 0, metadata !164, i32 1727} ; [ DW_TAG_subprogram ]
!347 = metadata !{i32 786453, i32 0, metadata !"", i32 0, i32 0, i64 0, i64 0, i64 0, i32 0, null, metadata !348, i32 0, i32 0} ; [ DW_TAG_subroutine_type ]
!348 = metadata !{metadata !245, metadata !312}
!349 = metadata !{i32 786478, i32 0, metadata !151, metadata !"length", metadata !"length", metadata !"_ZNK11ap_int_baseILi64ELb1ELb1EE6lengthEv", metadata !152, i32 1741, metadata !329, i1 false, i1 false, i32 0, i32 0, null, i32 256, i1 false, null, null, i32 0, metadata !164, i32 1741} ; [ DW_TAG_subprogram ]
!350 = metadata !{i32 786478, i32 0, metadata !151, metadata !"length", metadata !"length", metadata !"_ZNVK11ap_int_baseILi64ELb1ELb1EE6lengthEv", metadata !152, i32 1742, metadata !351, i1 false, i1 false, i32 0, i32 0, null, i32 256, i1 false, null, null, i32 0, metadata !164, i32 1742} ; [ DW_TAG_subprogram ]
!351 = metadata !{i32 786453, i32 0, metadata !"", i32 0, i32 0, i64 0, i64 0, i64 0, i32 0, null, metadata !352, i32 0, i32 0} ; [ DW_TAG_subroutine_type ]
!352 = metadata !{metadata !168, metadata !353}
!353 = metadata !{i32 786447, i32 0, metadata !"", i32 0, i32 0, i64 64, i64 64, i64 0, i32 64, metadata !187} ; [ DW_TAG_pointer_type ]
!354 = metadata !{i32 786478, i32 0, metadata !151, metadata !"reverse", metadata !"reverse", metadata !"_ZN11ap_int_baseILi64ELb1ELb1EE7reverseEv", metadata !152, i32 1747, metadata !355, i1 false, i1 false, i32 0, i32 0, null, i32 256, i1 false, null, null, i32 0, metadata !164, i32 1747} ; [ DW_TAG_subprogram ]
!355 = metadata !{i32 786453, i32 0, metadata !"", i32 0, i32 0, i64 0, i64 0, i64 0, i32 0, null, metadata !356, i32 0, i32 0} ; [ DW_TAG_subroutine_type ]
!356 = metadata !{metadata !269, metadata !174}
!357 = metadata !{i32 786478, i32 0, metadata !151, metadata !"iszero", metadata !"iszero", metadata !"_ZNK11ap_int_baseILi64ELb1ELb1EE6iszeroEv", metadata !152, i32 1753, metadata !314, i1 false, i1 false, i32 0, i32 0, null, i32 256, i1 false, null, null, i32 0, metadata !164, i32 1753} ; [ DW_TAG_subprogram ]
!358 = metadata !{i32 786478, i32 0, metadata !151, metadata !"is_zero", metadata !"is_zero", metadata !"_ZNK11ap_int_baseILi64ELb1ELb1EE7is_zeroEv", metadata !152, i32 1758, metadata !314, i1 false, i1 false, i32 0, i32 0, null, i32 256, i1 false, null, null, i32 0, metadata !164, i32 1758} ; [ DW_TAG_subprogram ]
!359 = metadata !{i32 786478, i32 0, metadata !151, metadata !"sign", metadata !"sign", metadata !"_ZNK11ap_int_baseILi64ELb1ELb1EE4signEv", metadata !152, i32 1763, metadata !314, i1 false, i1 false, i32 0, i32 0, null, i32 256, i1 false, null, null, i32 0, metadata !164, i32 1763} ; [ DW_TAG_subprogram ]
!360 = metadata !{i32 786478, i32 0, metadata !151, metadata !"clear", metadata !"clear", metadata !"_ZN11ap_int_baseILi64ELb1ELb1EE5clearEi", metadata !152, i32 1771, metadata !209, i1 false, i1 false, i32 0, i32 0, null, i32 256, i1 false, null, null, i32 0, metadata !164, i32 1771} ; [ DW_TAG_subprogram ]
!361 = metadata !{i32 786478, i32 0, metadata !151, metadata !"invert", metadata !"invert", metadata !"_ZN11ap_int_baseILi64ELb1ELb1EE6invertEi", metadata !152, i32 1777, metadata !209, i1 false, i1 false, i32 0, i32 0, null, i32 256, i1 false, null, null, i32 0, metadata !164, i32 1777} ; [ DW_TAG_subprogram ]
!362 = metadata !{i32 786478, i32 0, metadata !151, metadata !"test", metadata !"test", metadata !"_ZNK11ap_int_baseILi64ELb1ELb1EE4testEi", metadata !152, i32 1785, metadata !363, i1 false, i1 false, i32 0, i32 0, null, i32 256, i1 false, null, null, i32 0, metadata !164, i32 1785} ; [ DW_TAG_subprogram ]
!363 = metadata !{i32 786453, i32 0, metadata !"", i32 0, i32 0, i64 0, i64 0, i64 0, i32 0, null, metadata !364, i32 0, i32 0} ; [ DW_TAG_subroutine_type ]
!364 = metadata !{metadata !170, metadata !312, metadata !168}
!365 = metadata !{i32 786478, i32 0, metadata !151, metadata !"set", metadata !"set", metadata !"_ZN11ap_int_baseILi64ELb1ELb1EE3setEi", metadata !152, i32 1791, metadata !209, i1 false, i1 false, i32 0, i32 0, null, i32 256, i1 false, null, null, i32 0, metadata !164, i32 1791} ; [ DW_TAG_subprogram ]
!366 = metadata !{i32 786478, i32 0, metadata !151, metadata !"set", metadata !"set", metadata !"_ZN11ap_int_baseILi64ELb1ELb1EE3setEib", metadata !152, i32 1797, metadata !367, i1 false, i1 false, i32 0, i32 0, null, i32 256, i1 false, null, null, i32 0, metadata !164, i32 1797} ; [ DW_TAG_subprogram ]
!367 = metadata !{i32 786453, i32 0, metadata !"", i32 0, i32 0, i64 0, i64 0, i64 0, i32 0, null, metadata !368, i32 0, i32 0} ; [ DW_TAG_subroutine_type ]
!368 = metadata !{null, metadata !174, metadata !168, metadata !170}
!369 = metadata !{i32 786478, i32 0, metadata !151, metadata !"lrotate", metadata !"lrotate", metadata !"_ZN11ap_int_baseILi64ELb1ELb1EE7lrotateEi", metadata !152, i32 1804, metadata !209, i1 false, i1 false, i32 0, i32 0, null, i32 256, i1 false, null, null, i32 0, metadata !164, i32 1804} ; [ DW_TAG_subprogram ]
!370 = metadata !{i32 786478, i32 0, metadata !151, metadata !"rrotate", metadata !"rrotate", metadata !"_ZN11ap_int_baseILi64ELb1ELb1EE7rrotateEi", metadata !152, i32 1813, metadata !209, i1 false, i1 false, i32 0, i32 0, null, i32 256, i1 false, null, null, i32 0, metadata !164, i32 1813} ; [ DW_TAG_subprogram ]
!371 = metadata !{i32 786478, i32 0, metadata !151, metadata !"set_bit", metadata !"set_bit", metadata !"_ZN11ap_int_baseILi64ELb1ELb1EE7set_bitEib", metadata !152, i32 1821, metadata !367, i1 false, i1 false, i32 0, i32 0, null, i32 256, i1 false, null, null, i32 0, metadata !164, i32 1821} ; [ DW_TAG_subprogram ]
!372 = metadata !{i32 786478, i32 0, metadata !151, metadata !"get_bit", metadata !"get_bit", metadata !"_ZNK11ap_int_baseILi64ELb1ELb1EE7get_bitEi", metadata !152, i32 1826, metadata !363, i1 false, i1 false, i32 0, i32 0, null, i32 256, i1 false, null, null, i32 0, metadata !164, i32 1826} ; [ DW_TAG_subprogram ]
!373 = metadata !{i32 786478, i32 0, metadata !151, metadata !"b_not", metadata !"b_not", metadata !"_ZN11ap_int_baseILi64ELb1ELb1EE5b_notEv", metadata !152, i32 1831, metadata !172, i1 false, i1 false, i32 0, i32 0, null, i32 256, i1 false, null, null, i32 0, metadata !164, i32 1831} ; [ DW_TAG_subprogram ]
!374 = metadata !{i32 786478, i32 0, metadata !151, metadata !"countLeadingZeros", metadata !"countLeadingZeros", metadata !"_ZN11ap_int_baseILi64ELb1ELb1EE17countLeadingZerosEv", metadata !152, i32 1838, metadata !375, i1 false, i1 false, i32 0, i32 0, null, i32 256, i1 false, null, null, i32 0, metadata !164, i32 1838} ; [ DW_TAG_subprogram ]
!375 = metadata !{i32 786453, i32 0, metadata !"", i32 0, i32 0, i64 0, i64 0, i64 0, i32 0, null, metadata !376, i32 0, i32 0} ; [ DW_TAG_subroutine_type ]
!376 = metadata !{metadata !168, metadata !174}
!377 = metadata !{i32 786478, i32 0, metadata !151, metadata !"operator++", metadata !"operator++", metadata !"_ZN11ap_int_baseILi64ELb1ELb1EEppEv", metadata !152, i32 1895, metadata !355, i1 false, i1 false, i32 0, i32 0, null, i32 256, i1 false, null, null, i32 0, metadata !164, i32 1895} ; [ DW_TAG_subprogram ]
!378 = metadata !{i32 786478, i32 0, metadata !151, metadata !"operator--", metadata !"operator--", metadata !"_ZN11ap_int_baseILi64ELb1ELb1EEmmEv", metadata !152, i32 1899, metadata !355, i1 false, i1 false, i32 0, i32 0, null, i32 256, i1 false, null, null, i32 0, metadata !164, i32 1899} ; [ DW_TAG_subprogram ]
!379 = metadata !{i32 786478, i32 0, metadata !151, metadata !"operator++", metadata !"operator++", metadata !"_ZN11ap_int_baseILi64ELb1ELb1EEppEi", metadata !152, i32 1907, metadata !380, i1 false, i1 false, i32 0, i32 0, null, i32 256, i1 false, null, null, i32 0, metadata !164, i32 1907} ; [ DW_TAG_subprogram ]
!380 = metadata !{i32 786453, i32 0, metadata !"", i32 0, i32 0, i64 0, i64 0, i64 0, i32 0, null, metadata !381, i32 0, i32 0} ; [ DW_TAG_subroutine_type ]
!381 = metadata !{metadata !179, metadata !174, metadata !168}
!382 = metadata !{i32 786478, i32 0, metadata !151, metadata !"operator--", metadata !"operator--", metadata !"_ZN11ap_int_baseILi64ELb1ELb1EEmmEi", metadata !152, i32 1912, metadata !380, i1 false, i1 false, i32 0, i32 0, null, i32 256, i1 false, null, null, i32 0, metadata !164, i32 1912} ; [ DW_TAG_subprogram ]
!383 = metadata !{i32 786478, i32 0, metadata !151, metadata !"operator+", metadata !"operator+", metadata !"_ZNK11ap_int_baseILi64ELb1ELb1EEpsEv", metadata !152, i32 1921, metadata !384, i1 false, i1 false, i32 0, i32 0, null, i32 256, i1 false, null, null, i32 0, metadata !164, i32 1921} ; [ DW_TAG_subprogram ]
!384 = metadata !{i32 786453, i32 0, metadata !"", i32 0, i32 0, i64 0, i64 0, i64 0, i32 0, null, metadata !385, i32 0, i32 0} ; [ DW_TAG_subroutine_type ]
!385 = metadata !{metadata !151, metadata !312}
!386 = metadata !{i32 786478, i32 0, metadata !151, metadata !"operator!", metadata !"operator!", metadata !"_ZNK11ap_int_baseILi64ELb1ELb1EEntEv", metadata !152, i32 1927, metadata !314, i1 false, i1 false, i32 0, i32 0, null, i32 256, i1 false, null, null, i32 0, metadata !164, i32 1927} ; [ DW_TAG_subprogram ]
!387 = metadata !{i32 786478, i32 0, metadata !151, metadata !"operator-", metadata !"operator-", metadata !"_ZNK11ap_int_baseILi64ELb1ELb1EEngEv", metadata !152, i32 1932, metadata !384, i1 false, i1 false, i32 0, i32 0, null, i32 256, i1 false, null, null, i32 0, metadata !164, i32 1932} ; [ DW_TAG_subprogram ]
!388 = metadata !{i32 786478, i32 0, metadata !151, metadata !"range", metadata !"range", metadata !"_ZN11ap_int_baseILi64ELb1ELb1EE5rangeEii", metadata !152, i32 2062, metadata !389, i1 false, i1 false, i32 0, i32 0, null, i32 256, i1 false, null, null, i32 0, metadata !164, i32 2062} ; [ DW_TAG_subprogram ]
!389 = metadata !{i32 786453, i32 0, metadata !"", i32 0, i32 0, i64 0, i64 0, i64 0, i32 0, null, metadata !390, i32 0, i32 0} ; [ DW_TAG_subroutine_type ]
!390 = metadata !{metadata !391, metadata !174, metadata !168, metadata !168}
!391 = metadata !{i32 786434, null, metadata !"ap_range_ref<64, true>", metadata !152, i32 925, i64 0, i64 0, i32 0, i32 4, null, null, i32 0, null, metadata !392} ; [ DW_TAG_class_type ]
!392 = metadata !{metadata !393, metadata !169}
!393 = metadata !{i32 786480, null, metadata !"_AP_W", metadata !168, i64 64, null, i32 0, i32 0} ; [ DW_TAG_template_value_parameter ]
!394 = metadata !{i32 786478, i32 0, metadata !151, metadata !"operator()", metadata !"operator()", metadata !"_ZN11ap_int_baseILi64ELb1ELb1EEclEii", metadata !152, i32 2068, metadata !389, i1 false, i1 false, i32 0, i32 0, null, i32 256, i1 false, null, null, i32 0, metadata !164, i32 2068} ; [ DW_TAG_subprogram ]
!395 = metadata !{i32 786478, i32 0, metadata !151, metadata !"range", metadata !"range", metadata !"_ZNK11ap_int_baseILi64ELb1ELb1EE5rangeEii", metadata !152, i32 2074, metadata !396, i1 false, i1 false, i32 0, i32 0, null, i32 256, i1 false, null, null, i32 0, metadata !164, i32 2074} ; [ DW_TAG_subprogram ]
!396 = metadata !{i32 786453, i32 0, metadata !"", i32 0, i32 0, i64 0, i64 0, i64 0, i32 0, null, metadata !397, i32 0, i32 0} ; [ DW_TAG_subroutine_type ]
!397 = metadata !{metadata !391, metadata !312, metadata !168, metadata !168}
!398 = metadata !{i32 786478, i32 0, metadata !151, metadata !"operator()", metadata !"operator()", metadata !"_ZNK11ap_int_baseILi64ELb1ELb1EEclEii", metadata !152, i32 2080, metadata !396, i1 false, i1 false, i32 0, i32 0, null, i32 256, i1 false, null, null, i32 0, metadata !164, i32 2080} ; [ DW_TAG_subprogram ]
!399 = metadata !{i32 786478, i32 0, metadata !151, metadata !"operator[]", metadata !"operator[]", metadata !"_ZN11ap_int_baseILi64ELb1ELb1EEixEi", metadata !152, i32 2099, metadata !400, i1 false, i1 false, i32 0, i32 0, null, i32 256, i1 false, null, null, i32 0, metadata !164, i32 2099} ; [ DW_TAG_subprogram ]
!400 = metadata !{i32 786453, i32 0, metadata !"", i32 0, i32 0, i64 0, i64 0, i64 0, i32 0, null, metadata !401, i32 0, i32 0} ; [ DW_TAG_subroutine_type ]
!401 = metadata !{metadata !402, metadata !174, metadata !168}
!402 = metadata !{i32 786434, null, metadata !"ap_bit_ref<64, true>", metadata !152, i32 1249, i64 0, i64 0, i32 0, i32 4, null, null, i32 0, null, metadata !392} ; [ DW_TAG_class_type ]
!403 = metadata !{i32 786478, i32 0, metadata !151, metadata !"operator[]", metadata !"operator[]", metadata !"_ZNK11ap_int_baseILi64ELb1ELb1EEixEi", metadata !152, i32 2113, metadata !363, i1 false, i1 false, i32 0, i32 0, null, i32 256, i1 false, null, null, i32 0, metadata !164, i32 2113} ; [ DW_TAG_subprogram ]
!404 = metadata !{i32 786478, i32 0, metadata !151, metadata !"bit", metadata !"bit", metadata !"_ZN11ap_int_baseILi64ELb1ELb1EE3bitEi", metadata !152, i32 2127, metadata !400, i1 false, i1 false, i32 0, i32 0, null, i32 256, i1 false, null, null, i32 0, metadata !164, i32 2127} ; [ DW_TAG_subprogram ]
!405 = metadata !{i32 786478, i32 0, metadata !151, metadata !"bit", metadata !"bit", metadata !"_ZNK11ap_int_baseILi64ELb1ELb1EE3bitEi", metadata !152, i32 2141, metadata !363, i1 false, i1 false, i32 0, i32 0, null, i32 256, i1 false, null, null, i32 0, metadata !164, i32 2141} ; [ DW_TAG_subprogram ]
!406 = metadata !{i32 786478, i32 0, metadata !151, metadata !"and_reduce", metadata !"and_reduce", metadata !"_ZN11ap_int_baseILi64ELb1ELb1EE10and_reduceEv", metadata !152, i32 2321, metadata !407, i1 false, i1 false, i32 0, i32 0, null, i32 256, i1 false, null, null, i32 0, metadata !164, i32 2321} ; [ DW_TAG_subprogram ]
!407 = metadata !{i32 786453, i32 0, metadata !"", i32 0, i32 0, i64 0, i64 0, i64 0, i32 0, null, metadata !408, i32 0, i32 0} ; [ DW_TAG_subroutine_type ]
!408 = metadata !{metadata !170, metadata !174}
!409 = metadata !{i32 786478, i32 0, metadata !151, metadata !"nand_reduce", metadata !"nand_reduce", metadata !"_ZN11ap_int_baseILi64ELb1ELb1EE11nand_reduceEv", metadata !152, i32 2324, metadata !407, i1 false, i1 false, i32 0, i32 0, null, i32 256, i1 false, null, null, i32 0, metadata !164, i32 2324} ; [ DW_TAG_subprogram ]
!410 = metadata !{i32 786478, i32 0, metadata !151, metadata !"or_reduce", metadata !"or_reduce", metadata !"_ZN11ap_int_baseILi64ELb1ELb1EE9or_reduceEv", metadata !152, i32 2327, metadata !407, i1 false, i1 false, i32 0, i32 0, null, i32 256, i1 false, null, null, i32 0, metadata !164, i32 2327} ; [ DW_TAG_subprogram ]
!411 = metadata !{i32 786478, i32 0, metadata !151, metadata !"nor_reduce", metadata !"nor_reduce", metadata !"_ZN11ap_int_baseILi64ELb1ELb1EE10nor_reduceEv", metadata !152, i32 2330, metadata !407, i1 false, i1 false, i32 0, i32 0, null, i32 256, i1 false, null, null, i32 0, metadata !164, i32 2330} ; [ DW_TAG_subprogram ]
!412 = metadata !{i32 786478, i32 0, metadata !151, metadata !"xor_reduce", metadata !"xor_reduce", metadata !"_ZN11ap_int_baseILi64ELb1ELb1EE10xor_reduceEv", metadata !152, i32 2333, metadata !407, i1 false, i1 false, i32 0, i32 0, null, i32 256, i1 false, null, null, i32 0, metadata !164, i32 2333} ; [ DW_TAG_subprogram ]
!413 = metadata !{i32 786478, i32 0, metadata !151, metadata !"xnor_reduce", metadata !"xnor_reduce", metadata !"_ZN11ap_int_baseILi64ELb1ELb1EE11xnor_reduceEv", metadata !152, i32 2336, metadata !407, i1 false, i1 false, i32 0, i32 0, null, i32 256, i1 false, null, null, i32 0, metadata !164, i32 2336} ; [ DW_TAG_subprogram ]
!414 = metadata !{i32 786478, i32 0, metadata !151, metadata !"and_reduce", metadata !"and_reduce", metadata !"_ZNK11ap_int_baseILi64ELb1ELb1EE10and_reduceEv", metadata !152, i32 2340, metadata !314, i1 false, i1 false, i32 0, i32 0, null, i32 256, i1 false, null, null, i32 0, metadata !164, i32 2340} ; [ DW_TAG_subprogram ]
!415 = metadata !{i32 786478, i32 0, metadata !151, metadata !"nand_reduce", metadata !"nand_reduce", metadata !"_ZNK11ap_int_baseILi64ELb1ELb1EE11nand_reduceEv", metadata !152, i32 2343, metadata !314, i1 false, i1 false, i32 0, i32 0, null, i32 256, i1 false, null, null, i32 0, metadata !164, i32 2343} ; [ DW_TAG_subprogram ]
!416 = metadata !{i32 786478, i32 0, metadata !151, metadata !"or_reduce", metadata !"or_reduce", metadata !"_ZNK11ap_int_baseILi64ELb1ELb1EE9or_reduceEv", metadata !152, i32 2346, metadata !314, i1 false, i1 false, i32 0, i32 0, null, i32 256, i1 false, null, null, i32 0, metadata !164, i32 2346} ; [ DW_TAG_subprogram ]
!417 = metadata !{i32 786478, i32 0, metadata !151, metadata !"nor_reduce", metadata !"nor_reduce", metadata !"_ZNK11ap_int_baseILi64ELb1ELb1EE10nor_reduceEv", metadata !152, i32 2349, metadata !314, i1 false, i1 false, i32 0, i32 0, null, i32 256, i1 false, null, null, i32 0, metadata !164, i32 2349} ; [ DW_TAG_subprogram ]
!418 = metadata !{i32 786478, i32 0, metadata !151, metadata !"xor_reduce", metadata !"xor_reduce", metadata !"_ZNK11ap_int_baseILi64ELb1ELb1EE10xor_reduceEv", metadata !152, i32 2352, metadata !314, i1 false, i1 false, i32 0, i32 0, null, i32 256, i1 false, null, null, i32 0, metadata !164, i32 2352} ; [ DW_TAG_subprogram ]
!419 = metadata !{i32 786478, i32 0, metadata !151, metadata !"xnor_reduce", metadata !"xnor_reduce", metadata !"_ZNK11ap_int_baseILi64ELb1ELb1EE11xnor_reduceEv", metadata !152, i32 2355, metadata !314, i1 false, i1 false, i32 0, i32 0, null, i32 256, i1 false, null, null, i32 0, metadata !164, i32 2355} ; [ DW_TAG_subprogram ]
!420 = metadata !{i32 786478, i32 0, metadata !151, metadata !"to_string", metadata !"to_string", metadata !"_ZNK11ap_int_baseILi64ELb1ELb1EE9to_stringEPci8BaseModeb", metadata !152, i32 2362, metadata !421, i1 false, i1 false, i32 0, i32 0, null, i32 256, i1 false, null, null, i32 0, metadata !164, i32 2362} ; [ DW_TAG_subprogram ]
!421 = metadata !{i32 786453, i32 0, metadata !"", i32 0, i32 0, i64 0, i64 0, i64 0, i32 0, null, metadata !422, i32 0, i32 0} ; [ DW_TAG_subroutine_type ]
!422 = metadata !{null, metadata !312, metadata !423, metadata !168, metadata !424, metadata !170}
!423 = metadata !{i32 786447, null, metadata !"", null, i32 0, i64 64, i64 64, i64 0, i32 0, metadata !251} ; [ DW_TAG_pointer_type ]
!424 = metadata !{i32 786436, null, metadata !"BaseMode", metadata !152, i32 603, i64 5, i64 8, i32 0, i32 0, null, metadata !425, i32 0, i32 0} ; [ DW_TAG_enumeration_type ]
!425 = metadata !{metadata !426, metadata !427, metadata !428, metadata !429}
!426 = metadata !{i32 786472, metadata !"SC_BIN", i64 2} ; [ DW_TAG_enumerator ]
!427 = metadata !{i32 786472, metadata !"SC_OCT", i64 8} ; [ DW_TAG_enumerator ]
!428 = metadata !{i32 786472, metadata !"SC_DEC", i64 10} ; [ DW_TAG_enumerator ]
!429 = metadata !{i32 786472, metadata !"SC_HEX", i64 16} ; [ DW_TAG_enumerator ]
!430 = metadata !{i32 786478, i32 0, metadata !151, metadata !"to_string", metadata !"to_string", metadata !"_ZNK11ap_int_baseILi64ELb1ELb1EE9to_stringE8BaseModeb", metadata !152, i32 2389, metadata !431, i1 false, i1 false, i32 0, i32 0, null, i32 256, i1 false, null, null, i32 0, metadata !164, i32 2389} ; [ DW_TAG_subprogram ]
!431 = metadata !{i32 786453, i32 0, metadata !"", i32 0, i32 0, i64 0, i64 0, i64 0, i32 0, null, metadata !432, i32 0, i32 0} ; [ DW_TAG_subroutine_type ]
!432 = metadata !{metadata !423, metadata !312, metadata !424, metadata !170}
!433 = metadata !{i32 786478, i32 0, metadata !151, metadata !"to_string", metadata !"to_string", metadata !"_ZNK11ap_int_baseILi64ELb1ELb1EE9to_stringEab", metadata !152, i32 2393, metadata !434, i1 false, i1 false, i32 0, i32 0, null, i32 256, i1 false, null, null, i32 0, metadata !164, i32 2393} ; [ DW_TAG_subprogram ]
!434 = metadata !{i32 786453, i32 0, metadata !"", i32 0, i32 0, i64 0, i64 0, i64 0, i32 0, null, metadata !435, i32 0, i32 0} ; [ DW_TAG_subroutine_type ]
!435 = metadata !{metadata !423, metadata !312, metadata !195, metadata !170}
!436 = metadata !{metadata !393, metadata !169, metadata !437}
!437 = metadata !{i32 786480, null, metadata !"_AP_C", metadata !170, i64 1, null, i32 0, i32 0} ; [ DW_TAG_template_value_parameter ]
!438 = metadata !{i32 786478, i32 0, metadata !147, metadata !"ap_int", metadata !"ap_int", metadata !"", metadata !148, i32 77, metadata !439, i1 false, i1 false, i32 0, i32 0, null, i32 256, i1 false, null, null, i32 0, metadata !164, i32 77} ; [ DW_TAG_subprogram ]
!439 = metadata !{i32 786453, i32 0, metadata !"", i32 0, i32 0, i64 0, i64 0, i64 0, i32 0, null, metadata !440, i32 0, i32 0} ; [ DW_TAG_subroutine_type ]
!440 = metadata !{null, metadata !441}
!441 = metadata !{i32 786447, i32 0, metadata !"", i32 0, i32 0, i64 64, i64 64, i64 0, i32 64, metadata !147} ; [ DW_TAG_pointer_type ]
!442 = metadata !{i32 786478, i32 0, metadata !147, metadata !"ap_int<64>", metadata !"ap_int<64>", metadata !"", metadata !148, i32 79, metadata !443, i1 false, i1 false, i32 0, i32 0, null, i32 256, i1 false, null, metadata !447, i32 0, metadata !164, i32 79} ; [ DW_TAG_subprogram ]
!443 = metadata !{i32 786453, i32 0, metadata !"", i32 0, i32 0, i64 0, i64 0, i64 0, i32 0, null, metadata !444, i32 0, i32 0} ; [ DW_TAG_subroutine_type ]
!444 = metadata !{null, metadata !441, metadata !445}
!445 = metadata !{i32 786448, null, null, null, i32 0, i64 0, i64 0, i64 0, i32 0, metadata !446} ; [ DW_TAG_reference_type ]
!446 = metadata !{i32 786470, null, metadata !"", null, i32 0, i64 0, i64 0, i64 0, i32 0, metadata !147} ; [ DW_TAG_const_type ]
!447 = metadata !{metadata !181}
!448 = metadata !{i32 786478, i32 0, metadata !147, metadata !"ap_int<64>", metadata !"ap_int<64>", metadata !"", metadata !148, i32 82, metadata !449, i1 false, i1 false, i32 0, i32 0, null, i32 256, i1 false, null, metadata !447, i32 0, metadata !164, i32 82} ; [ DW_TAG_subprogram ]
!449 = metadata !{i32 786453, i32 0, metadata !"", i32 0, i32 0, i64 0, i64 0, i64 0, i32 0, null, metadata !450, i32 0, i32 0} ; [ DW_TAG_subroutine_type ]
!450 = metadata !{null, metadata !441, metadata !451}
!451 = metadata !{i32 786448, null, null, null, i32 0, i64 0, i64 0, i64 0, i32 0, metadata !452} ; [ DW_TAG_reference_type ]
!452 = metadata !{i32 786470, null, metadata !"", null, i32 0, i64 0, i64 0, i64 0, i32 0, metadata !453} ; [ DW_TAG_const_type ]
!453 = metadata !{i32 786485, null, metadata !"", null, i32 0, i64 0, i64 0, i64 0, i32 0, metadata !147} ; [ DW_TAG_volatile_type ]
!454 = metadata !{i32 786478, i32 0, metadata !147, metadata !"ap_int<96, true>", metadata !"ap_int<96, true>", metadata !"", metadata !148, i32 91, metadata !455, i1 false, i1 false, i32 0, i32 0, null, i32 256, i1 false, null, metadata !485, i32 0, metadata !164, i32 91} ; [ DW_TAG_subprogram ]
!455 = metadata !{i32 786453, i32 0, metadata !"", i32 0, i32 0, i64 0, i64 0, i64 0, i32 0, null, metadata !456, i32 0, i32 0} ; [ DW_TAG_subroutine_type ]
!456 = metadata !{null, metadata !441, metadata !457}
!457 = metadata !{i32 786448, null, null, null, i32 0, i64 0, i64 0, i64 0, i32 0, metadata !458} ; [ DW_TAG_reference_type ]
!458 = metadata !{i32 786470, null, metadata !"", null, i32 0, i64 0, i64 0, i64 0, i32 0, metadata !459} ; [ DW_TAG_const_type ]
!459 = metadata !{i32 786434, null, metadata !"ap_range_ref<96, true>", metadata !152, i32 925, i64 128, i64 64, i32 0, i32 0, null, metadata !460, i32 0, null, metadata !684} ; [ DW_TAG_class_type ]
!460 = metadata !{metadata !461, metadata !713, metadata !714, metadata !715, metadata !719, metadata !723, metadata !968, metadata !971, metadata !975, metadata !978, metadata !986, metadata !989, metadata !990, metadata !993, metadata !996, metadata !999, metadata !1002, metadata !1005, metadata !1008, metadata !1009, metadata !1010}
!461 = metadata !{i32 786445, metadata !459, metadata !"d_bv", metadata !152, i32 926, i64 64, i64 64, i64 0, i32 0, metadata !462} ; [ DW_TAG_member ]
!462 = metadata !{i32 786448, null, null, null, i32 0, i64 0, i64 0, i64 0, i32 0, metadata !463} ; [ DW_TAG_reference_type ]
!463 = metadata !{i32 786434, null, metadata !"ap_int_base<96, true, false>", metadata !152, i32 2398, i64 128, i64 64, i32 0, i32 0, null, metadata !464, i32 0, null, metadata !712} ; [ DW_TAG_class_type ]
!464 = metadata !{metadata !465, metadata !476, metadata !480, metadata !487, metadata !493, metadata !496, metadata !499, metadata !502, metadata !505, metadata !508, metadata !511, metadata !514, metadata !517, metadata !520, metadata !523, metadata !526, metadata !529, metadata !532, metadata !535, metadata !538, metadata !541, metadata !545, metadata !548, metadata !551, metadata !552, metadata !555, metadata !558, metadata !561, metadata !564, metadata !567, metadata !570, metadata !573, metadata !576, metadata !579, metadata !582, metadata !585, metadata !588, metadata !593, metadata !596, metadata !597, metadata !598, metadata !599, metadata !600, metadata !603, metadata !606, metadata !609, metadata !612, metadata !615, metadata !618, metadata !621, metadata !622, metadata !626, metadata !629, metadata !630, metadata !631, metadata !632, metadata !633, metadata !634, metadata !637, metadata !638, metadata !641, metadata !642, metadata !643, metadata !644, metadata !645, metadata !646, metadata !649, metadata !650, metadata !651, metadata !654, metadata !655, metadata !658, metadata !670, metadata !671, metadata !672, metadata !675, metadata !676, metadata !679, metadata !680, metadata !686, metadata !687, metadata !688, metadata !689, metadata !692, metadata !693, metadata !694, metadata !695, metadata !696, metadata !697, metadata !698, metadata !699, metadata !700, metadata !701, metadata !702, metadata !703, metadata !706, metadata !709}
!465 = metadata !{i32 786460, metadata !463, null, metadata !152, i32 0, i64 0, i64 0, i64 0, i32 0, metadata !466} ; [ DW_TAG_inheritance ]
!466 = metadata !{i32 786434, null, metadata !"ssdm_int<96 + 1024 * 0, true>", metadata !156, i32 104, i64 128, i64 64, i32 0, i32 0, null, metadata !467, i32 0, null, metadata !474} ; [ DW_TAG_class_type ]
!467 = metadata !{metadata !468, metadata !470}
!468 = metadata !{i32 786445, metadata !466, metadata !"V", metadata !156, i32 104, i64 96, i64 64, i64 0, i32 0, metadata !469} ; [ DW_TAG_member ]
!469 = metadata !{i32 786468, null, metadata !"int96", null, i32 0, i64 96, i64 64, i64 0, i32 0, i32 5} ; [ DW_TAG_base_type ]
!470 = metadata !{i32 786478, i32 0, metadata !466, metadata !"ssdm_int", metadata !"ssdm_int", metadata !"", metadata !156, i32 104, metadata !471, i1 false, i1 false, i32 0, i32 0, null, i32 256, i1 false, null, null, i32 0, metadata !164, i32 104} ; [ DW_TAG_subprogram ]
!471 = metadata !{i32 786453, i32 0, metadata !"", i32 0, i32 0, i64 0, i64 0, i64 0, i32 0, null, metadata !472, i32 0, i32 0} ; [ DW_TAG_subroutine_type ]
!472 = metadata !{null, metadata !473}
!473 = metadata !{i32 786447, i32 0, metadata !"", i32 0, i32 0, i64 64, i64 64, i64 0, i32 64, metadata !466} ; [ DW_TAG_pointer_type ]
!474 = metadata !{metadata !475, metadata !169}
!475 = metadata !{i32 786480, null, metadata !"_AP_N", metadata !168, i64 96, null, i32 0, i32 0} ; [ DW_TAG_template_value_parameter ]
!476 = metadata !{i32 786478, i32 0, metadata !463, metadata !"ap_int_base", metadata !"ap_int_base", metadata !"", metadata !152, i32 2436, metadata !477, i1 false, i1 false, i32 0, i32 0, null, i32 256, i1 false, null, null, i32 0, metadata !164, i32 2436} ; [ DW_TAG_subprogram ]
!477 = metadata !{i32 786453, i32 0, metadata !"", i32 0, i32 0, i64 0, i64 0, i64 0, i32 0, null, metadata !478, i32 0, i32 0} ; [ DW_TAG_subroutine_type ]
!478 = metadata !{null, metadata !479}
!479 = metadata !{i32 786447, i32 0, metadata !"", i32 0, i32 0, i64 64, i64 64, i64 0, i32 64, metadata !463} ; [ DW_TAG_pointer_type ]
!480 = metadata !{i32 786478, i32 0, metadata !463, metadata !"ap_int_base<96, true>", metadata !"ap_int_base<96, true>", metadata !"", metadata !152, i32 2448, metadata !481, i1 false, i1 false, i32 0, i32 0, null, i32 256, i1 false, null, metadata !485, i32 0, metadata !164, i32 2448} ; [ DW_TAG_subprogram ]
!481 = metadata !{i32 786453, i32 0, metadata !"", i32 0, i32 0, i64 0, i64 0, i64 0, i32 0, null, metadata !482, i32 0, i32 0} ; [ DW_TAG_subroutine_type ]
!482 = metadata !{null, metadata !479, metadata !483}
!483 = metadata !{i32 786448, null, null, null, i32 0, i64 0, i64 0, i64 0, i32 0, metadata !484} ; [ DW_TAG_reference_type ]
!484 = metadata !{i32 786470, null, metadata !"", null, i32 0, i64 0, i64 0, i64 0, i32 0, metadata !463} ; [ DW_TAG_const_type ]
!485 = metadata !{metadata !486, metadata !182}
!486 = metadata !{i32 786480, null, metadata !"_AP_W2", metadata !168, i64 96, null, i32 0, i32 0} ; [ DW_TAG_template_value_parameter ]
!487 = metadata !{i32 786478, i32 0, metadata !463, metadata !"ap_int_base<96, true>", metadata !"ap_int_base<96, true>", metadata !"", metadata !152, i32 2451, metadata !488, i1 false, i1 false, i32 0, i32 0, null, i32 256, i1 false, null, metadata !485, i32 0, metadata !164, i32 2451} ; [ DW_TAG_subprogram ]
!488 = metadata !{i32 786453, i32 0, metadata !"", i32 0, i32 0, i64 0, i64 0, i64 0, i32 0, null, metadata !489, i32 0, i32 0} ; [ DW_TAG_subroutine_type ]
!489 = metadata !{null, metadata !479, metadata !490}
!490 = metadata !{i32 786448, null, null, null, i32 0, i64 0, i64 0, i64 0, i32 0, metadata !491} ; [ DW_TAG_reference_type ]
!491 = metadata !{i32 786470, null, metadata !"", null, i32 0, i64 0, i64 0, i64 0, i32 0, metadata !492} ; [ DW_TAG_const_type ]
!492 = metadata !{i32 786485, null, metadata !"", null, i32 0, i64 0, i64 0, i64 0, i32 0, metadata !463} ; [ DW_TAG_volatile_type ]
!493 = metadata !{i32 786478, i32 0, metadata !463, metadata !"ap_int_base", metadata !"ap_int_base", metadata !"", metadata !152, i32 2458, metadata !494, i1 false, i1 false, i32 0, i32 0, null, i32 384, i1 false, null, null, i32 0, metadata !164, i32 2458} ; [ DW_TAG_subprogram ]
!494 = metadata !{i32 786453, i32 0, metadata !"", i32 0, i32 0, i64 0, i64 0, i64 0, i32 0, null, metadata !495, i32 0, i32 0} ; [ DW_TAG_subroutine_type ]
!495 = metadata !{null, metadata !479, metadata !170}
!496 = metadata !{i32 786478, i32 0, metadata !463, metadata !"ap_int_base", metadata !"ap_int_base", metadata !"", metadata !152, i32 2459, metadata !497, i1 false, i1 false, i32 0, i32 0, null, i32 384, i1 false, null, null, i32 0, metadata !164, i32 2459} ; [ DW_TAG_subprogram ]
!497 = metadata !{i32 786453, i32 0, metadata !"", i32 0, i32 0, i64 0, i64 0, i64 0, i32 0, null, metadata !498, i32 0, i32 0} ; [ DW_TAG_subroutine_type ]
!498 = metadata !{null, metadata !479, metadata !195}
!499 = metadata !{i32 786478, i32 0, metadata !463, metadata !"ap_int_base", metadata !"ap_int_base", metadata !"", metadata !152, i32 2460, metadata !500, i1 false, i1 false, i32 0, i32 0, null, i32 384, i1 false, null, null, i32 0, metadata !164, i32 2460} ; [ DW_TAG_subprogram ]
!500 = metadata !{i32 786453, i32 0, metadata !"", i32 0, i32 0, i64 0, i64 0, i64 0, i32 0, null, metadata !501, i32 0, i32 0} ; [ DW_TAG_subroutine_type ]
!501 = metadata !{null, metadata !479, metadata !199}
!502 = metadata !{i32 786478, i32 0, metadata !463, metadata !"ap_int_base", metadata !"ap_int_base", metadata !"", metadata !152, i32 2461, metadata !503, i1 false, i1 false, i32 0, i32 0, null, i32 384, i1 false, null, null, i32 0, metadata !164, i32 2461} ; [ DW_TAG_subprogram ]
!503 = metadata !{i32 786453, i32 0, metadata !"", i32 0, i32 0, i64 0, i64 0, i64 0, i32 0, null, metadata !504, i32 0, i32 0} ; [ DW_TAG_subroutine_type ]
!504 = metadata !{null, metadata !479, metadata !203}
!505 = metadata !{i32 786478, i32 0, metadata !463, metadata !"ap_int_base", metadata !"ap_int_base", metadata !"", metadata !152, i32 2462, metadata !506, i1 false, i1 false, i32 0, i32 0, null, i32 384, i1 false, null, null, i32 0, metadata !164, i32 2462} ; [ DW_TAG_subprogram ]
!506 = metadata !{i32 786453, i32 0, metadata !"", i32 0, i32 0, i64 0, i64 0, i64 0, i32 0, null, metadata !507, i32 0, i32 0} ; [ DW_TAG_subroutine_type ]
!507 = metadata !{null, metadata !479, metadata !207}
!508 = metadata !{i32 786478, i32 0, metadata !463, metadata !"ap_int_base", metadata !"ap_int_base", metadata !"", metadata !152, i32 2463, metadata !509, i1 false, i1 false, i32 0, i32 0, null, i32 384, i1 false, null, null, i32 0, metadata !164, i32 2463} ; [ DW_TAG_subprogram ]
!509 = metadata !{i32 786453, i32 0, metadata !"", i32 0, i32 0, i64 0, i64 0, i64 0, i32 0, null, metadata !510, i32 0, i32 0} ; [ DW_TAG_subroutine_type ]
!510 = metadata !{null, metadata !479, metadata !168}
!511 = metadata !{i32 786478, i32 0, metadata !463, metadata !"ap_int_base", metadata !"ap_int_base", metadata !"", metadata !152, i32 2464, metadata !512, i1 false, i1 false, i32 0, i32 0, null, i32 384, i1 false, null, null, i32 0, metadata !164, i32 2464} ; [ DW_TAG_subprogram ]
!512 = metadata !{i32 786453, i32 0, metadata !"", i32 0, i32 0, i64 0, i64 0, i64 0, i32 0, null, metadata !513, i32 0, i32 0} ; [ DW_TAG_subroutine_type ]
!513 = metadata !{null, metadata !479, metadata !214}
!514 = metadata !{i32 786478, i32 0, metadata !463, metadata !"ap_int_base", metadata !"ap_int_base", metadata !"", metadata !152, i32 2465, metadata !515, i1 false, i1 false, i32 0, i32 0, null, i32 384, i1 false, null, null, i32 0, metadata !164, i32 2465} ; [ DW_TAG_subprogram ]
!515 = metadata !{i32 786453, i32 0, metadata !"", i32 0, i32 0, i64 0, i64 0, i64 0, i32 0, null, metadata !516, i32 0, i32 0} ; [ DW_TAG_subroutine_type ]
!516 = metadata !{null, metadata !479, metadata !218}
!517 = metadata !{i32 786478, i32 0, metadata !463, metadata !"ap_int_base", metadata !"ap_int_base", metadata !"", metadata !152, i32 2466, metadata !518, i1 false, i1 false, i32 0, i32 0, null, i32 384, i1 false, null, null, i32 0, metadata !164, i32 2466} ; [ DW_TAG_subprogram ]
!518 = metadata !{i32 786453, i32 0, metadata !"", i32 0, i32 0, i64 0, i64 0, i64 0, i32 0, null, metadata !519, i32 0, i32 0} ; [ DW_TAG_subroutine_type ]
!519 = metadata !{null, metadata !479, metadata !222}
!520 = metadata !{i32 786478, i32 0, metadata !463, metadata !"ap_int_base", metadata !"ap_int_base", metadata !"", metadata !152, i32 2467, metadata !521, i1 false, i1 false, i32 0, i32 0, null, i32 384, i1 false, null, null, i32 0, metadata !164, i32 2467} ; [ DW_TAG_subprogram ]
!521 = metadata !{i32 786453, i32 0, metadata !"", i32 0, i32 0, i64 0, i64 0, i64 0, i32 0, null, metadata !522, i32 0, i32 0} ; [ DW_TAG_subroutine_type ]
!522 = metadata !{null, metadata !479, metadata !226}
!523 = metadata !{i32 786478, i32 0, metadata !463, metadata !"ap_int_base", metadata !"ap_int_base", metadata !"", metadata !152, i32 2468, metadata !524, i1 false, i1 false, i32 0, i32 0, null, i32 384, i1 false, null, null, i32 0, metadata !164, i32 2468} ; [ DW_TAG_subprogram ]
!524 = metadata !{i32 786453, i32 0, metadata !"", i32 0, i32 0, i64 0, i64 0, i64 0, i32 0, null, metadata !525, i32 0, i32 0} ; [ DW_TAG_subroutine_type ]
!525 = metadata !{null, metadata !479, metadata !231}
!526 = metadata !{i32 786478, i32 0, metadata !463, metadata !"ap_int_base", metadata !"ap_int_base", metadata !"", metadata !152, i32 2469, metadata !527, i1 false, i1 false, i32 0, i32 0, null, i32 384, i1 false, null, null, i32 0, metadata !164, i32 2469} ; [ DW_TAG_subprogram ]
!527 = metadata !{i32 786453, i32 0, metadata !"", i32 0, i32 0, i64 0, i64 0, i64 0, i32 0, null, metadata !528, i32 0, i32 0} ; [ DW_TAG_subroutine_type ]
!528 = metadata !{null, metadata !479, metadata !236}
!529 = metadata !{i32 786478, i32 0, metadata !463, metadata !"ap_int_base", metadata !"ap_int_base", metadata !"", metadata !152, i32 2470, metadata !530, i1 false, i1 false, i32 0, i32 0, null, i32 384, i1 false, null, null, i32 0, metadata !164, i32 2470} ; [ DW_TAG_subprogram ]
!530 = metadata !{i32 786453, i32 0, metadata !"", i32 0, i32 0, i64 0, i64 0, i64 0, i32 0, null, metadata !531, i32 0, i32 0} ; [ DW_TAG_subroutine_type ]
!531 = metadata !{null, metadata !479, metadata !241}
!532 = metadata !{i32 786478, i32 0, metadata !463, metadata !"ap_int_base", metadata !"ap_int_base", metadata !"", metadata !152, i32 2471, metadata !533, i1 false, i1 false, i32 0, i32 0, null, i32 384, i1 false, null, null, i32 0, metadata !164, i32 2471} ; [ DW_TAG_subprogram ]
!533 = metadata !{i32 786453, i32 0, metadata !"", i32 0, i32 0, i64 0, i64 0, i64 0, i32 0, null, metadata !534, i32 0, i32 0} ; [ DW_TAG_subroutine_type ]
!534 = metadata !{null, metadata !479, metadata !245}
!535 = metadata !{i32 786478, i32 0, metadata !463, metadata !"ap_int_base", metadata !"ap_int_base", metadata !"", metadata !152, i32 2498, metadata !536, i1 false, i1 false, i32 0, i32 0, null, i32 256, i1 false, null, null, i32 0, metadata !164, i32 2498} ; [ DW_TAG_subprogram ]
!536 = metadata !{i32 786453, i32 0, metadata !"", i32 0, i32 0, i64 0, i64 0, i64 0, i32 0, null, metadata !537, i32 0, i32 0} ; [ DW_TAG_subroutine_type ]
!537 = metadata !{null, metadata !479, metadata !249}
!538 = metadata !{i32 786478, i32 0, metadata !463, metadata !"ap_int_base", metadata !"ap_int_base", metadata !"", metadata !152, i32 2505, metadata !539, i1 false, i1 false, i32 0, i32 0, null, i32 256, i1 false, null, null, i32 0, metadata !164, i32 2505} ; [ DW_TAG_subprogram ]
!539 = metadata !{i32 786453, i32 0, metadata !"", i32 0, i32 0, i64 0, i64 0, i64 0, i32 0, null, metadata !540, i32 0, i32 0} ; [ DW_TAG_subroutine_type ]
!540 = metadata !{null, metadata !479, metadata !249, metadata !195}
!541 = metadata !{i32 786478, i32 0, metadata !463, metadata !"read", metadata !"read", metadata !"_ZNV11ap_int_baseILi96ELb1ELb0EE4readEv", metadata !152, i32 2526, metadata !542, i1 false, i1 false, i32 0, i32 0, null, i32 256, i1 false, null, null, i32 0, metadata !164, i32 2526} ; [ DW_TAG_subprogram ]
!542 = metadata !{i32 786453, i32 0, metadata !"", i32 0, i32 0, i64 0, i64 0, i64 0, i32 0, null, metadata !543, i32 0, i32 0} ; [ DW_TAG_subroutine_type ]
!543 = metadata !{metadata !463, metadata !544}
!544 = metadata !{i32 786447, i32 0, metadata !"", i32 0, i32 0, i64 64, i64 64, i64 0, i32 64, metadata !492} ; [ DW_TAG_pointer_type ]
!545 = metadata !{i32 786478, i32 0, metadata !463, metadata !"write", metadata !"write", metadata !"_ZNV11ap_int_baseILi96ELb1ELb0EE5writeERKS0_", metadata !152, i32 2532, metadata !546, i1 false, i1 false, i32 0, i32 0, null, i32 256, i1 false, null, null, i32 0, metadata !164, i32 2532} ; [ DW_TAG_subprogram ]
!546 = metadata !{i32 786453, i32 0, metadata !"", i32 0, i32 0, i64 0, i64 0, i64 0, i32 0, null, metadata !547, i32 0, i32 0} ; [ DW_TAG_subroutine_type ]
!547 = metadata !{null, metadata !544, metadata !483}
!548 = metadata !{i32 786478, i32 0, metadata !463, metadata !"operator=", metadata !"operator=", metadata !"_ZNV11ap_int_baseILi96ELb1ELb0EEaSERVKS0_", metadata !152, i32 2544, metadata !549, i1 false, i1 false, i32 0, i32 0, null, i32 256, i1 false, null, null, i32 0, metadata !164, i32 2544} ; [ DW_TAG_subprogram ]
!549 = metadata !{i32 786453, i32 0, metadata !"", i32 0, i32 0, i64 0, i64 0, i64 0, i32 0, null, metadata !550, i32 0, i32 0} ; [ DW_TAG_subroutine_type ]
!550 = metadata !{null, metadata !544, metadata !490}
!551 = metadata !{i32 786478, i32 0, metadata !463, metadata !"operator=", metadata !"operator=", metadata !"_ZNV11ap_int_baseILi96ELb1ELb0EEaSERKS0_", metadata !152, i32 2553, metadata !546, i1 false, i1 false, i32 0, i32 0, null, i32 256, i1 false, null, null, i32 0, metadata !164, i32 2553} ; [ DW_TAG_subprogram ]
!552 = metadata !{i32 786478, i32 0, metadata !463, metadata !"operator=", metadata !"operator=", metadata !"_ZN11ap_int_baseILi96ELb1ELb0EEaSERVKS0_", metadata !152, i32 2576, metadata !553, i1 false, i1 false, i32 0, i32 0, null, i32 256, i1 false, null, null, i32 0, metadata !164, i32 2576} ; [ DW_TAG_subprogram ]
!553 = metadata !{i32 786453, i32 0, metadata !"", i32 0, i32 0, i64 0, i64 0, i64 0, i32 0, null, metadata !554, i32 0, i32 0} ; [ DW_TAG_subroutine_type ]
!554 = metadata !{metadata !462, metadata !479, metadata !490}
!555 = metadata !{i32 786478, i32 0, metadata !463, metadata !"operator=", metadata !"operator=", metadata !"_ZN11ap_int_baseILi96ELb1ELb0EEaSERKS0_", metadata !152, i32 2581, metadata !556, i1 false, i1 false, i32 0, i32 0, null, i32 256, i1 false, null, null, i32 0, metadata !164, i32 2581} ; [ DW_TAG_subprogram ]
!556 = metadata !{i32 786453, i32 0, metadata !"", i32 0, i32 0, i64 0, i64 0, i64 0, i32 0, null, metadata !557, i32 0, i32 0} ; [ DW_TAG_subroutine_type ]
!557 = metadata !{metadata !462, metadata !479, metadata !483}
!558 = metadata !{i32 786478, i32 0, metadata !463, metadata !"operator=", metadata !"operator=", metadata !"_ZN11ap_int_baseILi96ELb1ELb0EEaSEPKc", metadata !152, i32 2585, metadata !559, i1 false, i1 false, i32 0, i32 0, null, i32 256, i1 false, null, null, i32 0, metadata !164, i32 2585} ; [ DW_TAG_subprogram ]
!559 = metadata !{i32 786453, i32 0, metadata !"", i32 0, i32 0, i64 0, i64 0, i64 0, i32 0, null, metadata !560, i32 0, i32 0} ; [ DW_TAG_subroutine_type ]
!560 = metadata !{metadata !462, metadata !479, metadata !249}
!561 = metadata !{i32 786478, i32 0, metadata !463, metadata !"set", metadata !"set", metadata !"_ZN11ap_int_baseILi96ELb1ELb0EE3setEPKca", metadata !152, i32 2593, metadata !562, i1 false, i1 false, i32 0, i32 0, null, i32 256, i1 false, null, null, i32 0, metadata !164, i32 2593} ; [ DW_TAG_subprogram ]
!562 = metadata !{i32 786453, i32 0, metadata !"", i32 0, i32 0, i64 0, i64 0, i64 0, i32 0, null, metadata !563, i32 0, i32 0} ; [ DW_TAG_subroutine_type ]
!563 = metadata !{metadata !462, metadata !479, metadata !249, metadata !195}
!564 = metadata !{i32 786478, i32 0, metadata !463, metadata !"operator=", metadata !"operator=", metadata !"_ZN11ap_int_baseILi96ELb1ELb0EEaSEc", metadata !152, i32 2607, metadata !565, i1 false, i1 false, i32 0, i32 0, null, i32 256, i1 false, null, null, i32 0, metadata !164, i32 2607} ; [ DW_TAG_subprogram ]
!565 = metadata !{i32 786453, i32 0, metadata !"", i32 0, i32 0, i64 0, i64 0, i64 0, i32 0, null, metadata !566, i32 0, i32 0} ; [ DW_TAG_subroutine_type ]
!566 = metadata !{metadata !462, metadata !479, metadata !251}
!567 = metadata !{i32 786478, i32 0, metadata !463, metadata !"operator=", metadata !"operator=", metadata !"_ZN11ap_int_baseILi96ELb1ELb0EEaSEh", metadata !152, i32 2608, metadata !568, i1 false, i1 false, i32 0, i32 0, null, i32 256, i1 false, null, null, i32 0, metadata !164, i32 2608} ; [ DW_TAG_subprogram ]
!568 = metadata !{i32 786453, i32 0, metadata !"", i32 0, i32 0, i64 0, i64 0, i64 0, i32 0, null, metadata !569, i32 0, i32 0} ; [ DW_TAG_subroutine_type ]
!569 = metadata !{metadata !462, metadata !479, metadata !199}
!570 = metadata !{i32 786478, i32 0, metadata !463, metadata !"operator=", metadata !"operator=", metadata !"_ZN11ap_int_baseILi96ELb1ELb0EEaSEs", metadata !152, i32 2609, metadata !571, i1 false, i1 false, i32 0, i32 0, null, i32 256, i1 false, null, null, i32 0, metadata !164, i32 2609} ; [ DW_TAG_subprogram ]
!571 = metadata !{i32 786453, i32 0, metadata !"", i32 0, i32 0, i64 0, i64 0, i64 0, i32 0, null, metadata !572, i32 0, i32 0} ; [ DW_TAG_subroutine_type ]
!572 = metadata !{metadata !462, metadata !479, metadata !203}
!573 = metadata !{i32 786478, i32 0, metadata !463, metadata !"operator=", metadata !"operator=", metadata !"_ZN11ap_int_baseILi96ELb1ELb0EEaSEt", metadata !152, i32 2610, metadata !574, i1 false, i1 false, i32 0, i32 0, null, i32 256, i1 false, null, null, i32 0, metadata !164, i32 2610} ; [ DW_TAG_subprogram ]
!574 = metadata !{i32 786453, i32 0, metadata !"", i32 0, i32 0, i64 0, i64 0, i64 0, i32 0, null, metadata !575, i32 0, i32 0} ; [ DW_TAG_subroutine_type ]
!575 = metadata !{metadata !462, metadata !479, metadata !207}
!576 = metadata !{i32 786478, i32 0, metadata !463, metadata !"operator=", metadata !"operator=", metadata !"_ZN11ap_int_baseILi96ELb1ELb0EEaSEi", metadata !152, i32 2611, metadata !577, i1 false, i1 false, i32 0, i32 0, null, i32 256, i1 false, null, null, i32 0, metadata !164, i32 2611} ; [ DW_TAG_subprogram ]
!577 = metadata !{i32 786453, i32 0, metadata !"", i32 0, i32 0, i64 0, i64 0, i64 0, i32 0, null, metadata !578, i32 0, i32 0} ; [ DW_TAG_subroutine_type ]
!578 = metadata !{metadata !462, metadata !479, metadata !168}
!579 = metadata !{i32 786478, i32 0, metadata !463, metadata !"operator=", metadata !"operator=", metadata !"_ZN11ap_int_baseILi96ELb1ELb0EEaSEj", metadata !152, i32 2612, metadata !580, i1 false, i1 false, i32 0, i32 0, null, i32 256, i1 false, null, null, i32 0, metadata !164, i32 2612} ; [ DW_TAG_subprogram ]
!580 = metadata !{i32 786453, i32 0, metadata !"", i32 0, i32 0, i64 0, i64 0, i64 0, i32 0, null, metadata !581, i32 0, i32 0} ; [ DW_TAG_subroutine_type ]
!581 = metadata !{metadata !462, metadata !479, metadata !214}
!582 = metadata !{i32 786478, i32 0, metadata !463, metadata !"operator=", metadata !"operator=", metadata !"_ZN11ap_int_baseILi96ELb1ELb0EEaSEx", metadata !152, i32 2613, metadata !583, i1 false, i1 false, i32 0, i32 0, null, i32 256, i1 false, null, null, i32 0, metadata !164, i32 2613} ; [ DW_TAG_subprogram ]
!583 = metadata !{i32 786453, i32 0, metadata !"", i32 0, i32 0, i64 0, i64 0, i64 0, i32 0, null, metadata !584, i32 0, i32 0} ; [ DW_TAG_subroutine_type ]
!584 = metadata !{metadata !462, metadata !479, metadata !226}
!585 = metadata !{i32 786478, i32 0, metadata !463, metadata !"operator=", metadata !"operator=", metadata !"_ZN11ap_int_baseILi96ELb1ELb0EEaSEy", metadata !152, i32 2614, metadata !586, i1 false, i1 false, i32 0, i32 0, null, i32 256, i1 false, null, null, i32 0, metadata !164, i32 2614} ; [ DW_TAG_subprogram ]
!586 = metadata !{i32 786453, i32 0, metadata !"", i32 0, i32 0, i64 0, i64 0, i64 0, i32 0, null, metadata !587, i32 0, i32 0} ; [ DW_TAG_subroutine_type ]
!587 = metadata !{metadata !462, metadata !479, metadata !231}
!588 = metadata !{i32 786478, i32 0, metadata !463, metadata !"operator long long", metadata !"operator long long", metadata !"_ZNK11ap_int_baseILi96ELb1ELb0EEcvxEv", metadata !152, i32 2653, metadata !589, i1 false, i1 false, i32 0, i32 0, null, i32 256, i1 false, null, null, i32 0, metadata !164, i32 2653} ; [ DW_TAG_subprogram ]
!589 = metadata !{i32 786453, i32 0, metadata !"", i32 0, i32 0, i64 0, i64 0, i64 0, i32 0, null, metadata !590, i32 0, i32 0} ; [ DW_TAG_subroutine_type ]
!590 = metadata !{metadata !591, metadata !592}
!591 = metadata !{i32 786454, metadata !463, metadata !"RetType", metadata !152, i32 2402, i64 0, i64 0, i64 0, i32 0, metadata !307} ; [ DW_TAG_typedef ]
!592 = metadata !{i32 786447, i32 0, metadata !"", i32 0, i32 0, i64 64, i64 64, i64 0, i32 64, metadata !484} ; [ DW_TAG_pointer_type ]
!593 = metadata !{i32 786478, i32 0, metadata !463, metadata !"to_bool", metadata !"to_bool", metadata !"_ZNK11ap_int_baseILi96ELb1ELb0EE7to_boolEv", metadata !152, i32 2659, metadata !594, i1 false, i1 false, i32 0, i32 0, null, i32 256, i1 false, null, null, i32 0, metadata !164, i32 2659} ; [ DW_TAG_subprogram ]
!594 = metadata !{i32 786453, i32 0, metadata !"", i32 0, i32 0, i64 0, i64 0, i64 0, i32 0, null, metadata !595, i32 0, i32 0} ; [ DW_TAG_subroutine_type ]
!595 = metadata !{metadata !170, metadata !592}
!596 = metadata !{i32 786478, i32 0, metadata !463, metadata !"to_uchar", metadata !"to_uchar", metadata !"_ZNK11ap_int_baseILi96ELb1ELb0EE8to_ucharEv", metadata !152, i32 2660, metadata !594, i1 false, i1 false, i32 0, i32 0, null, i32 256, i1 false, null, null, i32 0, metadata !164, i32 2660} ; [ DW_TAG_subprogram ]
!597 = metadata !{i32 786478, i32 0, metadata !463, metadata !"to_char", metadata !"to_char", metadata !"_ZNK11ap_int_baseILi96ELb1ELb0EE7to_charEv", metadata !152, i32 2661, metadata !594, i1 false, i1 false, i32 0, i32 0, null, i32 256, i1 false, null, null, i32 0, metadata !164, i32 2661} ; [ DW_TAG_subprogram ]
!598 = metadata !{i32 786478, i32 0, metadata !463, metadata !"to_ushort", metadata !"to_ushort", metadata !"_ZNK11ap_int_baseILi96ELb1ELb0EE9to_ushortEv", metadata !152, i32 2662, metadata !594, i1 false, i1 false, i32 0, i32 0, null, i32 256, i1 false, null, null, i32 0, metadata !164, i32 2662} ; [ DW_TAG_subprogram ]
!599 = metadata !{i32 786478, i32 0, metadata !463, metadata !"to_short", metadata !"to_short", metadata !"_ZNK11ap_int_baseILi96ELb1ELb0EE8to_shortEv", metadata !152, i32 2663, metadata !594, i1 false, i1 false, i32 0, i32 0, null, i32 256, i1 false, null, null, i32 0, metadata !164, i32 2663} ; [ DW_TAG_subprogram ]
!600 = metadata !{i32 786478, i32 0, metadata !463, metadata !"to_int", metadata !"to_int", metadata !"_ZNK11ap_int_baseILi96ELb1ELb0EE6to_intEv", metadata !152, i32 2664, metadata !601, i1 false, i1 false, i32 0, i32 0, null, i32 256, i1 false, null, null, i32 0, metadata !164, i32 2664} ; [ DW_TAG_subprogram ]
!601 = metadata !{i32 786453, i32 0, metadata !"", i32 0, i32 0, i64 0, i64 0, i64 0, i32 0, null, metadata !602, i32 0, i32 0} ; [ DW_TAG_subroutine_type ]
!602 = metadata !{metadata !168, metadata !592}
!603 = metadata !{i32 786478, i32 0, metadata !463, metadata !"to_uint", metadata !"to_uint", metadata !"_ZNK11ap_int_baseILi96ELb1ELb0EE7to_uintEv", metadata !152, i32 2665, metadata !604, i1 false, i1 false, i32 0, i32 0, null, i32 256, i1 false, null, null, i32 0, metadata !164, i32 2665} ; [ DW_TAG_subprogram ]
!604 = metadata !{i32 786453, i32 0, metadata !"", i32 0, i32 0, i64 0, i64 0, i64 0, i32 0, null, metadata !605, i32 0, i32 0} ; [ DW_TAG_subroutine_type ]
!605 = metadata !{metadata !214, metadata !592}
!606 = metadata !{i32 786478, i32 0, metadata !463, metadata !"to_long", metadata !"to_long", metadata !"_ZNK11ap_int_baseILi96ELb1ELb0EE7to_longEv", metadata !152, i32 2666, metadata !607, i1 false, i1 false, i32 0, i32 0, null, i32 256, i1 false, null, null, i32 0, metadata !164, i32 2666} ; [ DW_TAG_subprogram ]
!607 = metadata !{i32 786453, i32 0, metadata !"", i32 0, i32 0, i64 0, i64 0, i64 0, i32 0, null, metadata !608, i32 0, i32 0} ; [ DW_TAG_subroutine_type ]
!608 = metadata !{metadata !218, metadata !592}
!609 = metadata !{i32 786478, i32 0, metadata !463, metadata !"to_ulong", metadata !"to_ulong", metadata !"_ZNK11ap_int_baseILi96ELb1ELb0EE8to_ulongEv", metadata !152, i32 2667, metadata !610, i1 false, i1 false, i32 0, i32 0, null, i32 256, i1 false, null, null, i32 0, metadata !164, i32 2667} ; [ DW_TAG_subprogram ]
!610 = metadata !{i32 786453, i32 0, metadata !"", i32 0, i32 0, i64 0, i64 0, i64 0, i32 0, null, metadata !611, i32 0, i32 0} ; [ DW_TAG_subroutine_type ]
!611 = metadata !{metadata !222, metadata !592}
!612 = metadata !{i32 786478, i32 0, metadata !463, metadata !"to_int64", metadata !"to_int64", metadata !"_ZNK11ap_int_baseILi96ELb1ELb0EE8to_int64Ev", metadata !152, i32 2668, metadata !613, i1 false, i1 false, i32 0, i32 0, null, i32 256, i1 false, null, null, i32 0, metadata !164, i32 2668} ; [ DW_TAG_subprogram ]
!613 = metadata !{i32 786453, i32 0, metadata !"", i32 0, i32 0, i64 0, i64 0, i64 0, i32 0, null, metadata !614, i32 0, i32 0} ; [ DW_TAG_subroutine_type ]
!614 = metadata !{metadata !226, metadata !592}
!615 = metadata !{i32 786478, i32 0, metadata !463, metadata !"to_uint64", metadata !"to_uint64", metadata !"_ZNK11ap_int_baseILi96ELb1ELb0EE9to_uint64Ev", metadata !152, i32 2669, metadata !616, i1 false, i1 false, i32 0, i32 0, null, i32 256, i1 false, null, null, i32 0, metadata !164, i32 2669} ; [ DW_TAG_subprogram ]
!616 = metadata !{i32 786453, i32 0, metadata !"", i32 0, i32 0, i64 0, i64 0, i64 0, i32 0, null, metadata !617, i32 0, i32 0} ; [ DW_TAG_subroutine_type ]
!617 = metadata !{metadata !231, metadata !592}
!618 = metadata !{i32 786478, i32 0, metadata !463, metadata !"to_double", metadata !"to_double", metadata !"_ZNK11ap_int_baseILi96ELb1ELb0EE9to_doubleEv", metadata !152, i32 2670, metadata !619, i1 false, i1 false, i32 0, i32 0, null, i32 256, i1 false, null, null, i32 0, metadata !164, i32 2670} ; [ DW_TAG_subprogram ]
!619 = metadata !{i32 786453, i32 0, metadata !"", i32 0, i32 0, i64 0, i64 0, i64 0, i32 0, null, metadata !620, i32 0, i32 0} ; [ DW_TAG_subroutine_type ]
!620 = metadata !{metadata !245, metadata !592}
!621 = metadata !{i32 786478, i32 0, metadata !463, metadata !"length", metadata !"length", metadata !"_ZNK11ap_int_baseILi96ELb1ELb0EE6lengthEv", metadata !152, i32 2683, metadata !601, i1 false, i1 false, i32 0, i32 0, null, i32 256, i1 false, null, null, i32 0, metadata !164, i32 2683} ; [ DW_TAG_subprogram ]
!622 = metadata !{i32 786478, i32 0, metadata !463, metadata !"length", metadata !"length", metadata !"_ZNVK11ap_int_baseILi96ELb1ELb0EE6lengthEv", metadata !152, i32 2684, metadata !623, i1 false, i1 false, i32 0, i32 0, null, i32 256, i1 false, null, null, i32 0, metadata !164, i32 2684} ; [ DW_TAG_subprogram ]
!623 = metadata !{i32 786453, i32 0, metadata !"", i32 0, i32 0, i64 0, i64 0, i64 0, i32 0, null, metadata !624, i32 0, i32 0} ; [ DW_TAG_subroutine_type ]
!624 = metadata !{metadata !168, metadata !625}
!625 = metadata !{i32 786447, i32 0, metadata !"", i32 0, i32 0, i64 64, i64 64, i64 0, i32 64, metadata !491} ; [ DW_TAG_pointer_type ]
!626 = metadata !{i32 786478, i32 0, metadata !463, metadata !"reverse", metadata !"reverse", metadata !"_ZN11ap_int_baseILi96ELb1ELb0EE7reverseEv", metadata !152, i32 2689, metadata !627, i1 false, i1 false, i32 0, i32 0, null, i32 256, i1 false, null, null, i32 0, metadata !164, i32 2689} ; [ DW_TAG_subprogram ]
!627 = metadata !{i32 786453, i32 0, metadata !"", i32 0, i32 0, i64 0, i64 0, i64 0, i32 0, null, metadata !628, i32 0, i32 0} ; [ DW_TAG_subroutine_type ]
!628 = metadata !{metadata !462, metadata !479}
!629 = metadata !{i32 786478, i32 0, metadata !463, metadata !"iszero", metadata !"iszero", metadata !"_ZNK11ap_int_baseILi96ELb1ELb0EE6iszeroEv", metadata !152, i32 2695, metadata !594, i1 false, i1 false, i32 0, i32 0, null, i32 256, i1 false, null, null, i32 0, metadata !164, i32 2695} ; [ DW_TAG_subprogram ]
!630 = metadata !{i32 786478, i32 0, metadata !463, metadata !"is_zero", metadata !"is_zero", metadata !"_ZNK11ap_int_baseILi96ELb1ELb0EE7is_zeroEv", metadata !152, i32 2700, metadata !594, i1 false, i1 false, i32 0, i32 0, null, i32 256, i1 false, null, null, i32 0, metadata !164, i32 2700} ; [ DW_TAG_subprogram ]
!631 = metadata !{i32 786478, i32 0, metadata !463, metadata !"sign", metadata !"sign", metadata !"_ZNK11ap_int_baseILi96ELb1ELb0EE4signEv", metadata !152, i32 2705, metadata !594, i1 false, i1 false, i32 0, i32 0, null, i32 256, i1 false, null, null, i32 0, metadata !164, i32 2705} ; [ DW_TAG_subprogram ]
!632 = metadata !{i32 786478, i32 0, metadata !463, metadata !"clear", metadata !"clear", metadata !"_ZN11ap_int_baseILi96ELb1ELb0EE5clearEi", metadata !152, i32 2713, metadata !509, i1 false, i1 false, i32 0, i32 0, null, i32 256, i1 false, null, null, i32 0, metadata !164, i32 2713} ; [ DW_TAG_subprogram ]
!633 = metadata !{i32 786478, i32 0, metadata !463, metadata !"invert", metadata !"invert", metadata !"_ZN11ap_int_baseILi96ELb1ELb0EE6invertEi", metadata !152, i32 2719, metadata !509, i1 false, i1 false, i32 0, i32 0, null, i32 256, i1 false, null, null, i32 0, metadata !164, i32 2719} ; [ DW_TAG_subprogram ]
!634 = metadata !{i32 786478, i32 0, metadata !463, metadata !"test", metadata !"test", metadata !"_ZNK11ap_int_baseILi96ELb1ELb0EE4testEi", metadata !152, i32 2727, metadata !635, i1 false, i1 false, i32 0, i32 0, null, i32 256, i1 false, null, null, i32 0, metadata !164, i32 2727} ; [ DW_TAG_subprogram ]
!635 = metadata !{i32 786453, i32 0, metadata !"", i32 0, i32 0, i64 0, i64 0, i64 0, i32 0, null, metadata !636, i32 0, i32 0} ; [ DW_TAG_subroutine_type ]
!636 = metadata !{metadata !170, metadata !592, metadata !168}
!637 = metadata !{i32 786478, i32 0, metadata !463, metadata !"set", metadata !"set", metadata !"_ZN11ap_int_baseILi96ELb1ELb0EE3setEi", metadata !152, i32 2733, metadata !509, i1 false, i1 false, i32 0, i32 0, null, i32 256, i1 false, null, null, i32 0, metadata !164, i32 2733} ; [ DW_TAG_subprogram ]
!638 = metadata !{i32 786478, i32 0, metadata !463, metadata !"set", metadata !"set", metadata !"_ZN11ap_int_baseILi96ELb1ELb0EE3setEib", metadata !152, i32 2739, metadata !639, i1 false, i1 false, i32 0, i32 0, null, i32 256, i1 false, null, null, i32 0, metadata !164, i32 2739} ; [ DW_TAG_subprogram ]
!639 = metadata !{i32 786453, i32 0, metadata !"", i32 0, i32 0, i64 0, i64 0, i64 0, i32 0, null, metadata !640, i32 0, i32 0} ; [ DW_TAG_subroutine_type ]
!640 = metadata !{null, metadata !479, metadata !168, metadata !170}
!641 = metadata !{i32 786478, i32 0, metadata !463, metadata !"lrotate", metadata !"lrotate", metadata !"_ZN11ap_int_baseILi96ELb1ELb0EE7lrotateEi", metadata !152, i32 2746, metadata !509, i1 false, i1 false, i32 0, i32 0, null, i32 256, i1 false, null, null, i32 0, metadata !164, i32 2746} ; [ DW_TAG_subprogram ]
!642 = metadata !{i32 786478, i32 0, metadata !463, metadata !"rrotate", metadata !"rrotate", metadata !"_ZN11ap_int_baseILi96ELb1ELb0EE7rrotateEi", metadata !152, i32 2755, metadata !509, i1 false, i1 false, i32 0, i32 0, null, i32 256, i1 false, null, null, i32 0, metadata !164, i32 2755} ; [ DW_TAG_subprogram ]
!643 = metadata !{i32 786478, i32 0, metadata !463, metadata !"set_bit", metadata !"set_bit", metadata !"_ZN11ap_int_baseILi96ELb1ELb0EE7set_bitEib", metadata !152, i32 2763, metadata !639, i1 false, i1 false, i32 0, i32 0, null, i32 256, i1 false, null, null, i32 0, metadata !164, i32 2763} ; [ DW_TAG_subprogram ]
!644 = metadata !{i32 786478, i32 0, metadata !463, metadata !"get_bit", metadata !"get_bit", metadata !"_ZNK11ap_int_baseILi96ELb1ELb0EE7get_bitEi", metadata !152, i32 2768, metadata !635, i1 false, i1 false, i32 0, i32 0, null, i32 256, i1 false, null, null, i32 0, metadata !164, i32 2768} ; [ DW_TAG_subprogram ]
!645 = metadata !{i32 786478, i32 0, metadata !463, metadata !"b_not", metadata !"b_not", metadata !"_ZN11ap_int_baseILi96ELb1ELb0EE5b_notEv", metadata !152, i32 2773, metadata !477, i1 false, i1 false, i32 0, i32 0, null, i32 256, i1 false, null, null, i32 0, metadata !164, i32 2773} ; [ DW_TAG_subprogram ]
!646 = metadata !{i32 786478, i32 0, metadata !463, metadata !"countLeadingZeros", metadata !"countLeadingZeros", metadata !"_ZN11ap_int_baseILi96ELb1ELb0EE17countLeadingZerosEv", metadata !152, i32 2780, metadata !647, i1 false, i1 false, i32 0, i32 0, null, i32 256, i1 false, null, null, i32 0, metadata !164, i32 2780} ; [ DW_TAG_subprogram ]
!647 = metadata !{i32 786453, i32 0, metadata !"", i32 0, i32 0, i64 0, i64 0, i64 0, i32 0, null, metadata !648, i32 0, i32 0} ; [ DW_TAG_subroutine_type ]
!648 = metadata !{metadata !168, metadata !479}
!649 = metadata !{i32 786478, i32 0, metadata !463, metadata !"operator++", metadata !"operator++", metadata !"_ZN11ap_int_baseILi96ELb1ELb0EEppEv", metadata !152, i32 2837, metadata !627, i1 false, i1 false, i32 0, i32 0, null, i32 256, i1 false, null, null, i32 0, metadata !164, i32 2837} ; [ DW_TAG_subprogram ]
!650 = metadata !{i32 786478, i32 0, metadata !463, metadata !"operator--", metadata !"operator--", metadata !"_ZN11ap_int_baseILi96ELb1ELb0EEmmEv", metadata !152, i32 2841, metadata !627, i1 false, i1 false, i32 0, i32 0, null, i32 256, i1 false, null, null, i32 0, metadata !164, i32 2841} ; [ DW_TAG_subprogram ]
!651 = metadata !{i32 786478, i32 0, metadata !463, metadata !"operator++", metadata !"operator++", metadata !"_ZN11ap_int_baseILi96ELb1ELb0EEppEi", metadata !152, i32 2849, metadata !652, i1 false, i1 false, i32 0, i32 0, null, i32 256, i1 false, null, null, i32 0, metadata !164, i32 2849} ; [ DW_TAG_subprogram ]
!652 = metadata !{i32 786453, i32 0, metadata !"", i32 0, i32 0, i64 0, i64 0, i64 0, i32 0, null, metadata !653, i32 0, i32 0} ; [ DW_TAG_subroutine_type ]
!653 = metadata !{metadata !484, metadata !479, metadata !168}
!654 = metadata !{i32 786478, i32 0, metadata !463, metadata !"operator--", metadata !"operator--", metadata !"_ZN11ap_int_baseILi96ELb1ELb0EEmmEi", metadata !152, i32 2854, metadata !652, i1 false, i1 false, i32 0, i32 0, null, i32 256, i1 false, null, null, i32 0, metadata !164, i32 2854} ; [ DW_TAG_subprogram ]
!655 = metadata !{i32 786478, i32 0, metadata !463, metadata !"operator+", metadata !"operator+", metadata !"_ZNK11ap_int_baseILi96ELb1ELb0EEpsEv", metadata !152, i32 2863, metadata !656, i1 false, i1 false, i32 0, i32 0, null, i32 256, i1 false, null, null, i32 0, metadata !164, i32 2863} ; [ DW_TAG_subprogram ]
!656 = metadata !{i32 786453, i32 0, metadata !"", i32 0, i32 0, i64 0, i64 0, i64 0, i32 0, null, metadata !657, i32 0, i32 0} ; [ DW_TAG_subroutine_type ]
!657 = metadata !{metadata !463, metadata !592}
!658 = metadata !{i32 786478, i32 0, metadata !463, metadata !"operator-", metadata !"operator-", metadata !"_ZNK11ap_int_baseILi96ELb1ELb0EEngEv", metadata !152, i32 2867, metadata !659, i1 false, i1 false, i32 0, i32 0, null, i32 256, i1 false, null, null, i32 0, metadata !164, i32 2867} ; [ DW_TAG_subprogram ]
!659 = metadata !{i32 786453, i32 0, metadata !"", i32 0, i32 0, i64 0, i64 0, i64 0, i32 0, null, metadata !660, i32 0, i32 0} ; [ DW_TAG_subroutine_type ]
!660 = metadata !{metadata !661, metadata !592}
!661 = metadata !{i32 786454, metadata !662, metadata !"minus", metadata !152, i32 2425, i64 0, i64 0, i64 0, i32 0, metadata !666} ; [ DW_TAG_typedef ]
!662 = metadata !{i32 786434, metadata !463, metadata !"RType<1, false>", metadata !152, i32 2407, i64 8, i64 8, i32 0, i32 0, null, metadata !309, i32 0, null, metadata !663} ; [ DW_TAG_class_type ]
!663 = metadata !{metadata !664, metadata !665}
!664 = metadata !{i32 786480, null, metadata !"_AP_W2", metadata !168, i64 1, null, i32 0, i32 0} ; [ DW_TAG_template_value_parameter ]
!665 = metadata !{i32 786480, null, metadata !"_AP_S2", metadata !170, i64 0, null, i32 0, i32 0} ; [ DW_TAG_template_value_parameter ]
!666 = metadata !{i32 786434, null, metadata !"ap_int_base<97, true, false>", metadata !152, i32 651, i64 0, i64 0, i32 0, i32 4, null, null, i32 0, null, metadata !667} ; [ DW_TAG_class_type ]
!667 = metadata !{metadata !668, metadata !169, metadata !669}
!668 = metadata !{i32 786480, null, metadata !"_AP_W", metadata !168, i64 97, null, i32 0, i32 0} ; [ DW_TAG_template_value_parameter ]
!669 = metadata !{i32 786480, null, metadata !"_AP_C", metadata !170, i64 0, null, i32 0, i32 0} ; [ DW_TAG_template_value_parameter ]
!670 = metadata !{i32 786478, i32 0, metadata !463, metadata !"operator!", metadata !"operator!", metadata !"_ZNK11ap_int_baseILi96ELb1ELb0EEntEv", metadata !152, i32 2874, metadata !594, i1 false, i1 false, i32 0, i32 0, null, i32 256, i1 false, null, null, i32 0, metadata !164, i32 2874} ; [ DW_TAG_subprogram ]
!671 = metadata !{i32 786478, i32 0, metadata !463, metadata !"operator~", metadata !"operator~", metadata !"_ZNK11ap_int_baseILi96ELb1ELb0EEcoEv", metadata !152, i32 2881, metadata !656, i1 false, i1 false, i32 0, i32 0, null, i32 256, i1 false, null, null, i32 0, metadata !164, i32 2881} ; [ DW_TAG_subprogram ]
!672 = metadata !{i32 786478, i32 0, metadata !463, metadata !"range", metadata !"range", metadata !"_ZN11ap_int_baseILi96ELb1ELb0EE5rangeEii", metadata !152, i32 3008, metadata !673, i1 false, i1 false, i32 0, i32 0, null, i32 256, i1 false, null, null, i32 0, metadata !164, i32 3008} ; [ DW_TAG_subprogram ]
!673 = metadata !{i32 786453, i32 0, metadata !"", i32 0, i32 0, i64 0, i64 0, i64 0, i32 0, null, metadata !674, i32 0, i32 0} ; [ DW_TAG_subroutine_type ]
!674 = metadata !{metadata !459, metadata !479, metadata !168, metadata !168}
!675 = metadata !{i32 786478, i32 0, metadata !463, metadata !"operator()", metadata !"operator()", metadata !"_ZN11ap_int_baseILi96ELb1ELb0EEclEii", metadata !152, i32 3014, metadata !673, i1 false, i1 false, i32 0, i32 0, null, i32 256, i1 false, null, null, i32 0, metadata !164, i32 3014} ; [ DW_TAG_subprogram ]
!676 = metadata !{i32 786478, i32 0, metadata !463, metadata !"range", metadata !"range", metadata !"_ZNK11ap_int_baseILi96ELb1ELb0EE5rangeEii", metadata !152, i32 3020, metadata !677, i1 false, i1 false, i32 0, i32 0, null, i32 256, i1 false, null, null, i32 0, metadata !164, i32 3020} ; [ DW_TAG_subprogram ]
!677 = metadata !{i32 786453, i32 0, metadata !"", i32 0, i32 0, i64 0, i64 0, i64 0, i32 0, null, metadata !678, i32 0, i32 0} ; [ DW_TAG_subroutine_type ]
!678 = metadata !{metadata !459, metadata !592, metadata !168, metadata !168}
!679 = metadata !{i32 786478, i32 0, metadata !463, metadata !"operator()", metadata !"operator()", metadata !"_ZNK11ap_int_baseILi96ELb1ELb0EEclEii", metadata !152, i32 3026, metadata !677, i1 false, i1 false, i32 0, i32 0, null, i32 256, i1 false, null, null, i32 0, metadata !164, i32 3026} ; [ DW_TAG_subprogram ]
!680 = metadata !{i32 786478, i32 0, metadata !463, metadata !"operator[]", metadata !"operator[]", metadata !"_ZN11ap_int_baseILi96ELb1ELb0EEixEi", metadata !152, i32 3046, metadata !681, i1 false, i1 false, i32 0, i32 0, null, i32 256, i1 false, null, null, i32 0, metadata !164, i32 3046} ; [ DW_TAG_subprogram ]
!681 = metadata !{i32 786453, i32 0, metadata !"", i32 0, i32 0, i64 0, i64 0, i64 0, i32 0, null, metadata !682, i32 0, i32 0} ; [ DW_TAG_subroutine_type ]
!682 = metadata !{metadata !683, metadata !479, metadata !168}
!683 = metadata !{i32 786434, null, metadata !"ap_bit_ref<96, true>", metadata !152, i32 1249, i64 0, i64 0, i32 0, i32 4, null, null, i32 0, null, metadata !684} ; [ DW_TAG_class_type ]
!684 = metadata !{metadata !685, metadata !169}
!685 = metadata !{i32 786480, null, metadata !"_AP_W", metadata !168, i64 96, null, i32 0, i32 0} ; [ DW_TAG_template_value_parameter ]
!686 = metadata !{i32 786478, i32 0, metadata !463, metadata !"operator[]", metadata !"operator[]", metadata !"_ZNK11ap_int_baseILi96ELb1ELb0EEixEi", metadata !152, i32 3060, metadata !635, i1 false, i1 false, i32 0, i32 0, null, i32 256, i1 false, null, null, i32 0, metadata !164, i32 3060} ; [ DW_TAG_subprogram ]
!687 = metadata !{i32 786478, i32 0, metadata !463, metadata !"bit", metadata !"bit", metadata !"_ZN11ap_int_baseILi96ELb1ELb0EE3bitEi", metadata !152, i32 3074, metadata !681, i1 false, i1 false, i32 0, i32 0, null, i32 256, i1 false, null, null, i32 0, metadata !164, i32 3074} ; [ DW_TAG_subprogram ]
!688 = metadata !{i32 786478, i32 0, metadata !463, metadata !"bit", metadata !"bit", metadata !"_ZNK11ap_int_baseILi96ELb1ELb0EE3bitEi", metadata !152, i32 3088, metadata !635, i1 false, i1 false, i32 0, i32 0, null, i32 256, i1 false, null, null, i32 0, metadata !164, i32 3088} ; [ DW_TAG_subprogram ]
!689 = metadata !{i32 786478, i32 0, metadata !463, metadata !"and_reduce", metadata !"and_reduce", metadata !"_ZN11ap_int_baseILi96ELb1ELb0EE10and_reduceEv", metadata !152, i32 3268, metadata !690, i1 false, i1 false, i32 0, i32 0, null, i32 256, i1 false, null, null, i32 0, metadata !164, i32 3268} ; [ DW_TAG_subprogram ]
!690 = metadata !{i32 786453, i32 0, metadata !"", i32 0, i32 0, i64 0, i64 0, i64 0, i32 0, null, metadata !691, i32 0, i32 0} ; [ DW_TAG_subroutine_type ]
!691 = metadata !{metadata !170, metadata !479}
!692 = metadata !{i32 786478, i32 0, metadata !463, metadata !"nand_reduce", metadata !"nand_reduce", metadata !"_ZN11ap_int_baseILi96ELb1ELb0EE11nand_reduceEv", metadata !152, i32 3271, metadata !690, i1 false, i1 false, i32 0, i32 0, null, i32 256, i1 false, null, null, i32 0, metadata !164, i32 3271} ; [ DW_TAG_subprogram ]
!693 = metadata !{i32 786478, i32 0, metadata !463, metadata !"or_reduce", metadata !"or_reduce", metadata !"_ZN11ap_int_baseILi96ELb1ELb0EE9or_reduceEv", metadata !152, i32 3274, metadata !690, i1 false, i1 false, i32 0, i32 0, null, i32 256, i1 false, null, null, i32 0, metadata !164, i32 3274} ; [ DW_TAG_subprogram ]
!694 = metadata !{i32 786478, i32 0, metadata !463, metadata !"nor_reduce", metadata !"nor_reduce", metadata !"_ZN11ap_int_baseILi96ELb1ELb0EE10nor_reduceEv", metadata !152, i32 3277, metadata !690, i1 false, i1 false, i32 0, i32 0, null, i32 256, i1 false, null, null, i32 0, metadata !164, i32 3277} ; [ DW_TAG_subprogram ]
!695 = metadata !{i32 786478, i32 0, metadata !463, metadata !"xor_reduce", metadata !"xor_reduce", metadata !"_ZN11ap_int_baseILi96ELb1ELb0EE10xor_reduceEv", metadata !152, i32 3280, metadata !690, i1 false, i1 false, i32 0, i32 0, null, i32 256, i1 false, null, null, i32 0, metadata !164, i32 3280} ; [ DW_TAG_subprogram ]
!696 = metadata !{i32 786478, i32 0, metadata !463, metadata !"xnor_reduce", metadata !"xnor_reduce", metadata !"_ZN11ap_int_baseILi96ELb1ELb0EE11xnor_reduceEv", metadata !152, i32 3283, metadata !690, i1 false, i1 false, i32 0, i32 0, null, i32 256, i1 false, null, null, i32 0, metadata !164, i32 3283} ; [ DW_TAG_subprogram ]
!697 = metadata !{i32 786478, i32 0, metadata !463, metadata !"and_reduce", metadata !"and_reduce", metadata !"_ZNK11ap_int_baseILi96ELb1ELb0EE10and_reduceEv", metadata !152, i32 3287, metadata !594, i1 false, i1 false, i32 0, i32 0, null, i32 256, i1 false, null, null, i32 0, metadata !164, i32 3287} ; [ DW_TAG_subprogram ]
!698 = metadata !{i32 786478, i32 0, metadata !463, metadata !"nand_reduce", metadata !"nand_reduce", metadata !"_ZNK11ap_int_baseILi96ELb1ELb0EE11nand_reduceEv", metadata !152, i32 3290, metadata !594, i1 false, i1 false, i32 0, i32 0, null, i32 256, i1 false, null, null, i32 0, metadata !164, i32 3290} ; [ DW_TAG_subprogram ]
!699 = metadata !{i32 786478, i32 0, metadata !463, metadata !"or_reduce", metadata !"or_reduce", metadata !"_ZNK11ap_int_baseILi96ELb1ELb0EE9or_reduceEv", metadata !152, i32 3293, metadata !594, i1 false, i1 false, i32 0, i32 0, null, i32 256, i1 false, null, null, i32 0, metadata !164, i32 3293} ; [ DW_TAG_subprogram ]
!700 = metadata !{i32 786478, i32 0, metadata !463, metadata !"nor_reduce", metadata !"nor_reduce", metadata !"_ZNK11ap_int_baseILi96ELb1ELb0EE10nor_reduceEv", metadata !152, i32 3296, metadata !594, i1 false, i1 false, i32 0, i32 0, null, i32 256, i1 false, null, null, i32 0, metadata !164, i32 3296} ; [ DW_TAG_subprogram ]
!701 = metadata !{i32 786478, i32 0, metadata !463, metadata !"xor_reduce", metadata !"xor_reduce", metadata !"_ZNK11ap_int_baseILi96ELb1ELb0EE10xor_reduceEv", metadata !152, i32 3299, metadata !594, i1 false, i1 false, i32 0, i32 0, null, i32 256, i1 false, null, null, i32 0, metadata !164, i32 3299} ; [ DW_TAG_subprogram ]
!702 = metadata !{i32 786478, i32 0, metadata !463, metadata !"xnor_reduce", metadata !"xnor_reduce", metadata !"_ZNK11ap_int_baseILi96ELb1ELb0EE11xnor_reduceEv", metadata !152, i32 3302, metadata !594, i1 false, i1 false, i32 0, i32 0, null, i32 256, i1 false, null, null, i32 0, metadata !164, i32 3302} ; [ DW_TAG_subprogram ]
!703 = metadata !{i32 786478, i32 0, metadata !463, metadata !"to_string", metadata !"to_string", metadata !"_ZNK11ap_int_baseILi96ELb1ELb0EE9to_stringEPci8BaseModeb", metadata !152, i32 3309, metadata !704, i1 false, i1 false, i32 0, i32 0, null, i32 256, i1 false, null, null, i32 0, metadata !164, i32 3309} ; [ DW_TAG_subprogram ]
!704 = metadata !{i32 786453, i32 0, metadata !"", i32 0, i32 0, i64 0, i64 0, i64 0, i32 0, null, metadata !705, i32 0, i32 0} ; [ DW_TAG_subroutine_type ]
!705 = metadata !{null, metadata !592, metadata !423, metadata !168, metadata !424, metadata !170}
!706 = metadata !{i32 786478, i32 0, metadata !463, metadata !"to_string", metadata !"to_string", metadata !"_ZNK11ap_int_baseILi96ELb1ELb0EE9to_stringE8BaseModeb", metadata !152, i32 3336, metadata !707, i1 false, i1 false, i32 0, i32 0, null, i32 256, i1 false, null, null, i32 0, metadata !164, i32 3336} ; [ DW_TAG_subprogram ]
!707 = metadata !{i32 786453, i32 0, metadata !"", i32 0, i32 0, i64 0, i64 0, i64 0, i32 0, null, metadata !708, i32 0, i32 0} ; [ DW_TAG_subroutine_type ]
!708 = metadata !{metadata !423, metadata !592, metadata !424, metadata !170}
!709 = metadata !{i32 786478, i32 0, metadata !463, metadata !"to_string", metadata !"to_string", metadata !"_ZNK11ap_int_baseILi96ELb1ELb0EE9to_stringEab", metadata !152, i32 3340, metadata !710, i1 false, i1 false, i32 0, i32 0, null, i32 256, i1 false, null, null, i32 0, metadata !164, i32 3340} ; [ DW_TAG_subprogram ]
!710 = metadata !{i32 786453, i32 0, metadata !"", i32 0, i32 0, i64 0, i64 0, i64 0, i32 0, null, metadata !711, i32 0, i32 0} ; [ DW_TAG_subroutine_type ]
!711 = metadata !{metadata !423, metadata !592, metadata !195, metadata !170}
!712 = metadata !{metadata !685, metadata !169, metadata !669}
!713 = metadata !{i32 786445, metadata !459, metadata !"l_index", metadata !152, i32 927, i64 32, i64 32, i64 64, i32 0, metadata !168} ; [ DW_TAG_member ]
!714 = metadata !{i32 786445, metadata !459, metadata !"h_index", metadata !152, i32 928, i64 32, i64 32, i64 96, i32 0, metadata !168} ; [ DW_TAG_member ]
!715 = metadata !{i32 786478, i32 0, metadata !459, metadata !"ap_range_ref", metadata !"ap_range_ref", metadata !"", metadata !152, i32 931, metadata !716, i1 false, i1 false, i32 0, i32 0, null, i32 256, i1 false, null, null, i32 0, metadata !164, i32 931} ; [ DW_TAG_subprogram ]
!716 = metadata !{i32 786453, i32 0, metadata !"", i32 0, i32 0, i64 0, i64 0, i64 0, i32 0, null, metadata !717, i32 0, i32 0} ; [ DW_TAG_subroutine_type ]
!717 = metadata !{null, metadata !718, metadata !457}
!718 = metadata !{i32 786447, i32 0, metadata !"", i32 0, i32 0, i64 64, i64 64, i64 0, i32 64, metadata !459} ; [ DW_TAG_pointer_type ]
!719 = metadata !{i32 786478, i32 0, metadata !459, metadata !"ap_range_ref", metadata !"ap_range_ref", metadata !"", metadata !152, i32 934, metadata !720, i1 false, i1 false, i32 0, i32 0, null, i32 256, i1 false, null, null, i32 0, metadata !164, i32 934} ; [ DW_TAG_subprogram ]
!720 = metadata !{i32 786453, i32 0, metadata !"", i32 0, i32 0, i64 0, i64 0, i64 0, i32 0, null, metadata !721, i32 0, i32 0} ; [ DW_TAG_subroutine_type ]
!721 = metadata !{null, metadata !718, metadata !722, metadata !168, metadata !168}
!722 = metadata !{i32 786447, null, metadata !"", null, i32 0, i64 64, i64 64, i64 0, i32 0, metadata !463} ; [ DW_TAG_pointer_type ]
!723 = metadata !{i32 786478, i32 0, metadata !459, metadata !"operator ap_int_base", metadata !"operator ap_int_base", metadata !"_ZNK12ap_range_refILi96ELb1EEcv11ap_int_baseILi96ELb0ELb0EEEv", metadata !152, i32 939, metadata !724, i1 false, i1 false, i32 0, i32 0, null, i32 256, i1 false, null, null, i32 0, metadata !164, i32 939} ; [ DW_TAG_subprogram ]
!724 = metadata !{i32 786453, i32 0, metadata !"", i32 0, i32 0, i64 0, i64 0, i64 0, i32 0, null, metadata !725, i32 0, i32 0} ; [ DW_TAG_subroutine_type ]
!725 = metadata !{metadata !726, metadata !967}
!726 = metadata !{i32 786434, null, metadata !"ap_int_base<96, false, false>", metadata !152, i32 2398, i64 128, i64 64, i32 0, i32 0, null, metadata !727, i32 0, null, metadata !966} ; [ DW_TAG_class_type ]
!727 = metadata !{metadata !728, metadata !739, metadata !743, metadata !746, metadata !749, metadata !752, metadata !755, metadata !758, metadata !761, metadata !764, metadata !767, metadata !770, metadata !773, metadata !776, metadata !779, metadata !782, metadata !785, metadata !788, metadata !791, metadata !796, metadata !801, metadata !806, metadata !807, metadata !811, metadata !814, metadata !817, metadata !820, metadata !823, metadata !826, metadata !829, metadata !832, metadata !835, metadata !838, metadata !841, metadata !844, metadata !852, metadata !855, metadata !856, metadata !857, metadata !858, metadata !859, metadata !862, metadata !865, metadata !868, metadata !871, metadata !874, metadata !877, metadata !880, metadata !881, metadata !885, metadata !888, metadata !889, metadata !890, metadata !891, metadata !892, metadata !893, metadata !896, metadata !897, metadata !900, metadata !901, metadata !902, metadata !903, metadata !904, metadata !905, metadata !908, metadata !909, metadata !910, metadata !913, metadata !914, metadata !917, metadata !922, metadata !923, metadata !926, metadata !931, metadata !932, metadata !935, metadata !936, metadata !940, metadata !941, metadata !942, metadata !943, metadata !946, metadata !947, metadata !948, metadata !949, metadata !950, metadata !951, metadata !952, metadata !953, metadata !954, metadata !955, metadata !956, metadata !957, metadata !960, metadata !963}
!728 = metadata !{i32 786460, metadata !726, null, metadata !152, i32 0, i64 0, i64 0, i64 0, i32 0, metadata !729} ; [ DW_TAG_inheritance ]
!729 = metadata !{i32 786434, null, metadata !"ssdm_int<96 + 1024 * 0, false>", metadata !156, i32 104, i64 128, i64 64, i32 0, i32 0, null, metadata !730, i32 0, null, metadata !737} ; [ DW_TAG_class_type ]
!730 = metadata !{metadata !731, metadata !733}
!731 = metadata !{i32 786445, metadata !729, metadata !"V", metadata !156, i32 104, i64 96, i64 64, i64 0, i32 0, metadata !732} ; [ DW_TAG_member ]
!732 = metadata !{i32 786468, null, metadata !"uint96", null, i32 0, i64 96, i64 64, i64 0, i32 0, i32 7} ; [ DW_TAG_base_type ]
!733 = metadata !{i32 786478, i32 0, metadata !729, metadata !"ssdm_int", metadata !"ssdm_int", metadata !"", metadata !156, i32 104, metadata !734, i1 false, i1 false, i32 0, i32 0, null, i32 256, i1 false, null, null, i32 0, metadata !164, i32 104} ; [ DW_TAG_subprogram ]
!734 = metadata !{i32 786453, i32 0, metadata !"", i32 0, i32 0, i64 0, i64 0, i64 0, i32 0, null, metadata !735, i32 0, i32 0} ; [ DW_TAG_subroutine_type ]
!735 = metadata !{null, metadata !736}
!736 = metadata !{i32 786447, i32 0, metadata !"", i32 0, i32 0, i64 64, i64 64, i64 0, i32 64, metadata !729} ; [ DW_TAG_pointer_type ]
!737 = metadata !{metadata !475, metadata !738}
!738 = metadata !{i32 786480, null, metadata !"_AP_S", metadata !170, i64 0, null, i32 0, i32 0} ; [ DW_TAG_template_value_parameter ]
!739 = metadata !{i32 786478, i32 0, metadata !726, metadata !"ap_int_base", metadata !"ap_int_base", metadata !"", metadata !152, i32 2436, metadata !740, i1 false, i1 false, i32 0, i32 0, null, i32 256, i1 false, null, null, i32 0, metadata !164, i32 2436} ; [ DW_TAG_subprogram ]
!740 = metadata !{i32 786453, i32 0, metadata !"", i32 0, i32 0, i64 0, i64 0, i64 0, i32 0, null, metadata !741, i32 0, i32 0} ; [ DW_TAG_subroutine_type ]
!741 = metadata !{null, metadata !742}
!742 = metadata !{i32 786447, i32 0, metadata !"", i32 0, i32 0, i64 64, i64 64, i64 0, i32 64, metadata !726} ; [ DW_TAG_pointer_type ]
!743 = metadata !{i32 786478, i32 0, metadata !726, metadata !"ap_int_base", metadata !"ap_int_base", metadata !"", metadata !152, i32 2458, metadata !744, i1 false, i1 false, i32 0, i32 0, null, i32 384, i1 false, null, null, i32 0, metadata !164, i32 2458} ; [ DW_TAG_subprogram ]
!744 = metadata !{i32 786453, i32 0, metadata !"", i32 0, i32 0, i64 0, i64 0, i64 0, i32 0, null, metadata !745, i32 0, i32 0} ; [ DW_TAG_subroutine_type ]
!745 = metadata !{null, metadata !742, metadata !170}
!746 = metadata !{i32 786478, i32 0, metadata !726, metadata !"ap_int_base", metadata !"ap_int_base", metadata !"", metadata !152, i32 2459, metadata !747, i1 false, i1 false, i32 0, i32 0, null, i32 384, i1 false, null, null, i32 0, metadata !164, i32 2459} ; [ DW_TAG_subprogram ]
!747 = metadata !{i32 786453, i32 0, metadata !"", i32 0, i32 0, i64 0, i64 0, i64 0, i32 0, null, metadata !748, i32 0, i32 0} ; [ DW_TAG_subroutine_type ]
!748 = metadata !{null, metadata !742, metadata !195}
!749 = metadata !{i32 786478, i32 0, metadata !726, metadata !"ap_int_base", metadata !"ap_int_base", metadata !"", metadata !152, i32 2460, metadata !750, i1 false, i1 false, i32 0, i32 0, null, i32 384, i1 false, null, null, i32 0, metadata !164, i32 2460} ; [ DW_TAG_subprogram ]
!750 = metadata !{i32 786453, i32 0, metadata !"", i32 0, i32 0, i64 0, i64 0, i64 0, i32 0, null, metadata !751, i32 0, i32 0} ; [ DW_TAG_subroutine_type ]
!751 = metadata !{null, metadata !742, metadata !199}
!752 = metadata !{i32 786478, i32 0, metadata !726, metadata !"ap_int_base", metadata !"ap_int_base", metadata !"", metadata !152, i32 2461, metadata !753, i1 false, i1 false, i32 0, i32 0, null, i32 384, i1 false, null, null, i32 0, metadata !164, i32 2461} ; [ DW_TAG_subprogram ]
!753 = metadata !{i32 786453, i32 0, metadata !"", i32 0, i32 0, i64 0, i64 0, i64 0, i32 0, null, metadata !754, i32 0, i32 0} ; [ DW_TAG_subroutine_type ]
!754 = metadata !{null, metadata !742, metadata !203}
!755 = metadata !{i32 786478, i32 0, metadata !726, metadata !"ap_int_base", metadata !"ap_int_base", metadata !"", metadata !152, i32 2462, metadata !756, i1 false, i1 false, i32 0, i32 0, null, i32 384, i1 false, null, null, i32 0, metadata !164, i32 2462} ; [ DW_TAG_subprogram ]
!756 = metadata !{i32 786453, i32 0, metadata !"", i32 0, i32 0, i64 0, i64 0, i64 0, i32 0, null, metadata !757, i32 0, i32 0} ; [ DW_TAG_subroutine_type ]
!757 = metadata !{null, metadata !742, metadata !207}
!758 = metadata !{i32 786478, i32 0, metadata !726, metadata !"ap_int_base", metadata !"ap_int_base", metadata !"", metadata !152, i32 2463, metadata !759, i1 false, i1 false, i32 0, i32 0, null, i32 384, i1 false, null, null, i32 0, metadata !164, i32 2463} ; [ DW_TAG_subprogram ]
!759 = metadata !{i32 786453, i32 0, metadata !"", i32 0, i32 0, i64 0, i64 0, i64 0, i32 0, null, metadata !760, i32 0, i32 0} ; [ DW_TAG_subroutine_type ]
!760 = metadata !{null, metadata !742, metadata !168}
!761 = metadata !{i32 786478, i32 0, metadata !726, metadata !"ap_int_base", metadata !"ap_int_base", metadata !"", metadata !152, i32 2464, metadata !762, i1 false, i1 false, i32 0, i32 0, null, i32 384, i1 false, null, null, i32 0, metadata !164, i32 2464} ; [ DW_TAG_subprogram ]
!762 = metadata !{i32 786453, i32 0, metadata !"", i32 0, i32 0, i64 0, i64 0, i64 0, i32 0, null, metadata !763, i32 0, i32 0} ; [ DW_TAG_subroutine_type ]
!763 = metadata !{null, metadata !742, metadata !214}
!764 = metadata !{i32 786478, i32 0, metadata !726, metadata !"ap_int_base", metadata !"ap_int_base", metadata !"", metadata !152, i32 2465, metadata !765, i1 false, i1 false, i32 0, i32 0, null, i32 384, i1 false, null, null, i32 0, metadata !164, i32 2465} ; [ DW_TAG_subprogram ]
!765 = metadata !{i32 786453, i32 0, metadata !"", i32 0, i32 0, i64 0, i64 0, i64 0, i32 0, null, metadata !766, i32 0, i32 0} ; [ DW_TAG_subroutine_type ]
!766 = metadata !{null, metadata !742, metadata !218}
!767 = metadata !{i32 786478, i32 0, metadata !726, metadata !"ap_int_base", metadata !"ap_int_base", metadata !"", metadata !152, i32 2466, metadata !768, i1 false, i1 false, i32 0, i32 0, null, i32 384, i1 false, null, null, i32 0, metadata !164, i32 2466} ; [ DW_TAG_subprogram ]
!768 = metadata !{i32 786453, i32 0, metadata !"", i32 0, i32 0, i64 0, i64 0, i64 0, i32 0, null, metadata !769, i32 0, i32 0} ; [ DW_TAG_subroutine_type ]
!769 = metadata !{null, metadata !742, metadata !222}
!770 = metadata !{i32 786478, i32 0, metadata !726, metadata !"ap_int_base", metadata !"ap_int_base", metadata !"", metadata !152, i32 2467, metadata !771, i1 false, i1 false, i32 0, i32 0, null, i32 384, i1 false, null, null, i32 0, metadata !164, i32 2467} ; [ DW_TAG_subprogram ]
!771 = metadata !{i32 786453, i32 0, metadata !"", i32 0, i32 0, i64 0, i64 0, i64 0, i32 0, null, metadata !772, i32 0, i32 0} ; [ DW_TAG_subroutine_type ]
!772 = metadata !{null, metadata !742, metadata !226}
!773 = metadata !{i32 786478, i32 0, metadata !726, metadata !"ap_int_base", metadata !"ap_int_base", metadata !"", metadata !152, i32 2468, metadata !774, i1 false, i1 false, i32 0, i32 0, null, i32 384, i1 false, null, null, i32 0, metadata !164, i32 2468} ; [ DW_TAG_subprogram ]
!774 = metadata !{i32 786453, i32 0, metadata !"", i32 0, i32 0, i64 0, i64 0, i64 0, i32 0, null, metadata !775, i32 0, i32 0} ; [ DW_TAG_subroutine_type ]
!775 = metadata !{null, metadata !742, metadata !231}
!776 = metadata !{i32 786478, i32 0, metadata !726, metadata !"ap_int_base", metadata !"ap_int_base", metadata !"", metadata !152, i32 2469, metadata !777, i1 false, i1 false, i32 0, i32 0, null, i32 384, i1 false, null, null, i32 0, metadata !164, i32 2469} ; [ DW_TAG_subprogram ]
!777 = metadata !{i32 786453, i32 0, metadata !"", i32 0, i32 0, i64 0, i64 0, i64 0, i32 0, null, metadata !778, i32 0, i32 0} ; [ DW_TAG_subroutine_type ]
!778 = metadata !{null, metadata !742, metadata !236}
!779 = metadata !{i32 786478, i32 0, metadata !726, metadata !"ap_int_base", metadata !"ap_int_base", metadata !"", metadata !152, i32 2470, metadata !780, i1 false, i1 false, i32 0, i32 0, null, i32 384, i1 false, null, null, i32 0, metadata !164, i32 2470} ; [ DW_TAG_subprogram ]
!780 = metadata !{i32 786453, i32 0, metadata !"", i32 0, i32 0, i64 0, i64 0, i64 0, i32 0, null, metadata !781, i32 0, i32 0} ; [ DW_TAG_subroutine_type ]
!781 = metadata !{null, metadata !742, metadata !241}
!782 = metadata !{i32 786478, i32 0, metadata !726, metadata !"ap_int_base", metadata !"ap_int_base", metadata !"", metadata !152, i32 2471, metadata !783, i1 false, i1 false, i32 0, i32 0, null, i32 384, i1 false, null, null, i32 0, metadata !164, i32 2471} ; [ DW_TAG_subprogram ]
!783 = metadata !{i32 786453, i32 0, metadata !"", i32 0, i32 0, i64 0, i64 0, i64 0, i32 0, null, metadata !784, i32 0, i32 0} ; [ DW_TAG_subroutine_type ]
!784 = metadata !{null, metadata !742, metadata !245}
!785 = metadata !{i32 786478, i32 0, metadata !726, metadata !"ap_int_base", metadata !"ap_int_base", metadata !"", metadata !152, i32 2498, metadata !786, i1 false, i1 false, i32 0, i32 0, null, i32 256, i1 false, null, null, i32 0, metadata !164, i32 2498} ; [ DW_TAG_subprogram ]
!786 = metadata !{i32 786453, i32 0, metadata !"", i32 0, i32 0, i64 0, i64 0, i64 0, i32 0, null, metadata !787, i32 0, i32 0} ; [ DW_TAG_subroutine_type ]
!787 = metadata !{null, metadata !742, metadata !249}
!788 = metadata !{i32 786478, i32 0, metadata !726, metadata !"ap_int_base", metadata !"ap_int_base", metadata !"", metadata !152, i32 2505, metadata !789, i1 false, i1 false, i32 0, i32 0, null, i32 256, i1 false, null, null, i32 0, metadata !164, i32 2505} ; [ DW_TAG_subprogram ]
!789 = metadata !{i32 786453, i32 0, metadata !"", i32 0, i32 0, i64 0, i64 0, i64 0, i32 0, null, metadata !790, i32 0, i32 0} ; [ DW_TAG_subroutine_type ]
!790 = metadata !{null, metadata !742, metadata !249, metadata !195}
!791 = metadata !{i32 786478, i32 0, metadata !726, metadata !"read", metadata !"read", metadata !"_ZNV11ap_int_baseILi96ELb0ELb0EE4readEv", metadata !152, i32 2526, metadata !792, i1 false, i1 false, i32 0, i32 0, null, i32 256, i1 false, null, null, i32 0, metadata !164, i32 2526} ; [ DW_TAG_subprogram ]
!792 = metadata !{i32 786453, i32 0, metadata !"", i32 0, i32 0, i64 0, i64 0, i64 0, i32 0, null, metadata !793, i32 0, i32 0} ; [ DW_TAG_subroutine_type ]
!793 = metadata !{metadata !726, metadata !794}
!794 = metadata !{i32 786447, i32 0, metadata !"", i32 0, i32 0, i64 64, i64 64, i64 0, i32 64, metadata !795} ; [ DW_TAG_pointer_type ]
!795 = metadata !{i32 786485, null, metadata !"", null, i32 0, i64 0, i64 0, i64 0, i32 0, metadata !726} ; [ DW_TAG_volatile_type ]
!796 = metadata !{i32 786478, i32 0, metadata !726, metadata !"write", metadata !"write", metadata !"_ZNV11ap_int_baseILi96ELb0ELb0EE5writeERKS0_", metadata !152, i32 2532, metadata !797, i1 false, i1 false, i32 0, i32 0, null, i32 256, i1 false, null, null, i32 0, metadata !164, i32 2532} ; [ DW_TAG_subprogram ]
!797 = metadata !{i32 786453, i32 0, metadata !"", i32 0, i32 0, i64 0, i64 0, i64 0, i32 0, null, metadata !798, i32 0, i32 0} ; [ DW_TAG_subroutine_type ]
!798 = metadata !{null, metadata !794, metadata !799}
!799 = metadata !{i32 786448, null, null, null, i32 0, i64 0, i64 0, i64 0, i32 0, metadata !800} ; [ DW_TAG_reference_type ]
!800 = metadata !{i32 786470, null, metadata !"", null, i32 0, i64 0, i64 0, i64 0, i32 0, metadata !726} ; [ DW_TAG_const_type ]
!801 = metadata !{i32 786478, i32 0, metadata !726, metadata !"operator=", metadata !"operator=", metadata !"_ZNV11ap_int_baseILi96ELb0ELb0EEaSERVKS0_", metadata !152, i32 2544, metadata !802, i1 false, i1 false, i32 0, i32 0, null, i32 256, i1 false, null, null, i32 0, metadata !164, i32 2544} ; [ DW_TAG_subprogram ]
!802 = metadata !{i32 786453, i32 0, metadata !"", i32 0, i32 0, i64 0, i64 0, i64 0, i32 0, null, metadata !803, i32 0, i32 0} ; [ DW_TAG_subroutine_type ]
!803 = metadata !{null, metadata !794, metadata !804}
!804 = metadata !{i32 786448, null, null, null, i32 0, i64 0, i64 0, i64 0, i32 0, metadata !805} ; [ DW_TAG_reference_type ]
!805 = metadata !{i32 786470, null, metadata !"", null, i32 0, i64 0, i64 0, i64 0, i32 0, metadata !795} ; [ DW_TAG_const_type ]
!806 = metadata !{i32 786478, i32 0, metadata !726, metadata !"operator=", metadata !"operator=", metadata !"_ZNV11ap_int_baseILi96ELb0ELb0EEaSERKS0_", metadata !152, i32 2553, metadata !797, i1 false, i1 false, i32 0, i32 0, null, i32 256, i1 false, null, null, i32 0, metadata !164, i32 2553} ; [ DW_TAG_subprogram ]
!807 = metadata !{i32 786478, i32 0, metadata !726, metadata !"operator=", metadata !"operator=", metadata !"_ZN11ap_int_baseILi96ELb0ELb0EEaSERVKS0_", metadata !152, i32 2576, metadata !808, i1 false, i1 false, i32 0, i32 0, null, i32 256, i1 false, null, null, i32 0, metadata !164, i32 2576} ; [ DW_TAG_subprogram ]
!808 = metadata !{i32 786453, i32 0, metadata !"", i32 0, i32 0, i64 0, i64 0, i64 0, i32 0, null, metadata !809, i32 0, i32 0} ; [ DW_TAG_subroutine_type ]
!809 = metadata !{metadata !810, metadata !742, metadata !804}
!810 = metadata !{i32 786448, null, null, null, i32 0, i64 0, i64 0, i64 0, i32 0, metadata !726} ; [ DW_TAG_reference_type ]
!811 = metadata !{i32 786478, i32 0, metadata !726, metadata !"operator=", metadata !"operator=", metadata !"_ZN11ap_int_baseILi96ELb0ELb0EEaSERKS0_", metadata !152, i32 2581, metadata !812, i1 false, i1 false, i32 0, i32 0, null, i32 256, i1 false, null, null, i32 0, metadata !164, i32 2581} ; [ DW_TAG_subprogram ]
!812 = metadata !{i32 786453, i32 0, metadata !"", i32 0, i32 0, i64 0, i64 0, i64 0, i32 0, null, metadata !813, i32 0, i32 0} ; [ DW_TAG_subroutine_type ]
!813 = metadata !{metadata !810, metadata !742, metadata !799}
!814 = metadata !{i32 786478, i32 0, metadata !726, metadata !"operator=", metadata !"operator=", metadata !"_ZN11ap_int_baseILi96ELb0ELb0EEaSEPKc", metadata !152, i32 2585, metadata !815, i1 false, i1 false, i32 0, i32 0, null, i32 256, i1 false, null, null, i32 0, metadata !164, i32 2585} ; [ DW_TAG_subprogram ]
!815 = metadata !{i32 786453, i32 0, metadata !"", i32 0, i32 0, i64 0, i64 0, i64 0, i32 0, null, metadata !816, i32 0, i32 0} ; [ DW_TAG_subroutine_type ]
!816 = metadata !{metadata !810, metadata !742, metadata !249}
!817 = metadata !{i32 786478, i32 0, metadata !726, metadata !"set", metadata !"set", metadata !"_ZN11ap_int_baseILi96ELb0ELb0EE3setEPKca", metadata !152, i32 2593, metadata !818, i1 false, i1 false, i32 0, i32 0, null, i32 256, i1 false, null, null, i32 0, metadata !164, i32 2593} ; [ DW_TAG_subprogram ]
!818 = metadata !{i32 786453, i32 0, metadata !"", i32 0, i32 0, i64 0, i64 0, i64 0, i32 0, null, metadata !819, i32 0, i32 0} ; [ DW_TAG_subroutine_type ]
!819 = metadata !{metadata !810, metadata !742, metadata !249, metadata !195}
!820 = metadata !{i32 786478, i32 0, metadata !726, metadata !"operator=", metadata !"operator=", metadata !"_ZN11ap_int_baseILi96ELb0ELb0EEaSEc", metadata !152, i32 2607, metadata !821, i1 false, i1 false, i32 0, i32 0, null, i32 256, i1 false, null, null, i32 0, metadata !164, i32 2607} ; [ DW_TAG_subprogram ]
!821 = metadata !{i32 786453, i32 0, metadata !"", i32 0, i32 0, i64 0, i64 0, i64 0, i32 0, null, metadata !822, i32 0, i32 0} ; [ DW_TAG_subroutine_type ]
!822 = metadata !{metadata !810, metadata !742, metadata !251}
!823 = metadata !{i32 786478, i32 0, metadata !726, metadata !"operator=", metadata !"operator=", metadata !"_ZN11ap_int_baseILi96ELb0ELb0EEaSEh", metadata !152, i32 2608, metadata !824, i1 false, i1 false, i32 0, i32 0, null, i32 256, i1 false, null, null, i32 0, metadata !164, i32 2608} ; [ DW_TAG_subprogram ]
!824 = metadata !{i32 786453, i32 0, metadata !"", i32 0, i32 0, i64 0, i64 0, i64 0, i32 0, null, metadata !825, i32 0, i32 0} ; [ DW_TAG_subroutine_type ]
!825 = metadata !{metadata !810, metadata !742, metadata !199}
!826 = metadata !{i32 786478, i32 0, metadata !726, metadata !"operator=", metadata !"operator=", metadata !"_ZN11ap_int_baseILi96ELb0ELb0EEaSEs", metadata !152, i32 2609, metadata !827, i1 false, i1 false, i32 0, i32 0, null, i32 256, i1 false, null, null, i32 0, metadata !164, i32 2609} ; [ DW_TAG_subprogram ]
!827 = metadata !{i32 786453, i32 0, metadata !"", i32 0, i32 0, i64 0, i64 0, i64 0, i32 0, null, metadata !828, i32 0, i32 0} ; [ DW_TAG_subroutine_type ]
!828 = metadata !{metadata !810, metadata !742, metadata !203}
!829 = metadata !{i32 786478, i32 0, metadata !726, metadata !"operator=", metadata !"operator=", metadata !"_ZN11ap_int_baseILi96ELb0ELb0EEaSEt", metadata !152, i32 2610, metadata !830, i1 false, i1 false, i32 0, i32 0, null, i32 256, i1 false, null, null, i32 0, metadata !164, i32 2610} ; [ DW_TAG_subprogram ]
!830 = metadata !{i32 786453, i32 0, metadata !"", i32 0, i32 0, i64 0, i64 0, i64 0, i32 0, null, metadata !831, i32 0, i32 0} ; [ DW_TAG_subroutine_type ]
!831 = metadata !{metadata !810, metadata !742, metadata !207}
!832 = metadata !{i32 786478, i32 0, metadata !726, metadata !"operator=", metadata !"operator=", metadata !"_ZN11ap_int_baseILi96ELb0ELb0EEaSEi", metadata !152, i32 2611, metadata !833, i1 false, i1 false, i32 0, i32 0, null, i32 256, i1 false, null, null, i32 0, metadata !164, i32 2611} ; [ DW_TAG_subprogram ]
!833 = metadata !{i32 786453, i32 0, metadata !"", i32 0, i32 0, i64 0, i64 0, i64 0, i32 0, null, metadata !834, i32 0, i32 0} ; [ DW_TAG_subroutine_type ]
!834 = metadata !{metadata !810, metadata !742, metadata !168}
!835 = metadata !{i32 786478, i32 0, metadata !726, metadata !"operator=", metadata !"operator=", metadata !"_ZN11ap_int_baseILi96ELb0ELb0EEaSEj", metadata !152, i32 2612, metadata !836, i1 false, i1 false, i32 0, i32 0, null, i32 256, i1 false, null, null, i32 0, metadata !164, i32 2612} ; [ DW_TAG_subprogram ]
!836 = metadata !{i32 786453, i32 0, metadata !"", i32 0, i32 0, i64 0, i64 0, i64 0, i32 0, null, metadata !837, i32 0, i32 0} ; [ DW_TAG_subroutine_type ]
!837 = metadata !{metadata !810, metadata !742, metadata !214}
!838 = metadata !{i32 786478, i32 0, metadata !726, metadata !"operator=", metadata !"operator=", metadata !"_ZN11ap_int_baseILi96ELb0ELb0EEaSEx", metadata !152, i32 2613, metadata !839, i1 false, i1 false, i32 0, i32 0, null, i32 256, i1 false, null, null, i32 0, metadata !164, i32 2613} ; [ DW_TAG_subprogram ]
!839 = metadata !{i32 786453, i32 0, metadata !"", i32 0, i32 0, i64 0, i64 0, i64 0, i32 0, null, metadata !840, i32 0, i32 0} ; [ DW_TAG_subroutine_type ]
!840 = metadata !{metadata !810, metadata !742, metadata !226}
!841 = metadata !{i32 786478, i32 0, metadata !726, metadata !"operator=", metadata !"operator=", metadata !"_ZN11ap_int_baseILi96ELb0ELb0EEaSEy", metadata !152, i32 2614, metadata !842, i1 false, i1 false, i32 0, i32 0, null, i32 256, i1 false, null, null, i32 0, metadata !164, i32 2614} ; [ DW_TAG_subprogram ]
!842 = metadata !{i32 786453, i32 0, metadata !"", i32 0, i32 0, i64 0, i64 0, i64 0, i32 0, null, metadata !843, i32 0, i32 0} ; [ DW_TAG_subroutine_type ]
!843 = metadata !{metadata !810, metadata !742, metadata !231}
!844 = metadata !{i32 786478, i32 0, metadata !726, metadata !"operator unsigned long long", metadata !"operator unsigned long long", metadata !"_ZNK11ap_int_baseILi96ELb0ELb0EEcvyEv", metadata !152, i32 2653, metadata !845, i1 false, i1 false, i32 0, i32 0, null, i32 256, i1 false, null, null, i32 0, metadata !164, i32 2653} ; [ DW_TAG_subprogram ]
!845 = metadata !{i32 786453, i32 0, metadata !"", i32 0, i32 0, i64 0, i64 0, i64 0, i32 0, null, metadata !846, i32 0, i32 0} ; [ DW_TAG_subroutine_type ]
!846 = metadata !{metadata !847, metadata !851}
!847 = metadata !{i32 786454, metadata !726, metadata !"RetType", metadata !152, i32 2402, i64 0, i64 0, i64 0, i32 0, metadata !848} ; [ DW_TAG_typedef ]
!848 = metadata !{i32 786454, metadata !849, metadata !"Type", metadata !152, i32 1419, i64 0, i64 0, i64 0, i32 0, metadata !231} ; [ DW_TAG_typedef ]
!849 = metadata !{i32 786434, null, metadata !"retval<8, false>", metadata !152, i32 1418, i64 8, i64 8, i32 0, i32 0, null, metadata !309, i32 0, null, metadata !850} ; [ DW_TAG_class_type ]
!850 = metadata !{metadata !311, metadata !738}
!851 = metadata !{i32 786447, i32 0, metadata !"", i32 0, i32 0, i64 64, i64 64, i64 0, i32 64, metadata !800} ; [ DW_TAG_pointer_type ]
!852 = metadata !{i32 786478, i32 0, metadata !726, metadata !"to_bool", metadata !"to_bool", metadata !"_ZNK11ap_int_baseILi96ELb0ELb0EE7to_boolEv", metadata !152, i32 2659, metadata !853, i1 false, i1 false, i32 0, i32 0, null, i32 256, i1 false, null, null, i32 0, metadata !164, i32 2659} ; [ DW_TAG_subprogram ]
!853 = metadata !{i32 786453, i32 0, metadata !"", i32 0, i32 0, i64 0, i64 0, i64 0, i32 0, null, metadata !854, i32 0, i32 0} ; [ DW_TAG_subroutine_type ]
!854 = metadata !{metadata !170, metadata !851}
!855 = metadata !{i32 786478, i32 0, metadata !726, metadata !"to_uchar", metadata !"to_uchar", metadata !"_ZNK11ap_int_baseILi96ELb0ELb0EE8to_ucharEv", metadata !152, i32 2660, metadata !853, i1 false, i1 false, i32 0, i32 0, null, i32 256, i1 false, null, null, i32 0, metadata !164, i32 2660} ; [ DW_TAG_subprogram ]
!856 = metadata !{i32 786478, i32 0, metadata !726, metadata !"to_char", metadata !"to_char", metadata !"_ZNK11ap_int_baseILi96ELb0ELb0EE7to_charEv", metadata !152, i32 2661, metadata !853, i1 false, i1 false, i32 0, i32 0, null, i32 256, i1 false, null, null, i32 0, metadata !164, i32 2661} ; [ DW_TAG_subprogram ]
!857 = metadata !{i32 786478, i32 0, metadata !726, metadata !"to_ushort", metadata !"to_ushort", metadata !"_ZNK11ap_int_baseILi96ELb0ELb0EE9to_ushortEv", metadata !152, i32 2662, metadata !853, i1 false, i1 false, i32 0, i32 0, null, i32 256, i1 false, null, null, i32 0, metadata !164, i32 2662} ; [ DW_TAG_subprogram ]
!858 = metadata !{i32 786478, i32 0, metadata !726, metadata !"to_short", metadata !"to_short", metadata !"_ZNK11ap_int_baseILi96ELb0ELb0EE8to_shortEv", metadata !152, i32 2663, metadata !853, i1 false, i1 false, i32 0, i32 0, null, i32 256, i1 false, null, null, i32 0, metadata !164, i32 2663} ; [ DW_TAG_subprogram ]
!859 = metadata !{i32 786478, i32 0, metadata !726, metadata !"to_int", metadata !"to_int", metadata !"_ZNK11ap_int_baseILi96ELb0ELb0EE6to_intEv", metadata !152, i32 2664, metadata !860, i1 false, i1 false, i32 0, i32 0, null, i32 256, i1 false, null, null, i32 0, metadata !164, i32 2664} ; [ DW_TAG_subprogram ]
!860 = metadata !{i32 786453, i32 0, metadata !"", i32 0, i32 0, i64 0, i64 0, i64 0, i32 0, null, metadata !861, i32 0, i32 0} ; [ DW_TAG_subroutine_type ]
!861 = metadata !{metadata !168, metadata !851}
!862 = metadata !{i32 786478, i32 0, metadata !726, metadata !"to_uint", metadata !"to_uint", metadata !"_ZNK11ap_int_baseILi96ELb0ELb0EE7to_uintEv", metadata !152, i32 2665, metadata !863, i1 false, i1 false, i32 0, i32 0, null, i32 256, i1 false, null, null, i32 0, metadata !164, i32 2665} ; [ DW_TAG_subprogram ]
!863 = metadata !{i32 786453, i32 0, metadata !"", i32 0, i32 0, i64 0, i64 0, i64 0, i32 0, null, metadata !864, i32 0, i32 0} ; [ DW_TAG_subroutine_type ]
!864 = metadata !{metadata !214, metadata !851}
!865 = metadata !{i32 786478, i32 0, metadata !726, metadata !"to_long", metadata !"to_long", metadata !"_ZNK11ap_int_baseILi96ELb0ELb0EE7to_longEv", metadata !152, i32 2666, metadata !866, i1 false, i1 false, i32 0, i32 0, null, i32 256, i1 false, null, null, i32 0, metadata !164, i32 2666} ; [ DW_TAG_subprogram ]
!866 = metadata !{i32 786453, i32 0, metadata !"", i32 0, i32 0, i64 0, i64 0, i64 0, i32 0, null, metadata !867, i32 0, i32 0} ; [ DW_TAG_subroutine_type ]
!867 = metadata !{metadata !218, metadata !851}
!868 = metadata !{i32 786478, i32 0, metadata !726, metadata !"to_ulong", metadata !"to_ulong", metadata !"_ZNK11ap_int_baseILi96ELb0ELb0EE8to_ulongEv", metadata !152, i32 2667, metadata !869, i1 false, i1 false, i32 0, i32 0, null, i32 256, i1 false, null, null, i32 0, metadata !164, i32 2667} ; [ DW_TAG_subprogram ]
!869 = metadata !{i32 786453, i32 0, metadata !"", i32 0, i32 0, i64 0, i64 0, i64 0, i32 0, null, metadata !870, i32 0, i32 0} ; [ DW_TAG_subroutine_type ]
!870 = metadata !{metadata !222, metadata !851}
!871 = metadata !{i32 786478, i32 0, metadata !726, metadata !"to_int64", metadata !"to_int64", metadata !"_ZNK11ap_int_baseILi96ELb0ELb0EE8to_int64Ev", metadata !152, i32 2668, metadata !872, i1 false, i1 false, i32 0, i32 0, null, i32 256, i1 false, null, null, i32 0, metadata !164, i32 2668} ; [ DW_TAG_subprogram ]
!872 = metadata !{i32 786453, i32 0, metadata !"", i32 0, i32 0, i64 0, i64 0, i64 0, i32 0, null, metadata !873, i32 0, i32 0} ; [ DW_TAG_subroutine_type ]
!873 = metadata !{metadata !226, metadata !851}
!874 = metadata !{i32 786478, i32 0, metadata !726, metadata !"to_uint64", metadata !"to_uint64", metadata !"_ZNK11ap_int_baseILi96ELb0ELb0EE9to_uint64Ev", metadata !152, i32 2669, metadata !875, i1 false, i1 false, i32 0, i32 0, null, i32 256, i1 false, null, null, i32 0, metadata !164, i32 2669} ; [ DW_TAG_subprogram ]
!875 = metadata !{i32 786453, i32 0, metadata !"", i32 0, i32 0, i64 0, i64 0, i64 0, i32 0, null, metadata !876, i32 0, i32 0} ; [ DW_TAG_subroutine_type ]
!876 = metadata !{metadata !231, metadata !851}
!877 = metadata !{i32 786478, i32 0, metadata !726, metadata !"to_double", metadata !"to_double", metadata !"_ZNK11ap_int_baseILi96ELb0ELb0EE9to_doubleEv", metadata !152, i32 2670, metadata !878, i1 false, i1 false, i32 0, i32 0, null, i32 256, i1 false, null, null, i32 0, metadata !164, i32 2670} ; [ DW_TAG_subprogram ]
!878 = metadata !{i32 786453, i32 0, metadata !"", i32 0, i32 0, i64 0, i64 0, i64 0, i32 0, null, metadata !879, i32 0, i32 0} ; [ DW_TAG_subroutine_type ]
!879 = metadata !{metadata !245, metadata !851}
!880 = metadata !{i32 786478, i32 0, metadata !726, metadata !"length", metadata !"length", metadata !"_ZNK11ap_int_baseILi96ELb0ELb0EE6lengthEv", metadata !152, i32 2683, metadata !860, i1 false, i1 false, i32 0, i32 0, null, i32 256, i1 false, null, null, i32 0, metadata !164, i32 2683} ; [ DW_TAG_subprogram ]
!881 = metadata !{i32 786478, i32 0, metadata !726, metadata !"length", metadata !"length", metadata !"_ZNVK11ap_int_baseILi96ELb0ELb0EE6lengthEv", metadata !152, i32 2684, metadata !882, i1 false, i1 false, i32 0, i32 0, null, i32 256, i1 false, null, null, i32 0, metadata !164, i32 2684} ; [ DW_TAG_subprogram ]
!882 = metadata !{i32 786453, i32 0, metadata !"", i32 0, i32 0, i64 0, i64 0, i64 0, i32 0, null, metadata !883, i32 0, i32 0} ; [ DW_TAG_subroutine_type ]
!883 = metadata !{metadata !168, metadata !884}
!884 = metadata !{i32 786447, i32 0, metadata !"", i32 0, i32 0, i64 64, i64 64, i64 0, i32 64, metadata !805} ; [ DW_TAG_pointer_type ]
!885 = metadata !{i32 786478, i32 0, metadata !726, metadata !"reverse", metadata !"reverse", metadata !"_ZN11ap_int_baseILi96ELb0ELb0EE7reverseEv", metadata !152, i32 2689, metadata !886, i1 false, i1 false, i32 0, i32 0, null, i32 256, i1 false, null, null, i32 0, metadata !164, i32 2689} ; [ DW_TAG_subprogram ]
!886 = metadata !{i32 786453, i32 0, metadata !"", i32 0, i32 0, i64 0, i64 0, i64 0, i32 0, null, metadata !887, i32 0, i32 0} ; [ DW_TAG_subroutine_type ]
!887 = metadata !{metadata !810, metadata !742}
!888 = metadata !{i32 786478, i32 0, metadata !726, metadata !"iszero", metadata !"iszero", metadata !"_ZNK11ap_int_baseILi96ELb0ELb0EE6iszeroEv", metadata !152, i32 2695, metadata !853, i1 false, i1 false, i32 0, i32 0, null, i32 256, i1 false, null, null, i32 0, metadata !164, i32 2695} ; [ DW_TAG_subprogram ]
!889 = metadata !{i32 786478, i32 0, metadata !726, metadata !"is_zero", metadata !"is_zero", metadata !"_ZNK11ap_int_baseILi96ELb0ELb0EE7is_zeroEv", metadata !152, i32 2700, metadata !853, i1 false, i1 false, i32 0, i32 0, null, i32 256, i1 false, null, null, i32 0, metadata !164, i32 2700} ; [ DW_TAG_subprogram ]
!890 = metadata !{i32 786478, i32 0, metadata !726, metadata !"sign", metadata !"sign", metadata !"_ZNK11ap_int_baseILi96ELb0ELb0EE4signEv", metadata !152, i32 2705, metadata !853, i1 false, i1 false, i32 0, i32 0, null, i32 256, i1 false, null, null, i32 0, metadata !164, i32 2705} ; [ DW_TAG_subprogram ]
!891 = metadata !{i32 786478, i32 0, metadata !726, metadata !"clear", metadata !"clear", metadata !"_ZN11ap_int_baseILi96ELb0ELb0EE5clearEi", metadata !152, i32 2713, metadata !759, i1 false, i1 false, i32 0, i32 0, null, i32 256, i1 false, null, null, i32 0, metadata !164, i32 2713} ; [ DW_TAG_subprogram ]
!892 = metadata !{i32 786478, i32 0, metadata !726, metadata !"invert", metadata !"invert", metadata !"_ZN11ap_int_baseILi96ELb0ELb0EE6invertEi", metadata !152, i32 2719, metadata !759, i1 false, i1 false, i32 0, i32 0, null, i32 256, i1 false, null, null, i32 0, metadata !164, i32 2719} ; [ DW_TAG_subprogram ]
!893 = metadata !{i32 786478, i32 0, metadata !726, metadata !"test", metadata !"test", metadata !"_ZNK11ap_int_baseILi96ELb0ELb0EE4testEi", metadata !152, i32 2727, metadata !894, i1 false, i1 false, i32 0, i32 0, null, i32 256, i1 false, null, null, i32 0, metadata !164, i32 2727} ; [ DW_TAG_subprogram ]
!894 = metadata !{i32 786453, i32 0, metadata !"", i32 0, i32 0, i64 0, i64 0, i64 0, i32 0, null, metadata !895, i32 0, i32 0} ; [ DW_TAG_subroutine_type ]
!895 = metadata !{metadata !170, metadata !851, metadata !168}
!896 = metadata !{i32 786478, i32 0, metadata !726, metadata !"set", metadata !"set", metadata !"_ZN11ap_int_baseILi96ELb0ELb0EE3setEi", metadata !152, i32 2733, metadata !759, i1 false, i1 false, i32 0, i32 0, null, i32 256, i1 false, null, null, i32 0, metadata !164, i32 2733} ; [ DW_TAG_subprogram ]
!897 = metadata !{i32 786478, i32 0, metadata !726, metadata !"set", metadata !"set", metadata !"_ZN11ap_int_baseILi96ELb0ELb0EE3setEib", metadata !152, i32 2739, metadata !898, i1 false, i1 false, i32 0, i32 0, null, i32 256, i1 false, null, null, i32 0, metadata !164, i32 2739} ; [ DW_TAG_subprogram ]
!898 = metadata !{i32 786453, i32 0, metadata !"", i32 0, i32 0, i64 0, i64 0, i64 0, i32 0, null, metadata !899, i32 0, i32 0} ; [ DW_TAG_subroutine_type ]
!899 = metadata !{null, metadata !742, metadata !168, metadata !170}
!900 = metadata !{i32 786478, i32 0, metadata !726, metadata !"lrotate", metadata !"lrotate", metadata !"_ZN11ap_int_baseILi96ELb0ELb0EE7lrotateEi", metadata !152, i32 2746, metadata !759, i1 false, i1 false, i32 0, i32 0, null, i32 256, i1 false, null, null, i32 0, metadata !164, i32 2746} ; [ DW_TAG_subprogram ]
!901 = metadata !{i32 786478, i32 0, metadata !726, metadata !"rrotate", metadata !"rrotate", metadata !"_ZN11ap_int_baseILi96ELb0ELb0EE7rrotateEi", metadata !152, i32 2755, metadata !759, i1 false, i1 false, i32 0, i32 0, null, i32 256, i1 false, null, null, i32 0, metadata !164, i32 2755} ; [ DW_TAG_subprogram ]
!902 = metadata !{i32 786478, i32 0, metadata !726, metadata !"set_bit", metadata !"set_bit", metadata !"_ZN11ap_int_baseILi96ELb0ELb0EE7set_bitEib", metadata !152, i32 2763, metadata !898, i1 false, i1 false, i32 0, i32 0, null, i32 256, i1 false, null, null, i32 0, metadata !164, i32 2763} ; [ DW_TAG_subprogram ]
!903 = metadata !{i32 786478, i32 0, metadata !726, metadata !"get_bit", metadata !"get_bit", metadata !"_ZNK11ap_int_baseILi96ELb0ELb0EE7get_bitEi", metadata !152, i32 2768, metadata !894, i1 false, i1 false, i32 0, i32 0, null, i32 256, i1 false, null, null, i32 0, metadata !164, i32 2768} ; [ DW_TAG_subprogram ]
!904 = metadata !{i32 786478, i32 0, metadata !726, metadata !"b_not", metadata !"b_not", metadata !"_ZN11ap_int_baseILi96ELb0ELb0EE5b_notEv", metadata !152, i32 2773, metadata !740, i1 false, i1 false, i32 0, i32 0, null, i32 256, i1 false, null, null, i32 0, metadata !164, i32 2773} ; [ DW_TAG_subprogram ]
!905 = metadata !{i32 786478, i32 0, metadata !726, metadata !"countLeadingZeros", metadata !"countLeadingZeros", metadata !"_ZN11ap_int_baseILi96ELb0ELb0EE17countLeadingZerosEv", metadata !152, i32 2780, metadata !906, i1 false, i1 false, i32 0, i32 0, null, i32 256, i1 false, null, null, i32 0, metadata !164, i32 2780} ; [ DW_TAG_subprogram ]
!906 = metadata !{i32 786453, i32 0, metadata !"", i32 0, i32 0, i64 0, i64 0, i64 0, i32 0, null, metadata !907, i32 0, i32 0} ; [ DW_TAG_subroutine_type ]
!907 = metadata !{metadata !168, metadata !742}
!908 = metadata !{i32 786478, i32 0, metadata !726, metadata !"operator++", metadata !"operator++", metadata !"_ZN11ap_int_baseILi96ELb0ELb0EEppEv", metadata !152, i32 2837, metadata !886, i1 false, i1 false, i32 0, i32 0, null, i32 256, i1 false, null, null, i32 0, metadata !164, i32 2837} ; [ DW_TAG_subprogram ]
!909 = metadata !{i32 786478, i32 0, metadata !726, metadata !"operator--", metadata !"operator--", metadata !"_ZN11ap_int_baseILi96ELb0ELb0EEmmEv", metadata !152, i32 2841, metadata !886, i1 false, i1 false, i32 0, i32 0, null, i32 256, i1 false, null, null, i32 0, metadata !164, i32 2841} ; [ DW_TAG_subprogram ]
!910 = metadata !{i32 786478, i32 0, metadata !726, metadata !"operator++", metadata !"operator++", metadata !"_ZN11ap_int_baseILi96ELb0ELb0EEppEi", metadata !152, i32 2849, metadata !911, i1 false, i1 false, i32 0, i32 0, null, i32 256, i1 false, null, null, i32 0, metadata !164, i32 2849} ; [ DW_TAG_subprogram ]
!911 = metadata !{i32 786453, i32 0, metadata !"", i32 0, i32 0, i64 0, i64 0, i64 0, i32 0, null, metadata !912, i32 0, i32 0} ; [ DW_TAG_subroutine_type ]
!912 = metadata !{metadata !800, metadata !742, metadata !168}
!913 = metadata !{i32 786478, i32 0, metadata !726, metadata !"operator--", metadata !"operator--", metadata !"_ZN11ap_int_baseILi96ELb0ELb0EEmmEi", metadata !152, i32 2854, metadata !911, i1 false, i1 false, i32 0, i32 0, null, i32 256, i1 false, null, null, i32 0, metadata !164, i32 2854} ; [ DW_TAG_subprogram ]
!914 = metadata !{i32 786478, i32 0, metadata !726, metadata !"operator+", metadata !"operator+", metadata !"_ZNK11ap_int_baseILi96ELb0ELb0EEpsEv", metadata !152, i32 2863, metadata !915, i1 false, i1 false, i32 0, i32 0, null, i32 256, i1 false, null, null, i32 0, metadata !164, i32 2863} ; [ DW_TAG_subprogram ]
!915 = metadata !{i32 786453, i32 0, metadata !"", i32 0, i32 0, i64 0, i64 0, i64 0, i32 0, null, metadata !916, i32 0, i32 0} ; [ DW_TAG_subroutine_type ]
!916 = metadata !{metadata !726, metadata !851}
!917 = metadata !{i32 786478, i32 0, metadata !726, metadata !"operator-", metadata !"operator-", metadata !"_ZNK11ap_int_baseILi96ELb0ELb0EEngEv", metadata !152, i32 2867, metadata !918, i1 false, i1 false, i32 0, i32 0, null, i32 256, i1 false, null, null, i32 0, metadata !164, i32 2867} ; [ DW_TAG_subprogram ]
!918 = metadata !{i32 786453, i32 0, metadata !"", i32 0, i32 0, i64 0, i64 0, i64 0, i32 0, null, metadata !919, i32 0, i32 0} ; [ DW_TAG_subroutine_type ]
!919 = metadata !{metadata !920, metadata !851}
!920 = metadata !{i32 786454, metadata !921, metadata !"minus", metadata !152, i32 2425, i64 0, i64 0, i64 0, i32 0, metadata !666} ; [ DW_TAG_typedef ]
!921 = metadata !{i32 786434, metadata !726, metadata !"RType<1, false>", metadata !152, i32 2407, i64 8, i64 8, i32 0, i32 0, null, metadata !309, i32 0, null, metadata !663} ; [ DW_TAG_class_type ]
!922 = metadata !{i32 786478, i32 0, metadata !726, metadata !"operator!", metadata !"operator!", metadata !"_ZNK11ap_int_baseILi96ELb0ELb0EEntEv", metadata !152, i32 2874, metadata !853, i1 false, i1 false, i32 0, i32 0, null, i32 256, i1 false, null, null, i32 0, metadata !164, i32 2874} ; [ DW_TAG_subprogram ]
!923 = metadata !{i32 786478, i32 0, metadata !726, metadata !"operator~", metadata !"operator~", metadata !"_ZNK11ap_int_baseILi96ELb0ELb0EEcoEv", metadata !152, i32 2881, metadata !924, i1 false, i1 false, i32 0, i32 0, null, i32 256, i1 false, null, null, i32 0, metadata !164, i32 2881} ; [ DW_TAG_subprogram ]
!924 = metadata !{i32 786453, i32 0, metadata !"", i32 0, i32 0, i64 0, i64 0, i64 0, i32 0, null, metadata !925, i32 0, i32 0} ; [ DW_TAG_subroutine_type ]
!925 = metadata !{metadata !666, metadata !851}
!926 = metadata !{i32 786478, i32 0, metadata !726, metadata !"range", metadata !"range", metadata !"_ZN11ap_int_baseILi96ELb0ELb0EE5rangeEii", metadata !152, i32 3008, metadata !927, i1 false, i1 false, i32 0, i32 0, null, i32 256, i1 false, null, null, i32 0, metadata !164, i32 3008} ; [ DW_TAG_subprogram ]
!927 = metadata !{i32 786453, i32 0, metadata !"", i32 0, i32 0, i64 0, i64 0, i64 0, i32 0, null, metadata !928, i32 0, i32 0} ; [ DW_TAG_subroutine_type ]
!928 = metadata !{metadata !929, metadata !742, metadata !168, metadata !168}
!929 = metadata !{i32 786434, null, metadata !"ap_range_ref<96, false>", metadata !152, i32 925, i64 0, i64 0, i32 0, i32 4, null, null, i32 0, null, metadata !930} ; [ DW_TAG_class_type ]
!930 = metadata !{metadata !685, metadata !738}
!931 = metadata !{i32 786478, i32 0, metadata !726, metadata !"operator()", metadata !"operator()", metadata !"_ZN11ap_int_baseILi96ELb0ELb0EEclEii", metadata !152, i32 3014, metadata !927, i1 false, i1 false, i32 0, i32 0, null, i32 256, i1 false, null, null, i32 0, metadata !164, i32 3014} ; [ DW_TAG_subprogram ]
!932 = metadata !{i32 786478, i32 0, metadata !726, metadata !"range", metadata !"range", metadata !"_ZNK11ap_int_baseILi96ELb0ELb0EE5rangeEii", metadata !152, i32 3020, metadata !933, i1 false, i1 false, i32 0, i32 0, null, i32 256, i1 false, null, null, i32 0, metadata !164, i32 3020} ; [ DW_TAG_subprogram ]
!933 = metadata !{i32 786453, i32 0, metadata !"", i32 0, i32 0, i64 0, i64 0, i64 0, i32 0, null, metadata !934, i32 0, i32 0} ; [ DW_TAG_subroutine_type ]
!934 = metadata !{metadata !929, metadata !851, metadata !168, metadata !168}
!935 = metadata !{i32 786478, i32 0, metadata !726, metadata !"operator()", metadata !"operator()", metadata !"_ZNK11ap_int_baseILi96ELb0ELb0EEclEii", metadata !152, i32 3026, metadata !933, i1 false, i1 false, i32 0, i32 0, null, i32 256, i1 false, null, null, i32 0, metadata !164, i32 3026} ; [ DW_TAG_subprogram ]
!936 = metadata !{i32 786478, i32 0, metadata !726, metadata !"operator[]", metadata !"operator[]", metadata !"_ZN11ap_int_baseILi96ELb0ELb0EEixEi", metadata !152, i32 3046, metadata !937, i1 false, i1 false, i32 0, i32 0, null, i32 256, i1 false, null, null, i32 0, metadata !164, i32 3046} ; [ DW_TAG_subprogram ]
!937 = metadata !{i32 786453, i32 0, metadata !"", i32 0, i32 0, i64 0, i64 0, i64 0, i32 0, null, metadata !938, i32 0, i32 0} ; [ DW_TAG_subroutine_type ]
!938 = metadata !{metadata !939, metadata !742, metadata !168}
!939 = metadata !{i32 786434, null, metadata !"ap_bit_ref<96, false>", metadata !152, i32 1249, i64 0, i64 0, i32 0, i32 4, null, null, i32 0, null, metadata !930} ; [ DW_TAG_class_type ]
!940 = metadata !{i32 786478, i32 0, metadata !726, metadata !"operator[]", metadata !"operator[]", metadata !"_ZNK11ap_int_baseILi96ELb0ELb0EEixEi", metadata !152, i32 3060, metadata !894, i1 false, i1 false, i32 0, i32 0, null, i32 256, i1 false, null, null, i32 0, metadata !164, i32 3060} ; [ DW_TAG_subprogram ]
!941 = metadata !{i32 786478, i32 0, metadata !726, metadata !"bit", metadata !"bit", metadata !"_ZN11ap_int_baseILi96ELb0ELb0EE3bitEi", metadata !152, i32 3074, metadata !937, i1 false, i1 false, i32 0, i32 0, null, i32 256, i1 false, null, null, i32 0, metadata !164, i32 3074} ; [ DW_TAG_subprogram ]
!942 = metadata !{i32 786478, i32 0, metadata !726, metadata !"bit", metadata !"bit", metadata !"_ZNK11ap_int_baseILi96ELb0ELb0EE3bitEi", metadata !152, i32 3088, metadata !894, i1 false, i1 false, i32 0, i32 0, null, i32 256, i1 false, null, null, i32 0, metadata !164, i32 3088} ; [ DW_TAG_subprogram ]
!943 = metadata !{i32 786478, i32 0, metadata !726, metadata !"and_reduce", metadata !"and_reduce", metadata !"_ZN11ap_int_baseILi96ELb0ELb0EE10and_reduceEv", metadata !152, i32 3268, metadata !944, i1 false, i1 false, i32 0, i32 0, null, i32 256, i1 false, null, null, i32 0, metadata !164, i32 3268} ; [ DW_TAG_subprogram ]
!944 = metadata !{i32 786453, i32 0, metadata !"", i32 0, i32 0, i64 0, i64 0, i64 0, i32 0, null, metadata !945, i32 0, i32 0} ; [ DW_TAG_subroutine_type ]
!945 = metadata !{metadata !170, metadata !742}
!946 = metadata !{i32 786478, i32 0, metadata !726, metadata !"nand_reduce", metadata !"nand_reduce", metadata !"_ZN11ap_int_baseILi96ELb0ELb0EE11nand_reduceEv", metadata !152, i32 3271, metadata !944, i1 false, i1 false, i32 0, i32 0, null, i32 256, i1 false, null, null, i32 0, metadata !164, i32 3271} ; [ DW_TAG_subprogram ]
!947 = metadata !{i32 786478, i32 0, metadata !726, metadata !"or_reduce", metadata !"or_reduce", metadata !"_ZN11ap_int_baseILi96ELb0ELb0EE9or_reduceEv", metadata !152, i32 3274, metadata !944, i1 false, i1 false, i32 0, i32 0, null, i32 256, i1 false, null, null, i32 0, metadata !164, i32 3274} ; [ DW_TAG_subprogram ]
!948 = metadata !{i32 786478, i32 0, metadata !726, metadata !"nor_reduce", metadata !"nor_reduce", metadata !"_ZN11ap_int_baseILi96ELb0ELb0EE10nor_reduceEv", metadata !152, i32 3277, metadata !944, i1 false, i1 false, i32 0, i32 0, null, i32 256, i1 false, null, null, i32 0, metadata !164, i32 3277} ; [ DW_TAG_subprogram ]
!949 = metadata !{i32 786478, i32 0, metadata !726, metadata !"xor_reduce", metadata !"xor_reduce", metadata !"_ZN11ap_int_baseILi96ELb0ELb0EE10xor_reduceEv", metadata !152, i32 3280, metadata !944, i1 false, i1 false, i32 0, i32 0, null, i32 256, i1 false, null, null, i32 0, metadata !164, i32 3280} ; [ DW_TAG_subprogram ]
!950 = metadata !{i32 786478, i32 0, metadata !726, metadata !"xnor_reduce", metadata !"xnor_reduce", metadata !"_ZN11ap_int_baseILi96ELb0ELb0EE11xnor_reduceEv", metadata !152, i32 3283, metadata !944, i1 false, i1 false, i32 0, i32 0, null, i32 256, i1 false, null, null, i32 0, metadata !164, i32 3283} ; [ DW_TAG_subprogram ]
!951 = metadata !{i32 786478, i32 0, metadata !726, metadata !"and_reduce", metadata !"and_reduce", metadata !"_ZNK11ap_int_baseILi96ELb0ELb0EE10and_reduceEv", metadata !152, i32 3287, metadata !853, i1 false, i1 false, i32 0, i32 0, null, i32 256, i1 false, null, null, i32 0, metadata !164, i32 3287} ; [ DW_TAG_subprogram ]
!952 = metadata !{i32 786478, i32 0, metadata !726, metadata !"nand_reduce", metadata !"nand_reduce", metadata !"_ZNK11ap_int_baseILi96ELb0ELb0EE11nand_reduceEv", metadata !152, i32 3290, metadata !853, i1 false, i1 false, i32 0, i32 0, null, i32 256, i1 false, null, null, i32 0, metadata !164, i32 3290} ; [ DW_TAG_subprogram ]
!953 = metadata !{i32 786478, i32 0, metadata !726, metadata !"or_reduce", metadata !"or_reduce", metadata !"_ZNK11ap_int_baseILi96ELb0ELb0EE9or_reduceEv", metadata !152, i32 3293, metadata !853, i1 false, i1 false, i32 0, i32 0, null, i32 256, i1 false, null, null, i32 0, metadata !164, i32 3293} ; [ DW_TAG_subprogram ]
!954 = metadata !{i32 786478, i32 0, metadata !726, metadata !"nor_reduce", metadata !"nor_reduce", metadata !"_ZNK11ap_int_baseILi96ELb0ELb0EE10nor_reduceEv", metadata !152, i32 3296, metadata !853, i1 false, i1 false, i32 0, i32 0, null, i32 256, i1 false, null, null, i32 0, metadata !164, i32 3296} ; [ DW_TAG_subprogram ]
!955 = metadata !{i32 786478, i32 0, metadata !726, metadata !"xor_reduce", metadata !"xor_reduce", metadata !"_ZNK11ap_int_baseILi96ELb0ELb0EE10xor_reduceEv", metadata !152, i32 3299, metadata !853, i1 false, i1 false, i32 0, i32 0, null, i32 256, i1 false, null, null, i32 0, metadata !164, i32 3299} ; [ DW_TAG_subprogram ]
!956 = metadata !{i32 786478, i32 0, metadata !726, metadata !"xnor_reduce", metadata !"xnor_reduce", metadata !"_ZNK11ap_int_baseILi96ELb0ELb0EE11xnor_reduceEv", metadata !152, i32 3302, metadata !853, i1 false, i1 false, i32 0, i32 0, null, i32 256, i1 false, null, null, i32 0, metadata !164, i32 3302} ; [ DW_TAG_subprogram ]
!957 = metadata !{i32 786478, i32 0, metadata !726, metadata !"to_string", metadata !"to_string", metadata !"_ZNK11ap_int_baseILi96ELb0ELb0EE9to_stringEPci8BaseModeb", metadata !152, i32 3309, metadata !958, i1 false, i1 false, i32 0, i32 0, null, i32 256, i1 false, null, null, i32 0, metadata !164, i32 3309} ; [ DW_TAG_subprogram ]
!958 = metadata !{i32 786453, i32 0, metadata !"", i32 0, i32 0, i64 0, i64 0, i64 0, i32 0, null, metadata !959, i32 0, i32 0} ; [ DW_TAG_subroutine_type ]
!959 = metadata !{null, metadata !851, metadata !423, metadata !168, metadata !424, metadata !170}
!960 = metadata !{i32 786478, i32 0, metadata !726, metadata !"to_string", metadata !"to_string", metadata !"_ZNK11ap_int_baseILi96ELb0ELb0EE9to_stringE8BaseModeb", metadata !152, i32 3336, metadata !961, i1 false, i1 false, i32 0, i32 0, null, i32 256, i1 false, null, null, i32 0, metadata !164, i32 3336} ; [ DW_TAG_subprogram ]
!961 = metadata !{i32 786453, i32 0, metadata !"", i32 0, i32 0, i64 0, i64 0, i64 0, i32 0, null, metadata !962, i32 0, i32 0} ; [ DW_TAG_subroutine_type ]
!962 = metadata !{metadata !423, metadata !851, metadata !424, metadata !170}
!963 = metadata !{i32 786478, i32 0, metadata !726, metadata !"to_string", metadata !"to_string", metadata !"_ZNK11ap_int_baseILi96ELb0ELb0EE9to_stringEab", metadata !152, i32 3340, metadata !964, i1 false, i1 false, i32 0, i32 0, null, i32 256, i1 false, null, null, i32 0, metadata !164, i32 3340} ; [ DW_TAG_subprogram ]
!964 = metadata !{i32 786453, i32 0, metadata !"", i32 0, i32 0, i64 0, i64 0, i64 0, i32 0, null, metadata !965, i32 0, i32 0} ; [ DW_TAG_subroutine_type ]
!965 = metadata !{metadata !423, metadata !851, metadata !195, metadata !170}
!966 = metadata !{metadata !685, metadata !738, metadata !669}
!967 = metadata !{i32 786447, i32 0, metadata !"", i32 0, i32 0, i64 64, i64 64, i64 0, i32 64, metadata !458} ; [ DW_TAG_pointer_type ]
!968 = metadata !{i32 786478, i32 0, metadata !459, metadata !"operator unsigned long long", metadata !"operator unsigned long long", metadata !"_ZNK12ap_range_refILi96ELb1EEcvyEv", metadata !152, i32 945, metadata !969, i1 false, i1 false, i32 0, i32 0, null, i32 256, i1 false, null, null, i32 0, metadata !164, i32 945} ; [ DW_TAG_subprogram ]
!969 = metadata !{i32 786453, i32 0, metadata !"", i32 0, i32 0, i64 0, i64 0, i64 0, i32 0, null, metadata !970, i32 0, i32 0} ; [ DW_TAG_subroutine_type ]
!970 = metadata !{metadata !232, metadata !967}
!971 = metadata !{i32 786478, i32 0, metadata !459, metadata !"operator=", metadata !"operator=", metadata !"_ZN12ap_range_refILi96ELb1EEaSEy", metadata !152, i32 949, metadata !972, i1 false, i1 false, i32 0, i32 0, null, i32 256, i1 false, null, null, i32 0, metadata !164, i32 949} ; [ DW_TAG_subprogram ]
!972 = metadata !{i32 786453, i32 0, metadata !"", i32 0, i32 0, i64 0, i64 0, i64 0, i32 0, null, metadata !973, i32 0, i32 0} ; [ DW_TAG_subroutine_type ]
!973 = metadata !{metadata !974, metadata !718, metadata !232}
!974 = metadata !{i32 786448, null, null, null, i32 0, i64 0, i64 0, i64 0, i32 0, metadata !459} ; [ DW_TAG_reference_type ]
!975 = metadata !{i32 786478, i32 0, metadata !459, metadata !"operator=", metadata !"operator=", metadata !"_ZN12ap_range_refILi96ELb1EEaSERKS0_", metadata !152, i32 967, metadata !976, i1 false, i1 false, i32 0, i32 0, null, i32 256, i1 false, null, null, i32 0, metadata !164, i32 967} ; [ DW_TAG_subprogram ]
!976 = metadata !{i32 786453, i32 0, metadata !"", i32 0, i32 0, i64 0, i64 0, i64 0, i32 0, null, metadata !977, i32 0, i32 0} ; [ DW_TAG_subroutine_type ]
!977 = metadata !{metadata !974, metadata !718, metadata !457}
!978 = metadata !{i32 786478, i32 0, metadata !459, metadata !"operator,", metadata !"operator,", metadata !"_ZN12ap_range_refILi96ELb1EEcmER11ap_int_baseILi96ELb1ELb0EE", metadata !152, i32 1022, metadata !979, i1 false, i1 false, i32 0, i32 0, null, i32 256, i1 false, null, null, i32 0, metadata !164, i32 1022} ; [ DW_TAG_subprogram ]
!979 = metadata !{i32 786453, i32 0, metadata !"", i32 0, i32 0, i64 0, i64 0, i64 0, i32 0, null, metadata !980, i32 0, i32 0} ; [ DW_TAG_subroutine_type ]
!980 = metadata !{metadata !981, metadata !718, metadata !462}
!981 = metadata !{i32 786434, null, metadata !"ap_concat_ref<96, ap_range_ref<96, true>, 96, ap_int_base<96, true, false> >", metadata !152, i32 688, i64 0, i64 0, i32 0, i32 4, null, null, i32 0, null, metadata !982} ; [ DW_TAG_class_type ]
!982 = metadata !{metadata !983, metadata !984, metadata !486, metadata !985}
!983 = metadata !{i32 786480, null, metadata !"_AP_W1", metadata !168, i64 96, null, i32 0, i32 0} ; [ DW_TAG_template_value_parameter ]
!984 = metadata !{i32 786479, null, metadata !"_AP_T1", metadata !459, null, i32 0, i32 0} ; [ DW_TAG_template_type_parameter ]
!985 = metadata !{i32 786479, null, metadata !"_AP_T2", metadata !463, null, i32 0, i32 0} ; [ DW_TAG_template_type_parameter ]
!986 = metadata !{i32 786478, i32 0, metadata !459, metadata !"length", metadata !"length", metadata !"_ZNK12ap_range_refILi96ELb1EE6lengthEv", metadata !152, i32 1187, metadata !987, i1 false, i1 false, i32 0, i32 0, null, i32 256, i1 false, null, null, i32 0, metadata !164, i32 1187} ; [ DW_TAG_subprogram ]
!987 = metadata !{i32 786453, i32 0, metadata !"", i32 0, i32 0, i64 0, i64 0, i64 0, i32 0, null, metadata !988, i32 0, i32 0} ; [ DW_TAG_subroutine_type ]
!988 = metadata !{metadata !168, metadata !967}
!989 = metadata !{i32 786478, i32 0, metadata !459, metadata !"to_int", metadata !"to_int", metadata !"_ZNK12ap_range_refILi96ELb1EE6to_intEv", metadata !152, i32 1191, metadata !987, i1 false, i1 false, i32 0, i32 0, null, i32 256, i1 false, null, null, i32 0, metadata !164, i32 1191} ; [ DW_TAG_subprogram ]
!990 = metadata !{i32 786478, i32 0, metadata !459, metadata !"to_uint", metadata !"to_uint", metadata !"_ZNK12ap_range_refILi96ELb1EE7to_uintEv", metadata !152, i32 1194, metadata !991, i1 false, i1 false, i32 0, i32 0, null, i32 256, i1 false, null, null, i32 0, metadata !164, i32 1194} ; [ DW_TAG_subprogram ]
!991 = metadata !{i32 786453, i32 0, metadata !"", i32 0, i32 0, i64 0, i64 0, i64 0, i32 0, null, metadata !992, i32 0, i32 0} ; [ DW_TAG_subroutine_type ]
!992 = metadata !{metadata !214, metadata !967}
!993 = metadata !{i32 786478, i32 0, metadata !459, metadata !"to_long", metadata !"to_long", metadata !"_ZNK12ap_range_refILi96ELb1EE7to_longEv", metadata !152, i32 1197, metadata !994, i1 false, i1 false, i32 0, i32 0, null, i32 256, i1 false, null, null, i32 0, metadata !164, i32 1197} ; [ DW_TAG_subprogram ]
!994 = metadata !{i32 786453, i32 0, metadata !"", i32 0, i32 0, i64 0, i64 0, i64 0, i32 0, null, metadata !995, i32 0, i32 0} ; [ DW_TAG_subroutine_type ]
!995 = metadata !{metadata !218, metadata !967}
!996 = metadata !{i32 786478, i32 0, metadata !459, metadata !"to_ulong", metadata !"to_ulong", metadata !"_ZNK12ap_range_refILi96ELb1EE8to_ulongEv", metadata !152, i32 1200, metadata !997, i1 false, i1 false, i32 0, i32 0, null, i32 256, i1 false, null, null, i32 0, metadata !164, i32 1200} ; [ DW_TAG_subprogram ]
!997 = metadata !{i32 786453, i32 0, metadata !"", i32 0, i32 0, i64 0, i64 0, i64 0, i32 0, null, metadata !998, i32 0, i32 0} ; [ DW_TAG_subroutine_type ]
!998 = metadata !{metadata !222, metadata !967}
!999 = metadata !{i32 786478, i32 0, metadata !459, metadata !"to_int64", metadata !"to_int64", metadata !"_ZNK12ap_range_refILi96ELb1EE8to_int64Ev", metadata !152, i32 1203, metadata !1000, i1 false, i1 false, i32 0, i32 0, null, i32 256, i1 false, null, null, i32 0, metadata !164, i32 1203} ; [ DW_TAG_subprogram ]
!1000 = metadata !{i32 786453, i32 0, metadata !"", i32 0, i32 0, i64 0, i64 0, i64 0, i32 0, null, metadata !1001, i32 0, i32 0} ; [ DW_TAG_subroutine_type ]
!1001 = metadata !{metadata !226, metadata !967}
!1002 = metadata !{i32 786478, i32 0, metadata !459, metadata !"to_uint64", metadata !"to_uint64", metadata !"_ZNK12ap_range_refILi96ELb1EE9to_uint64Ev", metadata !152, i32 1206, metadata !1003, i1 false, i1 false, i32 0, i32 0, null, i32 256, i1 false, null, null, i32 0, metadata !164, i32 1206} ; [ DW_TAG_subprogram ]
!1003 = metadata !{i32 786453, i32 0, metadata !"", i32 0, i32 0, i64 0, i64 0, i64 0, i32 0, null, metadata !1004, i32 0, i32 0} ; [ DW_TAG_subroutine_type ]
!1004 = metadata !{metadata !231, metadata !967}
!1005 = metadata !{i32 786478, i32 0, metadata !459, metadata !"and_reduce", metadata !"and_reduce", metadata !"_ZNK12ap_range_refILi96ELb1EE10and_reduceEv", metadata !152, i32 1209, metadata !1006, i1 false, i1 false, i32 0, i32 0, null, i32 256, i1 false, null, null, i32 0, metadata !164, i32 1209} ; [ DW_TAG_subprogram ]
!1006 = metadata !{i32 786453, i32 0, metadata !"", i32 0, i32 0, i64 0, i64 0, i64 0, i32 0, null, metadata !1007, i32 0, i32 0} ; [ DW_TAG_subroutine_type ]
!1007 = metadata !{metadata !170, metadata !967}
!1008 = metadata !{i32 786478, i32 0, metadata !459, metadata !"or_reduce", metadata !"or_reduce", metadata !"_ZNK12ap_range_refILi96ELb1EE9or_reduceEv", metadata !152, i32 1220, metadata !1006, i1 false, i1 false, i32 0, i32 0, null, i32 256, i1 false, null, null, i32 0, metadata !164, i32 1220} ; [ DW_TAG_subprogram ]
!1009 = metadata !{i32 786478, i32 0, metadata !459, metadata !"xor_reduce", metadata !"xor_reduce", metadata !"_ZNK12ap_range_refILi96ELb1EE10xor_reduceEv", metadata !152, i32 1231, metadata !1006, i1 false, i1 false, i32 0, i32 0, null, i32 256, i1 false, null, null, i32 0, metadata !164, i32 1231} ; [ DW_TAG_subprogram ]
!1010 = metadata !{i32 786478, i32 0, metadata !459, metadata !"~ap_range_ref", metadata !"~ap_range_ref", metadata !"", metadata !152, i32 925, metadata !1011, i1 false, i1 false, i32 0, i32 0, null, i32 320, i1 false, null, null, i32 0, metadata !164, i32 925} ; [ DW_TAG_subprogram ]
!1011 = metadata !{i32 786453, i32 0, metadata !"", i32 0, i32 0, i64 0, i64 0, i64 0, i32 0, null, metadata !1012, i32 0, i32 0} ; [ DW_TAG_subroutine_type ]
!1012 = metadata !{null, metadata !718}
!1013 = metadata !{i32 786478, i32 0, metadata !147, metadata !"ap_int<48, ap_int_base<48, true, true>, 16, ap_int_base<16, false, true> >", metadata !"ap_int<48, ap_int_base<48, true, true>, 16, ap_int_base<16, false, true> >", metadata !"", metadata !148, i32 97, metadata !1014, i1 false, i1 false, i32 0, i32 0, null, i32 256, i1 false, null, metadata !2201, i32 0, metadata !164, i32 97} ; [ DW_TAG_subprogram ]
!1014 = metadata !{i32 786453, i32 0, metadata !"", i32 0, i32 0, i64 0, i64 0, i64 0, i32 0, null, metadata !1015, i32 0, i32 0} ; [ DW_TAG_subroutine_type ]
!1015 = metadata !{null, metadata !441, metadata !1016}
!1016 = metadata !{i32 786448, null, null, null, i32 0, i64 0, i64 0, i64 0, i32 0, metadata !1017} ; [ DW_TAG_reference_type ]
!1017 = metadata !{i32 786470, null, metadata !"", null, i32 0, i64 0, i64 0, i64 0, i32 0, metadata !1018} ; [ DW_TAG_const_type ]
!1018 = metadata !{i32 786434, null, metadata !"ap_concat_ref<48, ap_int_base<48, true, true>, 16, ap_int_base<16, false, true> >", metadata !152, i32 688, i64 128, i64 64, i32 0, i32 0, null, metadata !1019, i32 0, null, metadata !2199} ; [ DW_TAG_class_type ]
!1019 = metadata !{metadata !1020, metadata !1870, metadata !1871, metadata !1875, metadata !1878, metadata !1882, metadata !1885, metadata !2189, metadata !2192, metadata !2193, metadata !2196}
!1020 = metadata !{i32 786445, metadata !1018, metadata !"mbv1", metadata !152, i32 691, i64 64, i64 64, i64 0, i32 0, metadata !1021} ; [ DW_TAG_member ]
!1021 = metadata !{i32 786448, null, null, null, i32 0, i64 0, i64 0, i64 0, i32 0, metadata !1022} ; [ DW_TAG_reference_type ]
!1022 = metadata !{i32 786434, null, metadata !"ap_int_base<48, true, true>", metadata !152, i32 1453, i64 64, i64 64, i32 0, i32 0, null, metadata !1023, i32 0, null, metadata !1869} ; [ DW_TAG_class_type ]
!1023 = metadata !{metadata !1024, metadata !1040, metadata !1044, metadata !1051, metadata !1057, metadata !1060, metadata !1063, metadata !1066, metadata !1069, metadata !1072, metadata !1075, metadata !1078, metadata !1081, metadata !1084, metadata !1087, metadata !1090, metadata !1093, metadata !1096, metadata !1099, metadata !1102, metadata !1105, metadata !1109, metadata !1112, metadata !1115, metadata !1116, metadata !1119, metadata !1122, metadata !1125, metadata !1128, metadata !1131, metadata !1134, metadata !1137, metadata !1140, metadata !1143, metadata !1146, metadata !1149, metadata !1152, metadata !1161, metadata !1164, metadata !1167, metadata !1170, metadata !1173, metadata !1176, metadata !1179, metadata !1182, metadata !1185, metadata !1188, metadata !1191, metadata !1194, metadata !1197, metadata !1198, metadata !1202, metadata !1205, metadata !1206, metadata !1207, metadata !1208, metadata !1209, metadata !1210, metadata !1213, metadata !1214, metadata !1217, metadata !1218, metadata !1219, metadata !1220, metadata !1221, metadata !1222, metadata !1225, metadata !1226, metadata !1227, metadata !1230, metadata !1231, metadata !1234, metadata !1235, metadata !1241, metadata !1247, metadata !1248, metadata !1251, metadata !1252, metadata !1256, metadata !1257, metadata !1258, metadata !1259, metadata !1300, metadata !1839, metadata !1842, metadata !1845, metadata !1848, metadata !1849, metadata !1850, metadata !1851, metadata !1852, metadata !1853, metadata !1854, metadata !1855, metadata !1856, metadata !1857, metadata !1858, metadata !1859, metadata !1862, metadata !1865, metadata !1868}
!1024 = metadata !{i32 786460, metadata !1022, null, metadata !152, i32 0, i64 0, i64 0, i64 0, i32 0, metadata !1025} ; [ DW_TAG_inheritance ]
!1025 = metadata !{i32 786434, null, metadata !"ssdm_int<48 + 1024 * 0, true>", metadata !156, i32 50, i64 64, i64 64, i32 0, i32 0, null, metadata !1026, i32 0, null, metadata !1038} ; [ DW_TAG_class_type ]
!1026 = metadata !{metadata !1027, metadata !1029, metadata !1033}
!1027 = metadata !{i32 786445, metadata !1025, metadata !"V", metadata !156, i32 50, i64 48, i64 64, i64 0, i32 0, metadata !1028} ; [ DW_TAG_member ]
!1028 = metadata !{i32 786468, null, metadata !"int48", null, i32 0, i64 48, i64 64, i64 0, i32 0, i32 5} ; [ DW_TAG_base_type ]
!1029 = metadata !{i32 786478, i32 0, metadata !1025, metadata !"ssdm_int", metadata !"ssdm_int", metadata !"", metadata !156, i32 50, metadata !1030, i1 false, i1 false, i32 0, i32 0, null, i32 256, i1 false, null, null, i32 0, metadata !164, i32 50} ; [ DW_TAG_subprogram ]
!1030 = metadata !{i32 786453, i32 0, metadata !"", i32 0, i32 0, i64 0, i64 0, i64 0, i32 0, null, metadata !1031, i32 0, i32 0} ; [ DW_TAG_subroutine_type ]
!1031 = metadata !{null, metadata !1032}
!1032 = metadata !{i32 786447, i32 0, metadata !"", i32 0, i32 0, i64 64, i64 64, i64 0, i32 64, metadata !1025} ; [ DW_TAG_pointer_type ]
!1033 = metadata !{i32 786478, i32 0, metadata !1025, metadata !"ssdm_int", metadata !"ssdm_int", metadata !"", metadata !156, i32 50, metadata !1034, i1 false, i1 false, i32 0, i32 0, null, i32 320, i1 false, null, null, i32 0, metadata !164, i32 50} ; [ DW_TAG_subprogram ]
!1034 = metadata !{i32 786453, i32 0, metadata !"", i32 0, i32 0, i64 0, i64 0, i64 0, i32 0, null, metadata !1035, i32 0, i32 0} ; [ DW_TAG_subroutine_type ]
!1035 = metadata !{null, metadata !1032, metadata !1036}
!1036 = metadata !{i32 786448, null, null, null, i32 0, i64 0, i64 0, i64 0, i32 0, metadata !1037} ; [ DW_TAG_reference_type ]
!1037 = metadata !{i32 786470, null, metadata !"", null, i32 0, i64 0, i64 0, i64 0, i32 0, metadata !1025} ; [ DW_TAG_const_type ]
!1038 = metadata !{metadata !1039, metadata !169}
!1039 = metadata !{i32 786480, null, metadata !"_AP_N", metadata !168, i64 48, null, i32 0, i32 0} ; [ DW_TAG_template_value_parameter ]
!1040 = metadata !{i32 786478, i32 0, metadata !1022, metadata !"ap_int_base", metadata !"ap_int_base", metadata !"", metadata !152, i32 1494, metadata !1041, i1 false, i1 false, i32 0, i32 0, null, i32 256, i1 false, null, null, i32 0, metadata !164, i32 1494} ; [ DW_TAG_subprogram ]
!1041 = metadata !{i32 786453, i32 0, metadata !"", i32 0, i32 0, i64 0, i64 0, i64 0, i32 0, null, metadata !1042, i32 0, i32 0} ; [ DW_TAG_subroutine_type ]
!1042 = metadata !{null, metadata !1043}
!1043 = metadata !{i32 786447, i32 0, metadata !"", i32 0, i32 0, i64 64, i64 64, i64 0, i32 64, metadata !1022} ; [ DW_TAG_pointer_type ]
!1044 = metadata !{i32 786478, i32 0, metadata !1022, metadata !"ap_int_base<48, true>", metadata !"ap_int_base<48, true>", metadata !"", metadata !152, i32 1506, metadata !1045, i1 false, i1 false, i32 0, i32 0, null, i32 256, i1 false, null, metadata !1049, i32 0, metadata !164, i32 1506} ; [ DW_TAG_subprogram ]
!1045 = metadata !{i32 786453, i32 0, metadata !"", i32 0, i32 0, i64 0, i64 0, i64 0, i32 0, null, metadata !1046, i32 0, i32 0} ; [ DW_TAG_subroutine_type ]
!1046 = metadata !{null, metadata !1043, metadata !1047}
!1047 = metadata !{i32 786448, null, null, null, i32 0, i64 0, i64 0, i64 0, i32 0, metadata !1048} ; [ DW_TAG_reference_type ]
!1048 = metadata !{i32 786470, null, metadata !"", null, i32 0, i64 0, i64 0, i64 0, i32 0, metadata !1022} ; [ DW_TAG_const_type ]
!1049 = metadata !{metadata !1050, metadata !182}
!1050 = metadata !{i32 786480, null, metadata !"_AP_W2", metadata !168, i64 48, null, i32 0, i32 0} ; [ DW_TAG_template_value_parameter ]
!1051 = metadata !{i32 786478, i32 0, metadata !1022, metadata !"ap_int_base<48, true>", metadata !"ap_int_base<48, true>", metadata !"", metadata !152, i32 1509, metadata !1052, i1 false, i1 false, i32 0, i32 0, null, i32 256, i1 false, null, metadata !1049, i32 0, metadata !164, i32 1509} ; [ DW_TAG_subprogram ]
!1052 = metadata !{i32 786453, i32 0, metadata !"", i32 0, i32 0, i64 0, i64 0, i64 0, i32 0, null, metadata !1053, i32 0, i32 0} ; [ DW_TAG_subroutine_type ]
!1053 = metadata !{null, metadata !1043, metadata !1054}
!1054 = metadata !{i32 786448, null, null, null, i32 0, i64 0, i64 0, i64 0, i32 0, metadata !1055} ; [ DW_TAG_reference_type ]
!1055 = metadata !{i32 786470, null, metadata !"", null, i32 0, i64 0, i64 0, i64 0, i32 0, metadata !1056} ; [ DW_TAG_const_type ]
!1056 = metadata !{i32 786485, null, metadata !"", null, i32 0, i64 0, i64 0, i64 0, i32 0, metadata !1022} ; [ DW_TAG_volatile_type ]
!1057 = metadata !{i32 786478, i32 0, metadata !1022, metadata !"ap_int_base", metadata !"ap_int_base", metadata !"", metadata !152, i32 1516, metadata !1058, i1 false, i1 false, i32 0, i32 0, null, i32 384, i1 false, null, null, i32 0, metadata !164, i32 1516} ; [ DW_TAG_subprogram ]
!1058 = metadata !{i32 786453, i32 0, metadata !"", i32 0, i32 0, i64 0, i64 0, i64 0, i32 0, null, metadata !1059, i32 0, i32 0} ; [ DW_TAG_subroutine_type ]
!1059 = metadata !{null, metadata !1043, metadata !170}
!1060 = metadata !{i32 786478, i32 0, metadata !1022, metadata !"ap_int_base", metadata !"ap_int_base", metadata !"", metadata !152, i32 1517, metadata !1061, i1 false, i1 false, i32 0, i32 0, null, i32 384, i1 false, null, null, i32 0, metadata !164, i32 1517} ; [ DW_TAG_subprogram ]
!1061 = metadata !{i32 786453, i32 0, metadata !"", i32 0, i32 0, i64 0, i64 0, i64 0, i32 0, null, metadata !1062, i32 0, i32 0} ; [ DW_TAG_subroutine_type ]
!1062 = metadata !{null, metadata !1043, metadata !195}
!1063 = metadata !{i32 786478, i32 0, metadata !1022, metadata !"ap_int_base", metadata !"ap_int_base", metadata !"", metadata !152, i32 1518, metadata !1064, i1 false, i1 false, i32 0, i32 0, null, i32 384, i1 false, null, null, i32 0, metadata !164, i32 1518} ; [ DW_TAG_subprogram ]
!1064 = metadata !{i32 786453, i32 0, metadata !"", i32 0, i32 0, i64 0, i64 0, i64 0, i32 0, null, metadata !1065, i32 0, i32 0} ; [ DW_TAG_subroutine_type ]
!1065 = metadata !{null, metadata !1043, metadata !199}
!1066 = metadata !{i32 786478, i32 0, metadata !1022, metadata !"ap_int_base", metadata !"ap_int_base", metadata !"", metadata !152, i32 1519, metadata !1067, i1 false, i1 false, i32 0, i32 0, null, i32 384, i1 false, null, null, i32 0, metadata !164, i32 1519} ; [ DW_TAG_subprogram ]
!1067 = metadata !{i32 786453, i32 0, metadata !"", i32 0, i32 0, i64 0, i64 0, i64 0, i32 0, null, metadata !1068, i32 0, i32 0} ; [ DW_TAG_subroutine_type ]
!1068 = metadata !{null, metadata !1043, metadata !203}
!1069 = metadata !{i32 786478, i32 0, metadata !1022, metadata !"ap_int_base", metadata !"ap_int_base", metadata !"", metadata !152, i32 1520, metadata !1070, i1 false, i1 false, i32 0, i32 0, null, i32 384, i1 false, null, null, i32 0, metadata !164, i32 1520} ; [ DW_TAG_subprogram ]
!1070 = metadata !{i32 786453, i32 0, metadata !"", i32 0, i32 0, i64 0, i64 0, i64 0, i32 0, null, metadata !1071, i32 0, i32 0} ; [ DW_TAG_subroutine_type ]
!1071 = metadata !{null, metadata !1043, metadata !207}
!1072 = metadata !{i32 786478, i32 0, metadata !1022, metadata !"ap_int_base", metadata !"ap_int_base", metadata !"", metadata !152, i32 1521, metadata !1073, i1 false, i1 false, i32 0, i32 0, null, i32 384, i1 false, null, null, i32 0, metadata !164, i32 1521} ; [ DW_TAG_subprogram ]
!1073 = metadata !{i32 786453, i32 0, metadata !"", i32 0, i32 0, i64 0, i64 0, i64 0, i32 0, null, metadata !1074, i32 0, i32 0} ; [ DW_TAG_subroutine_type ]
!1074 = metadata !{null, metadata !1043, metadata !168}
!1075 = metadata !{i32 786478, i32 0, metadata !1022, metadata !"ap_int_base", metadata !"ap_int_base", metadata !"", metadata !152, i32 1522, metadata !1076, i1 false, i1 false, i32 0, i32 0, null, i32 384, i1 false, null, null, i32 0, metadata !164, i32 1522} ; [ DW_TAG_subprogram ]
!1076 = metadata !{i32 786453, i32 0, metadata !"", i32 0, i32 0, i64 0, i64 0, i64 0, i32 0, null, metadata !1077, i32 0, i32 0} ; [ DW_TAG_subroutine_type ]
!1077 = metadata !{null, metadata !1043, metadata !214}
!1078 = metadata !{i32 786478, i32 0, metadata !1022, metadata !"ap_int_base", metadata !"ap_int_base", metadata !"", metadata !152, i32 1523, metadata !1079, i1 false, i1 false, i32 0, i32 0, null, i32 384, i1 false, null, null, i32 0, metadata !164, i32 1523} ; [ DW_TAG_subprogram ]
!1079 = metadata !{i32 786453, i32 0, metadata !"", i32 0, i32 0, i64 0, i64 0, i64 0, i32 0, null, metadata !1080, i32 0, i32 0} ; [ DW_TAG_subroutine_type ]
!1080 = metadata !{null, metadata !1043, metadata !218}
!1081 = metadata !{i32 786478, i32 0, metadata !1022, metadata !"ap_int_base", metadata !"ap_int_base", metadata !"", metadata !152, i32 1524, metadata !1082, i1 false, i1 false, i32 0, i32 0, null, i32 384, i1 false, null, null, i32 0, metadata !164, i32 1524} ; [ DW_TAG_subprogram ]
!1082 = metadata !{i32 786453, i32 0, metadata !"", i32 0, i32 0, i64 0, i64 0, i64 0, i32 0, null, metadata !1083, i32 0, i32 0} ; [ DW_TAG_subroutine_type ]
!1083 = metadata !{null, metadata !1043, metadata !222}
!1084 = metadata !{i32 786478, i32 0, metadata !1022, metadata !"ap_int_base", metadata !"ap_int_base", metadata !"", metadata !152, i32 1525, metadata !1085, i1 false, i1 false, i32 0, i32 0, null, i32 384, i1 false, null, null, i32 0, metadata !164, i32 1525} ; [ DW_TAG_subprogram ]
!1085 = metadata !{i32 786453, i32 0, metadata !"", i32 0, i32 0, i64 0, i64 0, i64 0, i32 0, null, metadata !1086, i32 0, i32 0} ; [ DW_TAG_subroutine_type ]
!1086 = metadata !{null, metadata !1043, metadata !226}
!1087 = metadata !{i32 786478, i32 0, metadata !1022, metadata !"ap_int_base", metadata !"ap_int_base", metadata !"", metadata !152, i32 1526, metadata !1088, i1 false, i1 false, i32 0, i32 0, null, i32 384, i1 false, null, null, i32 0, metadata !164, i32 1526} ; [ DW_TAG_subprogram ]
!1088 = metadata !{i32 786453, i32 0, metadata !"", i32 0, i32 0, i64 0, i64 0, i64 0, i32 0, null, metadata !1089, i32 0, i32 0} ; [ DW_TAG_subroutine_type ]
!1089 = metadata !{null, metadata !1043, metadata !231}
!1090 = metadata !{i32 786478, i32 0, metadata !1022, metadata !"ap_int_base", metadata !"ap_int_base", metadata !"", metadata !152, i32 1527, metadata !1091, i1 false, i1 false, i32 0, i32 0, null, i32 384, i1 false, null, null, i32 0, metadata !164, i32 1527} ; [ DW_TAG_subprogram ]
!1091 = metadata !{i32 786453, i32 0, metadata !"", i32 0, i32 0, i64 0, i64 0, i64 0, i32 0, null, metadata !1092, i32 0, i32 0} ; [ DW_TAG_subroutine_type ]
!1092 = metadata !{null, metadata !1043, metadata !236}
!1093 = metadata !{i32 786478, i32 0, metadata !1022, metadata !"ap_int_base", metadata !"ap_int_base", metadata !"", metadata !152, i32 1528, metadata !1094, i1 false, i1 false, i32 0, i32 0, null, i32 384, i1 false, null, null, i32 0, metadata !164, i32 1528} ; [ DW_TAG_subprogram ]
!1094 = metadata !{i32 786453, i32 0, metadata !"", i32 0, i32 0, i64 0, i64 0, i64 0, i32 0, null, metadata !1095, i32 0, i32 0} ; [ DW_TAG_subroutine_type ]
!1095 = metadata !{null, metadata !1043, metadata !241}
!1096 = metadata !{i32 786478, i32 0, metadata !1022, metadata !"ap_int_base", metadata !"ap_int_base", metadata !"", metadata !152, i32 1529, metadata !1097, i1 false, i1 false, i32 0, i32 0, null, i32 384, i1 false, null, null, i32 0, metadata !164, i32 1529} ; [ DW_TAG_subprogram ]
!1097 = metadata !{i32 786453, i32 0, metadata !"", i32 0, i32 0, i64 0, i64 0, i64 0, i32 0, null, metadata !1098, i32 0, i32 0} ; [ DW_TAG_subroutine_type ]
!1098 = metadata !{null, metadata !1043, metadata !245}
!1099 = metadata !{i32 786478, i32 0, metadata !1022, metadata !"ap_int_base", metadata !"ap_int_base", metadata !"", metadata !152, i32 1556, metadata !1100, i1 false, i1 false, i32 0, i32 0, null, i32 256, i1 false, null, null, i32 0, metadata !164, i32 1556} ; [ DW_TAG_subprogram ]
!1100 = metadata !{i32 786453, i32 0, metadata !"", i32 0, i32 0, i64 0, i64 0, i64 0, i32 0, null, metadata !1101, i32 0, i32 0} ; [ DW_TAG_subroutine_type ]
!1101 = metadata !{null, metadata !1043, metadata !249}
!1102 = metadata !{i32 786478, i32 0, metadata !1022, metadata !"ap_int_base", metadata !"ap_int_base", metadata !"", metadata !152, i32 1563, metadata !1103, i1 false, i1 false, i32 0, i32 0, null, i32 256, i1 false, null, null, i32 0, metadata !164, i32 1563} ; [ DW_TAG_subprogram ]
!1103 = metadata !{i32 786453, i32 0, metadata !"", i32 0, i32 0, i64 0, i64 0, i64 0, i32 0, null, metadata !1104, i32 0, i32 0} ; [ DW_TAG_subroutine_type ]
!1104 = metadata !{null, metadata !1043, metadata !249, metadata !195}
!1105 = metadata !{i32 786478, i32 0, metadata !1022, metadata !"read", metadata !"read", metadata !"_ZNV11ap_int_baseILi48ELb1ELb1EE4readEv", metadata !152, i32 1584, metadata !1106, i1 false, i1 false, i32 0, i32 0, null, i32 256, i1 false, null, null, i32 0, metadata !164, i32 1584} ; [ DW_TAG_subprogram ]
!1106 = metadata !{i32 786453, i32 0, metadata !"", i32 0, i32 0, i64 0, i64 0, i64 0, i32 0, null, metadata !1107, i32 0, i32 0} ; [ DW_TAG_subroutine_type ]
!1107 = metadata !{metadata !1022, metadata !1108}
!1108 = metadata !{i32 786447, i32 0, metadata !"", i32 0, i32 0, i64 64, i64 64, i64 0, i32 64, metadata !1056} ; [ DW_TAG_pointer_type ]
!1109 = metadata !{i32 786478, i32 0, metadata !1022, metadata !"write", metadata !"write", metadata !"_ZNV11ap_int_baseILi48ELb1ELb1EE5writeERKS0_", metadata !152, i32 1590, metadata !1110, i1 false, i1 false, i32 0, i32 0, null, i32 256, i1 false, null, null, i32 0, metadata !164, i32 1590} ; [ DW_TAG_subprogram ]
!1110 = metadata !{i32 786453, i32 0, metadata !"", i32 0, i32 0, i64 0, i64 0, i64 0, i32 0, null, metadata !1111, i32 0, i32 0} ; [ DW_TAG_subroutine_type ]
!1111 = metadata !{null, metadata !1108, metadata !1047}
!1112 = metadata !{i32 786478, i32 0, metadata !1022, metadata !"operator=", metadata !"operator=", metadata !"_ZNV11ap_int_baseILi48ELb1ELb1EEaSERVKS0_", metadata !152, i32 1602, metadata !1113, i1 false, i1 false, i32 0, i32 0, null, i32 256, i1 false, null, null, i32 0, metadata !164, i32 1602} ; [ DW_TAG_subprogram ]
!1113 = metadata !{i32 786453, i32 0, metadata !"", i32 0, i32 0, i64 0, i64 0, i64 0, i32 0, null, metadata !1114, i32 0, i32 0} ; [ DW_TAG_subroutine_type ]
!1114 = metadata !{null, metadata !1108, metadata !1054}
!1115 = metadata !{i32 786478, i32 0, metadata !1022, metadata !"operator=", metadata !"operator=", metadata !"_ZNV11ap_int_baseILi48ELb1ELb1EEaSERKS0_", metadata !152, i32 1611, metadata !1110, i1 false, i1 false, i32 0, i32 0, null, i32 256, i1 false, null, null, i32 0, metadata !164, i32 1611} ; [ DW_TAG_subprogram ]
!1116 = metadata !{i32 786478, i32 0, metadata !1022, metadata !"operator=", metadata !"operator=", metadata !"_ZN11ap_int_baseILi48ELb1ELb1EEaSERVKS0_", metadata !152, i32 1634, metadata !1117, i1 false, i1 false, i32 0, i32 0, null, i32 256, i1 false, null, null, i32 0, metadata !164, i32 1634} ; [ DW_TAG_subprogram ]
!1117 = metadata !{i32 786453, i32 0, metadata !"", i32 0, i32 0, i64 0, i64 0, i64 0, i32 0, null, metadata !1118, i32 0, i32 0} ; [ DW_TAG_subroutine_type ]
!1118 = metadata !{metadata !1021, metadata !1043, metadata !1054}
!1119 = metadata !{i32 786478, i32 0, metadata !1022, metadata !"operator=", metadata !"operator=", metadata !"_ZN11ap_int_baseILi48ELb1ELb1EEaSERKS0_", metadata !152, i32 1639, metadata !1120, i1 false, i1 false, i32 0, i32 0, null, i32 256, i1 false, null, null, i32 0, metadata !164, i32 1639} ; [ DW_TAG_subprogram ]
!1120 = metadata !{i32 786453, i32 0, metadata !"", i32 0, i32 0, i64 0, i64 0, i64 0, i32 0, null, metadata !1121, i32 0, i32 0} ; [ DW_TAG_subroutine_type ]
!1121 = metadata !{metadata !1021, metadata !1043, metadata !1047}
!1122 = metadata !{i32 786478, i32 0, metadata !1022, metadata !"operator=", metadata !"operator=", metadata !"_ZN11ap_int_baseILi48ELb1ELb1EEaSEPKc", metadata !152, i32 1643, metadata !1123, i1 false, i1 false, i32 0, i32 0, null, i32 256, i1 false, null, null, i32 0, metadata !164, i32 1643} ; [ DW_TAG_subprogram ]
!1123 = metadata !{i32 786453, i32 0, metadata !"", i32 0, i32 0, i64 0, i64 0, i64 0, i32 0, null, metadata !1124, i32 0, i32 0} ; [ DW_TAG_subroutine_type ]
!1124 = metadata !{metadata !1021, metadata !1043, metadata !249}
!1125 = metadata !{i32 786478, i32 0, metadata !1022, metadata !"set", metadata !"set", metadata !"_ZN11ap_int_baseILi48ELb1ELb1EE3setEPKca", metadata !152, i32 1651, metadata !1126, i1 false, i1 false, i32 0, i32 0, null, i32 256, i1 false, null, null, i32 0, metadata !164, i32 1651} ; [ DW_TAG_subprogram ]
!1126 = metadata !{i32 786453, i32 0, metadata !"", i32 0, i32 0, i64 0, i64 0, i64 0, i32 0, null, metadata !1127, i32 0, i32 0} ; [ DW_TAG_subroutine_type ]
!1127 = metadata !{metadata !1021, metadata !1043, metadata !249, metadata !195}
!1128 = metadata !{i32 786478, i32 0, metadata !1022, metadata !"operator=", metadata !"operator=", metadata !"_ZN11ap_int_baseILi48ELb1ELb1EEaSEa", metadata !152, i32 1665, metadata !1129, i1 false, i1 false, i32 0, i32 0, null, i32 256, i1 false, null, null, i32 0, metadata !164, i32 1665} ; [ DW_TAG_subprogram ]
!1129 = metadata !{i32 786453, i32 0, metadata !"", i32 0, i32 0, i64 0, i64 0, i64 0, i32 0, null, metadata !1130, i32 0, i32 0} ; [ DW_TAG_subroutine_type ]
!1130 = metadata !{metadata !1021, metadata !1043, metadata !195}
!1131 = metadata !{i32 786478, i32 0, metadata !1022, metadata !"operator=", metadata !"operator=", metadata !"_ZN11ap_int_baseILi48ELb1ELb1EEaSEh", metadata !152, i32 1666, metadata !1132, i1 false, i1 false, i32 0, i32 0, null, i32 256, i1 false, null, null, i32 0, metadata !164, i32 1666} ; [ DW_TAG_subprogram ]
!1132 = metadata !{i32 786453, i32 0, metadata !"", i32 0, i32 0, i64 0, i64 0, i64 0, i32 0, null, metadata !1133, i32 0, i32 0} ; [ DW_TAG_subroutine_type ]
!1133 = metadata !{metadata !1021, metadata !1043, metadata !199}
!1134 = metadata !{i32 786478, i32 0, metadata !1022, metadata !"operator=", metadata !"operator=", metadata !"_ZN11ap_int_baseILi48ELb1ELb1EEaSEs", metadata !152, i32 1667, metadata !1135, i1 false, i1 false, i32 0, i32 0, null, i32 256, i1 false, null, null, i32 0, metadata !164, i32 1667} ; [ DW_TAG_subprogram ]
!1135 = metadata !{i32 786453, i32 0, metadata !"", i32 0, i32 0, i64 0, i64 0, i64 0, i32 0, null, metadata !1136, i32 0, i32 0} ; [ DW_TAG_subroutine_type ]
!1136 = metadata !{metadata !1021, metadata !1043, metadata !203}
!1137 = metadata !{i32 786478, i32 0, metadata !1022, metadata !"operator=", metadata !"operator=", metadata !"_ZN11ap_int_baseILi48ELb1ELb1EEaSEt", metadata !152, i32 1668, metadata !1138, i1 false, i1 false, i32 0, i32 0, null, i32 256, i1 false, null, null, i32 0, metadata !164, i32 1668} ; [ DW_TAG_subprogram ]
!1138 = metadata !{i32 786453, i32 0, metadata !"", i32 0, i32 0, i64 0, i64 0, i64 0, i32 0, null, metadata !1139, i32 0, i32 0} ; [ DW_TAG_subroutine_type ]
!1139 = metadata !{metadata !1021, metadata !1043, metadata !207}
!1140 = metadata !{i32 786478, i32 0, metadata !1022, metadata !"operator=", metadata !"operator=", metadata !"_ZN11ap_int_baseILi48ELb1ELb1EEaSEi", metadata !152, i32 1669, metadata !1141, i1 false, i1 false, i32 0, i32 0, null, i32 256, i1 false, null, null, i32 0, metadata !164, i32 1669} ; [ DW_TAG_subprogram ]
!1141 = metadata !{i32 786453, i32 0, metadata !"", i32 0, i32 0, i64 0, i64 0, i64 0, i32 0, null, metadata !1142, i32 0, i32 0} ; [ DW_TAG_subroutine_type ]
!1142 = metadata !{metadata !1021, metadata !1043, metadata !168}
!1143 = metadata !{i32 786478, i32 0, metadata !1022, metadata !"operator=", metadata !"operator=", metadata !"_ZN11ap_int_baseILi48ELb1ELb1EEaSEj", metadata !152, i32 1670, metadata !1144, i1 false, i1 false, i32 0, i32 0, null, i32 256, i1 false, null, null, i32 0, metadata !164, i32 1670} ; [ DW_TAG_subprogram ]
!1144 = metadata !{i32 786453, i32 0, metadata !"", i32 0, i32 0, i64 0, i64 0, i64 0, i32 0, null, metadata !1145, i32 0, i32 0} ; [ DW_TAG_subroutine_type ]
!1145 = metadata !{metadata !1021, metadata !1043, metadata !214}
!1146 = metadata !{i32 786478, i32 0, metadata !1022, metadata !"operator=", metadata !"operator=", metadata !"_ZN11ap_int_baseILi48ELb1ELb1EEaSEx", metadata !152, i32 1671, metadata !1147, i1 false, i1 false, i32 0, i32 0, null, i32 256, i1 false, null, null, i32 0, metadata !164, i32 1671} ; [ DW_TAG_subprogram ]
!1147 = metadata !{i32 786453, i32 0, metadata !"", i32 0, i32 0, i64 0, i64 0, i64 0, i32 0, null, metadata !1148, i32 0, i32 0} ; [ DW_TAG_subroutine_type ]
!1148 = metadata !{metadata !1021, metadata !1043, metadata !226}
!1149 = metadata !{i32 786478, i32 0, metadata !1022, metadata !"operator=", metadata !"operator=", metadata !"_ZN11ap_int_baseILi48ELb1ELb1EEaSEy", metadata !152, i32 1672, metadata !1150, i1 false, i1 false, i32 0, i32 0, null, i32 256, i1 false, null, null, i32 0, metadata !164, i32 1672} ; [ DW_TAG_subprogram ]
!1150 = metadata !{i32 786453, i32 0, metadata !"", i32 0, i32 0, i64 0, i64 0, i64 0, i32 0, null, metadata !1151, i32 0, i32 0} ; [ DW_TAG_subroutine_type ]
!1151 = metadata !{metadata !1021, metadata !1043, metadata !231}
!1152 = metadata !{i32 786478, i32 0, metadata !1022, metadata !"operator long long", metadata !"operator long long", metadata !"_ZNK11ap_int_baseILi48ELb1ELb1EEcvxEv", metadata !152, i32 1710, metadata !1153, i1 false, i1 false, i32 0, i32 0, null, i32 256, i1 false, null, null, i32 0, metadata !164, i32 1710} ; [ DW_TAG_subprogram ]
!1153 = metadata !{i32 786453, i32 0, metadata !"", i32 0, i32 0, i64 0, i64 0, i64 0, i32 0, null, metadata !1154, i32 0, i32 0} ; [ DW_TAG_subroutine_type ]
!1154 = metadata !{metadata !1155, metadata !1160}
!1155 = metadata !{i32 786454, metadata !1022, metadata !"RetType", metadata !152, i32 1458, i64 0, i64 0, i64 0, i32 0, metadata !1156} ; [ DW_TAG_typedef ]
!1156 = metadata !{i32 786454, metadata !1157, metadata !"Type", metadata !152, i32 1415, i64 0, i64 0, i64 0, i32 0, metadata !226} ; [ DW_TAG_typedef ]
!1157 = metadata !{i32 786434, null, metadata !"retval<6, true>", metadata !152, i32 1414, i64 8, i64 8, i32 0, i32 0, null, metadata !309, i32 0, null, metadata !1158} ; [ DW_TAG_class_type ]
!1158 = metadata !{metadata !1159, metadata !169}
!1159 = metadata !{i32 786480, null, metadata !"_AP_N", metadata !168, i64 6, null, i32 0, i32 0} ; [ DW_TAG_template_value_parameter ]
!1160 = metadata !{i32 786447, i32 0, metadata !"", i32 0, i32 0, i64 64, i64 64, i64 0, i32 64, metadata !1048} ; [ DW_TAG_pointer_type ]
!1161 = metadata !{i32 786478, i32 0, metadata !1022, metadata !"to_bool", metadata !"to_bool", metadata !"_ZNK11ap_int_baseILi48ELb1ELb1EE7to_boolEv", metadata !152, i32 1716, metadata !1162, i1 false, i1 false, i32 0, i32 0, null, i32 256, i1 false, null, null, i32 0, metadata !164, i32 1716} ; [ DW_TAG_subprogram ]
!1162 = metadata !{i32 786453, i32 0, metadata !"", i32 0, i32 0, i64 0, i64 0, i64 0, i32 0, null, metadata !1163, i32 0, i32 0} ; [ DW_TAG_subroutine_type ]
!1163 = metadata !{metadata !170, metadata !1160}
!1164 = metadata !{i32 786478, i32 0, metadata !1022, metadata !"to_uchar", metadata !"to_uchar", metadata !"_ZNK11ap_int_baseILi48ELb1ELb1EE8to_ucharEv", metadata !152, i32 1717, metadata !1165, i1 false, i1 false, i32 0, i32 0, null, i32 256, i1 false, null, null, i32 0, metadata !164, i32 1717} ; [ DW_TAG_subprogram ]
!1165 = metadata !{i32 786453, i32 0, metadata !"", i32 0, i32 0, i64 0, i64 0, i64 0, i32 0, null, metadata !1166, i32 0, i32 0} ; [ DW_TAG_subroutine_type ]
!1166 = metadata !{metadata !199, metadata !1160}
!1167 = metadata !{i32 786478, i32 0, metadata !1022, metadata !"to_char", metadata !"to_char", metadata !"_ZNK11ap_int_baseILi48ELb1ELb1EE7to_charEv", metadata !152, i32 1718, metadata !1168, i1 false, i1 false, i32 0, i32 0, null, i32 256, i1 false, null, null, i32 0, metadata !164, i32 1718} ; [ DW_TAG_subprogram ]
!1168 = metadata !{i32 786453, i32 0, metadata !"", i32 0, i32 0, i64 0, i64 0, i64 0, i32 0, null, metadata !1169, i32 0, i32 0} ; [ DW_TAG_subroutine_type ]
!1169 = metadata !{metadata !195, metadata !1160}
!1170 = metadata !{i32 786478, i32 0, metadata !1022, metadata !"to_ushort", metadata !"to_ushort", metadata !"_ZNK11ap_int_baseILi48ELb1ELb1EE9to_ushortEv", metadata !152, i32 1719, metadata !1171, i1 false, i1 false, i32 0, i32 0, null, i32 256, i1 false, null, null, i32 0, metadata !164, i32 1719} ; [ DW_TAG_subprogram ]
!1171 = metadata !{i32 786453, i32 0, metadata !"", i32 0, i32 0, i64 0, i64 0, i64 0, i32 0, null, metadata !1172, i32 0, i32 0} ; [ DW_TAG_subroutine_type ]
!1172 = metadata !{metadata !207, metadata !1160}
!1173 = metadata !{i32 786478, i32 0, metadata !1022, metadata !"to_short", metadata !"to_short", metadata !"_ZNK11ap_int_baseILi48ELb1ELb1EE8to_shortEv", metadata !152, i32 1720, metadata !1174, i1 false, i1 false, i32 0, i32 0, null, i32 256, i1 false, null, null, i32 0, metadata !164, i32 1720} ; [ DW_TAG_subprogram ]
!1174 = metadata !{i32 786453, i32 0, metadata !"", i32 0, i32 0, i64 0, i64 0, i64 0, i32 0, null, metadata !1175, i32 0, i32 0} ; [ DW_TAG_subroutine_type ]
!1175 = metadata !{metadata !203, metadata !1160}
!1176 = metadata !{i32 786478, i32 0, metadata !1022, metadata !"to_int", metadata !"to_int", metadata !"_ZNK11ap_int_baseILi48ELb1ELb1EE6to_intEv", metadata !152, i32 1721, metadata !1177, i1 false, i1 false, i32 0, i32 0, null, i32 256, i1 false, null, null, i32 0, metadata !164, i32 1721} ; [ DW_TAG_subprogram ]
!1177 = metadata !{i32 786453, i32 0, metadata !"", i32 0, i32 0, i64 0, i64 0, i64 0, i32 0, null, metadata !1178, i32 0, i32 0} ; [ DW_TAG_subroutine_type ]
!1178 = metadata !{metadata !168, metadata !1160}
!1179 = metadata !{i32 786478, i32 0, metadata !1022, metadata !"to_uint", metadata !"to_uint", metadata !"_ZNK11ap_int_baseILi48ELb1ELb1EE7to_uintEv", metadata !152, i32 1722, metadata !1180, i1 false, i1 false, i32 0, i32 0, null, i32 256, i1 false, null, null, i32 0, metadata !164, i32 1722} ; [ DW_TAG_subprogram ]
!1180 = metadata !{i32 786453, i32 0, metadata !"", i32 0, i32 0, i64 0, i64 0, i64 0, i32 0, null, metadata !1181, i32 0, i32 0} ; [ DW_TAG_subroutine_type ]
!1181 = metadata !{metadata !214, metadata !1160}
!1182 = metadata !{i32 786478, i32 0, metadata !1022, metadata !"to_long", metadata !"to_long", metadata !"_ZNK11ap_int_baseILi48ELb1ELb1EE7to_longEv", metadata !152, i32 1723, metadata !1183, i1 false, i1 false, i32 0, i32 0, null, i32 256, i1 false, null, null, i32 0, metadata !164, i32 1723} ; [ DW_TAG_subprogram ]
!1183 = metadata !{i32 786453, i32 0, metadata !"", i32 0, i32 0, i64 0, i64 0, i64 0, i32 0, null, metadata !1184, i32 0, i32 0} ; [ DW_TAG_subroutine_type ]
!1184 = metadata !{metadata !218, metadata !1160}
!1185 = metadata !{i32 786478, i32 0, metadata !1022, metadata !"to_ulong", metadata !"to_ulong", metadata !"_ZNK11ap_int_baseILi48ELb1ELb1EE8to_ulongEv", metadata !152, i32 1724, metadata !1186, i1 false, i1 false, i32 0, i32 0, null, i32 256, i1 false, null, null, i32 0, metadata !164, i32 1724} ; [ DW_TAG_subprogram ]
!1186 = metadata !{i32 786453, i32 0, metadata !"", i32 0, i32 0, i64 0, i64 0, i64 0, i32 0, null, metadata !1187, i32 0, i32 0} ; [ DW_TAG_subroutine_type ]
!1187 = metadata !{metadata !222, metadata !1160}
!1188 = metadata !{i32 786478, i32 0, metadata !1022, metadata !"to_int64", metadata !"to_int64", metadata !"_ZNK11ap_int_baseILi48ELb1ELb1EE8to_int64Ev", metadata !152, i32 1725, metadata !1189, i1 false, i1 false, i32 0, i32 0, null, i32 256, i1 false, null, null, i32 0, metadata !164, i32 1725} ; [ DW_TAG_subprogram ]
!1189 = metadata !{i32 786453, i32 0, metadata !"", i32 0, i32 0, i64 0, i64 0, i64 0, i32 0, null, metadata !1190, i32 0, i32 0} ; [ DW_TAG_subroutine_type ]
!1190 = metadata !{metadata !226, metadata !1160}
!1191 = metadata !{i32 786478, i32 0, metadata !1022, metadata !"to_uint64", metadata !"to_uint64", metadata !"_ZNK11ap_int_baseILi48ELb1ELb1EE9to_uint64Ev", metadata !152, i32 1726, metadata !1192, i1 false, i1 false, i32 0, i32 0, null, i32 256, i1 false, null, null, i32 0, metadata !164, i32 1726} ; [ DW_TAG_subprogram ]
!1192 = metadata !{i32 786453, i32 0, metadata !"", i32 0, i32 0, i64 0, i64 0, i64 0, i32 0, null, metadata !1193, i32 0, i32 0} ; [ DW_TAG_subroutine_type ]
!1193 = metadata !{metadata !231, metadata !1160}
!1194 = metadata !{i32 786478, i32 0, metadata !1022, metadata !"to_double", metadata !"to_double", metadata !"_ZNK11ap_int_baseILi48ELb1ELb1EE9to_doubleEv", metadata !152, i32 1727, metadata !1195, i1 false, i1 false, i32 0, i32 0, null, i32 256, i1 false, null, null, i32 0, metadata !164, i32 1727} ; [ DW_TAG_subprogram ]
!1195 = metadata !{i32 786453, i32 0, metadata !"", i32 0, i32 0, i64 0, i64 0, i64 0, i32 0, null, metadata !1196, i32 0, i32 0} ; [ DW_TAG_subroutine_type ]
!1196 = metadata !{metadata !245, metadata !1160}
!1197 = metadata !{i32 786478, i32 0, metadata !1022, metadata !"length", metadata !"length", metadata !"_ZNK11ap_int_baseILi48ELb1ELb1EE6lengthEv", metadata !152, i32 1741, metadata !1177, i1 false, i1 false, i32 0, i32 0, null, i32 256, i1 false, null, null, i32 0, metadata !164, i32 1741} ; [ DW_TAG_subprogram ]
!1198 = metadata !{i32 786478, i32 0, metadata !1022, metadata !"length", metadata !"length", metadata !"_ZNVK11ap_int_baseILi48ELb1ELb1EE6lengthEv", metadata !152, i32 1742, metadata !1199, i1 false, i1 false, i32 0, i32 0, null, i32 256, i1 false, null, null, i32 0, metadata !164, i32 1742} ; [ DW_TAG_subprogram ]
!1199 = metadata !{i32 786453, i32 0, metadata !"", i32 0, i32 0, i64 0, i64 0, i64 0, i32 0, null, metadata !1200, i32 0, i32 0} ; [ DW_TAG_subroutine_type ]
!1200 = metadata !{metadata !168, metadata !1201}
!1201 = metadata !{i32 786447, i32 0, metadata !"", i32 0, i32 0, i64 64, i64 64, i64 0, i32 64, metadata !1055} ; [ DW_TAG_pointer_type ]
!1202 = metadata !{i32 786478, i32 0, metadata !1022, metadata !"reverse", metadata !"reverse", metadata !"_ZN11ap_int_baseILi48ELb1ELb1EE7reverseEv", metadata !152, i32 1747, metadata !1203, i1 false, i1 false, i32 0, i32 0, null, i32 256, i1 false, null, null, i32 0, metadata !164, i32 1747} ; [ DW_TAG_subprogram ]
!1203 = metadata !{i32 786453, i32 0, metadata !"", i32 0, i32 0, i64 0, i64 0, i64 0, i32 0, null, metadata !1204, i32 0, i32 0} ; [ DW_TAG_subroutine_type ]
!1204 = metadata !{metadata !1021, metadata !1043}
!1205 = metadata !{i32 786478, i32 0, metadata !1022, metadata !"iszero", metadata !"iszero", metadata !"_ZNK11ap_int_baseILi48ELb1ELb1EE6iszeroEv", metadata !152, i32 1753, metadata !1162, i1 false, i1 false, i32 0, i32 0, null, i32 256, i1 false, null, null, i32 0, metadata !164, i32 1753} ; [ DW_TAG_subprogram ]
!1206 = metadata !{i32 786478, i32 0, metadata !1022, metadata !"is_zero", metadata !"is_zero", metadata !"_ZNK11ap_int_baseILi48ELb1ELb1EE7is_zeroEv", metadata !152, i32 1758, metadata !1162, i1 false, i1 false, i32 0, i32 0, null, i32 256, i1 false, null, null, i32 0, metadata !164, i32 1758} ; [ DW_TAG_subprogram ]
!1207 = metadata !{i32 786478, i32 0, metadata !1022, metadata !"sign", metadata !"sign", metadata !"_ZNK11ap_int_baseILi48ELb1ELb1EE4signEv", metadata !152, i32 1763, metadata !1162, i1 false, i1 false, i32 0, i32 0, null, i32 256, i1 false, null, null, i32 0, metadata !164, i32 1763} ; [ DW_TAG_subprogram ]
!1208 = metadata !{i32 786478, i32 0, metadata !1022, metadata !"clear", metadata !"clear", metadata !"_ZN11ap_int_baseILi48ELb1ELb1EE5clearEi", metadata !152, i32 1771, metadata !1073, i1 false, i1 false, i32 0, i32 0, null, i32 256, i1 false, null, null, i32 0, metadata !164, i32 1771} ; [ DW_TAG_subprogram ]
!1209 = metadata !{i32 786478, i32 0, metadata !1022, metadata !"invert", metadata !"invert", metadata !"_ZN11ap_int_baseILi48ELb1ELb1EE6invertEi", metadata !152, i32 1777, metadata !1073, i1 false, i1 false, i32 0, i32 0, null, i32 256, i1 false, null, null, i32 0, metadata !164, i32 1777} ; [ DW_TAG_subprogram ]
!1210 = metadata !{i32 786478, i32 0, metadata !1022, metadata !"test", metadata !"test", metadata !"_ZNK11ap_int_baseILi48ELb1ELb1EE4testEi", metadata !152, i32 1785, metadata !1211, i1 false, i1 false, i32 0, i32 0, null, i32 256, i1 false, null, null, i32 0, metadata !164, i32 1785} ; [ DW_TAG_subprogram ]
!1211 = metadata !{i32 786453, i32 0, metadata !"", i32 0, i32 0, i64 0, i64 0, i64 0, i32 0, null, metadata !1212, i32 0, i32 0} ; [ DW_TAG_subroutine_type ]
!1212 = metadata !{metadata !170, metadata !1160, metadata !168}
!1213 = metadata !{i32 786478, i32 0, metadata !1022, metadata !"set", metadata !"set", metadata !"_ZN11ap_int_baseILi48ELb1ELb1EE3setEi", metadata !152, i32 1791, metadata !1073, i1 false, i1 false, i32 0, i32 0, null, i32 256, i1 false, null, null, i32 0, metadata !164, i32 1791} ; [ DW_TAG_subprogram ]
!1214 = metadata !{i32 786478, i32 0, metadata !1022, metadata !"set", metadata !"set", metadata !"_ZN11ap_int_baseILi48ELb1ELb1EE3setEib", metadata !152, i32 1797, metadata !1215, i1 false, i1 false, i32 0, i32 0, null, i32 256, i1 false, null, null, i32 0, metadata !164, i32 1797} ; [ DW_TAG_subprogram ]
!1215 = metadata !{i32 786453, i32 0, metadata !"", i32 0, i32 0, i64 0, i64 0, i64 0, i32 0, null, metadata !1216, i32 0, i32 0} ; [ DW_TAG_subroutine_type ]
!1216 = metadata !{null, metadata !1043, metadata !168, metadata !170}
!1217 = metadata !{i32 786478, i32 0, metadata !1022, metadata !"lrotate", metadata !"lrotate", metadata !"_ZN11ap_int_baseILi48ELb1ELb1EE7lrotateEi", metadata !152, i32 1804, metadata !1073, i1 false, i1 false, i32 0, i32 0, null, i32 256, i1 false, null, null, i32 0, metadata !164, i32 1804} ; [ DW_TAG_subprogram ]
!1218 = metadata !{i32 786478, i32 0, metadata !1022, metadata !"rrotate", metadata !"rrotate", metadata !"_ZN11ap_int_baseILi48ELb1ELb1EE7rrotateEi", metadata !152, i32 1813, metadata !1073, i1 false, i1 false, i32 0, i32 0, null, i32 256, i1 false, null, null, i32 0, metadata !164, i32 1813} ; [ DW_TAG_subprogram ]
!1219 = metadata !{i32 786478, i32 0, metadata !1022, metadata !"set_bit", metadata !"set_bit", metadata !"_ZN11ap_int_baseILi48ELb1ELb1EE7set_bitEib", metadata !152, i32 1821, metadata !1215, i1 false, i1 false, i32 0, i32 0, null, i32 256, i1 false, null, null, i32 0, metadata !164, i32 1821} ; [ DW_TAG_subprogram ]
!1220 = metadata !{i32 786478, i32 0, metadata !1022, metadata !"get_bit", metadata !"get_bit", metadata !"_ZNK11ap_int_baseILi48ELb1ELb1EE7get_bitEi", metadata !152, i32 1826, metadata !1211, i1 false, i1 false, i32 0, i32 0, null, i32 256, i1 false, null, null, i32 0, metadata !164, i32 1826} ; [ DW_TAG_subprogram ]
!1221 = metadata !{i32 786478, i32 0, metadata !1022, metadata !"b_not", metadata !"b_not", metadata !"_ZN11ap_int_baseILi48ELb1ELb1EE5b_notEv", metadata !152, i32 1831, metadata !1041, i1 false, i1 false, i32 0, i32 0, null, i32 256, i1 false, null, null, i32 0, metadata !164, i32 1831} ; [ DW_TAG_subprogram ]
!1222 = metadata !{i32 786478, i32 0, metadata !1022, metadata !"countLeadingZeros", metadata !"countLeadingZeros", metadata !"_ZN11ap_int_baseILi48ELb1ELb1EE17countLeadingZerosEv", metadata !152, i32 1838, metadata !1223, i1 false, i1 false, i32 0, i32 0, null, i32 256, i1 false, null, null, i32 0, metadata !164, i32 1838} ; [ DW_TAG_subprogram ]
!1223 = metadata !{i32 786453, i32 0, metadata !"", i32 0, i32 0, i64 0, i64 0, i64 0, i32 0, null, metadata !1224, i32 0, i32 0} ; [ DW_TAG_subroutine_type ]
!1224 = metadata !{metadata !168, metadata !1043}
!1225 = metadata !{i32 786478, i32 0, metadata !1022, metadata !"operator++", metadata !"operator++", metadata !"_ZN11ap_int_baseILi48ELb1ELb1EEppEv", metadata !152, i32 1895, metadata !1203, i1 false, i1 false, i32 0, i32 0, null, i32 256, i1 false, null, null, i32 0, metadata !164, i32 1895} ; [ DW_TAG_subprogram ]
!1226 = metadata !{i32 786478, i32 0, metadata !1022, metadata !"operator--", metadata !"operator--", metadata !"_ZN11ap_int_baseILi48ELb1ELb1EEmmEv", metadata !152, i32 1899, metadata !1203, i1 false, i1 false, i32 0, i32 0, null, i32 256, i1 false, null, null, i32 0, metadata !164, i32 1899} ; [ DW_TAG_subprogram ]
!1227 = metadata !{i32 786478, i32 0, metadata !1022, metadata !"operator++", metadata !"operator++", metadata !"_ZN11ap_int_baseILi48ELb1ELb1EEppEi", metadata !152, i32 1907, metadata !1228, i1 false, i1 false, i32 0, i32 0, null, i32 256, i1 false, null, null, i32 0, metadata !164, i32 1907} ; [ DW_TAG_subprogram ]
!1228 = metadata !{i32 786453, i32 0, metadata !"", i32 0, i32 0, i64 0, i64 0, i64 0, i32 0, null, metadata !1229, i32 0, i32 0} ; [ DW_TAG_subroutine_type ]
!1229 = metadata !{metadata !1048, metadata !1043, metadata !168}
!1230 = metadata !{i32 786478, i32 0, metadata !1022, metadata !"operator--", metadata !"operator--", metadata !"_ZN11ap_int_baseILi48ELb1ELb1EEmmEi", metadata !152, i32 1912, metadata !1228, i1 false, i1 false, i32 0, i32 0, null, i32 256, i1 false, null, null, i32 0, metadata !164, i32 1912} ; [ DW_TAG_subprogram ]
!1231 = metadata !{i32 786478, i32 0, metadata !1022, metadata !"operator+", metadata !"operator+", metadata !"_ZNK11ap_int_baseILi48ELb1ELb1EEpsEv", metadata !152, i32 1921, metadata !1232, i1 false, i1 false, i32 0, i32 0, null, i32 256, i1 false, null, null, i32 0, metadata !164, i32 1921} ; [ DW_TAG_subprogram ]
!1232 = metadata !{i32 786453, i32 0, metadata !"", i32 0, i32 0, i64 0, i64 0, i64 0, i32 0, null, metadata !1233, i32 0, i32 0} ; [ DW_TAG_subroutine_type ]
!1233 = metadata !{metadata !1022, metadata !1160}
!1234 = metadata !{i32 786478, i32 0, metadata !1022, metadata !"operator!", metadata !"operator!", metadata !"_ZNK11ap_int_baseILi48ELb1ELb1EEntEv", metadata !152, i32 1927, metadata !1162, i1 false, i1 false, i32 0, i32 0, null, i32 256, i1 false, null, null, i32 0, metadata !164, i32 1927} ; [ DW_TAG_subprogram ]
!1235 = metadata !{i32 786478, i32 0, metadata !1022, metadata !"operator-", metadata !"operator-", metadata !"_ZNK11ap_int_baseILi48ELb1ELb1EEngEv", metadata !152, i32 1932, metadata !1236, i1 false, i1 false, i32 0, i32 0, null, i32 256, i1 false, null, null, i32 0, metadata !164, i32 1932} ; [ DW_TAG_subprogram ]
!1236 = metadata !{i32 786453, i32 0, metadata !"", i32 0, i32 0, i64 0, i64 0, i64 0, i32 0, null, metadata !1237, i32 0, i32 0} ; [ DW_TAG_subroutine_type ]
!1237 = metadata !{metadata !1238, metadata !1160}
!1238 = metadata !{i32 786434, null, metadata !"ap_int_base<49, true, true>", metadata !152, i32 651, i64 0, i64 0, i32 0, i32 4, null, null, i32 0, null, metadata !1239} ; [ DW_TAG_class_type ]
!1239 = metadata !{metadata !1240, metadata !169, metadata !437}
!1240 = metadata !{i32 786480, null, metadata !"_AP_W", metadata !168, i64 49, null, i32 0, i32 0} ; [ DW_TAG_template_value_parameter ]
!1241 = metadata !{i32 786478, i32 0, metadata !1022, metadata !"range", metadata !"range", metadata !"_ZN11ap_int_baseILi48ELb1ELb1EE5rangeEii", metadata !152, i32 2062, metadata !1242, i1 false, i1 false, i32 0, i32 0, null, i32 256, i1 false, null, null, i32 0, metadata !164, i32 2062} ; [ DW_TAG_subprogram ]
!1242 = metadata !{i32 786453, i32 0, metadata !"", i32 0, i32 0, i64 0, i64 0, i64 0, i32 0, null, metadata !1243, i32 0, i32 0} ; [ DW_TAG_subroutine_type ]
!1243 = metadata !{metadata !1244, metadata !1043, metadata !168, metadata !168}
!1244 = metadata !{i32 786434, null, metadata !"ap_range_ref<48, true>", metadata !152, i32 925, i64 0, i64 0, i32 0, i32 4, null, null, i32 0, null, metadata !1245} ; [ DW_TAG_class_type ]
!1245 = metadata !{metadata !1246, metadata !169}
!1246 = metadata !{i32 786480, null, metadata !"_AP_W", metadata !168, i64 48, null, i32 0, i32 0} ; [ DW_TAG_template_value_parameter ]
!1247 = metadata !{i32 786478, i32 0, metadata !1022, metadata !"operator()", metadata !"operator()", metadata !"_ZN11ap_int_baseILi48ELb1ELb1EEclEii", metadata !152, i32 2068, metadata !1242, i1 false, i1 false, i32 0, i32 0, null, i32 256, i1 false, null, null, i32 0, metadata !164, i32 2068} ; [ DW_TAG_subprogram ]
!1248 = metadata !{i32 786478, i32 0, metadata !1022, metadata !"range", metadata !"range", metadata !"_ZNK11ap_int_baseILi48ELb1ELb1EE5rangeEii", metadata !152, i32 2074, metadata !1249, i1 false, i1 false, i32 0, i32 0, null, i32 256, i1 false, null, null, i32 0, metadata !164, i32 2074} ; [ DW_TAG_subprogram ]
!1249 = metadata !{i32 786453, i32 0, metadata !"", i32 0, i32 0, i64 0, i64 0, i64 0, i32 0, null, metadata !1250, i32 0, i32 0} ; [ DW_TAG_subroutine_type ]
!1250 = metadata !{metadata !1244, metadata !1160, metadata !168, metadata !168}
!1251 = metadata !{i32 786478, i32 0, metadata !1022, metadata !"operator()", metadata !"operator()", metadata !"_ZNK11ap_int_baseILi48ELb1ELb1EEclEii", metadata !152, i32 2080, metadata !1249, i1 false, i1 false, i32 0, i32 0, null, i32 256, i1 false, null, null, i32 0, metadata !164, i32 2080} ; [ DW_TAG_subprogram ]
!1252 = metadata !{i32 786478, i32 0, metadata !1022, metadata !"operator[]", metadata !"operator[]", metadata !"_ZN11ap_int_baseILi48ELb1ELb1EEixEi", metadata !152, i32 2099, metadata !1253, i1 false, i1 false, i32 0, i32 0, null, i32 256, i1 false, null, null, i32 0, metadata !164, i32 2099} ; [ DW_TAG_subprogram ]
!1253 = metadata !{i32 786453, i32 0, metadata !"", i32 0, i32 0, i64 0, i64 0, i64 0, i32 0, null, metadata !1254, i32 0, i32 0} ; [ DW_TAG_subroutine_type ]
!1254 = metadata !{metadata !1255, metadata !1043, metadata !168}
!1255 = metadata !{i32 786434, null, metadata !"ap_bit_ref<48, true>", metadata !152, i32 1249, i64 0, i64 0, i32 0, i32 4, null, null, i32 0, null, metadata !1245} ; [ DW_TAG_class_type ]
!1256 = metadata !{i32 786478, i32 0, metadata !1022, metadata !"operator[]", metadata !"operator[]", metadata !"_ZNK11ap_int_baseILi48ELb1ELb1EEixEi", metadata !152, i32 2113, metadata !1211, i1 false, i1 false, i32 0, i32 0, null, i32 256, i1 false, null, null, i32 0, metadata !164, i32 2113} ; [ DW_TAG_subprogram ]
!1257 = metadata !{i32 786478, i32 0, metadata !1022, metadata !"bit", metadata !"bit", metadata !"_ZN11ap_int_baseILi48ELb1ELb1EE3bitEi", metadata !152, i32 2127, metadata !1253, i1 false, i1 false, i32 0, i32 0, null, i32 256, i1 false, null, null, i32 0, metadata !164, i32 2127} ; [ DW_TAG_subprogram ]
!1258 = metadata !{i32 786478, i32 0, metadata !1022, metadata !"bit", metadata !"bit", metadata !"_ZNK11ap_int_baseILi48ELb1ELb1EE3bitEi", metadata !152, i32 2141, metadata !1211, i1 false, i1 false, i32 0, i32 0, null, i32 256, i1 false, null, null, i32 0, metadata !164, i32 2141} ; [ DW_TAG_subprogram ]
!1259 = metadata !{i32 786478, i32 0, metadata !1022, metadata !"concat<48, true>", metadata !"concat<48, true>", metadata !"_ZNK11ap_int_baseILi48ELb1ELb1EE6concatILi48ELb1EEE13ap_concat_refILi48ES0_XT_ES_IXT_EXT0_EXleT_Li64EEEERKS3_", metadata !152, i32 2163, metadata !1260, i1 false, i1 false, i32 0, i32 0, null, i32 256, i1 false, null, metadata !1049, i32 0, metadata !164, i32 2163} ; [ DW_TAG_subprogram ]
!1260 = metadata !{i32 786453, i32 0, metadata !"", i32 0, i32 0, i64 0, i64 0, i64 0, i32 0, null, metadata !1261, i32 0, i32 0} ; [ DW_TAG_subroutine_type ]
!1261 = metadata !{metadata !1262, metadata !1160, metadata !1047}
!1262 = metadata !{i32 786434, null, metadata !"ap_concat_ref<48, ap_int_base<48, true, true>, 48, ap_int_base<48, true, true> >", metadata !152, i32 688, i64 128, i64 64, i32 0, i32 0, null, metadata !1263, i32 0, null, metadata !1296} ; [ DW_TAG_class_type ]
!1263 = metadata !{metadata !1264, metadata !1265, metadata !1266, metadata !1272, metadata !1275, metadata !1279, metadata !1282, metadata !1286, metadata !1289, metadata !1290, metadata !1293}
!1264 = metadata !{i32 786445, metadata !1262, metadata !"mbv1", metadata !152, i32 691, i64 64, i64 64, i64 0, i32 0, metadata !1021} ; [ DW_TAG_member ]
!1265 = metadata !{i32 786445, metadata !1262, metadata !"mbv2", metadata !152, i32 692, i64 64, i64 64, i64 64, i32 0, metadata !1021} ; [ DW_TAG_member ]
!1266 = metadata !{i32 786478, i32 0, metadata !1262, metadata !"ap_concat_ref", metadata !"ap_concat_ref", metadata !"", metadata !152, i32 694, metadata !1267, i1 false, i1 false, i32 0, i32 0, null, i32 256, i1 false, null, null, i32 0, metadata !164, i32 694} ; [ DW_TAG_subprogram ]
!1267 = metadata !{i32 786453, i32 0, metadata !"", i32 0, i32 0, i64 0, i64 0, i64 0, i32 0, null, metadata !1268, i32 0, i32 0} ; [ DW_TAG_subroutine_type ]
!1268 = metadata !{null, metadata !1269, metadata !1270}
!1269 = metadata !{i32 786447, i32 0, metadata !"", i32 0, i32 0, i64 64, i64 64, i64 0, i32 64, metadata !1262} ; [ DW_TAG_pointer_type ]
!1270 = metadata !{i32 786448, null, null, null, i32 0, i64 0, i64 0, i64 0, i32 0, metadata !1271} ; [ DW_TAG_reference_type ]
!1271 = metadata !{i32 786470, null, metadata !"", null, i32 0, i64 0, i64 0, i64 0, i32 0, metadata !1262} ; [ DW_TAG_const_type ]
!1272 = metadata !{i32 786478, i32 0, metadata !1262, metadata !"ap_concat_ref", metadata !"ap_concat_ref", metadata !"", metadata !152, i32 698, metadata !1273, i1 false, i1 false, i32 0, i32 0, null, i32 256, i1 false, null, null, i32 0, metadata !164, i32 698} ; [ DW_TAG_subprogram ]
!1273 = metadata !{i32 786453, i32 0, metadata !"", i32 0, i32 0, i64 0, i64 0, i64 0, i32 0, null, metadata !1274, i32 0, i32 0} ; [ DW_TAG_subroutine_type ]
!1274 = metadata !{null, metadata !1269, metadata !1021, metadata !1021}
!1275 = metadata !{i32 786478, i32 0, metadata !1262, metadata !"operator=", metadata !"operator=", metadata !"_ZN13ap_concat_refILi48E11ap_int_baseILi48ELb1ELb1EELi48ES1_EaSEy", metadata !152, i32 715, metadata !1276, i1 false, i1 false, i32 0, i32 0, null, i32 256, i1 false, null, null, i32 0, metadata !164, i32 715} ; [ DW_TAG_subprogram ]
!1276 = metadata !{i32 786453, i32 0, metadata !"", i32 0, i32 0, i64 0, i64 0, i64 0, i32 0, null, metadata !1277, i32 0, i32 0} ; [ DW_TAG_subroutine_type ]
!1277 = metadata !{metadata !1278, metadata !1269, metadata !232}
!1278 = metadata !{i32 786448, null, null, null, i32 0, i64 0, i64 0, i64 0, i32 0, metadata !1262} ; [ DW_TAG_reference_type ]
!1279 = metadata !{i32 786478, i32 0, metadata !1262, metadata !"operator=", metadata !"operator=", metadata !"_ZN13ap_concat_refILi48E11ap_int_baseILi48ELb1ELb1EELi48ES1_EaSERKS2_", metadata !152, i32 731, metadata !1280, i1 false, i1 false, i32 0, i32 0, null, i32 256, i1 false, null, null, i32 0, metadata !164, i32 731} ; [ DW_TAG_subprogram ]
!1280 = metadata !{i32 786453, i32 0, metadata !"", i32 0, i32 0, i64 0, i64 0, i64 0, i32 0, null, metadata !1281, i32 0, i32 0} ; [ DW_TAG_subroutine_type ]
!1281 = metadata !{metadata !1278, metadata !1269, metadata !1270}
!1282 = metadata !{i32 786478, i32 0, metadata !1262, metadata !"operator ap_int_base", metadata !"operator ap_int_base", metadata !"_ZNK13ap_concat_refILi48E11ap_int_baseILi48ELb1ELb1EELi48ES1_EcvS0_ILi96ELb0ELb0EEEv", metadata !152, i32 766, metadata !1283, i1 false, i1 false, i32 0, i32 0, null, i32 256, i1 false, null, null, i32 0, metadata !164, i32 766} ; [ DW_TAG_subprogram ]
!1283 = metadata !{i32 786453, i32 0, metadata !"", i32 0, i32 0, i64 0, i64 0, i64 0, i32 0, null, metadata !1284, i32 0, i32 0} ; [ DW_TAG_subroutine_type ]
!1284 = metadata !{metadata !726, metadata !1285}
!1285 = metadata !{i32 786447, i32 0, metadata !"", i32 0, i32 0, i64 64, i64 64, i64 0, i32 64, metadata !1271} ; [ DW_TAG_pointer_type ]
!1286 = metadata !{i32 786478, i32 0, metadata !1262, metadata !"operator unsigned long long", metadata !"operator unsigned long long", metadata !"_ZNK13ap_concat_refILi48E11ap_int_baseILi48ELb1ELb1EELi48ES1_EcvyEv", metadata !152, i32 770, metadata !1287, i1 false, i1 false, i32 0, i32 0, null, i32 256, i1 false, null, null, i32 0, metadata !164, i32 770} ; [ DW_TAG_subprogram ]
!1287 = metadata !{i32 786453, i32 0, metadata !"", i32 0, i32 0, i64 0, i64 0, i64 0, i32 0, null, metadata !1288, i32 0, i32 0} ; [ DW_TAG_subroutine_type ]
!1288 = metadata !{metadata !232, metadata !1285}
!1289 = metadata !{i32 786478, i32 0, metadata !1262, metadata !"get", metadata !"get", metadata !"_ZNK13ap_concat_refILi48E11ap_int_baseILi48ELb1ELb1EELi48ES1_E3getEv", metadata !152, i32 882, metadata !1283, i1 false, i1 false, i32 0, i32 0, null, i32 256, i1 false, null, null, i32 0, metadata !164, i32 882} ; [ DW_TAG_subprogram ]
!1290 = metadata !{i32 786478, i32 0, metadata !1262, metadata !"length", metadata !"length", metadata !"_ZNK13ap_concat_refILi48E11ap_int_baseILi48ELb1ELb1EELi48ES1_E6lengthEv", metadata !152, i32 906, metadata !1291, i1 false, i1 false, i32 0, i32 0, null, i32 256, i1 false, null, null, i32 0, metadata !164, i32 906} ; [ DW_TAG_subprogram ]
!1291 = metadata !{i32 786453, i32 0, metadata !"", i32 0, i32 0, i64 0, i64 0, i64 0, i32 0, null, metadata !1292, i32 0, i32 0} ; [ DW_TAG_subroutine_type ]
!1292 = metadata !{metadata !168, metadata !1285}
!1293 = metadata !{i32 786478, i32 0, metadata !1262, metadata !"~ap_concat_ref", metadata !"~ap_concat_ref", metadata !"", metadata !152, i32 688, metadata !1294, i1 false, i1 false, i32 0, i32 0, null, i32 320, i1 false, null, null, i32 0, metadata !164, i32 688} ; [ DW_TAG_subprogram ]
