; ModuleID = '/home/tarafdar/thesis/gitStuff/hlsIP_8k5/packetFormatter_hardcode_64/solution1/.autopilot/db/a.o.bc'
target datalayout = "e-p:64:64:64-i1:8:8-i8:8:8-i16:16:16-i32:32:32-i64:64:64-f32:32:32-f64:64:64-v64:64:64-v128:128:128-a0:0:64-s0:64:64-f80:128:128-n8:16:32:64-S128"
target triple = "x86_64-unknown-linux-gnu"

%"class.std::ios_base::Init" = type {}
%"class.std::locale::id" = type { i64 }
%"class.std::basic_istream" = type { i32 (...)**, i64, %"class.std::basic_ios" }
%"class.std::basic_ios" = type { %"class.std::ios_base", %"class.std::basic_ostream"*, i8, i1, %"class.std::basic_streambuf"*, %"class.std::ctype"*, %"class.std::num_put"*, %"class.std::num_get"* }
%"class.std::ios_base" = type { i32 (...)**, i64, i64, i17, i17, i17, %"struct.std::ios_base::_Callback_list"*, %"struct.std::ios_base::_Words", [8 x %"struct.std::ios_base::_Words"], i32, %"struct.std::ios_base::_Words"*, %"class.std::locale" }
%"struct.std::ios_base::_Callback_list" = type { %"struct.std::ios_base::_Callback_list"*, void (i2, %"class.std::ios_base"*, i32)*, i32, i32 }
%"struct.std::ios_base::_Words" = type { i8*, i64 }
%"class.std::locale" = type { %"class.std::locale::_Impl"* }
%"class.std::locale::_Impl" = type { i32, %"class.std::locale::facet"**, i64, %"class.std::locale::facet"**, i8** }
%"class.std::locale::facet" = type { i32 (...)**, i32 }
%"class.std::basic_ostream" = type { i32 (...)**, %"class.std::basic_ios" }
%"class.std::basic_streambuf" = type { i32 (...)**, i8*, i8*, i8*, i8*, i8*, i8*, %"class.std::locale" }
%"class.std::ctype" = type { %"class.std::locale::facet", %struct.__locale_struct*, i1, i32*, i32*, i16*, i8, [256 x i8], [256 x i8], i8 }
%struct.__locale_struct = type { [13 x %"class.std::ios_base::Init"*], i16*, i32*, i32*, [13 x i8*] }
%"class.std::num_put" = type { %"class.std::locale::facet" }
%"class.std::num_get" = type { %"class.std::locale::facet" }
%"class.std::basic_istream.30" = type { i32 (...)**, i64, %"class.std::basic_ios.32" }
%"class.std::basic_ios.32" = type { %"class.std::ios_base", %"class.std::basic_ostream.33"*, i32, i1, %"class.std::basic_streambuf.34"*, %"class.std::ctype.35"*, %"class.std::num_put.36"*, %"class.std::num_get.37"* }
%"class.std::basic_ostream.33" = type { i32 (...)**, %"class.std::basic_ios.32" }
%"class.std::basic_streambuf.34" = type { i32 (...)**, i32*, i32*, i32*, i32*, i32*, i32*, %"class.std::locale" }
%"class.std::ctype.35" = type { %"class.std::__ctype_abstract_base", %struct.__locale_struct*, i1, [128 x i8], [256 x i32], [16 x i16], [16 x i64] }
%"class.std::__ctype_abstract_base" = type { %"class.std::locale::facet" }
%"class.std::num_put.36" = type { %"class.std::locale::facet" }
%"class.std::num_get.37" = type { %"class.std::locale::facet" }
%"class.hls::stream" = type { %struct.ap_axis_dest }
%struct.ap_axis_dest = type { %struct.ap_int, %struct.ap_uint, %struct.ap_uint.2, %struct.ap_uint.2 }
%struct.ap_int = type { %struct.ap_int_base }
%struct.ap_int_base = type { %"class.std::locale::id" }
%struct.ap_uint = type { %struct.ap_int_base.0 }
%struct.ap_int_base.0 = type { %struct.ssdm_int.1 }
%struct.ssdm_int.1 = type { i1 }
%struct.ap_uint.2 = type { %struct.ap_int_base.3 }
%struct.ap_int_base.3 = type { %struct.ssdm_int.4 }
%struct.ssdm_int.4 = type { i8 }
%struct.ap_int.5 = type { %struct.ap_int_base.6 }
%struct.ap_int_base.6 = type { %struct.ssdm_int.7 }
%struct.ssdm_int.7 = type { i48 }
%"class.hls::stream.8" = type { %struct.ap_axis }
%struct.ap_axis = type { %struct.ap_int, %struct.ap_uint, %struct.ap_uint.2 }
%struct.ap_int.9 = type { %struct.ap_int_base.10 }
%struct.ap_int_base.10 = type { %struct.ssdm_int.11 }
%struct.ssdm_int.11 = type { i96 }
%struct.ap_int.12 = type { %struct.ap_int_base.13 }
%struct.ap_int_base.13 = type { %struct.ssdm_int.14 }
%struct.ssdm_int.14 = type { i112 }
%struct.ap_concat_ref = type { %struct.ap_int_base.6*, %struct.ap_int_base.6* }
%struct.ap_range_ref = type { %struct.ap_int_base.10*, i32, i32 }
%struct.ap_int.15 = type { %struct.ap_int_base.16 }
%struct.ap_int_base.16 = type { %struct.ssdm_int.17 }
%struct.ssdm_int.17 = type { i32 }
%struct.ap_int.18 = type { %struct.ap_int_base.19 }
%struct.ap_int_base.19 = type { %struct.ssdm_int.20 }
%struct.ssdm_int.20 = type { i16 }
%struct.ap_concat_ref.21 = type { %struct.ap_int_base.16*, %struct.ap_int_base.19* }
%struct.ap_concat_ref.25 = type { %struct.ap_int_base.3*, %struct.ap_int_base.3* }
%struct.ap_concat_ref.26 = type { %struct.ap_int_base.6*, %struct.ap_int_base.19* }

@_ZStL8__ioinit = internal global %"class.std::ios_base::Init" zeroinitializer, align 1 ; [#uses=2 type=%"class.std::ios_base::Init"*]
@.str = private unnamed_addr constant [5 x i8] c"axis\00", align 1 ; [#uses=1 type=[5 x i8]*]
@.str1 = private unnamed_addr constant [5 x i8] c"both\00", align 1 ; [#uses=1 type=[5 x i8]*]
@.str2 = private unnamed_addr constant [1 x i8] zeroinitializer, align 1 ; [#uses=1 type=[1 x i8]*]
@.str3 = private unnamed_addr constant [8 x i8] c"ap_none\00", align 1 ; [#uses=1 type=[8 x i8]*]
@.str4 = private unnamed_addr constant [13 x i8] c"ap_ctrl_none\00", align 1 ; [#uses=1 type=[13 x i8]*]
@_ZN9__gnu_cxx24__numeric_traits_integer11__is_signedE = external constant i1 ; [#uses=0 type=i1*]
@_ZN9__gnu_cxx24__numeric_traits_integer8__digitsE = external constant i32 ; [#uses=0 type=i32*]
@_ZN9__gnu_cxx25__numeric_traits_floating14__max_digits10E = external constant i32 ; [#uses=0 type=i32*]
@_ZN9__gnu_cxx25__numeric_traits_floating11__is_signedE = external constant i1 ; [#uses=0 type=i1*]
@_ZN9__gnu_cxx25__numeric_traits_floating10__digits10E = external constant i32 ; [#uses=0 type=i32*]
@_ZN9__gnu_cxx25__numeric_traits_floating16__max_exponent10E = external constant i32 ; [#uses=0 type=i32*]
@__daylight = external global i32                 ; [#uses=0 type=i32*]
@daylight = external global i32                   ; [#uses=0 type=i32*]
@getdate_err = external global i32                ; [#uses=0 type=i32*]
@optind = external global i32                     ; [#uses=0 type=i32*]
@opterr = external global i32                     ; [#uses=0 type=i32*]
@optopt = external global i32                     ; [#uses=0 type=i32*]
@_ZSt7nothrow = external global %"class.std::ios_base::Init" ; [#uses=0 type=%"class.std::ios_base::Init"*]
@_ZNSt6locale7_S_onceE = external global i32      ; [#uses=0 type=i32*]
@_ZNSt6locale5facet7_S_onceE = external global i32 ; [#uses=0 type=i32*]
@_ZNSt6locale2id11_S_refcountE = external global i32 ; [#uses=0 type=i32*]
@_ZNSt7collate2idE = external global %"class.std::locale::id" ; [#uses=0 type=%"class.std::locale::id"*]
@_ZNSt8ios_base4Init11_S_refcountE = external global i32 ; [#uses=0 type=i32*]
@_ZNSt8ios_base4Init20_S_synced_with_stdioE = external global i1 ; [#uses=0 type=i1*]
@_ZNSt5ctype2idE = external global %"class.std::locale::id" ; [#uses=0 type=%"class.std::locale::id"*]
@_ZNSt5ctypeIcE2idE = external global %"class.std::locale::id" ; [#uses=0 type=%"class.std::locale::id"*]
@_ZNSt5ctypeIwE2idE = external global %"class.std::locale::id" ; [#uses=0 type=%"class.std::locale::id"*]
@_ZNSt10__num_base12_S_atoms_outE = external global i8* ; [#uses=0 type=i8**]
@_ZNSt10__num_base11_S_atoms_inE = external global i8* ; [#uses=0 type=i8**]
@_ZNSt8numpunct2idE = external global %"class.std::locale::id" ; [#uses=0 type=%"class.std::locale::id"*]
@_ZNSt7num_get2idE = external global %"class.std::locale::id" ; [#uses=0 type=%"class.std::locale::id"*]
@_ZNSt7num_put2idE = external global %"class.std::locale::id" ; [#uses=0 type=%"class.std::locale::id"*]
@_ZSt3cin = external global %"class.std::basic_istream" ; [#uses=0 type=%"class.std::basic_istream"*]
@_ZSt4cout = external global %"class.std::basic_ostream" ; [#uses=0 type=%"class.std::basic_ostream"*]
@_ZSt4cerr = external global %"class.std::basic_ostream" ; [#uses=0 type=%"class.std::basic_ostream"*]
@_ZSt4clog = external global %"class.std::basic_ostream" ; [#uses=0 type=%"class.std::basic_ostream"*]
@_ZSt4wcin = external global %"class.std::basic_istream.30" ; [#uses=0 type=%"class.std::basic_istream.30"*]
@_ZSt5wcout = external global %"class.std::basic_ostream.33" ; [#uses=0 type=%"class.std::basic_ostream.33"*]
@_ZSt5wcerr = external global %"class.std::basic_ostream.33" ; [#uses=0 type=%"class.std::basic_ostream.33"*]
@_ZSt5wclog = external global %"class.std::basic_ostream.33" ; [#uses=0 type=%"class.std::basic_ostream.33"*]
@signgam = external global i32                    ; [#uses=0 type=i32*]
@_IO_2_1_stdin_ = external global %"class.std::ios_base::Init" ; [#uses=0 type=%"class.std::ios_base::Init"*]
@_IO_2_1_stdout_ = external global %"class.std::ios_base::Init" ; [#uses=0 type=%"class.std::ios_base::Init"*]
@_IO_2_1_stderr_ = external global %"class.std::ios_base::Init" ; [#uses=0 type=%"class.std::ios_base::Init"*]
@sys_nerr = external global i32                   ; [#uses=0 type=i32*]
@_sys_nerr = external global i32                  ; [#uses=0 type=i32*]
@llvm.global_ctors = appending global [1 x { i32, void ()* }] [{ i32, void ()* } { i32 65535, void ()* @_GLOBAL__I_a }] ; [#uses=0 type=[1 x { i32, void ()* }]*]

; [#uses=1]
define internal void @__cxx_global_var_init() nounwind section ".text.startup" {
  call void @_ZNSt8ios_base4InitC1Ev(%"class.std::ios_base::Init"* @_ZStL8__ioinit)
  %1 = call i32 @atexit(void ()* @__dtor__ZStL8__ioinit) ; [#uses=0 type=i32]
  ret void
}

; [#uses=1]
declare void @_ZNSt8ios_base4InitC1Ev(%"class.std::ios_base::Init"*)

; [#uses=1]
declare void @_ZNSt8ios_base4InitD1Ev(%"class.std::ios_base::Init"*)

; [#uses=1]
define internal void @__dtor__ZStL8__ioinit() nounwind section ".text.startup" {
  call void @_ZNSt8ios_base4InitD1Ev(%"class.std::ios_base::Init"* @_ZStL8__ioinit)
  ret void
}

; [#uses=1]
declare i32 @atexit(void ()*) nounwind

; [#uses=0]
define void @_Z27packetFormatter_hardcode_64N3hls6streamI12ap_axis_destEE6ap_intILi48EES4_NS0_I7ap_axisEE(%"class.hls::stream"* %packetIn, %struct.ap_int.5* byval align 8 %eth_dst, %struct.ap_int.5* byval align 8 %eth_src, %"class.hls::stream.8"* %packetOut) nounwind uwtable {
  %packetHeader0 = alloca %struct.ap_axis, align 8 ; [#uses=4 type=%struct.ap_axis*]
  %packetHeader1 = alloca %struct.ap_axis, align 8 ; [#uses=4 type=%struct.ap_axis*]
  %currPayloadIn = alloca %struct.ap_axis_dest, align 8 ; [#uses=8 type=%struct.ap_axis_dest*]
  %currPayloadOut = alloca %struct.ap_axis, align 8 ; [#uses=10 type=%struct.ap_axis*]
  %eth_dst_src = alloca %struct.ap_int.9, align 8 ; [#uses=4 type=%struct.ap_int.9*]
  %eth_dst_src_payload = alloca %struct.ap_int.12, align 8 ; [#uses=1 type=%struct.ap_int.12*]
  %1 = alloca %struct.ap_int.9, align 8           ; [#uses=2 type=%struct.ap_int.9*]
  %2 = alloca %struct.ap_concat_ref, align 8      ; [#uses=2 type=%struct.ap_concat_ref*]
  %3 = alloca %struct.ap_int, align 8             ; [#uses=2 type=%struct.ap_int*]
  %4 = alloca %struct.ap_range_ref, align 8       ; [#uses=2 type=%struct.ap_range_ref*]
  %temp = alloca %struct.ap_int.15, align 4       ; [#uses=2 type=%struct.ap_int.15*]
  %5 = alloca %struct.ap_range_ref, align 8       ; [#uses=2 type=%struct.ap_range_ref*]
  %temp2 = alloca %struct.ap_int.18, align 2      ; [#uses=2 type=%struct.ap_int.18*]
  %temp3 = alloca %struct.ap_int.5, align 8       ; [#uses=2 type=%struct.ap_int.5*]
  %6 = alloca %struct.ap_concat_ref.21, align 8   ; [#uses=2 type=%struct.ap_concat_ref.21*]
  %tdest = alloca %struct.ap_int.18, align 2      ; [#uses=3 type=%struct.ap_int.18*]
  %zero = alloca %struct.ap_uint.2, align 1       ; [#uses=2 type=%struct.ap_uint.2*]
  %7 = alloca %struct.ap_axis_dest, align 8       ; [#uses=2 type=%struct.ap_axis_dest*]
  %8 = alloca %struct.ap_int.18, align 2          ; [#uses=2 type=%struct.ap_int.18*]
  %9 = alloca %struct.ap_concat_ref.25, align 8   ; [#uses=2 type=%struct.ap_concat_ref.25*]
  %10 = alloca %struct.ap_uint.2, align 1         ; [#uses=2 type=%struct.ap_uint.2*]
  %11 = alloca %struct.ap_uint, align 1           ; [#uses=2 type=%struct.ap_uint*]
  %12 = alloca %struct.ap_int, align 8            ; [#uses=2 type=%struct.ap_int*]
  %13 = alloca %struct.ap_concat_ref.26, align 8  ; [#uses=2 type=%struct.ap_concat_ref.26*]
  %14 = alloca %struct.ap_uint.2, align 1         ; [#uses=2 type=%struct.ap_uint.2*]
  %15 = alloca %struct.ap_uint.2, align 1         ; [#uses=2 type=%struct.ap_uint.2*]
  %last = alloca %struct.ap_uint, align 1         ; [#uses=3 type=%struct.ap_uint*]
  %16 = alloca %struct.ap_axis_dest, align 8      ; [#uses=2 type=%struct.ap_axis_dest*]
  %17 = alloca %struct.ap_uint, align 1           ; [#uses=2 type=%struct.ap_uint*]
  call void @llvm.dbg.declare(metadata !{%"class.hls::stream"* %packetIn}, metadata !8572), !dbg !8573 ; [debug line = 49:30] [debug variable = packetIn]
  call void @llvm.dbg.declare(metadata !{%struct.ap_int.5* %eth_dst}, metadata !8574), !dbg !8575 ; [debug line = 50:15] [debug variable = eth_dst]
  call void @llvm.dbg.declare(metadata !{%struct.ap_int.5* %eth_src}, metadata !8576), !dbg !8577 ; [debug line = 51:15] [debug variable = eth_src]
  call void @llvm.dbg.declare(metadata !{%"class.hls::stream.8"* %packetOut}, metadata !8578), !dbg !8579 ; [debug line = 54:26] [debug variable = packetOut]
  call void (...)* @_ssdm_op_SpecInterface(%"class.hls::stream"* %packetIn, i8* getelementptr inbounds ([5 x i8]* @.str, i32 0, i32 0), i32 1, i32 1, i8* getelementptr inbounds ([5 x i8]* @.str1, i32 0, i32 0), i32 0, i32 0, i8* getelementptr inbounds ([1 x i8]* @.str2, i32 0, i32 0), i8* getelementptr inbounds ([1 x i8]* @.str2, i32 0, i32 0), i8* getelementptr inbounds ([1 x i8]* @.str2, i32 0, i32 0), i32 0, i32 0, i32 0, i32 0, i8* getelementptr inbounds ([1 x i8]* @.str2, i32 0, i32 0), i8* getelementptr inbounds ([1 x i8]* @.str2, i32 0, i32 0)) nounwind, !dbg !8580 ; [debug line = 61:1]
  call void (...)* @_ssdm_op_SpecInterface(%"class.hls::stream.8"* %packetOut, i8* getelementptr inbounds ([5 x i8]* @.str, i32 0, i32 0), i32 1, i32 1, i8* getelementptr inbounds ([5 x i8]* @.str1, i32 0, i32 0), i32 0, i32 0, i8* getelementptr inbounds ([1 x i8]* @.str2, i32 0, i32 0), i8* getelementptr inbounds ([1 x i8]* @.str2, i32 0, i32 0), i8* getelementptr inbounds ([1 x i8]* @.str2, i32 0, i32 0), i32 0, i32 0, i32 0, i32 0, i8* getelementptr inbounds ([1 x i8]* @.str2, i32 0, i32 0), i8* getelementptr inbounds ([1 x i8]* @.str2, i32 0, i32 0)) nounwind, !dbg !8580 ; [debug line = 61:1]
  call void (...)* @_ssdm_op_SpecInterface(%struct.ap_int.5* %eth_src, i8* getelementptr inbounds ([8 x i8]* @.str3, i32 0, i32 0), i32 0, i32 0, i8* getelementptr inbounds ([1 x i8]* @.str2, i32 0, i32 0), i32 0, i32 0, i8* getelementptr inbounds ([1 x i8]* @.str2, i32 0, i32 0), i8* getelementptr inbounds ([1 x i8]* @.str2, i32 0, i32 0), i8* getelementptr inbounds ([1 x i8]* @.str2, i32 0, i32 0), i32 0, i32 0, i32 0, i32 0, i8* getelementptr inbounds ([1 x i8]* @.str2, i32 0, i32 0), i8* getelementptr inbounds ([1 x i8]* @.str2, i32 0, i32 0)) nounwind, !dbg !8580 ; [debug line = 61:1]
  call void (...)* @_ssdm_op_SpecInterface(%struct.ap_int.5* %eth_dst, i8* getelementptr inbounds ([8 x i8]* @.str3, i32 0, i32 0), i32 0, i32 0, i8* getelementptr inbounds ([1 x i8]* @.str2, i32 0, i32 0), i32 0, i32 0, i8* getelementptr inbounds ([1 x i8]* @.str2, i32 0, i32 0), i8* getelementptr inbounds ([1 x i8]* @.str2, i32 0, i32 0), i8* getelementptr inbounds ([1 x i8]* @.str2, i32 0, i32 0), i32 0, i32 0, i32 0, i32 0, i8* getelementptr inbounds ([1 x i8]* @.str2, i32 0, i32 0), i8* getelementptr inbounds ([1 x i8]* @.str2, i32 0, i32 0)) nounwind, !dbg !8580 ; [debug line = 61:1]
  call void (...)* @_ssdm_op_SpecInterface(i32 0, i8* getelementptr inbounds ([13 x i8]* @.str4, i32 0, i32 0), i32 0, i32 0, i8* getelementptr inbounds ([1 x i8]* @.str2, i32 0, i32 0), i32 0, i32 0, i8* getelementptr inbounds ([1 x i8]* @.str2, i32 0, i32 0), i8* getelementptr inbounds ([1 x i8]* @.str2, i32 0, i32 0), i8* getelementptr inbounds ([1 x i8]* @.str2, i32 0, i32 0), i32 0, i32 0, i32 0, i32 0, i8* getelementptr inbounds ([1 x i8]* @.str2, i32 0, i32 0), i8* getelementptr inbounds ([1 x i8]* @.str2, i32 0, i32 0)) nounwind, !dbg !8580 ; [debug line = 61:1]
  call void @llvm.dbg.declare(metadata !{%struct.ap_axis* %packetHeader0}, metadata !8582), !dbg !8583 ; [debug line = 62:10] [debug variable = packetHeader0]
  call void @_ZN7ap_axisC1Ev(%struct.ap_axis* %packetHeader0), !dbg !8584 ; [debug line = 62:38]
  call void @llvm.dbg.declare(metadata !{%struct.ap_axis* %packetHeader1}, metadata !8585), !dbg !8586 ; [debug line = 62:25] [debug variable = packetHeader1]
  call void @_ZN7ap_axisC1Ev(%struct.ap_axis* %packetHeader1), !dbg !8584 ; [debug line = 62:38]
  call void @llvm.dbg.declare(metadata !{%struct.ap_axis_dest* %currPayloadIn}, metadata !8587), !dbg !8588 ; [debug line = 63:15] [debug variable = currPayloadIn]
  call void @_ZN12ap_axis_destC1Ev(%struct.ap_axis_dest* %currPayloadIn), !dbg !8589 ; [debug line = 63:28]
  call void @llvm.dbg.declare(metadata !{%struct.ap_axis* %currPayloadOut}, metadata !8590), !dbg !8591 ; [debug line = 64:10] [debug variable = currPayloadOut]
  call void @_ZN7ap_axisC1Ev(%struct.ap_axis* %currPayloadOut), !dbg !8592 ; [debug line = 64:24]
  call void @llvm.dbg.declare(metadata !{%struct.ap_int.9* %eth_dst_src}, metadata !8593), !dbg !8594 ; [debug line = 67:14] [debug variable = eth_dst_src]
  call void @_ZN6ap_intILi96EEC1Ev(%struct.ap_int.9* %eth_dst_src), !dbg !8595 ; [debug line = 67:25]
  call void @llvm.dbg.declare(metadata !{%struct.ap_int.12* %eth_dst_src_payload}, metadata !8596), !dbg !8597 ; [debug line = 68:15] [debug variable = eth_dst_src_payload]
  call void @_ZN6ap_intILi112EEC1Ev(%struct.ap_int.12* %eth_dst_src_payload), !dbg !8598 ; [debug line = 68:34]
  %18 = bitcast %struct.ap_int.5* %eth_dst to %struct.ap_int_base.6*, !dbg !8599 ; [#uses=1 type=%struct.ap_int_base.6*] [debug line = 69:16]
  %19 = bitcast %struct.ap_int.5* %eth_src to %struct.ap_int_base.6*, !dbg !8599 ; [#uses=1 type=%struct.ap_int_base.6*] [debug line = 69:16]
  call void @_ZN11ap_int_baseILi48ELb1ELb1EE6concatILi48ELb1EEE13ap_concat_refILi48ES0_XT_ES_IXT_EXT0_EXleT_Li64EEEERS3_(%struct.ap_concat_ref* sret %2, %struct.ap_int_base.6* %18, %struct.ap_int_base.6* %19), !dbg !8599 ; [debug line = 69:16]
  call void @_ZN6ap_intILi96EEC1ILi48E11ap_int_baseILi48ELb1ELb1EELi48ES3_EERK13ap_concat_refIXT_ET0_XT1_ET2_E(%struct.ap_int.9* %1, %struct.ap_concat_ref* %2), !dbg !8599 ; [debug line = 69:16]
  %20 = call %struct.ap_int.9* @_ZN6ap_intILi96EEaSERKS0_(%struct.ap_int.9* %eth_dst_src, %struct.ap_int.9* %1), !dbg !8599 ; [#uses=0 type=%struct.ap_int.9*] [debug line = 69:16]
  %21 = getelementptr inbounds %struct.ap_axis* %packetHeader0, i32 0, i32 0, !dbg !8600 ; [#uses=1 type=%struct.ap_int*] [debug line = 72:2]
  %22 = bitcast %struct.ap_int.9* %eth_dst_src to %struct.ap_int_base.10*, !dbg !8601 ; [#uses=1 type=%struct.ap_int_base.10*] [debug line = 72:23]
  call void @_ZN11ap_int_baseILi96ELb1ELb0EE5rangeEii(%struct.ap_range_ref* sret %4, %struct.ap_int_base.10* %22, i32 95, i32 32), !dbg !8601 ; [debug line = 72:23]
  call void @_ZN6ap_intILi64EEC1ILi96ELb1EEERK12ap_range_refIXT_EXT0_EE(%struct.ap_int* %3, %struct.ap_range_ref* %4), !dbg !8601 ; [debug line = 72:23]
  %23 = call %struct.ap_int* @_ZN6ap_intILi64EEaSERKS0_(%struct.ap_int* %21, %struct.ap_int* %3), !dbg !8601 ; [#uses=0 type=%struct.ap_int*] [debug line = 72:23]
  call void @llvm.dbg.declare(metadata !{%struct.ap_int.15* %temp}, metadata !8602), !dbg !8603 ; [debug line = 77:14] [debug variable = temp]
  %24 = bitcast %struct.ap_int.9* %eth_dst_src to %struct.ap_int_base.10*, !dbg !8604 ; [#uses=1 type=%struct.ap_int_base.10*] [debug line = 77:21]
  call void @_ZN11ap_int_baseILi96ELb1ELb0EE5rangeEii(%struct.ap_range_ref* sret %5, %struct.ap_int_base.10* %24, i32 31, i32 0), !dbg !8604 ; [debug line = 77:21]
  call void @_ZN6ap_intILi32EEC1ILi96ELb1EEERK12ap_range_refIXT_EXT0_EE(%struct.ap_int.15* %temp, %struct.ap_range_ref* %5), !dbg !8604 ; [debug line = 77:21]
  call void @llvm.dbg.declare(metadata !{%struct.ap_int.18* %temp2}, metadata !8605), !dbg !8606 ; [debug line = 78:14] [debug variable = temp2]
  call void @_ZN6ap_intILi16EEC1Ei(%struct.ap_int.18* %temp2, i32 29696), !dbg !8607 ; [debug line = 78:28]
  call void @llvm.dbg.declare(metadata !{%struct.ap_int.5* %temp3}, metadata !8608), !dbg !8609 ; [debug line = 79:14] [debug variable = temp3]
  %25 = bitcast %struct.ap_int.15* %temp to %struct.ap_int_base.16*, !dbg !8610 ; [#uses=1 type=%struct.ap_int_base.16*] [debug line = 79:22]
  %26 = bitcast %struct.ap_int.18* %temp2 to %struct.ap_int_base.19*, !dbg !8610 ; [#uses=1 type=%struct.ap_int_base.19*] [debug line = 79:22]
  call void @_ZN11ap_int_baseILi32ELb1ELb1EE6concatILi16ELb1EEE13ap_concat_refILi32ES0_XT_ES_IXT_EXT0_EXleT_Li64EEEERS3_(%struct.ap_concat_ref.21* sret %6, %struct.ap_int_base.16* %25, %struct.ap_int_base.19* %26), !dbg !8610 ; [debug line = 79:22]
  call void @_ZN6ap_intILi48EEC1ILi32E11ap_int_baseILi32ELb1ELb1EELi16ES2_ILi16ELb1ELb1EEEERK13ap_concat_refIXT_ET0_XT1_ET2_E(%struct.ap_int.5* %temp3, %struct.ap_concat_ref.21* %6), !dbg !8610 ; [debug line = 79:22]
  call void @llvm.dbg.declare(metadata !{%struct.ap_int.18* %tdest}, metadata !8611), !dbg !8612 ; [debug line = 82:15] [debug variable = tdest]
  call void @_ZN7ap_uintILi16EEC1Ev(%struct.ap_int.18* %tdest), !dbg !8613 ; [debug line = 82:20]
  call void @llvm.dbg.declare(metadata !{%struct.ap_uint.2* %zero}, metadata !8614), !dbg !8615 ; [debug line = 84:14] [debug variable = zero]
  call void @_ZN7ap_uintILi8EEC1Ei(%struct.ap_uint.2* %zero, i32 0), !dbg !8616 ; [debug line = 84:25]
  call void @_ZN3hls6streamI12ap_axis_destE4readEv(%struct.ap_axis_dest* sret %7, %"class.hls::stream"* %packetIn), !dbg !8617 ; [debug line = 87:18]
  %27 = call %struct.ap_axis_dest* @_ZN12ap_axis_destaSERKS_(%struct.ap_axis_dest* %currPayloadIn, %struct.ap_axis_dest* %7), !dbg !8617 ; [#uses=0 type=%struct.ap_axis_dest*] [debug line = 87:18]
  call void (...)* @_ssdm_op_Wait(i32 1) nounwind, !dbg !8618 ; [debug line = 88:2]
  %28 = bitcast %struct.ap_uint.2* %zero to %struct.ap_int_base.3*, !dbg !8619 ; [#uses=1 type=%struct.ap_int_base.3*] [debug line = 89:10]
  %29 = getelementptr inbounds %struct.ap_axis_dest* %currPayloadIn, i32 0, i32 2, !dbg !8619 ; [#uses=1 type=%struct.ap_uint.2*] [debug line = 89:10]
  %30 = bitcast %struct.ap_uint.2* %29 to %struct.ap_int_base.3*, !dbg !8619 ; [#uses=1 type=%struct.ap_int_base.3*] [debug line = 89:10]
  call void @_ZN11ap_int_baseILi8ELb0ELb1EE6concatILi8ELb0EEE13ap_concat_refILi8ES0_XT_ES_IXT_EXT0_EXleT_Li64EEEERS3_(%struct.ap_concat_ref.25* sret %9, %struct.ap_int_base.3* %28, %struct.ap_int_base.3* %30), !dbg !8619 ; [debug line = 89:10]
  call void @_ZN7ap_uintILi16EEC1ILi8E11ap_int_baseILi8ELb0ELb1EELi8ES3_EERK13ap_concat_refIXT_ET0_XT1_ET2_E(%struct.ap_int.18* %8, %struct.ap_concat_ref.25* %9), !dbg !8619 ; [debug line = 89:10]
  %31 = call %struct.ap_int.18* @_ZN7ap_uintILi16EEaSERKS0_(%struct.ap_int.18* %tdest, %struct.ap_int.18* %8), !dbg !8619 ; [#uses=0 type=%struct.ap_int.18*] [debug line = 89:10]
  %32 = getelementptr inbounds %struct.ap_axis* %currPayloadOut, i32 0, i32 0, !dbg !8620 ; [#uses=1 type=%struct.ap_int*] [debug line = 91:2]
  %33 = getelementptr inbounds %struct.ap_axis_dest* %currPayloadIn, i32 0, i32 0, !dbg !8620 ; [#uses=1 type=%struct.ap_int*] [debug line = 91:2]
  %34 = call %struct.ap_int* @_ZN6ap_intILi64EEaSERKS0_(%struct.ap_int* %32, %struct.ap_int* %33), !dbg !8620 ; [#uses=0 type=%struct.ap_int*] [debug line = 91:2]
  %35 = getelementptr inbounds %struct.ap_axis* %currPayloadOut, i32 0, i32 2, !dbg !8621 ; [#uses=1 type=%struct.ap_uint.2*] [debug line = 92:2]
  call void @_ZN7ap_uintILi8EEC1Ei(%struct.ap_uint.2* %10, i32 255), !dbg !8621 ; [debug line = 92:2]
  %36 = call %struct.ap_uint.2* @_ZN7ap_uintILi8EEaSERKS0_(%struct.ap_uint.2* %35, %struct.ap_uint.2* %10), !dbg !8621 ; [#uses=0 type=%struct.ap_uint.2*] [debug line = 92:2]
  %37 = getelementptr inbounds %struct.ap_axis* %currPayloadOut, i32 0, i32 1, !dbg !8622 ; [#uses=1 type=%struct.ap_uint*] [debug line = 93:2]
  call void @_ZN7ap_uintILi1EEC1Ei(%struct.ap_uint* %11, i32 0), !dbg !8622 ; [debug line = 93:2]
  %38 = call %struct.ap_uint* @_ZN7ap_uintILi1EEaSERKS0_(%struct.ap_uint* %37, %struct.ap_uint* %11), !dbg !8622 ; [#uses=0 type=%struct.ap_uint*] [debug line = 93:2]
  %39 = getelementptr inbounds %struct.ap_axis* %packetHeader1, i32 0, i32 0, !dbg !8623 ; [#uses=1 type=%struct.ap_int*] [debug line = 97:2]
  %40 = bitcast %struct.ap_int.5* %temp3 to %struct.ap_int_base.6*, !dbg !8624 ; [#uses=1 type=%struct.ap_int_base.6*] [debug line = 97:23]
  %41 = bitcast %struct.ap_int.18* %tdest to %struct.ap_int_base.19*, !dbg !8624 ; [#uses=1 type=%struct.ap_int_base.19*] [debug line = 97:23]
  call void @_ZN11ap_int_baseILi48ELb1ELb1EE6concatILi16ELb0EEE13ap_concat_refILi48ES0_XT_ES_IXT_EXT0_EXleT_Li64EEEERS3_(%struct.ap_concat_ref.26* sret %13, %struct.ap_int_base.6* %40, %struct.ap_int_base.19* %41), !dbg !8624 ; [debug line = 97:23]
  call void @_ZN6ap_intILi64EEC1ILi48E11ap_int_baseILi48ELb1ELb1EELi16ES2_ILi16ELb0ELb1EEEERK13ap_concat_refIXT_ET0_XT1_ET2_E(%struct.ap_int* %12, %struct.ap_concat_ref.26* %13), !dbg !8624 ; [debug line = 97:23]
  %42 = call %struct.ap_int* @_ZN6ap_intILi64EEaSERKS0_(%struct.ap_int* %39, %struct.ap_int* %12), !dbg !8624 ; [#uses=0 type=%struct.ap_int*] [debug line = 97:23]
  %43 = getelementptr inbounds %struct.ap_axis* %packetHeader0, i32 0, i32 2, !dbg !8625 ; [#uses=1 type=%struct.ap_uint.2*] [debug line = 100:2]
  call void @_ZN7ap_uintILi8EEC1Ei(%struct.ap_uint.2* %14, i32 255), !dbg !8625 ; [debug line = 100:2]
  %44 = call %struct.ap_uint.2* @_ZN7ap_uintILi8EEaSERKS0_(%struct.ap_uint.2* %43, %struct.ap_uint.2* %14), !dbg !8625 ; [#uses=0 type=%struct.ap_uint.2*] [debug line = 100:2]
  %45 = getelementptr inbounds %struct.ap_axis* %packetHeader1, i32 0, i32 2, !dbg !8626 ; [#uses=1 type=%struct.ap_uint.2*] [debug line = 101:2]
  call void @_ZN7ap_uintILi8EEC1Ei(%struct.ap_uint.2* %15, i32 255), !dbg !8626 ; [debug line = 101:2]
  %46 = call %struct.ap_uint.2* @_ZN7ap_uintILi8EEaSERKS0_(%struct.ap_uint.2* %45, %struct.ap_uint.2* %15), !dbg !8626 ; [#uses=0 type=%struct.ap_uint.2*] [debug line = 101:2]
  call void @_ZN3hls6streamI7ap_axisE5writeERKS1_(%"class.hls::stream.8"* %packetOut, %struct.ap_axis* %packetHeader0), !dbg !8627 ; [debug line = 104:2]
  call void @_ZN3hls6streamI7ap_axisE5writeERKS1_(%"class.hls::stream.8"* %packetOut, %struct.ap_axis* %packetHeader1), !dbg !8628 ; [debug line = 105:2]
  call void @_ZN3hls6streamI7ap_axisE5writeERKS1_(%"class.hls::stream.8"* %packetOut, %struct.ap_axis* %currPayloadOut), !dbg !8629 ; [debug line = 106:2]
  call void @llvm.dbg.declare(metadata !{%struct.ap_uint* %last}, metadata !8630), !dbg !8631 ; [debug line = 109:13] [debug variable = last]
  call void @_ZN6ap_intILi1EEC1Ei(%struct.ap_uint* %last, i32 0), !dbg !8632 ; [debug line = 109:21]
  br label %47, !dbg !8633                        ; [debug line = 110:2]

; <label>:47                                      ; preds = %60, %0
  call void @_ZN3hls6streamI12ap_axis_destE4readEv(%struct.ap_axis_dest* sret %16, %"class.hls::stream"* %packetIn), !dbg !8634 ; [debug line = 112:19]
  %48 = call %struct.ap_axis_dest* @_ZN12ap_axis_destaSERKS_(%struct.ap_axis_dest* %currPayloadIn, %struct.ap_axis_dest* %16), !dbg !8634 ; [#uses=0 type=%struct.ap_axis_dest*] [debug line = 112:19]
  %49 = getelementptr inbounds %struct.ap_axis* %currPayloadOut, i32 0, i32 0, !dbg !8636 ; [#uses=1 type=%struct.ap_int*] [debug line = 114:3]
  %50 = getelementptr inbounds %struct.ap_axis_dest* %currPayloadIn, i32 0, i32 0, !dbg !8636 ; [#uses=1 type=%struct.ap_int*] [debug line = 114:3]
  %51 = call %struct.ap_int* @_ZN6ap_intILi64EEaSERKS0_(%struct.ap_int* %49, %struct.ap_int* %50), !dbg !8636 ; [#uses=0 type=%struct.ap_int*] [debug line = 114:3]
  %52 = getelementptr inbounds %struct.ap_axis* %currPayloadOut, i32 0, i32 1, !dbg !8637 ; [#uses=1 type=%struct.ap_uint*] [debug line = 115:3]
  %53 = getelementptr inbounds %struct.ap_axis_dest* %currPayloadIn, i32 0, i32 1, !dbg !8637 ; [#uses=1 type=%struct.ap_uint*] [debug line = 115:3]
  %54 = call %struct.ap_uint* @_ZN7ap_uintILi1EEaSERKS0_(%struct.ap_uint* %52, %struct.ap_uint* %53), !dbg !8637 ; [#uses=0 type=%struct.ap_uint*] [debug line = 115:3]
  %55 = getelementptr inbounds %struct.ap_axis* %currPayloadOut, i32 0, i32 2, !dbg !8638 ; [#uses=1 type=%struct.ap_uint.2*] [debug line = 116:3]
  %56 = getelementptr inbounds %struct.ap_axis_dest* %currPayloadIn, i32 0, i32 3, !dbg !8638 ; [#uses=1 type=%struct.ap_uint.2*] [debug line = 116:3]
  %57 = call %struct.ap_uint.2* @_ZN7ap_uintILi8EEaSERKS0_(%struct.ap_uint.2* %55, %struct.ap_uint.2* %56), !dbg !8638 ; [#uses=0 type=%struct.ap_uint.2*] [debug line = 116:3]
  call void @_ZN3hls6streamI7ap_axisE5writeERKS1_(%"class.hls::stream.8"* %packetOut, %struct.ap_axis* %currPayloadOut), !dbg !8639 ; [debug line = 117:3]
  %58 = getelementptr inbounds %struct.ap_axis* %currPayloadOut, i32 0, i32 1, !dbg !8640 ; [#uses=1 type=%struct.ap_uint*] [debug line = 118:3]
  call void @_ZN6ap_intILi1EEC1ILi1EEERK7ap_uintIXT_EE(%struct.ap_uint* %17, %struct.ap_uint* %58), !dbg !8640 ; [debug line = 118:3]
  %59 = call %struct.ap_uint* @_ZN6ap_intILi1EEaSERKS0_(%struct.ap_uint* %last, %struct.ap_uint* %17), !dbg !8640 ; [#uses=0 type=%struct.ap_uint*] [debug line = 118:3]
  br label %60, !dbg !8641                        ; [debug line = 121:2]

; <label>:60                                      ; preds = %47
  %61 = bitcast %struct.ap_uint* %last to %struct.ap_int_base.0*, !dbg !8642 ; [#uses=1 type=%struct.ap_int_base.0*] [debug line = 121:9]
  %62 = call zeroext i1 @_ZeqILi1ELb1EEbRK11ap_int_baseIXT_EXT0_EXleT_Li64EEEi(%struct.ap_int_base.0* %61, i32 0), !dbg !8642 ; [#uses=1 type=i1] [debug line = 121:9]
  br i1 %62, label %47, label %63, !dbg !8642     ; [debug line = 121:9]

; <label>:63                                      ; preds = %60
  ret void, !dbg !8643                            ; [debug line = 123:1]
}

; [#uses=262]
declare void @llvm.dbg.declare(metadata, metadata) nounwind readnone

; [#uses=5]
declare void @_ssdm_op_SpecInterface(...) nounwind

; [#uses=3]
define linkonce_odr void @_ZN7ap_axisC1Ev(%struct.ap_axis* %this) unnamed_addr nounwind uwtable inlinehint align 2 {
  %1 = alloca %struct.ap_axis*, align 8           ; [#uses=2 type=%struct.ap_axis**]
  store %struct.ap_axis* %this, %struct.ap_axis** %1, align 8
  call void @llvm.dbg.declare(metadata !{%struct.ap_axis** %1}, metadata !8644), !dbg !8646 ; [debug line = 9:8] [debug variable = this]
  %2 = load %struct.ap_axis** %1                  ; [#uses=1 type=%struct.ap_axis*]
  call void @_ZN7ap_axisC2Ev(%struct.ap_axis* %2), !dbg !8646 ; [debug line = 9:8]
  ret void, !dbg !8646                            ; [debug line = 9:8]
}

; [#uses=2]
define linkonce_odr void @_ZN12ap_axis_destC1Ev(%struct.ap_axis_dest* %this) unnamed_addr nounwind uwtable inlinehint align 2 {
  %1 = alloca %struct.ap_axis_dest*, align 8      ; [#uses=2 type=%struct.ap_axis_dest**]
  store %struct.ap_axis_dest* %this, %struct.ap_axis_dest** %1, align 8
  call void @llvm.dbg.declare(metadata !{%struct.ap_axis_dest** %1}, metadata !8647), !dbg !8649 ; [debug line = 17:8] [debug variable = this]
  %2 = load %struct.ap_axis_dest** %1             ; [#uses=1 type=%struct.ap_axis_dest*]
  call void @_ZN12ap_axis_destC2Ev(%struct.ap_axis_dest* %2), !dbg !8649 ; [debug line = 17:8]
  ret void, !dbg !8649                            ; [debug line = 17:8]
}

; [#uses=1]
define linkonce_odr void @_ZN6ap_intILi96EEC1Ev(%struct.ap_int.9* %this) unnamed_addr nounwind uwtable inlinehint alwaysinline align 2 {
  %1 = alloca %struct.ap_int.9*, align 8          ; [#uses=2 type=%struct.ap_int.9**]
  store %struct.ap_int.9* %this, %struct.ap_int.9** %1, align 8
  call void @llvm.dbg.declare(metadata !{%struct.ap_int.9** %1}, metadata !8650), !dbg !8652 ; [debug line = 76:43] [debug variable = this]
  %2 = load %struct.ap_int.9** %1                 ; [#uses=1 type=%struct.ap_int.9*]
  call void @_ZN6ap_intILi96EEC2Ev(%struct.ap_int.9* %2), !dbg !8653 ; [debug line = 76:61]
  ret void, !dbg !8653                            ; [debug line = 76:61]
}

; [#uses=1]
define linkonce_odr void @_ZN6ap_intILi112EEC1Ev(%struct.ap_int.12* %this) unnamed_addr nounwind uwtable inlinehint alwaysinline align 2 {
  %1 = alloca %struct.ap_int.12*, align 8         ; [#uses=2 type=%struct.ap_int.12**]
  store %struct.ap_int.12* %this, %struct.ap_int.12** %1, align 8
  call void @llvm.dbg.declare(metadata !{%struct.ap_int.12** %1}, metadata !8654), !dbg !8656 ; [debug line = 76:43] [debug variable = this]
  %2 = load %struct.ap_int.12** %1                ; [#uses=1 type=%struct.ap_int.12*]
  call void @_ZN6ap_intILi112EEC2Ev(%struct.ap_int.12* %2), !dbg !8657 ; [debug line = 76:61]
  ret void, !dbg !8657                            ; [debug line = 76:61]
}

; [#uses=1]
define linkonce_odr %struct.ap_int.9* @_ZN6ap_intILi96EEaSERKS0_(%struct.ap_int.9* %this, %struct.ap_int.9* %op2) nounwind uwtable inlinehint alwaysinline align 2 {
  %1 = alloca %struct.ap_int.9*, align 8          ; [#uses=2 type=%struct.ap_int.9**]
  %2 = alloca %struct.ap_int.9*, align 8          ; [#uses=2 type=%struct.ap_int.9**]
  store %struct.ap_int.9* %this, %struct.ap_int.9** %1, align 8
  call void @llvm.dbg.declare(metadata !{%struct.ap_int.9** %1}, metadata !8658), !dbg !8659 ; [debug line = 171:52] [debug variable = this]
  store %struct.ap_int.9* %op2, %struct.ap_int.9** %2, align 8
  call void @llvm.dbg.declare(metadata !{%struct.ap_int.9** %2}, metadata !8660), !dbg !8661 ; [debug line = 171:85] [debug variable = op2]
  %3 = load %struct.ap_int.9** %1                 ; [#uses=2 type=%struct.ap_int.9*]
  %4 = load %struct.ap_int.9** %2, align 8, !dbg !8662 ; [#uses=1 type=%struct.ap_int.9*] [debug line = 172:10]
  %5 = bitcast %struct.ap_int.9* %4 to %struct.ssdm_int.11*, !dbg !8662 ; [#uses=1 type=%struct.ssdm_int.11*] [debug line = 172:10]
  %6 = getelementptr inbounds %struct.ssdm_int.11* %5, i32 0, i32 0, !dbg !8662 ; [#uses=1 type=i96*] [debug line = 172:10]
  %7 = load i96* %6, align 8, !dbg !8662          ; [#uses=1 type=i96] [debug line = 172:10]
  %8 = bitcast %struct.ap_int.9* %3 to %struct.ap_int_base.10*, !dbg !8662 ; [#uses=1 type=%struct.ap_int_base.10*] [debug line = 172:10]
  %9 = bitcast %struct.ap_int_base.10* %8 to %struct.ssdm_int.11*, !dbg !8662 ; [#uses=1 type=%struct.ssdm_int.11*] [debug line = 172:10]
  %10 = getelementptr inbounds %struct.ssdm_int.11* %9, i32 0, i32 0, !dbg !8662 ; [#uses=1 type=i96*] [debug line = 172:10]
  store i96 %7, i96* %10, align 8, !dbg !8662     ; [debug line = 172:10]
  ret %struct.ap_int.9* %3, !dbg !8664            ; [debug line = 173:10]
}

; [#uses=1]
define linkonce_odr void @_ZN6ap_intILi96EEC1ILi48E11ap_int_baseILi48ELb1ELb1EELi48ES3_EERK13ap_concat_refIXT_ET0_XT1_ET2_E(%struct.ap_int.9* %this, %struct.ap_concat_ref* %ref) unnamed_addr nounwind uwtable inlinehint alwaysinline align 2 {
  %1 = alloca %struct.ap_int.9*, align 8          ; [#uses=2 type=%struct.ap_int.9**]
  %2 = alloca %struct.ap_concat_ref*, align 8     ; [#uses=2 type=%struct.ap_concat_ref**]
  store %struct.ap_int.9* %this, %struct.ap_int.9** %1, align 8
  call void @llvm.dbg.declare(metadata !{%struct.ap_int.9** %1}, metadata !8665), !dbg !8666 ; [debug line = 96:43] [debug variable = this]
  store %struct.ap_concat_ref* %ref, %struct.ap_concat_ref** %2, align 8
  call void @llvm.dbg.declare(metadata !{%struct.ap_concat_ref** %2}, metadata !8667), !dbg !8668 ; [debug line = 96:103] [debug variable = ref]
  %3 = load %struct.ap_int.9** %1                 ; [#uses=1 type=%struct.ap_int.9*]
  %4 = load %struct.ap_concat_ref** %2, !dbg !8669 ; [#uses=1 type=%struct.ap_concat_ref*] [debug line = 96:119]
  call void @_ZN6ap_intILi96EEC2ILi48E11ap_int_baseILi48ELb1ELb1EELi48ES3_EERK13ap_concat_refIXT_ET0_XT1_ET2_E(%struct.ap_int.9* %3, %struct.ap_concat_ref* %4), !dbg !8669 ; [debug line = 96:119]
  ret void, !dbg !8669                            ; [debug line = 96:119]
}

; [#uses=1]
define linkonce_odr void @_ZN11ap_int_baseILi48ELb1ELb1EE6concatILi48ELb1EEE13ap_concat_refILi48ES0_XT_ES_IXT_EXT0_EXleT_Li64EEEERS3_(%struct.ap_concat_ref* noalias sret %agg.result, %struct.ap_int_base.6* %this, %struct.ap_int_base.6* %a2) nounwind uwtable inlinehint alwaysinline align 2 {
  %1 = alloca %struct.ap_int_base.6*, align 8     ; [#uses=2 type=%struct.ap_int_base.6**]
  %2 = alloca %struct.ap_int_base.6*, align 8     ; [#uses=2 type=%struct.ap_int_base.6**]
  store %struct.ap_int_base.6* %this, %struct.ap_int_base.6** %1, align 8
  call void @llvm.dbg.declare(metadata !{%struct.ap_int_base.6** %1}, metadata !8670), !dbg !8672 ; [debug line = 2112:111] [debug variable = this]
  store %struct.ap_int_base.6* %a2, %struct.ap_int_base.6** %2, align 8
  call void @llvm.dbg.declare(metadata !{%struct.ap_int_base.6** %2}, metadata !8673), !dbg !8674 ; [debug line = 2112:146] [debug variable = a2]
  %3 = load %struct.ap_int_base.6** %1            ; [#uses=1 type=%struct.ap_int_base.6*]
  %4 = load %struct.ap_int_base.6** %2, align 8, !dbg !8675 ; [#uses=1 type=%struct.ap_int_base.6*] [debug line = 2113:9]
  call void @_ZN13ap_concat_refILi48E11ap_int_baseILi48ELb1ELb1EELi48ES1_EC1ERS1_S3_(%struct.ap_concat_ref* %agg.result, %struct.ap_int_base.6* %3, %struct.ap_int_base.6* %4), !dbg !8675 ; [debug line = 2113:9]
  ret void, !dbg !8675                            ; [debug line = 2113:9]
}

; [#uses=5]
define linkonce_odr %struct.ap_int* @_ZN6ap_intILi64EEaSERKS0_(%struct.ap_int* %this, %struct.ap_int* %op2) nounwind uwtable inlinehint alwaysinline align 2 {
  %1 = alloca %struct.ap_int*, align 8            ; [#uses=2 type=%struct.ap_int**]
  %2 = alloca %struct.ap_int*, align 8            ; [#uses=2 type=%struct.ap_int**]
  store %struct.ap_int* %this, %struct.ap_int** %1, align 8
  call void @llvm.dbg.declare(metadata !{%struct.ap_int** %1}, metadata !8677), !dbg !8679 ; [debug line = 171:52] [debug variable = this]
  store %struct.ap_int* %op2, %struct.ap_int** %2, align 8
  call void @llvm.dbg.declare(metadata !{%struct.ap_int** %2}, metadata !8680), !dbg !8681 ; [debug line = 171:85] [debug variable = op2]
  %3 = load %struct.ap_int** %1                   ; [#uses=2 type=%struct.ap_int*]
  %4 = load %struct.ap_int** %2, align 8, !dbg !8682 ; [#uses=1 type=%struct.ap_int*] [debug line = 172:10]
  %5 = bitcast %struct.ap_int* %4 to %"class.std::locale::id"*, !dbg !8682 ; [#uses=1 type=%"class.std::locale::id"*] [debug line = 172:10]
  %6 = getelementptr inbounds %"class.std::locale::id"* %5, i32 0, i32 0, !dbg !8682 ; [#uses=1 type=i64*] [debug line = 172:10]
  %7 = load i64* %6, align 8, !dbg !8682          ; [#uses=1 type=i64] [debug line = 172:10]
  %8 = bitcast %struct.ap_int* %3 to %struct.ap_int_base*, !dbg !8682 ; [#uses=1 type=%struct.ap_int_base*] [debug line = 172:10]
  %9 = bitcast %struct.ap_int_base* %8 to %"class.std::locale::id"*, !dbg !8682 ; [#uses=1 type=%"class.std::locale::id"*] [debug line = 172:10]
  %10 = getelementptr inbounds %"class.std::locale::id"* %9, i32 0, i32 0, !dbg !8682 ; [#uses=1 type=i64*] [debug line = 172:10]
  store i64 %7, i64* %10, align 8, !dbg !8682     ; [debug line = 172:10]
  ret %struct.ap_int* %3, !dbg !8684              ; [debug line = 173:10]
}

; [#uses=1]
define linkonce_odr void @_ZN6ap_intILi64EEC1ILi96ELb1EEERK12ap_range_refIXT_EXT0_EE(%struct.ap_int* %this, %struct.ap_range_ref* %ref) unnamed_addr nounwind uwtable inlinehint alwaysinline align 2 {
  %1 = alloca %struct.ap_int*, align 8            ; [#uses=2 type=%struct.ap_int**]
  %2 = alloca %struct.ap_range_ref*, align 8      ; [#uses=2 type=%struct.ap_range_ref**]
  store %struct.ap_int* %this, %struct.ap_int** %1, align 8
  call void @llvm.dbg.declare(metadata !{%struct.ap_int** %1}, metadata !8685), !dbg !8686 ; [debug line = 90:43] [debug variable = this]
  store %struct.ap_range_ref* %ref, %struct.ap_range_ref** %2, align 8
  call void @llvm.dbg.declare(metadata !{%struct.ap_range_ref** %2}, metadata !8687), !dbg !8688 ; [debug line = 90:86] [debug variable = ref]
  %3 = load %struct.ap_int** %1                   ; [#uses=1 type=%struct.ap_int*]
  %4 = load %struct.ap_range_ref** %2, !dbg !8689 ; [#uses=1 type=%struct.ap_range_ref*] [debug line = 90:102]
  call void @_ZN6ap_intILi64EEC2ILi96ELb1EEERK12ap_range_refIXT_EXT0_EE(%struct.ap_int* %3, %struct.ap_range_ref* %4), !dbg !8689 ; [debug line = 90:102]
  ret void, !dbg !8689                            ; [debug line = 90:102]
}

; [#uses=2]
define linkonce_odr void @_ZN11ap_int_baseILi96ELb1ELb0EE5rangeEii(%struct.ap_range_ref* noalias sret %agg.result, %struct.ap_int_base.10* %this, i32 %Hi, i32 %Lo) nounwind uwtable inlinehint alwaysinline align 2 {
  %1 = alloca %struct.ap_int_base.10*, align 8    ; [#uses=2 type=%struct.ap_int_base.10**]
  %2 = alloca i32, align 4                        ; [#uses=2 type=i32*]
  %3 = alloca i32, align 4                        ; [#uses=2 type=i32*]
  store %struct.ap_int_base.10* %this, %struct.ap_int_base.10** %1, align 8
  call void @llvm.dbg.declare(metadata !{%struct.ap_int_base.10** %1}, metadata !8690), !dbg !8691 ; [debug line = 2950:5] [debug variable = this]
  store i32 %Hi, i32* %2, align 4
  call void @llvm.dbg.declare(metadata !{i32* %2}, metadata !8692), !dbg !8693 ; [debug line = 2950:16] [debug variable = Hi]
  store i32 %Lo, i32* %3, align 4
  call void @llvm.dbg.declare(metadata !{i32* %3}, metadata !8694), !dbg !8695 ; [debug line = 2950:24] [debug variable = Lo]
  %4 = load %struct.ap_int_base.10** %1           ; [#uses=1 type=%struct.ap_int_base.10*]
  %5 = load i32* %2, align 4, !dbg !8696          ; [#uses=1 type=i32] [debug line = 2952:9]
  %6 = load i32* %3, align 4, !dbg !8696          ; [#uses=1 type=i32] [debug line = 2952:9]
  call void @_ZN12ap_range_refILi96ELb1EEC1EP11ap_int_baseILi96ELb1ELb0EEii(%struct.ap_range_ref* %agg.result, %struct.ap_int_base.10* %4, i32 %5, i32 %6), !dbg !8696 ; [debug line = 2952:9]
  ret void, !dbg !8696                            ; [debug line = 2952:9]
}

; [#uses=1]
define linkonce_odr void @_ZN6ap_intILi32EEC1ILi96ELb1EEERK12ap_range_refIXT_EXT0_EE(%struct.ap_int.15* %this, %struct.ap_range_ref* %ref) unnamed_addr nounwind uwtable inlinehint alwaysinline align 2 {
  %1 = alloca %struct.ap_int.15*, align 8         ; [#uses=2 type=%struct.ap_int.15**]
  %2 = alloca %struct.ap_range_ref*, align 8      ; [#uses=2 type=%struct.ap_range_ref**]
  store %struct.ap_int.15* %this, %struct.ap_int.15** %1, align 8
  call void @llvm.dbg.declare(metadata !{%struct.ap_int.15** %1}, metadata !8698), !dbg !8700 ; [debug line = 90:43] [debug variable = this]
  store %struct.ap_range_ref* %ref, %struct.ap_range_ref** %2, align 8
  call void @llvm.dbg.declare(metadata !{%struct.ap_range_ref** %2}, metadata !8701), !dbg !8702 ; [debug line = 90:86] [debug variable = ref]
  %3 = load %struct.ap_int.15** %1                ; [#uses=1 type=%struct.ap_int.15*]
  %4 = load %struct.ap_range_ref** %2, !dbg !8703 ; [#uses=1 type=%struct.ap_range_ref*] [debug line = 90:102]
  call void @_ZN6ap_intILi32EEC2ILi96ELb1EEERK12ap_range_refIXT_EXT0_EE(%struct.ap_int.15* %3, %struct.ap_range_ref* %4), !dbg !8703 ; [debug line = 90:102]
  ret void, !dbg !8703                            ; [debug line = 90:102]
}

; [#uses=1]
define linkonce_odr void @_ZN6ap_intILi16EEC1Ei(%struct.ap_int.18* %this, i32 %val) unnamed_addr nounwind uwtable inlinehint alwaysinline align 2 {
  %1 = alloca %struct.ap_int.18*, align 8         ; [#uses=2 type=%struct.ap_int.18**]
  %2 = alloca i32, align 4                        ; [#uses=2 type=i32*]
  store %struct.ap_int.18* %this, %struct.ap_int.18** %1, align 8
  call void @llvm.dbg.declare(metadata !{%struct.ap_int.18** %1}, metadata !8704), !dbg !8706 ; [debug line = 144:43] [debug variable = this]
  store i32 %val, i32* %2, align 4
  call void @llvm.dbg.declare(metadata !{i32* %2}, metadata !8707), !dbg !8708 ; [debug line = 144:54] [debug variable = val]
  %3 = load %struct.ap_int.18** %1                ; [#uses=1 type=%struct.ap_int.18*]
  %4 = load i32* %2, align 4, !dbg !8709          ; [#uses=1 type=i32] [debug line = 144:75]
  call void @_ZN6ap_intILi16EEC2Ei(%struct.ap_int.18* %3, i32 %4), !dbg !8709 ; [debug line = 144:75]
  ret void, !dbg !8709                            ; [debug line = 144:75]
}

; [#uses=1]
define linkonce_odr void @_ZN6ap_intILi48EEC1ILi32E11ap_int_baseILi32ELb1ELb1EELi16ES2_ILi16ELb1ELb1EEEERK13ap_concat_refIXT_ET0_XT1_ET2_E(%struct.ap_int.5* %this, %struct.ap_concat_ref.21* %ref) unnamed_addr nounwind uwtable inlinehint alwaysinline align 2 {
  %1 = alloca %struct.ap_int.5*, align 8          ; [#uses=2 type=%struct.ap_int.5**]
  %2 = alloca %struct.ap_concat_ref.21*, align 8  ; [#uses=2 type=%struct.ap_concat_ref.21**]
  store %struct.ap_int.5* %this, %struct.ap_int.5** %1, align 8
  call void @llvm.dbg.declare(metadata !{%struct.ap_int.5** %1}, metadata !8710), !dbg !8712 ; [debug line = 96:43] [debug variable = this]
  store %struct.ap_concat_ref.21* %ref, %struct.ap_concat_ref.21** %2, align 8
  call void @llvm.dbg.declare(metadata !{%struct.ap_concat_ref.21** %2}, metadata !8713), !dbg !8714 ; [debug line = 96:103] [debug variable = ref]
  %3 = load %struct.ap_int.5** %1                 ; [#uses=1 type=%struct.ap_int.5*]
  %4 = load %struct.ap_concat_ref.21** %2, !dbg !8715 ; [#uses=1 type=%struct.ap_concat_ref.21*] [debug line = 96:119]
  call void @_ZN6ap_intILi48EEC2ILi32E11ap_int_baseILi32ELb1ELb1EELi16ES2_ILi16ELb1ELb1EEEERK13ap_concat_refIXT_ET0_XT1_ET2_E(%struct.ap_int.5* %3, %struct.ap_concat_ref.21* %4), !dbg !8715 ; [debug line = 96:119]
  ret void, !dbg !8715                            ; [debug line = 96:119]
}

; [#uses=1]
define linkonce_odr void @_ZN11ap_int_baseILi32ELb1ELb1EE6concatILi16ELb1EEE13ap_concat_refILi32ES0_XT_ES_IXT_EXT0_EXleT_Li64EEEERS3_(%struct.ap_concat_ref.21* noalias sret %agg.result, %struct.ap_int_base.16* %this, %struct.ap_int_base.19* %a2) nounwind uwtable inlinehint alwaysinline align 2 {
  %1 = alloca %struct.ap_int_base.16*, align 8    ; [#uses=2 type=%struct.ap_int_base.16**]
  %2 = alloca %struct.ap_int_base.19*, align 8    ; [#uses=2 type=%struct.ap_int_base.19**]
  store %struct.ap_int_base.16* %this, %struct.ap_int_base.16** %1, align 8
  call void @llvm.dbg.declare(metadata !{%struct.ap_int_base.16** %1}, metadata !8716), !dbg !8718 ; [debug line = 2112:111] [debug variable = this]
  store %struct.ap_int_base.19* %a2, %struct.ap_int_base.19** %2, align 8
  call void @llvm.dbg.declare(metadata !{%struct.ap_int_base.19** %2}, metadata !8719), !dbg !8720 ; [debug line = 2112:146] [debug variable = a2]
  %3 = load %struct.ap_int_base.16** %1           ; [#uses=1 type=%struct.ap_int_base.16*]
  %4 = load %struct.ap_int_base.19** %2, align 8, !dbg !8721 ; [#uses=1 type=%struct.ap_int_base.19*] [debug line = 2113:9]
  call void @_ZN13ap_concat_refILi32E11ap_int_baseILi32ELb1ELb1EELi16ES0_ILi16ELb1ELb1EEEC1ERS1_RS2_(%struct.ap_concat_ref.21* %agg.result, %struct.ap_int_base.16* %3, %struct.ap_int_base.19* %4), !dbg !8721 ; [debug line = 2113:9]
  ret void, !dbg !8721                            ; [debug line = 2113:9]
}

; [#uses=1]
define linkonce_odr void @_ZN7ap_uintILi16EEC1Ev(%struct.ap_int.18* %this) unnamed_addr nounwind uwtable inlinehint alwaysinline align 2 {
  %1 = alloca %struct.ap_int.18*, align 8         ; [#uses=2 type=%struct.ap_int.18**]
  store %struct.ap_int.18* %this, %struct.ap_int.18** %1, align 8
  call void @llvm.dbg.declare(metadata !{%struct.ap_int.18** %1}, metadata !8723), !dbg !8725 ; [debug line = 183:43] [debug variable = this]
  %2 = load %struct.ap_int.18** %1                ; [#uses=1 type=%struct.ap_int.18*]
  call void @_ZN7ap_uintILi16EEC2Ev(%struct.ap_int.18* %2), !dbg !8726 ; [debug line = 183:62]
  ret void, !dbg !8726                            ; [debug line = 183:62]
}

; [#uses=4]
define linkonce_odr void @_ZN7ap_uintILi8EEC1Ei(%struct.ap_uint.2* %this, i32 %val) unnamed_addr nounwind uwtable inlinehint alwaysinline align 2 {
  %1 = alloca %struct.ap_uint.2*, align 8         ; [#uses=2 type=%struct.ap_uint.2**]
  %2 = alloca i32, align 4                        ; [#uses=2 type=i32*]
  store %struct.ap_uint.2* %this, %struct.ap_uint.2** %1, align 8
  call void @llvm.dbg.declare(metadata !{%struct.ap_uint.2** %1}, metadata !8727), !dbg !8729 ; [debug line = 250:43] [debug variable = this]
  store i32 %val, i32* %2, align 4
  call void @llvm.dbg.declare(metadata !{i32* %2}, metadata !8730), !dbg !8731 ; [debug line = 250:55] [debug variable = val]
  %3 = load %struct.ap_uint.2** %1                ; [#uses=1 type=%struct.ap_uint.2*]
  %4 = load i32* %2, align 4, !dbg !8732          ; [#uses=1 type=i32] [debug line = 250:77]
  call void @_ZN7ap_uintILi8EEC2Ei(%struct.ap_uint.2* %3, i32 %4), !dbg !8732 ; [debug line = 250:77]
  ret void, !dbg !8732                            ; [debug line = 250:77]
}

; [#uses=2]
define linkonce_odr %struct.ap_axis_dest* @_ZN12ap_axis_destaSERKS_(%struct.ap_axis_dest* %this, %struct.ap_axis_dest*) nounwind uwtable inlinehint align 2 {
  %2 = alloca %struct.ap_axis_dest*, align 8      ; [#uses=2 type=%struct.ap_axis_dest**]
  %3 = alloca %struct.ap_axis_dest*, align 8      ; [#uses=5 type=%struct.ap_axis_dest**]
  store %struct.ap_axis_dest* %this, %struct.ap_axis_dest** %2, align 8
  call void @llvm.dbg.declare(metadata !{%struct.ap_axis_dest** %2}, metadata !8733), !dbg !8734 ; [debug line = 17:8] [debug variable = this]
  store %struct.ap_axis_dest* %0, %struct.ap_axis_dest** %3, align 8
  %4 = load %struct.ap_axis_dest** %2             ; [#uses=5 type=%struct.ap_axis_dest*]
  %5 = getelementptr inbounds %struct.ap_axis_dest* %4, i32 0, i32 0, !dbg !8735 ; [#uses=1 type=%struct.ap_int*] [debug line = 17:8]
  %6 = load %struct.ap_axis_dest** %3, align 8, !dbg !8735 ; [#uses=1 type=%struct.ap_axis_dest*] [debug line = 17:8]
  %7 = getelementptr inbounds %struct.ap_axis_dest* %6, i32 0, i32 0, !dbg !8735 ; [#uses=1 type=%struct.ap_int*] [debug line = 17:8]
  %8 = call %struct.ap_int* @_ZN6ap_intILi64EEaSERKS0_(%struct.ap_int* %5, %struct.ap_int* %7), !dbg !8735 ; [#uses=0 type=%struct.ap_int*] [debug line = 17:8]
  %9 = getelementptr inbounds %struct.ap_axis_dest* %4, i32 0, i32 1, !dbg !8735 ; [#uses=1 type=%struct.ap_uint*] [debug line = 17:8]
  %10 = load %struct.ap_axis_dest** %3, align 8, !dbg !8735 ; [#uses=1 type=%struct.ap_axis_dest*] [debug line = 17:8]
  %11 = getelementptr inbounds %struct.ap_axis_dest* %10, i32 0, i32 1, !dbg !8735 ; [#uses=1 type=%struct.ap_uint*] [debug line = 17:8]
  %12 = call %struct.ap_uint* @_ZN7ap_uintILi1EEaSERKS0_(%struct.ap_uint* %9, %struct.ap_uint* %11), !dbg !8735 ; [#uses=0 type=%struct.ap_uint*] [debug line = 17:8]
  %13 = getelementptr inbounds %struct.ap_axis_dest* %4, i32 0, i32 2, !dbg !8735 ; [#uses=1 type=%struct.ap_uint.2*] [debug line = 17:8]
  %14 = load %struct.ap_axis_dest** %3, align 8, !dbg !8735 ; [#uses=1 type=%struct.ap_axis_dest*] [debug line = 17:8]
  %15 = getelementptr inbounds %struct.ap_axis_dest* %14, i32 0, i32 2, !dbg !8735 ; [#uses=1 type=%struct.ap_uint.2*] [debug line = 17:8]
  %16 = call %struct.ap_uint.2* @_ZN7ap_uintILi8EEaSERKS0_(%struct.ap_uint.2* %13, %struct.ap_uint.2* %15), !dbg !8735 ; [#uses=0 type=%struct.ap_uint.2*] [debug line = 17:8]
  %17 = getelementptr inbounds %struct.ap_axis_dest* %4, i32 0, i32 3, !dbg !8735 ; [#uses=1 type=%struct.ap_uint.2*] [debug line = 17:8]
  %18 = load %struct.ap_axis_dest** %3, align 8, !dbg !8735 ; [#uses=1 type=%struct.ap_axis_dest*] [debug line = 17:8]
  %19 = getelementptr inbounds %struct.ap_axis_dest* %18, i32 0, i32 3, !dbg !8735 ; [#uses=1 type=%struct.ap_uint.2*] [debug line = 17:8]
  %20 = call %struct.ap_uint.2* @_ZN7ap_uintILi8EEaSERKS0_(%struct.ap_uint.2* %17, %struct.ap_uint.2* %19), !dbg !8735 ; [#uses=0 type=%struct.ap_uint.2*] [debug line = 17:8]
  ret %struct.ap_axis_dest* %4, !dbg !8735        ; [debug line = 17:8]
}

; [#uses=2]
define linkonce_odr void @_ZN3hls6streamI12ap_axis_destE4readEv(%struct.ap_axis_dest* noalias sret %agg.result, %"class.hls::stream"* %this) nounwind uwtable inlinehint alwaysinline align 2 {
  %1 = alloca %"class.hls::stream"*, align 8      ; [#uses=2 type=%"class.hls::stream"**]
  store %"class.hls::stream"* %this, %"class.hls::stream"** %1, align 8
  call void @llvm.dbg.declare(metadata !{%"class.hls::stream"** %1}, metadata !8737), !dbg !8739 ; [debug line = 129:56] [debug variable = this]
  %2 = load %"class.hls::stream"** %1             ; [#uses=1 type=%"class.hls::stream"*]
  call void @llvm.dbg.declare(metadata !{%struct.ap_axis_dest* %agg.result}, metadata !8740), !dbg !8742 ; [debug line = 130:22] [debug variable = tmp]
  call void @_ZN12ap_axis_destC1Ev(%struct.ap_axis_dest* %agg.result), !dbg !8743 ; [debug line = 130:25]
  %3 = getelementptr inbounds %"class.hls::stream"* %2, i32 0, i32 0, !dbg !8744 ; [#uses=1 type=%struct.ap_axis_dest*] [debug line = 131:9]
  call void (...)* @_ssdm_StreamRead(%struct.ap_axis_dest* %3, %struct.ap_axis_dest* %agg.result) nounwind, !dbg !8744 ; [debug line = 131:9]
  ret void, !dbg !8745                            ; [debug line = 132:9]
}

; [#uses=1]
declare void @_ssdm_op_Wait(...) nounwind

; [#uses=1]
define linkonce_odr %struct.ap_int.18* @_ZN7ap_uintILi16EEaSERKS0_(%struct.ap_int.18* %this, %struct.ap_int.18* %op2) nounwind uwtable inlinehint alwaysinline align 2 {
  %1 = alloca %struct.ap_int.18*, align 8         ; [#uses=2 type=%struct.ap_int.18**]
  %2 = alloca %struct.ap_int.18*, align 8         ; [#uses=2 type=%struct.ap_int.18**]
  store %struct.ap_int.18* %this, %struct.ap_int.18** %1, align 8
  call void @llvm.dbg.declare(metadata !{%struct.ap_int.18** %1}, metadata !8746), !dbg !8747 ; [debug line = 276:53] [debug variable = this]
  store %struct.ap_int.18* %op2, %struct.ap_int.18** %2, align 8
  call void @llvm.dbg.declare(metadata !{%struct.ap_int.18** %2}, metadata !8748), !dbg !8749 ; [debug line = 276:87] [debug variable = op2]
  %3 = load %struct.ap_int.18** %1                ; [#uses=2 type=%struct.ap_int.18*]
  %4 = load %struct.ap_int.18** %2, align 8, !dbg !8750 ; [#uses=1 type=%struct.ap_int.18*] [debug line = 277:10]
  %5 = bitcast %struct.ap_int.18* %4 to %struct.ssdm_int.20*, !dbg !8750 ; [#uses=1 type=%struct.ssdm_int.20*] [debug line = 277:10]
  %6 = getelementptr inbounds %struct.ssdm_int.20* %5, i32 0, i32 0, !dbg !8750 ; [#uses=1 type=i16*] [debug line = 277:10]
  %7 = load i16* %6, align 2, !dbg !8750          ; [#uses=1 type=i16] [debug line = 277:10]
  %8 = bitcast %struct.ap_int.18* %3 to %struct.ap_int_base.19*, !dbg !8750 ; [#uses=1 type=%struct.ap_int_base.19*] [debug line = 277:10]
  %9 = bitcast %struct.ap_int_base.19* %8 to %struct.ssdm_int.20*, !dbg !8750 ; [#uses=1 type=%struct.ssdm_int.20*] [debug line = 277:10]
  %10 = getelementptr inbounds %struct.ssdm_int.20* %9, i32 0, i32 0, !dbg !8750 ; [#uses=1 type=i16*] [debug line = 277:10]
  store i16 %7, i16* %10, align 2, !dbg !8750     ; [debug line = 277:10]
  ret %struct.ap_int.18* %3, !dbg !8752           ; [debug line = 278:10]
}

; [#uses=1]
define linkonce_odr void @_ZN7ap_uintILi16EEC1ILi8E11ap_int_baseILi8ELb0ELb1EELi8ES3_EERK13ap_concat_refIXT_ET0_XT1_ET2_E(%struct.ap_int.18* %this, %struct.ap_concat_ref.25* %ref) unnamed_addr nounwind uwtable inlinehint alwaysinline align 2 {
  %1 = alloca %struct.ap_int.18*, align 8         ; [#uses=2 type=%struct.ap_int.18**]
  %2 = alloca %struct.ap_concat_ref.25*, align 8  ; [#uses=2 type=%struct.ap_concat_ref.25**]
  store %struct.ap_int.18* %this, %struct.ap_int.18** %1, align 8
  call void @llvm.dbg.declare(metadata !{%struct.ap_int.18** %1}, metadata !8753), !dbg !8754 ; [debug line = 203:43] [debug variable = this]
  store %struct.ap_concat_ref.25* %ref, %struct.ap_concat_ref.25** %2, align 8
  call void @llvm.dbg.declare(metadata !{%struct.ap_concat_ref.25** %2}, metadata !8755), !dbg !8756 ; [debug line = 203:104] [debug variable = ref]
  %3 = load %struct.ap_int.18** %1                ; [#uses=1 type=%struct.ap_int.18*]
  %4 = load %struct.ap_concat_ref.25** %2, !dbg !8757 ; [#uses=1 type=%struct.ap_concat_ref.25*] [debug line = 203:120]
  call void @_ZN7ap_uintILi16EEC2ILi8E11ap_int_baseILi8ELb0ELb1EELi8ES3_EERK13ap_concat_refIXT_ET0_XT1_ET2_E(%struct.ap_int.18* %3, %struct.ap_concat_ref.25* %4), !dbg !8757 ; [debug line = 203:120]
  ret void, !dbg !8757                            ; [debug line = 203:120]
}

; [#uses=1]
define linkonce_odr void @_ZN11ap_int_baseILi8ELb0ELb1EE6concatILi8ELb0EEE13ap_concat_refILi8ES0_XT_ES_IXT_EXT0_EXleT_Li64EEEERS3_(%struct.ap_concat_ref.25* noalias sret %agg.result, %struct.ap_int_base.3* %this, %struct.ap_int_base.3* %a2) nounwind uwtable inlinehint alwaysinline align 2 {
  %1 = alloca %struct.ap_int_base.3*, align 8     ; [#uses=2 type=%struct.ap_int_base.3**]
  %2 = alloca %struct.ap_int_base.3*, align 8     ; [#uses=2 type=%struct.ap_int_base.3**]
  store %struct.ap_int_base.3* %this, %struct.ap_int_base.3** %1, align 8
  call void @llvm.dbg.declare(metadata !{%struct.ap_int_base.3** %1}, metadata !8758), !dbg !8760 ; [debug line = 2112:111] [debug variable = this]
  store %struct.ap_int_base.3* %a2, %struct.ap_int_base.3** %2, align 8
  call void @llvm.dbg.declare(metadata !{%struct.ap_int_base.3** %2}, metadata !8761), !dbg !8762 ; [debug line = 2112:146] [debug variable = a2]
  %3 = load %struct.ap_int_base.3** %1            ; [#uses=1 type=%struct.ap_int_base.3*]
  %4 = load %struct.ap_int_base.3** %2, align 8, !dbg !8763 ; [#uses=1 type=%struct.ap_int_base.3*] [debug line = 2113:9]
  call void @_ZN13ap_concat_refILi8E11ap_int_baseILi8ELb0ELb1EELi8ES1_EC1ERS1_S3_(%struct.ap_concat_ref.25* %agg.result, %struct.ap_int_base.3* %3, %struct.ap_int_base.3* %4), !dbg !8763 ; [debug line = 2113:9]
  ret void, !dbg !8763                            ; [debug line = 2113:9]
}

; [#uses=6]
define linkonce_odr %struct.ap_uint.2* @_ZN7ap_uintILi8EEaSERKS0_(%struct.ap_uint.2* %this, %struct.ap_uint.2* %op2) nounwind uwtable inlinehint alwaysinline align 2 {
  %1 = alloca %struct.ap_uint.2*, align 8         ; [#uses=2 type=%struct.ap_uint.2**]
  %2 = alloca %struct.ap_uint.2*, align 8         ; [#uses=2 type=%struct.ap_uint.2**]
  store %struct.ap_uint.2* %this, %struct.ap_uint.2** %1, align 8
  call void @llvm.dbg.declare(metadata !{%struct.ap_uint.2** %1}, metadata !8765), !dbg !8766 ; [debug line = 276:53] [debug variable = this]
  store %struct.ap_uint.2* %op2, %struct.ap_uint.2** %2, align 8
  call void @llvm.dbg.declare(metadata !{%struct.ap_uint.2** %2}, metadata !8767), !dbg !8768 ; [debug line = 276:87] [debug variable = op2]
  %3 = load %struct.ap_uint.2** %1                ; [#uses=2 type=%struct.ap_uint.2*]
  %4 = load %struct.ap_uint.2** %2, align 8, !dbg !8769 ; [#uses=1 type=%struct.ap_uint.2*] [debug line = 277:10]
  %5 = bitcast %struct.ap_uint.2* %4 to %struct.ssdm_int.4*, !dbg !8769 ; [#uses=1 type=%struct.ssdm_int.4*] [debug line = 277:10]
  %6 = getelementptr inbounds %struct.ssdm_int.4* %5, i32 0, i32 0, !dbg !8769 ; [#uses=1 type=i8*] [debug line = 277:10]
  %7 = load i8* %6, align 1, !dbg !8769           ; [#uses=1 type=i8] [debug line = 277:10]
  %8 = bitcast %struct.ap_uint.2* %3 to %struct.ap_int_base.3*, !dbg !8769 ; [#uses=1 type=%struct.ap_int_base.3*] [debug line = 277:10]
  %9 = bitcast %struct.ap_int_base.3* %8 to %struct.ssdm_int.4*, !dbg !8769 ; [#uses=1 type=%struct.ssdm_int.4*] [debug line = 277:10]
  %10 = getelementptr inbounds %struct.ssdm_int.4* %9, i32 0, i32 0, !dbg !8769 ; [#uses=1 type=i8*] [debug line = 277:10]
  store i8 %7, i8* %10, align 1, !dbg !8769       ; [debug line = 277:10]
  ret %struct.ap_uint.2* %3, !dbg !8771           ; [debug line = 278:10]
}

; [#uses=3]
define linkonce_odr %struct.ap_uint* @_ZN7ap_uintILi1EEaSERKS0_(%struct.ap_uint* %this, %struct.ap_uint* %op2) nounwind uwtable inlinehint alwaysinline align 2 {
  %1 = alloca %struct.ap_uint*, align 8           ; [#uses=2 type=%struct.ap_uint**]
  %2 = alloca %struct.ap_uint*, align 8           ; [#uses=2 type=%struct.ap_uint**]
  store %struct.ap_uint* %this, %struct.ap_uint** %1, align 8
  call void @llvm.dbg.declare(metadata !{%struct.ap_uint** %1}, metadata !8772), !dbg !8774 ; [debug line = 276:53] [debug variable = this]
  store %struct.ap_uint* %op2, %struct.ap_uint** %2, align 8
  call void @llvm.dbg.declare(metadata !{%struct.ap_uint** %2}, metadata !8775), !dbg !8776 ; [debug line = 276:87] [debug variable = op2]
  %3 = load %struct.ap_uint** %1                  ; [#uses=2 type=%struct.ap_uint*]
  %4 = load %struct.ap_uint** %2, align 8, !dbg !8777 ; [#uses=1 type=%struct.ap_uint*] [debug line = 277:10]
  %5 = bitcast %struct.ap_uint* %4 to %struct.ssdm_int.1*, !dbg !8777 ; [#uses=1 type=%struct.ssdm_int.1*] [debug line = 277:10]
  %6 = getelementptr inbounds %struct.ssdm_int.1* %5, i32 0, i32 0, !dbg !8777 ; [#uses=1 type=i1*] [debug line = 277:10]
  %7 = load i1* %6, align 1, !dbg !8777           ; [#uses=1 type=i1] [debug line = 277:10]
  %8 = bitcast %struct.ap_uint* %3 to %struct.ap_int_base.0*, !dbg !8777 ; [#uses=1 type=%struct.ap_int_base.0*] [debug line = 277:10]
  %9 = bitcast %struct.ap_int_base.0* %8 to %struct.ssdm_int.1*, !dbg !8777 ; [#uses=1 type=%struct.ssdm_int.1*] [debug line = 277:10]
  %10 = getelementptr inbounds %struct.ssdm_int.1* %9, i32 0, i32 0, !dbg !8777 ; [#uses=1 type=i1*] [debug line = 277:10]
  store i1 %7, i1* %10, align 1, !dbg !8777       ; [debug line = 277:10]
  ret %struct.ap_uint* %3, !dbg !8779             ; [debug line = 278:10]
}

; [#uses=1]
define linkonce_odr void @_ZN7ap_uintILi1EEC1Ei(%struct.ap_uint* %this, i32 %val) unnamed_addr nounwind uwtable inlinehint alwaysinline align 2 {
  %1 = alloca %struct.ap_uint*, align 8           ; [#uses=2 type=%struct.ap_uint**]
  %2 = alloca i32, align 4                        ; [#uses=2 type=i32*]
  store %struct.ap_uint* %this, %struct.ap_uint** %1, align 8
  call void @llvm.dbg.declare(metadata !{%struct.ap_uint** %1}, metadata !8780), !dbg !8781 ; [debug line = 250:43] [debug variable = this]
  store i32 %val, i32* %2, align 4
  call void @llvm.dbg.declare(metadata !{i32* %2}, metadata !8782), !dbg !8783 ; [debug line = 250:55] [debug variable = val]
  %3 = load %struct.ap_uint** %1                  ; [#uses=1 type=%struct.ap_uint*]
  %4 = load i32* %2, align 4, !dbg !8784          ; [#uses=1 type=i32] [debug line = 250:77]
  call void @_ZN7ap_uintILi1EEC2Ei(%struct.ap_uint* %3, i32 %4), !dbg !8784 ; [debug line = 250:77]
  ret void, !dbg !8784                            ; [debug line = 250:77]
}

; [#uses=1]
define linkonce_odr void @_ZN6ap_intILi64EEC1ILi48E11ap_int_baseILi48ELb1ELb1EELi16ES2_ILi16ELb0ELb1EEEERK13ap_concat_refIXT_ET0_XT1_ET2_E(%struct.ap_int* %this, %struct.ap_concat_ref.26* %ref) unnamed_addr nounwind uwtable inlinehint alwaysinline align 2 {
  %1 = alloca %struct.ap_int*, align 8            ; [#uses=2 type=%struct.ap_int**]
  %2 = alloca %struct.ap_concat_ref.26*, align 8  ; [#uses=2 type=%struct.ap_concat_ref.26**]
  store %struct.ap_int* %this, %struct.ap_int** %1, align 8
  call void @llvm.dbg.declare(metadata !{%struct.ap_int** %1}, metadata !8785), !dbg !8786 ; [debug line = 96:43] [debug variable = this]
  store %struct.ap_concat_ref.26* %ref, %struct.ap_concat_ref.26** %2, align 8
  call void @llvm.dbg.declare(metadata !{%struct.ap_concat_ref.26** %2}, metadata !8787), !dbg !8788 ; [debug line = 96:103] [debug variable = ref]
  %3 = load %struct.ap_int** %1                   ; [#uses=1 type=%struct.ap_int*]
  %4 = load %struct.ap_concat_ref.26** %2, !dbg !8789 ; [#uses=1 type=%struct.ap_concat_ref.26*] [debug line = 96:119]
  call void @_ZN6ap_intILi64EEC2ILi48E11ap_int_baseILi48ELb1ELb1EELi16ES2_ILi16ELb0ELb1EEEERK13ap_concat_refIXT_ET0_XT1_ET2_E(%struct.ap_int* %3, %struct.ap_concat_ref.26* %4), !dbg !8789 ; [debug line = 96:119]
  ret void, !dbg !8789                            ; [debug line = 96:119]
}

; [#uses=1]
define linkonce_odr void @_ZN11ap_int_baseILi48ELb1ELb1EE6concatILi16ELb0EEE13ap_concat_refILi48ES0_XT_ES_IXT_EXT0_EXleT_Li64EEEERS3_(%struct.ap_concat_ref.26* noalias sret %agg.result, %struct.ap_int_base.6* %this, %struct.ap_int_base.19* %a2) nounwind uwtable inlinehint alwaysinline align 2 {
  %1 = alloca %struct.ap_int_base.6*, align 8     ; [#uses=2 type=%struct.ap_int_base.6**]
  %2 = alloca %struct.ap_int_base.19*, align 8    ; [#uses=2 type=%struct.ap_int_base.19**]
  store %struct.ap_int_base.6* %this, %struct.ap_int_base.6** %1, align 8
  call void @llvm.dbg.declare(metadata !{%struct.ap_int_base.6** %1}, metadata !8790), !dbg !8791 ; [debug line = 2112:111] [debug variable = this]
  store %struct.ap_int_base.19* %a2, %struct.ap_int_base.19** %2, align 8
  call void @llvm.dbg.declare(metadata !{%struct.ap_int_base.19** %2}, metadata !8792), !dbg !8793 ; [debug line = 2112:146] [debug variable = a2]
  %3 = load %struct.ap_int_base.6** %1            ; [#uses=1 type=%struct.ap_int_base.6*]
  %4 = load %struct.ap_int_base.19** %2, align 8, !dbg !8794 ; [#uses=1 type=%struct.ap_int_base.19*] [debug line = 2113:9]
  call void @_ZN13ap_concat_refILi48E11ap_int_baseILi48ELb1ELb1EELi16ES0_ILi16ELb0ELb1EEEC1ERS1_RS2_(%struct.ap_concat_ref.26* %agg.result, %struct.ap_int_base.6* %3, %struct.ap_int_base.19* %4), !dbg !8794 ; [debug line = 2113:9]
  ret void, !dbg !8794                            ; [debug line = 2113:9]
}

; [#uses=4]
define linkonce_odr void @_ZN3hls6streamI7ap_axisE5writeERKS1_(%"class.hls::stream.8"* %this, %struct.ap_axis* %din) nounwind uwtable inlinehint alwaysinline align 2 {
  %1 = alloca %"class.hls::stream.8"*, align 8    ; [#uses=2 type=%"class.hls::stream.8"**]
  %2 = alloca %struct.ap_axis*, align 8           ; [#uses=2 type=%struct.ap_axis**]
  %tmp = alloca %struct.ap_axis, align 8          ; [#uses=5 type=%struct.ap_axis*]
  store %"class.hls::stream.8"* %this, %"class.hls::stream.8"** %1, align 8
  call void @llvm.dbg.declare(metadata !{%"class.hls::stream.8"** %1}, metadata !8796), !dbg !8798 ; [debug line = 144:48] [debug variable = this]
  store %struct.ap_axis* %din, %struct.ap_axis** %2, align 8
  call void @llvm.dbg.declare(metadata !{%struct.ap_axis** %2}, metadata !8799), !dbg !8800 ; [debug line = 144:74] [debug variable = din]
  %3 = load %"class.hls::stream.8"** %1           ; [#uses=1 type=%"class.hls::stream.8"*]
  call void @llvm.dbg.declare(metadata !{%struct.ap_axis* %tmp}, metadata !8801), !dbg !8803 ; [debug line = 145:22] [debug variable = tmp]
  %4 = load %struct.ap_axis** %2, align 8, !dbg !8804 ; [#uses=4 type=%struct.ap_axis*] [debug line = 145:31]
  %5 = bitcast %struct.ap_axis* %tmp to i8*, !dbg !8804 ; [#uses=0 type=i8*] [debug line = 145:31]
  %6 = bitcast %struct.ap_axis* %4 to i8*, !dbg !8804 ; [#uses=0 type=i8*] [debug line = 145:31]
  %7 = getelementptr inbounds %struct.ap_axis* %tmp, i32 0, i32 0, !dbg !8804 ; [#uses=1 type=%struct.ap_int*] [debug line = 145:31]
  %8 = getelementptr inbounds %struct.ap_axis* %4, i32 0, i32 0, !dbg !8804 ; [#uses=1 type=%struct.ap_int*] [debug line = 145:31]
  %9 = getelementptr inbounds %struct.ap_int* %7, i32 0, i32 0, !dbg !8804 ; [#uses=1 type=%struct.ap_int_base*] [debug line = 145:31]
  %10 = getelementptr inbounds %struct.ap_int* %8, i32 0, i32 0, !dbg !8804 ; [#uses=1 type=%struct.ap_int_base*] [debug line = 145:31]
  %11 = getelementptr inbounds %struct.ap_int_base* %9, i32 0, i32 0, !dbg !8804 ; [#uses=1 type=%"class.std::locale::id"*] [debug line = 145:31]
  %12 = getelementptr inbounds %struct.ap_int_base* %10, i32 0, i32 0, !dbg !8804 ; [#uses=1 type=%"class.std::locale::id"*] [debug line = 145:31]
  %13 = getelementptr inbounds %"class.std::locale::id"* %11, i32 0, i32 0, !dbg !8804 ; [#uses=1 type=i64*] [debug line = 145:31]
  %14 = getelementptr inbounds %"class.std::locale::id"* %12, i32 0, i32 0, !dbg !8804 ; [#uses=1 type=i64*] [debug line = 145:31]
  %15 = load i64* %14, !dbg !8804                 ; [#uses=1 type=i64] [debug line = 145:31]
  store i64 %15, i64* %13, !dbg !8804             ; [debug line = 145:31]
  %16 = getelementptr inbounds %struct.ap_axis* %tmp, i32 0, i32 1, !dbg !8804 ; [#uses=1 type=%struct.ap_uint*] [debug line = 145:31]
  %17 = getelementptr inbounds %struct.ap_axis* %4, i32 0, i32 1, !dbg !8804 ; [#uses=1 type=%struct.ap_uint*] [debug line = 145:31]
  %18 = getelementptr inbounds %struct.ap_uint* %16, i32 0, i32 0, !dbg !8804 ; [#uses=1 type=%struct.ap_int_base.0*] [debug line = 145:31]
  %19 = getelementptr inbounds %struct.ap_uint* %17, i32 0, i32 0, !dbg !8804 ; [#uses=1 type=%struct.ap_int_base.0*] [debug line = 145:31]
  %20 = getelementptr inbounds %struct.ap_int_base.0* %18, i32 0, i32 0, !dbg !8804 ; [#uses=1 type=%struct.ssdm_int.1*] [debug line = 145:31]
  %21 = getelementptr inbounds %struct.ap_int_base.0* %19, i32 0, i32 0, !dbg !8804 ; [#uses=1 type=%struct.ssdm_int.1*] [debug line = 145:31]
  %22 = getelementptr inbounds %struct.ssdm_int.1* %20, i32 0, i32 0, !dbg !8804 ; [#uses=1 type=i1*] [debug line = 145:31]
  %23 = getelementptr inbounds %struct.ssdm_int.1* %21, i32 0, i32 0, !dbg !8804 ; [#uses=1 type=i1*] [debug line = 145:31]
  %24 = load i1* %23, !dbg !8804                  ; [#uses=1 type=i1] [debug line = 145:31]
  store i1 %24, i1* %22, !dbg !8804               ; [debug line = 145:31]
  %25 = getelementptr inbounds %struct.ap_axis* %tmp, i32 0, i32 2, !dbg !8804 ; [#uses=1 type=%struct.ap_uint.2*] [debug line = 145:31]
  %26 = getelementptr inbounds %struct.ap_axis* %4, i32 0, i32 2, !dbg !8804 ; [#uses=1 type=%struct.ap_uint.2*] [debug line = 145:31]
  %27 = getelementptr inbounds %struct.ap_uint.2* %25, i32 0, i32 0, !dbg !8804 ; [#uses=1 type=%struct.ap_int_base.3*] [debug line = 145:31]
  %28 = getelementptr inbounds %struct.ap_uint.2* %26, i32 0, i32 0, !dbg !8804 ; [#uses=1 type=%struct.ap_int_base.3*] [debug line = 145:31]
  %29 = getelementptr inbounds %struct.ap_int_base.3* %27, i32 0, i32 0, !dbg !8804 ; [#uses=1 type=%struct.ssdm_int.4*] [debug line = 145:31]
  %30 = getelementptr inbounds %struct.ap_int_base.3* %28, i32 0, i32 0, !dbg !8804 ; [#uses=1 type=%struct.ssdm_int.4*] [debug line = 145:31]
  %31 = getelementptr inbounds %struct.ssdm_int.4* %29, i32 0, i32 0, !dbg !8804 ; [#uses=1 type=i8*] [debug line = 145:31]
  %32 = getelementptr inbounds %struct.ssdm_int.4* %30, i32 0, i32 0, !dbg !8804 ; [#uses=1 type=i8*] [debug line = 145:31]
  %33 = load i8* %32, !dbg !8804                  ; [#uses=1 type=i8] [debug line = 145:31]
  store i8 %33, i8* %31, !dbg !8804               ; [debug line = 145:31]
  %34 = getelementptr inbounds %"class.hls::stream.8"* %3, i32 0, i32 0, !dbg !8805 ; [#uses=1 type=%struct.ap_axis*] [debug line = 146:9]
  call void (...)* @_ssdm_StreamWrite(%struct.ap_axis* %34, %struct.ap_axis* %tmp) nounwind, !dbg !8805 ; [debug line = 146:9]
  ret void, !dbg !8806                            ; [debug line = 147:5]
}

; [#uses=1]
define linkonce_odr void @_ZN6ap_intILi1EEC1Ei(%struct.ap_uint* %this, i32 %val) unnamed_addr nounwind uwtable inlinehint alwaysinline align 2 {
  %1 = alloca %struct.ap_uint*, align 8           ; [#uses=2 type=%struct.ap_uint**]
  %2 = alloca i32, align 4                        ; [#uses=2 type=i32*]
  store %struct.ap_uint* %this, %struct.ap_uint** %1, align 8
  call void @llvm.dbg.declare(metadata !{%struct.ap_uint** %1}, metadata !8807), !dbg !8809 ; [debug line = 144:43] [debug variable = this]
  store i32 %val, i32* %2, align 4
  call void @llvm.dbg.declare(metadata !{i32* %2}, metadata !8810), !dbg !8811 ; [debug line = 144:54] [debug variable = val]
  %3 = load %struct.ap_uint** %1                  ; [#uses=1 type=%struct.ap_uint*]
  %4 = load i32* %2, align 4, !dbg !8812          ; [#uses=1 type=i32] [debug line = 144:75]
  call void @_ZN6ap_intILi1EEC2Ei(%struct.ap_uint* %3, i32 %4), !dbg !8812 ; [debug line = 144:75]
  ret void, !dbg !8812                            ; [debug line = 144:75]
}

; [#uses=1]
define linkonce_odr %struct.ap_uint* @_ZN6ap_intILi1EEaSERKS0_(%struct.ap_uint* %this, %struct.ap_uint* %op2) nounwind uwtable inlinehint alwaysinline align 2 {
  %1 = alloca %struct.ap_uint*, align 8           ; [#uses=2 type=%struct.ap_uint**]
  %2 = alloca %struct.ap_uint*, align 8           ; [#uses=2 type=%struct.ap_uint**]
  store %struct.ap_uint* %this, %struct.ap_uint** %1, align 8
  call void @llvm.dbg.declare(metadata !{%struct.ap_uint** %1}, metadata !8813), !dbg !8814 ; [debug line = 171:52] [debug variable = this]
  store %struct.ap_uint* %op2, %struct.ap_uint** %2, align 8
  call void @llvm.dbg.declare(metadata !{%struct.ap_uint** %2}, metadata !8815), !dbg !8816 ; [debug line = 171:85] [debug variable = op2]
  %3 = load %struct.ap_uint** %1                  ; [#uses=2 type=%struct.ap_uint*]
  %4 = load %struct.ap_uint** %2, align 8, !dbg !8817 ; [#uses=1 type=%struct.ap_uint*] [debug line = 172:10]
  %5 = bitcast %struct.ap_uint* %4 to %struct.ssdm_int.1*, !dbg !8817 ; [#uses=1 type=%struct.ssdm_int.1*] [debug line = 172:10]
  %6 = getelementptr inbounds %struct.ssdm_int.1* %5, i32 0, i32 0, !dbg !8817 ; [#uses=1 type=i1*] [debug line = 172:10]
  %7 = load i1* %6, align 1, !dbg !8817           ; [#uses=1 type=i1] [debug line = 172:10]
  %8 = bitcast %struct.ap_uint* %3 to %struct.ap_int_base.0*, !dbg !8817 ; [#uses=1 type=%struct.ap_int_base.0*] [debug line = 172:10]
  %9 = bitcast %struct.ap_int_base.0* %8 to %struct.ssdm_int.1*, !dbg !8817 ; [#uses=1 type=%struct.ssdm_int.1*] [debug line = 172:10]
  %10 = getelementptr inbounds %struct.ssdm_int.1* %9, i32 0, i32 0, !dbg !8817 ; [#uses=1 type=i1*] [debug line = 172:10]
  store i1 %7, i1* %10, align 1, !dbg !8817       ; [debug line = 172:10]
  ret %struct.ap_uint* %3, !dbg !8819             ; [debug line = 173:10]
}

; [#uses=1]
define linkonce_odr void @_ZN6ap_intILi1EEC1ILi1EEERK7ap_uintIXT_EE(%struct.ap_uint* %this, %struct.ap_uint* %op) unnamed_addr nounwind uwtable inlinehint alwaysinline align 2 {
  %1 = alloca %struct.ap_uint*, align 8           ; [#uses=2 type=%struct.ap_uint**]
  %2 = alloca %struct.ap_uint*, align 8           ; [#uses=2 type=%struct.ap_uint**]
  store %struct.ap_uint* %this, %struct.ap_uint** %1, align 8
  call void @llvm.dbg.declare(metadata !{%struct.ap_uint** %1}, metadata !8820), !dbg !8821 ; [debug line = 84:43] [debug variable = this]
  store %struct.ap_uint* %op, %struct.ap_uint** %2, align 8
  call void @llvm.dbg.declare(metadata !{%struct.ap_uint** %2}, metadata !8822), !dbg !8823 ; [debug line = 84:73] [debug variable = op]
  %3 = load %struct.ap_uint** %1                  ; [#uses=1 type=%struct.ap_uint*]
  %4 = load %struct.ap_uint** %2, !dbg !8824      ; [#uses=1 type=%struct.ap_uint*] [debug line = 84:94]
  call void @_ZN6ap_intILi1EEC2ILi1EEERK7ap_uintIXT_EE(%struct.ap_uint* %3, %struct.ap_uint* %4), !dbg !8824 ; [debug line = 84:94]
  ret void, !dbg !8824                            ; [debug line = 84:94]
}

; [#uses=1]
define linkonce_odr zeroext i1 @_ZeqILi1ELb1EEbRK11ap_int_baseIXT_EXT0_EXleT_Li64EEEi(%struct.ap_int_base.0* %op, i32 %op2) nounwind uwtable inlinehint alwaysinline {
  %1 = alloca %struct.ap_int_base.0*, align 8     ; [#uses=2 type=%struct.ap_int_base.0**]
  %2 = alloca i32, align 4                        ; [#uses=2 type=i32*]
  %3 = alloca %struct.ap_int_base.16, align 4     ; [#uses=2 type=%struct.ap_int_base.16*]
  store %struct.ap_int_base.0* %op, %struct.ap_int_base.0** %1, align 8
  call void @llvm.dbg.declare(metadata !{%struct.ap_int_base.0** %1}, metadata !8825), !dbg !8826 ; [debug line = 3526:0] [debug variable = op]
  store i32 %op2, i32* %2, align 4
  call void @llvm.dbg.declare(metadata !{i32* %2}, metadata !8827), !dbg !8826 ; [debug line = 3526:0] [debug variable = op2]
  %4 = load %struct.ap_int_base.0** %1, align 8, !dbg !8828 ; [#uses=1 type=%struct.ap_int_base.0*] [debug line = 3526:0]
  %5 = load i32* %2, align 4, !dbg !8828          ; [#uses=1 type=i32] [debug line = 3526:0]
  call void @_ZN11ap_int_baseILi32ELb1ELb1EEC1Ei(%struct.ap_int_base.16* %3, i32 %5), !dbg !8828 ; [debug line = 3526:0]
  %6 = call zeroext i1 @_ZNK11ap_int_baseILi1ELb1ELb1EEeqILi32ELb1EEEbRKS_IXT_EXT0_EXleT_Li64EEE(%struct.ap_int_base.0* %4, %struct.ap_int_base.16* %3), !dbg !8828 ; [#uses=1 type=i1] [debug line = 3526:0]
  ret i1 %6, !dbg !8828                           ; [debug line = 3526:0]
}

; [#uses=1]
define linkonce_odr zeroext i1 @_ZNK11ap_int_baseILi1ELb1ELb1EEeqILi32ELb1EEEbRKS_IXT_EXT0_EXleT_Li64EEE(%struct.ap_int_base.0* %this, %struct.ap_int_base.16* %op2) nounwind uwtable inlinehint alwaysinline align 2 {
  %1 = alloca %struct.ap_int_base.0*, align 8     ; [#uses=2 type=%struct.ap_int_base.0**]
  %2 = alloca %struct.ap_int_base.16*, align 8    ; [#uses=2 type=%struct.ap_int_base.16**]
  store %struct.ap_int_base.0* %this, %struct.ap_int_base.0** %1, align 8
  call void @llvm.dbg.declare(metadata !{%struct.ap_int_base.0** %1}, metadata !8830), !dbg !8832 ; [debug line = 1976:48] [debug variable = this]
  store %struct.ap_int_base.16* %op2, %struct.ap_int_base.16** %2, align 8
  call void @llvm.dbg.declare(metadata !{%struct.ap_int_base.16** %2}, metadata !8833), !dbg !8834 ; [debug line = 1976:96] [debug variable = op2]
  %3 = load %struct.ap_int_base.0** %1            ; [#uses=1 type=%struct.ap_int_base.0*]
  %4 = bitcast %struct.ap_int_base.0* %3 to %struct.ssdm_int.1*, !dbg !8835 ; [#uses=1 type=%struct.ssdm_int.1*] [debug line = 1977:9]
  %5 = getelementptr inbounds %struct.ssdm_int.1* %4, i32 0, i32 0, !dbg !8835 ; [#uses=1 type=i1*] [debug line = 1977:9]
  %6 = load i1* %5, align 1, !dbg !8835           ; [#uses=1 type=i1] [debug line = 1977:9]
  %7 = sext i1 %6 to i32, !dbg !8835              ; [#uses=1 type=i32] [debug line = 1977:9]
  %8 = load %struct.ap_int_base.16** %2, align 8, !dbg !8835 ; [#uses=1 type=%struct.ap_int_base.16*] [debug line = 1977:9]
  %9 = bitcast %struct.ap_int_base.16* %8 to %struct.ssdm_int.17*, !dbg !8835 ; [#uses=1 type=%struct.ssdm_int.17*] [debug line = 1977:9]
  %10 = getelementptr inbounds %struct.ssdm_int.17* %9, i32 0, i32 0, !dbg !8835 ; [#uses=1 type=i32*] [debug line = 1977:9]
  %11 = load i32* %10, align 4, !dbg !8835        ; [#uses=1 type=i32] [debug line = 1977:9]
  %12 = icmp eq i32 %7, %11, !dbg !8835           ; [#uses=1 type=i1] [debug line = 1977:9]
  ret i1 %12, !dbg !8835                          ; [debug line = 1977:9]
}

; [#uses=1]
define linkonce_odr void @_ZN11ap_int_baseILi32ELb1ELb1EEC1Ei(%struct.ap_int_base.16* %this, i32 %op) unnamed_addr nounwind uwtable inlinehint alwaysinline align 2 {
  %1 = alloca %struct.ap_int_base.16*, align 8    ; [#uses=2 type=%struct.ap_int_base.16**]
  %2 = alloca i32, align 4                        ; [#uses=2 type=i32*]
  store %struct.ap_int_base.16* %this, %struct.ap_int_base.16** %1, align 8
  call void @llvm.dbg.declare(metadata !{%struct.ap_int_base.16** %1}, metadata !8837), !dbg !8838 ; [debug line = 1465:52] [debug variable = this]
  store i32 %op, i32* %2, align 4
  call void @llvm.dbg.declare(metadata !{i32* %2}, metadata !8839), !dbg !8840 ; [debug line = 1465:68] [debug variable = op]
  %3 = load %struct.ap_int_base.16** %1           ; [#uses=1 type=%struct.ap_int_base.16*]
  %4 = load i32* %2, align 4, !dbg !8841          ; [#uses=1 type=i32] [debug line = 1465:88]
  call void @_ZN11ap_int_baseILi32ELb1ELb1EEC2Ei(%struct.ap_int_base.16* %3, i32 %4), !dbg !8841 ; [debug line = 1465:88]
  ret void, !dbg !8841                            ; [debug line = 1465:88]
}

; [#uses=1]
define linkonce_odr void @_ZN11ap_int_baseILi32ELb1ELb1EEC2Ei(%struct.ap_int_base.16* %this, i32 %op) unnamed_addr nounwind uwtable inlinehint alwaysinline align 2 {
  %1 = alloca %struct.ap_int_base.16*, align 8    ; [#uses=2 type=%struct.ap_int_base.16**]
  %2 = alloca i32, align 4                        ; [#uses=2 type=i32*]
  store %struct.ap_int_base.16* %this, %struct.ap_int_base.16** %1, align 8
  call void @llvm.dbg.declare(metadata !{%struct.ap_int_base.16** %1}, metadata !8842), !dbg !8843 ; [debug line = 1465:52] [debug variable = this]
  store i32 %op, i32* %2, align 4
  call void @llvm.dbg.declare(metadata !{i32* %2}, metadata !8844), !dbg !8845 ; [debug line = 1465:68] [debug variable = op]
  %3 = load %struct.ap_int_base.16** %1           ; [#uses=2 type=%struct.ap_int_base.16*]
  %4 = bitcast %struct.ap_int_base.16* %3 to %struct.ssdm_int.17*, !dbg !8846 ; [#uses=1 type=%struct.ssdm_int.17*] [debug line = 1465:72]
  call void @_ZN8ssdm_intILi32ELb1EEC2Ev(%struct.ssdm_int.17* %4), !dbg !8846 ; [debug line = 1465:72]
  %5 = load i32* %2, align 4, !dbg !8847          ; [#uses=1 type=i32] [debug line = 1465:74]
  %6 = bitcast %struct.ap_int_base.16* %3 to %struct.ssdm_int.17*, !dbg !8847 ; [#uses=1 type=%struct.ssdm_int.17*] [debug line = 1465:74]
  %7 = getelementptr inbounds %struct.ssdm_int.17* %6, i32 0, i32 0, !dbg !8847 ; [#uses=1 type=i32*] [debug line = 1465:74]
  store i32 %5, i32* %7, align 4, !dbg !8847      ; [debug line = 1465:74]
  ret void, !dbg !8849                            ; [debug line = 1465:88]
}

; [#uses=2]
define linkonce_odr void @_ZN8ssdm_intILi32ELb1EEC2Ev(%struct.ssdm_int.17* %this) unnamed_addr nounwind uwtable inlinehint alwaysinline align 2 {
  %1 = alloca %struct.ssdm_int.17*, align 8       ; [#uses=2 type=%struct.ssdm_int.17**]
  store %struct.ssdm_int.17* %this, %struct.ssdm_int.17** %1, align 8
  call void @llvm.dbg.declare(metadata !{%struct.ssdm_int.17** %1}, metadata !8850), !dbg !8852 ; [debug line = 34:137] [debug variable = this]
  %2 = load %struct.ssdm_int.17** %1              ; [#uses=0 type=%struct.ssdm_int.17*]
  ret void, !dbg !8853                            ; [debug line = 34:171]
}

; [#uses=1]
define linkonce_odr void @_ZN6ap_intILi1EEC2ILi1EEERK7ap_uintIXT_EE(%struct.ap_uint* %this, %struct.ap_uint* %op) unnamed_addr nounwind uwtable inlinehint alwaysinline align 2 {
  %1 = alloca %struct.ap_uint*, align 8           ; [#uses=2 type=%struct.ap_uint**]
  %2 = alloca %struct.ap_uint*, align 8           ; [#uses=2 type=%struct.ap_uint**]
  store %struct.ap_uint* %this, %struct.ap_uint** %1, align 8
  call void @llvm.dbg.declare(metadata !{%struct.ap_uint** %1}, metadata !8855), !dbg !8856 ; [debug line = 84:43] [debug variable = this]
  store %struct.ap_uint* %op, %struct.ap_uint** %2, align 8
  call void @llvm.dbg.declare(metadata !{%struct.ap_uint** %2}, metadata !8857), !dbg !8858 ; [debug line = 84:73] [debug variable = op]
  %3 = load %struct.ap_uint** %1                  ; [#uses=2 type=%struct.ap_uint*]
  %4 = bitcast %struct.ap_uint* %3 to %struct.ap_int_base.0*, !dbg !8859 ; [#uses=1 type=%struct.ap_int_base.0*] [debug line = 84:77]
  call void @_ZN11ap_int_baseILi1ELb1ELb1EEC2Ev(%struct.ap_int_base.0* %4), !dbg !8859 ; [debug line = 84:77]
  %5 = load %struct.ap_uint** %2, align 8, !dbg !8860 ; [#uses=1 type=%struct.ap_uint*] [debug line = 84:79]
  %6 = bitcast %struct.ap_uint* %5 to %struct.ssdm_int.1*, !dbg !8860 ; [#uses=1 type=%struct.ssdm_int.1*] [debug line = 84:79]
  %7 = getelementptr inbounds %struct.ssdm_int.1* %6, i32 0, i32 0, !dbg !8860 ; [#uses=1 type=i1*] [debug line = 84:79]
  %8 = load i1* %7, align 1, !dbg !8860           ; [#uses=1 type=i1] [debug line = 84:79]
  %9 = bitcast %struct.ap_uint* %3 to %struct.ap_int_base.0*, !dbg !8860 ; [#uses=1 type=%struct.ap_int_base.0*] [debug line = 84:79]
  %10 = bitcast %struct.ap_int_base.0* %9 to %struct.ssdm_int.1*, !dbg !8860 ; [#uses=1 type=%struct.ssdm_int.1*] [debug line = 84:79]
  %11 = getelementptr inbounds %struct.ssdm_int.1* %10, i32 0, i32 0, !dbg !8860 ; [#uses=1 type=i1*] [debug line = 84:79]
  store i1 %8, i1* %11, align 1, !dbg !8860       ; [debug line = 84:79]
  ret void, !dbg !8862                            ; [debug line = 84:94]
}

; [#uses=2]
define linkonce_odr void @_ZN11ap_int_baseILi1ELb1ELb1EEC2Ev(%struct.ap_int_base.0* %this) unnamed_addr nounwind uwtable inlinehint alwaysinline align 2 {
  %1 = alloca %struct.ap_int_base.0*, align 8     ; [#uses=2 type=%struct.ap_int_base.0**]
  store %struct.ap_int_base.0* %this, %struct.ap_int_base.0** %1, align 8
  call void @llvm.dbg.declare(metadata !{%struct.ap_int_base.0** %1}, metadata !8863), !dbg !8865 ; [debug line = 1438:42] [debug variable = this]
  %2 = load %struct.ap_int_base.0** %1            ; [#uses=1 type=%struct.ap_int_base.0*]
  %3 = bitcast %struct.ap_int_base.0* %2 to %struct.ssdm_int.1*, !dbg !8866 ; [#uses=1 type=%struct.ssdm_int.1*] [debug line = 1438:56]
  call void @_ZN8ssdm_intILi1ELb1EEC2Ev(%struct.ssdm_int.1* %3), !dbg !8866 ; [debug line = 1438:56]
  ret void, !dbg !8867                            ; [debug line = 1444:4]
}

; [#uses=1]
define linkonce_odr void @_ZN8ssdm_intILi1ELb1EEC2Ev(%struct.ssdm_int.1* %this) unnamed_addr nounwind uwtable inlinehint alwaysinline align 2 {
  %1 = alloca %struct.ssdm_int.1*, align 8        ; [#uses=2 type=%struct.ssdm_int.1**]
  store %struct.ssdm_int.1* %this, %struct.ssdm_int.1** %1, align 8
  call void @llvm.dbg.declare(metadata !{%struct.ssdm_int.1** %1}, metadata !8869), !dbg !8871 ; [debug line = 3:135] [debug variable = this]
  %2 = load %struct.ssdm_int.1** %1               ; [#uses=0 type=%struct.ssdm_int.1*]
  ret void, !dbg !8872                            ; [debug line = 3:168]
}

; [#uses=1]
define linkonce_odr void @_ZN6ap_intILi1EEC2Ei(%struct.ap_uint* %this, i32 %val) unnamed_addr nounwind uwtable inlinehint alwaysinline align 2 {
  %1 = alloca %struct.ap_uint*, align 8           ; [#uses=2 type=%struct.ap_uint**]
  %2 = alloca i32, align 4                        ; [#uses=2 type=i32*]
  store %struct.ap_uint* %this, %struct.ap_uint** %1, align 8
  call void @llvm.dbg.declare(metadata !{%struct.ap_uint** %1}, metadata !8874), !dbg !8875 ; [debug line = 144:43] [debug variable = this]
  store i32 %val, i32* %2, align 4
  call void @llvm.dbg.declare(metadata !{i32* %2}, metadata !8876), !dbg !8877 ; [debug line = 144:54] [debug variable = val]
  %3 = load %struct.ap_uint** %1                  ; [#uses=2 type=%struct.ap_uint*]
  %4 = bitcast %struct.ap_uint* %3 to %struct.ap_int_base.0*, !dbg !8878 ; [#uses=1 type=%struct.ap_int_base.0*] [debug line = 144:59]
  call void @_ZN11ap_int_baseILi1ELb1ELb1EEC2Ev(%struct.ap_int_base.0* %4), !dbg !8878 ; [debug line = 144:59]
  %5 = load i32* %2, align 4, !dbg !8879          ; [#uses=1 type=i32] [debug line = 144:60]
  %6 = trunc i32 %5 to i1, !dbg !8879             ; [#uses=1 type=i1] [debug line = 144:60]
  %7 = bitcast %struct.ap_uint* %3 to %struct.ap_int_base.0*, !dbg !8879 ; [#uses=1 type=%struct.ap_int_base.0*] [debug line = 144:60]
  %8 = bitcast %struct.ap_int_base.0* %7 to %struct.ssdm_int.1*, !dbg !8879 ; [#uses=1 type=%struct.ssdm_int.1*] [debug line = 144:60]
  %9 = getelementptr inbounds %struct.ssdm_int.1* %8, i32 0, i32 0, !dbg !8879 ; [#uses=1 type=i1*] [debug line = 144:60]
  store i1 %6, i1* %9, align 1, !dbg !8879        ; [debug line = 144:60]
  ret void, !dbg !8881                            ; [debug line = 144:75]
}

; [#uses=1]
declare void @_ssdm_StreamWrite(...) nounwind

; [#uses=1]
define linkonce_odr void @_ZN6ap_intILi64EEC2ILi48E11ap_int_baseILi48ELb1ELb1EELi16ES2_ILi16ELb0ELb1EEEERK13ap_concat_refIXT_ET0_XT1_ET2_E(%struct.ap_int* %this, %struct.ap_concat_ref.26* %ref) unnamed_addr nounwind uwtable inlinehint alwaysinline align 2 {
  %1 = alloca %struct.ap_int*, align 8            ; [#uses=2 type=%struct.ap_int**]
  %2 = alloca %struct.ap_concat_ref.26*, align 8  ; [#uses=2 type=%struct.ap_concat_ref.26**]
  store %struct.ap_int* %this, %struct.ap_int** %1, align 8
  call void @llvm.dbg.declare(metadata !{%struct.ap_int** %1}, metadata !8882), !dbg !8883 ; [debug line = 96:43] [debug variable = this]
  store %struct.ap_concat_ref.26* %ref, %struct.ap_concat_ref.26** %2, align 8
  call void @llvm.dbg.declare(metadata !{%struct.ap_concat_ref.26** %2}, metadata !8884), !dbg !8885 ; [debug line = 96:103] [debug variable = ref]
  %3 = load %struct.ap_int** %1                   ; [#uses=1 type=%struct.ap_int*]
  %4 = bitcast %struct.ap_int* %3 to %struct.ap_int_base*, !dbg !8886 ; [#uses=1 type=%struct.ap_int_base*] [debug line = 96:118]
  %5 = load %struct.ap_concat_ref.26** %2, align 8, !dbg !8886 ; [#uses=1 type=%struct.ap_concat_ref.26*] [debug line = 96:118]
  call void @_ZN11ap_int_baseILi64ELb1ELb1EEC2ILi48ES_ILi48ELb1ELb1EELi16ES_ILi16ELb0ELb1EEEERK13ap_concat_refIXT_ET0_XT1_ET2_E(%struct.ap_int_base* %4, %struct.ap_concat_ref.26* %5), !dbg !8886 ; [debug line = 96:118]
  ret void, !dbg !8887                            ; [debug line = 96:119]
}

; [#uses=1]
define linkonce_odr void @_ZN11ap_int_baseILi64ELb1ELb1EEC2ILi48ES_ILi48ELb1ELb1EELi16ES_ILi16ELb0ELb1EEEERK13ap_concat_refIXT_ET0_XT1_ET2_E(%struct.ap_int_base* %this, %struct.ap_concat_ref.26* %ref) unnamed_addr nounwind uwtable inlinehint alwaysinline align 2 {
  %1 = alloca %struct.ap_int_base*, align 8       ; [#uses=2 type=%struct.ap_int_base**]
  %2 = alloca %struct.ap_concat_ref.26*, align 8  ; [#uses=2 type=%struct.ap_concat_ref.26**]
  %tmp = alloca %struct.ap_int_base, align 8      ; [#uses=2 type=%struct.ap_int_base*]
  store %struct.ap_int_base* %this, %struct.ap_int_base** %1, align 8
  call void @llvm.dbg.declare(metadata !{%struct.ap_int_base** %1}, metadata !8889), !dbg !8891 ; [debug line = 1490:43] [debug variable = this]
  store %struct.ap_concat_ref.26* %ref, %struct.ap_concat_ref.26** %2, align 8
  call void @llvm.dbg.declare(metadata !{%struct.ap_concat_ref.26** %2}, metadata !8892), !dbg !8893 ; [debug line = 1490:105] [debug variable = ref]
  %3 = load %struct.ap_int_base** %1              ; [#uses=2 type=%struct.ap_int_base*]
  %4 = bitcast %struct.ap_int_base* %3 to %"class.std::locale::id"*, !dbg !8894 ; [#uses=1 type=%"class.std::locale::id"*] [debug line = 1490:110]
  call void @_ZN8ssdm_intILi64ELb1EEC2Ev(%"class.std::locale::id"* %4), !dbg !8894 ; [debug line = 1490:110]
  call void @llvm.dbg.declare(metadata !{%struct.ap_int_base* %tmp}, metadata !8895), !dbg !8897 ; [debug line = 1491:85] [debug variable = tmp]
  %5 = load %struct.ap_concat_ref.26** %2, align 8, !dbg !8898 ; [#uses=1 type=%struct.ap_concat_ref.26*] [debug line = 1491:91]
  call void @_ZNK13ap_concat_refILi48E11ap_int_baseILi48ELb1ELb1EELi16ES0_ILi16ELb0ELb1EEE3getEv(%struct.ap_int_base* sret %tmp, %struct.ap_concat_ref.26* %5), !dbg !8898 ; [debug line = 1491:91]
  %6 = bitcast %struct.ap_int_base* %tmp to %"class.std::locale::id"*, !dbg !8899 ; [#uses=1 type=%"class.std::locale::id"*] [debug line = 1492:9]
  %7 = getelementptr inbounds %"class.std::locale::id"* %6, i32 0, i32 0, !dbg !8899 ; [#uses=1 type=i64*] [debug line = 1492:9]
  %8 = load i64* %7, align 8, !dbg !8899          ; [#uses=1 type=i64] [debug line = 1492:9]
  %9 = bitcast %struct.ap_int_base* %3 to %"class.std::locale::id"*, !dbg !8899 ; [#uses=1 type=%"class.std::locale::id"*] [debug line = 1492:9]
  %10 = getelementptr inbounds %"class.std::locale::id"* %9, i32 0, i32 0, !dbg !8899 ; [#uses=1 type=i64*] [debug line = 1492:9]
  store i64 %8, i64* %10, align 8, !dbg !8899     ; [debug line = 1492:9]
  ret void, !dbg !8900                            ; [debug line = 1493:5]
}

; [#uses=3]
define linkonce_odr void @_ZN8ssdm_intILi64ELb1EEC2Ev(%"class.std::locale::id"* %this) unnamed_addr nounwind uwtable inlinehint alwaysinline align 2 {
  %1 = alloca %"class.std::locale::id"*, align 8  ; [#uses=2 type=%"class.std::locale::id"**]
  store %"class.std::locale::id"* %this, %"class.std::locale::id"** %1, align 8
  call void @llvm.dbg.declare(metadata !{%"class.std::locale::id"** %1}, metadata !8901), !dbg !8903 ; [debug line = 68:137] [debug variable = this]
  %2 = load %"class.std::locale::id"** %1         ; [#uses=0 type=%"class.std::locale::id"*]
  ret void, !dbg !8904                            ; [debug line = 68:171]
}

; [#uses=1]
define linkonce_odr void @_ZNK13ap_concat_refILi48E11ap_int_baseILi48ELb1ELb1EELi16ES0_ILi16ELb0ELb1EEE3getEv(%struct.ap_int_base* noalias sret %agg.result, %struct.ap_concat_ref.26* %this) nounwind uwtable inlinehint alwaysinline align 2 {
  %1 = alloca %struct.ap_concat_ref.26*, align 8  ; [#uses=2 type=%struct.ap_concat_ref.26**]
  %W_ref1 = alloca i32, align 4                   ; [#uses=2 type=i32*]
  %W_ref2 = alloca i32, align 4                   ; [#uses=4 type=i32*]
  %__Result__ = alloca i64, align 8               ; [#uses=4 type=i64*]
  %__Val2__ = alloca i64, align 8                 ; [#uses=3 type=i64*]
  %__Repl2__ = alloca i16, align 2                ; [#uses=3 type=i16*]
  %2 = alloca %struct.ap_int_base.19, align 2     ; [#uses=3 type=%struct.ap_int_base.19*]
  %__Result__1 = alloca i64, align 8              ; [#uses=4 type=i64*]
  %__Val2__2 = alloca i64, align 8                ; [#uses=3 type=i64*]
  %__Repl2__3 = alloca i48, align 8               ; [#uses=3 type=i48*]
  %3 = alloca %struct.ap_int_base.6, align 8      ; [#uses=2 type=%struct.ap_int_base.6*]
  store %struct.ap_concat_ref.26* %this, %struct.ap_concat_ref.26** %1, align 8
  call void @llvm.dbg.declare(metadata !{%struct.ap_concat_ref.26** %1}, metadata !8906), !dbg !8908 ; [debug line = 880:66] [debug variable = this]
  %4 = load %struct.ap_concat_ref.26** %1         ; [#uses=4 type=%struct.ap_concat_ref.26*]
  call void @llvm.dbg.declare(metadata !{%struct.ap_int_base* %agg.result}, metadata !8909), !dbg !8911 ; [debug line = 881:35] [debug variable = tmpVal]
  call void @_ZN11ap_int_baseILi64ELb0ELb1EEC1Ei(%struct.ap_int_base* %agg.result, i32 0), !dbg !8912 ; [debug line = 881:44]
  call void @llvm.dbg.declare(metadata !{i32* %W_ref1}, metadata !8913), !dbg !8914 ; [debug line = 882:13] [debug variable = W_ref1]
  %5 = getelementptr inbounds %struct.ap_concat_ref.26* %4, i32 0, i32 0, !dbg !8915 ; [#uses=1 type=%struct.ap_int_base.6**] [debug line = 882:22]
  %6 = load %struct.ap_int_base.6** %5, align 8, !dbg !8915 ; [#uses=1 type=%struct.ap_int_base.6*] [debug line = 882:22]
  %7 = call i32 @_ZNK11ap_int_baseILi48ELb1ELb1EE6lengthEv(%struct.ap_int_base.6* %6), !dbg !8915 ; [#uses=1 type=i32] [debug line = 882:22]
  store i32 %7, i32* %W_ref1, align 4, !dbg !8915 ; [debug line = 882:22]
  call void @llvm.dbg.declare(metadata !{i32* %W_ref2}, metadata !8916), !dbg !8917 ; [debug line = 883:13] [debug variable = W_ref2]
  %8 = getelementptr inbounds %struct.ap_concat_ref.26* %4, i32 0, i32 1, !dbg !8918 ; [#uses=1 type=%struct.ap_int_base.19**] [debug line = 883:22]
  %9 = load %struct.ap_int_base.19** %8, align 8, !dbg !8918 ; [#uses=1 type=%struct.ap_int_base.19*] [debug line = 883:22]
  %10 = call i32 @_ZNK11ap_int_baseILi16ELb0ELb1EE6lengthEv(%struct.ap_int_base.19* %9), !dbg !8918 ; [#uses=1 type=i32] [debug line = 883:22]
  store i32 %10, i32* %W_ref2, align 4, !dbg !8918 ; [debug line = 883:22]
  call void @llvm.dbg.declare(metadata !{i64* %__Result__}, metadata !8919), !dbg !8921 ; [debug line = 884:40] [debug variable = __Result__]
  store i64 0, i64* %__Result__, align 8, !dbg !8922 ; [debug line = 884:54]
  call void @llvm.dbg.declare(metadata !{i64* %__Val2__}, metadata !8923), !dbg !8924 ; [debug line = 884:73] [debug variable = __Val2__]
  %11 = bitcast %struct.ap_int_base* %agg.result to %"class.std::locale::id"*, !dbg !8925 ; [#uses=1 type=%"class.std::locale::id"*] [debug line = 884:92]
  %12 = getelementptr inbounds %"class.std::locale::id"* %11, i32 0, i32 0, !dbg !8925 ; [#uses=1 type=i64*] [debug line = 884:92]
  %13 = load i64* %12, align 8, !dbg !8925        ; [#uses=1 type=i64] [debug line = 884:92]
  store i64 %13, i64* %__Val2__, align 8, !dbg !8925 ; [debug line = 884:92]
  call void @llvm.dbg.declare(metadata !{i16* %__Repl2__}, metadata !8926), !dbg !8927 ; [debug line = 884:138] [debug variable = __Repl2__]
  %14 = getelementptr inbounds %struct.ap_concat_ref.26* %4, i32 0, i32 1, !dbg !8928 ; [#uses=1 type=%struct.ap_int_base.19**] [debug line = 884:185]
  %15 = load %struct.ap_int_base.19** %14, align 8, !dbg !8928 ; [#uses=2 type=%struct.ap_int_base.19*] [debug line = 884:185]
  %16 = bitcast %struct.ap_int_base.19* %2 to i8*, !dbg !8928 ; [#uses=0 type=i8*] [debug line = 884:185]
  %17 = bitcast %struct.ap_int_base.19* %15 to i8*, !dbg !8928 ; [#uses=0 type=i8*] [debug line = 884:185]
  %18 = getelementptr inbounds %struct.ap_int_base.19* %2, i32 0, i32 0, !dbg !8928 ; [#uses=1 type=%struct.ssdm_int.20*] [debug line = 884:185]
  %19 = getelementptr inbounds %struct.ap_int_base.19* %15, i32 0, i32 0, !dbg !8928 ; [#uses=1 type=%struct.ssdm_int.20*] [debug line = 884:185]
  %20 = getelementptr inbounds %struct.ssdm_int.20* %18, i32 0, i32 0, !dbg !8928 ; [#uses=1 type=i16*] [debug line = 884:185]
  %21 = getelementptr inbounds %struct.ssdm_int.20* %19, i32 0, i32 0, !dbg !8928 ; [#uses=1 type=i16*] [debug line = 884:185]
  %22 = load i16* %21, !dbg !8928                 ; [#uses=1 type=i16] [debug line = 884:185]
  store i16 %22, i16* %20, !dbg !8928             ; [debug line = 884:185]
  %23 = bitcast %struct.ap_int_base.19* %2 to %struct.ssdm_int.20*, !dbg !8928 ; [#uses=1 type=%struct.ssdm_int.20*] [debug line = 884:185]
  %24 = getelementptr inbounds %struct.ssdm_int.20* %23, i32 0, i32 0, !dbg !8928 ; [#uses=1 type=i16*] [debug line = 884:185]
  %25 = load i16* %24, align 2, !dbg !8928        ; [#uses=1 type=i16] [debug line = 884:185]
  store i16 %25, i16* %__Repl2__, align 2, !dbg !8928 ; [debug line = 884:185]
  %26 = bitcast i64* %__Result__ to i8*, !dbg !8929 ; [#uses=0 type=i8*] [debug line = 884:187]
  %27 = bitcast i64* %__Val2__ to i8*, !dbg !8929 ; [#uses=0 type=i8*] [debug line = 884:187]
  %28 = bitcast i16* %__Repl2__ to i8*, !dbg !8929 ; [#uses=0 type=i8*] [debug line = 884:187]
  %29 = load i32* %W_ref2, align 4, !dbg !8929    ; [#uses=1 type=i32] [debug line = 884:187]
  %30 = sub nsw i32 %29, 1, !dbg !8929            ; [#uses=1 type=i32] [debug line = 884:187]
  %31 = load i64* %__Val2__, !dbg !8929           ; [#uses=1 type=i64] [debug line = 884:187]
  %32 = load i16* %__Repl2__, !dbg !8929          ; [#uses=1 type=i16] [debug line = 884:187]
  %33 = call i64 @llvm.part.set.i64.i16(i64 %31, i16 %32, i32 0, i32 %30), !dbg !8929 ; [#uses=1 type=i64] [debug line = 884:187]
  store i64 %33, i64* %__Result__, !dbg !8929     ; [debug line = 884:187]
  %34 = load i64* %__Result__, align 8, !dbg !8929 ; [#uses=1 type=i64] [debug line = 884:187]
  %35 = bitcast %struct.ap_int_base* %agg.result to %"class.std::locale::id"*, !dbg !8930 ; [#uses=1 type=%"class.std::locale::id"*] [debug line = 884:0]
  %36 = getelementptr inbounds %"class.std::locale::id"* %35, i32 0, i32 0, !dbg !8930 ; [#uses=1 type=i64*] [debug line = 884:0]
  store i64 %34, i64* %36, align 8, !dbg !8930    ; [debug line = 884:0]
  call void @llvm.dbg.declare(metadata !{i64* %__Result__1}, metadata !8931), !dbg !8933 ; [debug line = 886:40] [debug variable = __Result__]
  store i64 0, i64* %__Result__1, align 8, !dbg !8934 ; [debug line = 886:54]
  call void @llvm.dbg.declare(metadata !{i64* %__Val2__2}, metadata !8935), !dbg !8936 ; [debug line = 886:73] [debug variable = __Val2__]
  %37 = bitcast %struct.ap_int_base* %agg.result to %"class.std::locale::id"*, !dbg !8937 ; [#uses=1 type=%"class.std::locale::id"*] [debug line = 886:92]
  %38 = getelementptr inbounds %"class.std::locale::id"* %37, i32 0, i32 0, !dbg !8937 ; [#uses=1 type=i64*] [debug line = 886:92]
  %39 = load i64* %38, align 8, !dbg !8937        ; [#uses=1 type=i64] [debug line = 886:92]
  store i64 %39, i64* %__Val2__2, align 8, !dbg !8937 ; [debug line = 886:92]
  call void @llvm.dbg.declare(metadata !{i48* %__Repl2__3}, metadata !8938), !dbg !8939 ; [debug line = 886:138] [debug variable = __Repl2__]
  %40 = getelementptr inbounds %struct.ap_concat_ref.26* %4, i32 0, i32 0, !dbg !8940 ; [#uses=1 type=%struct.ap_int_base.6**] [debug line = 886:185]
  %41 = load %struct.ap_int_base.6** %40, align 8, !dbg !8940 ; [#uses=1 type=%struct.ap_int_base.6*] [debug line = 886:185]
  call void @_ZN11ap_int_baseILi48ELb0ELb1EEC1ILi48ELb1EEERKS_IXT_EXT0_EXleT_Li64EEE(%struct.ap_int_base.6* %3, %struct.ap_int_base.6* %41), !dbg !8940 ; [debug line = 886:185]
  %42 = bitcast %struct.ap_int_base.6* %3 to %struct.ssdm_int.7*, !dbg !8940 ; [#uses=1 type=%struct.ssdm_int.7*] [debug line = 886:185]
  %43 = getelementptr inbounds %struct.ssdm_int.7* %42, i32 0, i32 0, !dbg !8940 ; [#uses=1 type=i48*] [debug line = 886:185]
  %44 = load i48* %43, align 8, !dbg !8940        ; [#uses=1 type=i48] [debug line = 886:185]
  store i48 %44, i48* %__Repl2__3, align 8, !dbg !8940 ; [debug line = 886:185]
  %45 = bitcast i64* %__Result__1 to i8*, !dbg !8941 ; [#uses=0 type=i8*] [debug line = 886:187]
  %46 = bitcast i64* %__Val2__2 to i8*, !dbg !8941 ; [#uses=0 type=i8*] [debug line = 886:187]
  %47 = bitcast i48* %__Repl2__3 to i8*, !dbg !8941 ; [#uses=0 type=i8*] [debug line = 886:187]
  %48 = load i32* %W_ref2, align 4, !dbg !8941    ; [#uses=1 type=i32] [debug line = 886:187]
  %49 = load i32* %W_ref1, align 4, !dbg !8941    ; [#uses=1 type=i32] [debug line = 886:187]
  %50 = load i32* %W_ref2, align 4, !dbg !8941    ; [#uses=1 type=i32] [debug line = 886:187]
  %51 = add nsw i32 %49, %50, !dbg !8941          ; [#uses=1 type=i32] [debug line = 886:187]
  %52 = sub nsw i32 %51, 1, !dbg !8941            ; [#uses=1 type=i32] [debug line = 886:187]
  %53 = load i64* %__Val2__2, !dbg !8941          ; [#uses=1 type=i64] [debug line = 886:187]
  %54 = load i48* %__Repl2__3, !dbg !8941         ; [#uses=1 type=i48] [debug line = 886:187]
  %55 = call i64 @llvm.part.set.i64.i48(i64 %53, i48 %54, i32 %48, i32 %52), !dbg !8941 ; [#uses=1 type=i64] [debug line = 886:187]
  store i64 %55, i64* %__Result__1, !dbg !8941    ; [debug line = 886:187]
  %56 = load i64* %__Result__1, align 8, !dbg !8941 ; [#uses=1 type=i64] [debug line = 886:187]
  %57 = bitcast %struct.ap_int_base* %agg.result to %"class.std::locale::id"*, !dbg !8942 ; [#uses=1 type=%"class.std::locale::id"*] [debug line = 886:0]
  %58 = getelementptr inbounds %"class.std::locale::id"* %57, i32 0, i32 0, !dbg !8942 ; [#uses=1 type=i64*] [debug line = 886:0]
  store i64 %56, i64* %58, align 8, !dbg !8942    ; [debug line = 886:0]
  ret void, !dbg !8943                            ; [debug line = 888:9]
}

; [#uses=1]
define linkonce_odr void @_ZN11ap_int_baseILi64ELb0ELb1EEC1Ei(%struct.ap_int_base* %this, i32 %op) unnamed_addr nounwind uwtable inlinehint alwaysinline align 2 {
  %1 = alloca %struct.ap_int_base*, align 8       ; [#uses=2 type=%struct.ap_int_base**]
  %2 = alloca i32, align 4                        ; [#uses=2 type=i32*]
  store %struct.ap_int_base* %this, %struct.ap_int_base** %1, align 8
  call void @llvm.dbg.declare(metadata !{%struct.ap_int_base** %1}, metadata !8944), !dbg !8945 ; [debug line = 1465:52] [debug variable = this]
  store i32 %op, i32* %2, align 4
  call void @llvm.dbg.declare(metadata !{i32* %2}, metadata !8946), !dbg !8947 ; [debug line = 1465:68] [debug variable = op]
  %3 = load %struct.ap_int_base** %1              ; [#uses=1 type=%struct.ap_int_base*]
  %4 = load i32* %2, align 4, !dbg !8948          ; [#uses=1 type=i32] [debug line = 1465:88]
  call void @_ZN11ap_int_baseILi64ELb0ELb1EEC2Ei(%struct.ap_int_base* %3, i32 %4), !dbg !8948 ; [debug line = 1465:88]
  ret void, !dbg !8948                            ; [debug line = 1465:88]
}

; [#uses=3]
define linkonce_odr i32 @_ZNK11ap_int_baseILi48ELb1ELb1EE6lengthEv(%struct.ap_int_base.6* %this) nounwind uwtable inlinehint alwaysinline align 2 {
  %1 = alloca %struct.ap_int_base.6*, align 8     ; [#uses=2 type=%struct.ap_int_base.6**]
  store %struct.ap_int_base.6* %this, %struct.ap_int_base.6** %1, align 8
  call void @llvm.dbg.declare(metadata !{%struct.ap_int_base.6** %1}, metadata !8949), !dbg !8951 ; [debug line = 1684:44] [debug variable = this]
  %2 = load %struct.ap_int_base.6** %1            ; [#uses=0 type=%struct.ap_int_base.6*]
  ret i32 48, !dbg !8952                          ; [debug line = 1684:61]
}

; [#uses=1]
define linkonce_odr i32 @_ZNK11ap_int_baseILi16ELb0ELb1EE6lengthEv(%struct.ap_int_base.19* %this) nounwind uwtable inlinehint alwaysinline align 2 {
  %1 = alloca %struct.ap_int_base.19*, align 8    ; [#uses=2 type=%struct.ap_int_base.19**]
  store %struct.ap_int_base.19* %this, %struct.ap_int_base.19** %1, align 8
  call void @llvm.dbg.declare(metadata !{%struct.ap_int_base.19** %1}, metadata !8954), !dbg !8956 ; [debug line = 1684:44] [debug variable = this]
  %2 = load %struct.ap_int_base.19** %1           ; [#uses=0 type=%struct.ap_int_base.19*]
  ret i32 16, !dbg !8957                          ; [debug line = 1684:61]
}

; [#uses=1]
declare i64 @llvm.part.set.i64.i16(i64, i16, i32, i32) nounwind readnone

; [#uses=3]
define linkonce_odr void @_ZN11ap_int_baseILi48ELb0ELb1EEC1ILi48ELb1EEERKS_IXT_EXT0_EXleT_Li64EEE(%struct.ap_int_base.6* %this, %struct.ap_int_base.6* %op) unnamed_addr nounwind uwtable inlinehint alwaysinline align 2 {
  %1 = alloca %struct.ap_int_base.6*, align 8     ; [#uses=2 type=%struct.ap_int_base.6**]
  %2 = alloca %struct.ap_int_base.6*, align 8     ; [#uses=2 type=%struct.ap_int_base.6**]
  store %struct.ap_int_base.6* %this, %struct.ap_int_base.6** %1, align 8
  call void @llvm.dbg.declare(metadata !{%struct.ap_int_base.6** %1}, metadata !8959), !dbg !8961 ; [debug line = 1450:43] [debug variable = this]
  store %struct.ap_int_base.6* %op, %struct.ap_int_base.6** %2, align 8
  call void @llvm.dbg.declare(metadata !{%struct.ap_int_base.6** %2}, metadata !8962), !dbg !8963 ; [debug line = 1450:89] [debug variable = op]
  %3 = load %struct.ap_int_base.6** %1            ; [#uses=1 type=%struct.ap_int_base.6*]
  %4 = load %struct.ap_int_base.6** %2, !dbg !8964 ; [#uses=1 type=%struct.ap_int_base.6*] [debug line = 1450:111]
  call void @_ZN11ap_int_baseILi48ELb0ELb1EEC2ILi48ELb1EEERKS_IXT_EXT0_EXleT_Li64EEE(%struct.ap_int_base.6* %3, %struct.ap_int_base.6* %4), !dbg !8964 ; [debug line = 1450:111]
  ret void, !dbg !8964                            ; [debug line = 1450:111]
}

; [#uses=1]
declare i64 @llvm.part.set.i64.i48(i64, i48, i32, i32) nounwind readnone

; [#uses=1]
define linkonce_odr void @_ZN11ap_int_baseILi48ELb0ELb1EEC2ILi48ELb1EEERKS_IXT_EXT0_EXleT_Li64EEE(%struct.ap_int_base.6* %this, %struct.ap_int_base.6* %op) unnamed_addr nounwind uwtable inlinehint alwaysinline align 2 {
  %1 = alloca %struct.ap_int_base.6*, align 8     ; [#uses=2 type=%struct.ap_int_base.6**]
  %2 = alloca %struct.ap_int_base.6*, align 8     ; [#uses=2 type=%struct.ap_int_base.6**]
  store %struct.ap_int_base.6* %this, %struct.ap_int_base.6** %1, align 8
  call void @llvm.dbg.declare(metadata !{%struct.ap_int_base.6** %1}, metadata !8965), !dbg !8966 ; [debug line = 1450:43] [debug variable = this]
  store %struct.ap_int_base.6* %op, %struct.ap_int_base.6** %2, align 8
  call void @llvm.dbg.declare(metadata !{%struct.ap_int_base.6** %2}, metadata !8967), !dbg !8968 ; [debug line = 1450:89] [debug variable = op]
  %3 = load %struct.ap_int_base.6** %1            ; [#uses=2 type=%struct.ap_int_base.6*]
  %4 = bitcast %struct.ap_int_base.6* %3 to %struct.ssdm_int.7*, !dbg !8969 ; [#uses=1 type=%struct.ssdm_int.7*] [debug line = 1450:93]
  call void @_ZN8ssdm_intILi48ELb0EEC2Ev(%struct.ssdm_int.7* %4), !dbg !8969 ; [debug line = 1450:93]
  %5 = load %struct.ap_int_base.6** %2, align 8, !dbg !8970 ; [#uses=1 type=%struct.ap_int_base.6*] [debug line = 1450:95]
  %6 = bitcast %struct.ap_int_base.6* %5 to %struct.ssdm_int.7*, !dbg !8970 ; [#uses=1 type=%struct.ssdm_int.7*] [debug line = 1450:95]
  %7 = getelementptr inbounds %struct.ssdm_int.7* %6, i32 0, i32 0, !dbg !8970 ; [#uses=1 type=i48*] [debug line = 1450:95]
  %8 = load i48* %7, align 8, !dbg !8970          ; [#uses=1 type=i48] [debug line = 1450:95]
  %9 = bitcast %struct.ap_int_base.6* %3 to %struct.ssdm_int.7*, !dbg !8970 ; [#uses=1 type=%struct.ssdm_int.7*] [debug line = 1450:95]
  %10 = getelementptr inbounds %struct.ssdm_int.7* %9, i32 0, i32 0, !dbg !8970 ; [#uses=1 type=i48*] [debug line = 1450:95]
  store i48 %8, i48* %10, align 8, !dbg !8970     ; [debug line = 1450:95]
  ret void, !dbg !8972                            ; [debug line = 1450:111]
}

; [#uses=2]
define linkonce_odr void @_ZN8ssdm_intILi48ELb0EEC2Ev(%struct.ssdm_int.7* %this) unnamed_addr nounwind uwtable inlinehint alwaysinline align 2 {
  %1 = alloca %struct.ssdm_int.7*, align 8        ; [#uses=2 type=%struct.ssdm_int.7**]
  store %struct.ssdm_int.7* %this, %struct.ssdm_int.7** %1, align 8
  call void @llvm.dbg.declare(metadata !{%struct.ssdm_int.7** %1}, metadata !8973), !dbg !8975 ; [debug line = 50:0] [debug variable = this]
  %2 = load %struct.ssdm_int.7** %1               ; [#uses=0 type=%struct.ssdm_int.7*]
  ret void, !dbg !8976                            ; [debug line = 50:0]
}

; [#uses=1]
define linkonce_odr void @_ZN11ap_int_baseILi64ELb0ELb1EEC2Ei(%struct.ap_int_base* %this, i32 %op) unnamed_addr nounwind uwtable inlinehint alwaysinline align 2 {
  %1 = alloca %struct.ap_int_base*, align 8       ; [#uses=2 type=%struct.ap_int_base**]
  %2 = alloca i32, align 4                        ; [#uses=2 type=i32*]
  store %struct.ap_int_base* %this, %struct.ap_int_base** %1, align 8
  call void @llvm.dbg.declare(metadata !{%struct.ap_int_base** %1}, metadata !8978), !dbg !8979 ; [debug line = 1465:52] [debug variable = this]
  store i32 %op, i32* %2, align 4
  call void @llvm.dbg.declare(metadata !{i32* %2}, metadata !8980), !dbg !8981 ; [debug line = 1465:68] [debug variable = op]
  %3 = load %struct.ap_int_base** %1              ; [#uses=2 type=%struct.ap_int_base*]
  %4 = bitcast %struct.ap_int_base* %3 to %"class.std::locale::id"*, !dbg !8982 ; [#uses=1 type=%"class.std::locale::id"*] [debug line = 1465:72]
  call void @_ZN8ssdm_intILi64ELb0EEC2Ev(%"class.std::locale::id"* %4), !dbg !8982 ; [debug line = 1465:72]
  %5 = load i32* %2, align 4, !dbg !8983          ; [#uses=1 type=i32] [debug line = 1465:74]
  %6 = sext i32 %5 to i64, !dbg !8983             ; [#uses=1 type=i64] [debug line = 1465:74]
  %7 = bitcast %struct.ap_int_base* %3 to %"class.std::locale::id"*, !dbg !8983 ; [#uses=1 type=%"class.std::locale::id"*] [debug line = 1465:74]
  %8 = getelementptr inbounds %"class.std::locale::id"* %7, i32 0, i32 0, !dbg !8983 ; [#uses=1 type=i64*] [debug line = 1465:74]
  store i64 %6, i64* %8, align 8, !dbg !8983      ; [debug line = 1465:74]
  ret void, !dbg !8985                            ; [debug line = 1465:88]
}

; [#uses=1]
define linkonce_odr void @_ZN8ssdm_intILi64ELb0EEC2Ev(%"class.std::locale::id"* %this) unnamed_addr nounwind uwtable inlinehint alwaysinline align 2 {
  %1 = alloca %"class.std::locale::id"*, align 8  ; [#uses=2 type=%"class.std::locale::id"**]
  store %"class.std::locale::id"* %this, %"class.std::locale::id"** %1, align 8
  call void @llvm.dbg.declare(metadata !{%"class.std::locale::id"** %1}, metadata !8986), !dbg !8988 ; [debug line = 68:0] [debug variable = this]
  %2 = load %"class.std::locale::id"** %1         ; [#uses=0 type=%"class.std::locale::id"*]
  ret void, !dbg !8989                            ; [debug line = 68:0]
}

; [#uses=1]
define linkonce_odr void @_ZN13ap_concat_refILi48E11ap_int_baseILi48ELb1ELb1EELi16ES0_ILi16ELb0ELb1EEEC1ERS1_RS2_(%struct.ap_concat_ref.26* %this, %struct.ap_int_base.6* %bv1, %struct.ap_int_base.19* %bv2) unnamed_addr nounwind uwtable inlinehint alwaysinline align 2 {
  %1 = alloca %struct.ap_concat_ref.26*, align 8  ; [#uses=2 type=%struct.ap_concat_ref.26**]
  %2 = alloca %struct.ap_int_base.6*, align 8     ; [#uses=2 type=%struct.ap_int_base.6**]
  %3 = alloca %struct.ap_int_base.19*, align 8    ; [#uses=2 type=%struct.ap_int_base.19**]
  store %struct.ap_concat_ref.26* %this, %struct.ap_concat_ref.26** %1, align 8
  call void @llvm.dbg.declare(metadata !{%struct.ap_concat_ref.26** %1}, metadata !8991), !dbg !8993 ; [debug line = 696:43] [debug variable = this]
  store %struct.ap_int_base.6* %bv1, %struct.ap_int_base.6** %2, align 8
  call void @llvm.dbg.declare(metadata !{%struct.ap_int_base.6** %2}, metadata !8994), !dbg !8995 ; [debug line = 696:66] [debug variable = bv1]
  store %struct.ap_int_base.19* %bv2, %struct.ap_int_base.19** %3, align 8
  call void @llvm.dbg.declare(metadata !{%struct.ap_int_base.19** %3}, metadata !8996), !dbg !8997 ; [debug line = 696:79] [debug variable = bv2]
  %4 = load %struct.ap_concat_ref.26** %1         ; [#uses=1 type=%struct.ap_concat_ref.26*]
  %5 = load %struct.ap_int_base.6** %2, !dbg !8998 ; [#uses=1 type=%struct.ap_int_base.6*] [debug line = 696:109]
  %6 = load %struct.ap_int_base.19** %3, !dbg !8998 ; [#uses=1 type=%struct.ap_int_base.19*] [debug line = 696:109]
  call void @_ZN13ap_concat_refILi48E11ap_int_baseILi48ELb1ELb1EELi16ES0_ILi16ELb0ELb1EEEC2ERS1_RS2_(%struct.ap_concat_ref.26* %4, %struct.ap_int_base.6* %5, %struct.ap_int_base.19* %6), !dbg !8998 ; [debug line = 696:109]
  ret void, !dbg !8998                            ; [debug line = 696:109]
}

; [#uses=1]
define linkonce_odr void @_ZN13ap_concat_refILi48E11ap_int_baseILi48ELb1ELb1EELi16ES0_ILi16ELb0ELb1EEEC2ERS1_RS2_(%struct.ap_concat_ref.26* %this, %struct.ap_int_base.6* %bv1, %struct.ap_int_base.19* %bv2) unnamed_addr nounwind uwtable inlinehint alwaysinline align 2 {
  %1 = alloca %struct.ap_concat_ref.26*, align 8  ; [#uses=2 type=%struct.ap_concat_ref.26**]
  %2 = alloca %struct.ap_int_base.6*, align 8     ; [#uses=2 type=%struct.ap_int_base.6**]
  %3 = alloca %struct.ap_int_base.19*, align 8    ; [#uses=2 type=%struct.ap_int_base.19**]
  store %struct.ap_concat_ref.26* %this, %struct.ap_concat_ref.26** %1, align 8
  call void @llvm.dbg.declare(metadata !{%struct.ap_concat_ref.26** %1}, metadata !8999), !dbg !9000 ; [debug line = 696:43] [debug variable = this]
  store %struct.ap_int_base.6* %bv1, %struct.ap_int_base.6** %2, align 8
  call void @llvm.dbg.declare(metadata !{%struct.ap_int_base.6** %2}, metadata !9001), !dbg !9002 ; [debug line = 696:66] [debug variable = bv1]
  store %struct.ap_int_base.19* %bv2, %struct.ap_int_base.19** %3, align 8
  call void @llvm.dbg.declare(metadata !{%struct.ap_int_base.19** %3}, metadata !9003), !dbg !9004 ; [debug line = 696:79] [debug variable = bv2]
  %4 = load %struct.ap_concat_ref.26** %1         ; [#uses=2 type=%struct.ap_concat_ref.26*]
  %5 = getelementptr inbounds %struct.ap_concat_ref.26* %4, i32 0, i32 0, !dbg !9005 ; [#uses=1 type=%struct.ap_int_base.6**] [debug line = 696:107]
  %6 = load %struct.ap_int_base.6** %2, align 8, !dbg !9005 ; [#uses=1 type=%struct.ap_int_base.6*] [debug line = 696:107]
  store %struct.ap_int_base.6* %6, %struct.ap_int_base.6** %5, align 8, !dbg !9005 ; [debug line = 696:107]
  %7 = getelementptr inbounds %struct.ap_concat_ref.26* %4, i32 0, i32 1, !dbg !9005 ; [#uses=1 type=%struct.ap_int_base.19**] [debug line = 696:107]
  %8 = load %struct.ap_int_base.19** %3, align 8, !dbg !9005 ; [#uses=1 type=%struct.ap_int_base.19*] [debug line = 696:107]
  store %struct.ap_int_base.19* %8, %struct.ap_int_base.19** %7, align 8, !dbg !9005 ; [debug line = 696:107]
  ret void, !dbg !9006                            ; [debug line = 696:109]
}

; [#uses=1]
define linkonce_odr void @_ZN7ap_uintILi1EEC2Ei(%struct.ap_uint* %this, i32 %val) unnamed_addr nounwind uwtable inlinehint alwaysinline align 2 {
  %1 = alloca %struct.ap_uint*, align 8           ; [#uses=2 type=%struct.ap_uint**]
  %2 = alloca i32, align 4                        ; [#uses=2 type=i32*]
  store %struct.ap_uint* %this, %struct.ap_uint** %1, align 8
  call void @llvm.dbg.declare(metadata !{%struct.ap_uint** %1}, metadata !9008), !dbg !9009 ; [debug line = 250:43] [debug variable = this]
  store i32 %val, i32* %2, align 4
  call void @llvm.dbg.declare(metadata !{i32* %2}, metadata !9010), !dbg !9011 ; [debug line = 250:55] [debug variable = val]
  %3 = load %struct.ap_uint** %1                  ; [#uses=2 type=%struct.ap_uint*]
  %4 = bitcast %struct.ap_uint* %3 to %struct.ap_int_base.0*, !dbg !9012 ; [#uses=1 type=%struct.ap_int_base.0*] [debug line = 250:60]
  call void @_ZN11ap_int_baseILi1ELb0ELb1EEC2Ev(%struct.ap_int_base.0* %4), !dbg !9012 ; [debug line = 250:60]
  %5 = load i32* %2, align 4, !dbg !9013          ; [#uses=1 type=i32] [debug line = 250:62]
  %6 = trunc i32 %5 to i1, !dbg !9013             ; [#uses=1 type=i1] [debug line = 250:62]
  %7 = bitcast %struct.ap_uint* %3 to %struct.ap_int_base.0*, !dbg !9013 ; [#uses=1 type=%struct.ap_int_base.0*] [debug line = 250:62]
  %8 = bitcast %struct.ap_int_base.0* %7 to %struct.ssdm_int.1*, !dbg !9013 ; [#uses=1 type=%struct.ssdm_int.1*] [debug line = 250:62]
  %9 = getelementptr inbounds %struct.ssdm_int.1* %8, i32 0, i32 0, !dbg !9013 ; [#uses=1 type=i1*] [debug line = 250:62]
  store i1 %6, i1* %9, align 1, !dbg !9013        ; [debug line = 250:62]
  ret void, !dbg !9015                            ; [debug line = 250:77]
}

; [#uses=2]
define linkonce_odr void @_ZN11ap_int_baseILi1ELb0ELb1EEC2Ev(%struct.ap_int_base.0* %this) unnamed_addr nounwind uwtable inlinehint alwaysinline align 2 {
  %1 = alloca %struct.ap_int_base.0*, align 8     ; [#uses=2 type=%struct.ap_int_base.0**]
  store %struct.ap_int_base.0* %this, %struct.ap_int_base.0** %1, align 8
  call void @llvm.dbg.declare(metadata !{%struct.ap_int_base.0** %1}, metadata !9016), !dbg !9018 ; [debug line = 1438:42] [debug variable = this]
  %2 = load %struct.ap_int_base.0** %1            ; [#uses=1 type=%struct.ap_int_base.0*]
  %3 = bitcast %struct.ap_int_base.0* %2 to %struct.ssdm_int.1*, !dbg !9019 ; [#uses=1 type=%struct.ssdm_int.1*] [debug line = 1438:56]
  call void @_ZN8ssdm_intILi1ELb0EEC2Ev(%struct.ssdm_int.1* %3), !dbg !9019 ; [debug line = 1438:56]
  ret void, !dbg !9020                            ; [debug line = 1444:4]
}

; [#uses=1]
define linkonce_odr void @_ZN8ssdm_intILi1ELb0EEC2Ev(%struct.ssdm_int.1* %this) unnamed_addr nounwind uwtable inlinehint alwaysinline align 2 {
  %1 = alloca %struct.ssdm_int.1*, align 8        ; [#uses=2 type=%struct.ssdm_int.1**]
  store %struct.ssdm_int.1* %this, %struct.ssdm_int.1** %1, align 8
  call void @llvm.dbg.declare(metadata !{%struct.ssdm_int.1** %1}, metadata !9022), !dbg !9024 ; [debug line = 3:0] [debug variable = this]
  %2 = load %struct.ssdm_int.1** %1               ; [#uses=0 type=%struct.ssdm_int.1*]
  ret void, !dbg !9025                            ; [debug line = 3:0]
}

; [#uses=1]
define linkonce_odr void @_ZN7ap_uintILi16EEC2ILi8E11ap_int_baseILi8ELb0ELb1EELi8ES3_EERK13ap_concat_refIXT_ET0_XT1_ET2_E(%struct.ap_int.18* %this, %struct.ap_concat_ref.25* %ref) unnamed_addr nounwind uwtable inlinehint alwaysinline align 2 {
  %1 = alloca %struct.ap_int.18*, align 8         ; [#uses=2 type=%struct.ap_int.18**]
  %2 = alloca %struct.ap_concat_ref.25*, align 8  ; [#uses=2 type=%struct.ap_concat_ref.25**]
  store %struct.ap_int.18* %this, %struct.ap_int.18** %1, align 8
  call void @llvm.dbg.declare(metadata !{%struct.ap_int.18** %1}, metadata !9027), !dbg !9028 ; [debug line = 203:43] [debug variable = this]
  store %struct.ap_concat_ref.25* %ref, %struct.ap_concat_ref.25** %2, align 8
  call void @llvm.dbg.declare(metadata !{%struct.ap_concat_ref.25** %2}, metadata !9029), !dbg !9030 ; [debug line = 203:104] [debug variable = ref]
  %3 = load %struct.ap_int.18** %1                ; [#uses=1 type=%struct.ap_int.18*]
  %4 = bitcast %struct.ap_int.18* %3 to %struct.ap_int_base.19*, !dbg !9031 ; [#uses=1 type=%struct.ap_int_base.19*] [debug line = 203:119]
  %5 = load %struct.ap_concat_ref.25** %2, align 8, !dbg !9031 ; [#uses=1 type=%struct.ap_concat_ref.25*] [debug line = 203:119]
  call void @_ZN11ap_int_baseILi16ELb0ELb1EEC2ILi8ES_ILi8ELb0ELb1EELi8ES2_EERK13ap_concat_refIXT_ET0_XT1_ET2_E(%struct.ap_int_base.19* %4, %struct.ap_concat_ref.25* %5), !dbg !9031 ; [debug line = 203:119]
  ret void, !dbg !9032                            ; [debug line = 203:120]
}

; [#uses=1]
define linkonce_odr void @_ZN11ap_int_baseILi16ELb0ELb1EEC2ILi8ES_ILi8ELb0ELb1EELi8ES2_EERK13ap_concat_refIXT_ET0_XT1_ET2_E(%struct.ap_int_base.19* %this, %struct.ap_concat_ref.25* %ref) unnamed_addr nounwind uwtable inlinehint alwaysinline align 2 {
  %1 = alloca %struct.ap_int_base.19*, align 8    ; [#uses=2 type=%struct.ap_int_base.19**]
  %2 = alloca %struct.ap_concat_ref.25*, align 8  ; [#uses=2 type=%struct.ap_concat_ref.25**]
  %tmp = alloca %struct.ap_int_base.19, align 2   ; [#uses=2 type=%struct.ap_int_base.19*]
  store %struct.ap_int_base.19* %this, %struct.ap_int_base.19** %1, align 8
  call void @llvm.dbg.declare(metadata !{%struct.ap_int_base.19** %1}, metadata !9034), !dbg !9036 ; [debug line = 1490:43] [debug variable = this]
  store %struct.ap_concat_ref.25* %ref, %struct.ap_concat_ref.25** %2, align 8
  call void @llvm.dbg.declare(metadata !{%struct.ap_concat_ref.25** %2}, metadata !9037), !dbg !9038 ; [debug line = 1490:105] [debug variable = ref]
  %3 = load %struct.ap_int_base.19** %1           ; [#uses=2 type=%struct.ap_int_base.19*]
  %4 = bitcast %struct.ap_int_base.19* %3 to %struct.ssdm_int.20*, !dbg !9039 ; [#uses=1 type=%struct.ssdm_int.20*] [debug line = 1490:110]
  call void @_ZN8ssdm_intILi16ELb0EEC2Ev(%struct.ssdm_int.20* %4), !dbg !9039 ; [debug line = 1490:110]
  call void @llvm.dbg.declare(metadata !{%struct.ap_int_base.19* %tmp}, metadata !9040), !dbg !9042 ; [debug line = 1491:85] [debug variable = tmp]
  %5 = load %struct.ap_concat_ref.25** %2, align 8, !dbg !9043 ; [#uses=1 type=%struct.ap_concat_ref.25*] [debug line = 1491:91]
  call void @_ZNK13ap_concat_refILi8E11ap_int_baseILi8ELb0ELb1EELi8ES1_E3getEv(%struct.ap_int_base.19* sret %tmp, %struct.ap_concat_ref.25* %5), !dbg !9043 ; [debug line = 1491:91]
  %6 = bitcast %struct.ap_int_base.19* %tmp to %struct.ssdm_int.20*, !dbg !9044 ; [#uses=1 type=%struct.ssdm_int.20*] [debug line = 1492:9]
  %7 = getelementptr inbounds %struct.ssdm_int.20* %6, i32 0, i32 0, !dbg !9044 ; [#uses=1 type=i16*] [debug line = 1492:9]
  %8 = load i16* %7, align 2, !dbg !9044          ; [#uses=1 type=i16] [debug line = 1492:9]
  %9 = bitcast %struct.ap_int_base.19* %3 to %struct.ssdm_int.20*, !dbg !9044 ; [#uses=1 type=%struct.ssdm_int.20*] [debug line = 1492:9]
  %10 = getelementptr inbounds %struct.ssdm_int.20* %9, i32 0, i32 0, !dbg !9044 ; [#uses=1 type=i16*] [debug line = 1492:9]
  store i16 %8, i16* %10, align 2, !dbg !9044     ; [debug line = 1492:9]
  ret void, !dbg !9045                            ; [debug line = 1493:5]
}

; [#uses=4]
define linkonce_odr void @_ZN8ssdm_intILi16ELb0EEC2Ev(%struct.ssdm_int.20* %this) unnamed_addr nounwind uwtable inlinehint alwaysinline align 2 {
  %1 = alloca %struct.ssdm_int.20*, align 8       ; [#uses=2 type=%struct.ssdm_int.20**]
  store %struct.ssdm_int.20* %this, %struct.ssdm_int.20** %1, align 8
  call void @llvm.dbg.declare(metadata !{%struct.ssdm_int.20** %1}, metadata !9046), !dbg !9048 ; [debug line = 18:0] [debug variable = this]
  %2 = load %struct.ssdm_int.20** %1              ; [#uses=0 type=%struct.ssdm_int.20*]
  ret void, !dbg !9049                            ; [debug line = 18:0]
}

; [#uses=1]
define linkonce_odr void @_ZNK13ap_concat_refILi8E11ap_int_baseILi8ELb0ELb1EELi8ES1_E3getEv(%struct.ap_int_base.19* noalias sret %agg.result, %struct.ap_concat_ref.25* %this) nounwind uwtable inlinehint alwaysinline align 2 {
  %1 = alloca %struct.ap_concat_ref.25*, align 8  ; [#uses=2 type=%struct.ap_concat_ref.25**]
  %W_ref1 = alloca i32, align 4                   ; [#uses=2 type=i32*]
  %W_ref2 = alloca i32, align 4                   ; [#uses=4 type=i32*]
  %__Result__ = alloca i16, align 2               ; [#uses=4 type=i16*]
  %__Val2__ = alloca i16, align 2                 ; [#uses=3 type=i16*]
  %__Repl2__ = alloca i8, align 1                 ; [#uses=2 type=i8*]
  %2 = alloca %struct.ap_int_base.3, align 1      ; [#uses=3 type=%struct.ap_int_base.3*]
  %__Result__1 = alloca i16, align 2              ; [#uses=4 type=i16*]
  %__Val2__2 = alloca i16, align 2                ; [#uses=3 type=i16*]
  %__Repl2__3 = alloca i8, align 1                ; [#uses=2 type=i8*]
  %3 = alloca %struct.ap_int_base.3, align 1      ; [#uses=3 type=%struct.ap_int_base.3*]
  store %struct.ap_concat_ref.25* %this, %struct.ap_concat_ref.25** %1, align 8
  call void @llvm.dbg.declare(metadata !{%struct.ap_concat_ref.25** %1}, metadata !9051), !dbg !9053 ; [debug line = 880:66] [debug variable = this]
  %4 = load %struct.ap_concat_ref.25** %1         ; [#uses=4 type=%struct.ap_concat_ref.25*]
  call void @llvm.dbg.declare(metadata !{%struct.ap_int_base.19* %agg.result}, metadata !9054), !dbg !9056 ; [debug line = 881:35] [debug variable = tmpVal]
  call void @_ZN11ap_int_baseILi16ELb0ELb1EEC1Ei(%struct.ap_int_base.19* %agg.result, i32 0), !dbg !9057 ; [debug line = 881:44]
  call void @llvm.dbg.declare(metadata !{i32* %W_ref1}, metadata !9058), !dbg !9059 ; [debug line = 882:13] [debug variable = W_ref1]
  %5 = getelementptr inbounds %struct.ap_concat_ref.25* %4, i32 0, i32 0, !dbg !9060 ; [#uses=1 type=%struct.ap_int_base.3**] [debug line = 882:22]
  %6 = load %struct.ap_int_base.3** %5, align 8, !dbg !9060 ; [#uses=1 type=%struct.ap_int_base.3*] [debug line = 882:22]
  %7 = call i32 @_ZNK11ap_int_baseILi8ELb0ELb1EE6lengthEv(%struct.ap_int_base.3* %6), !dbg !9060 ; [#uses=1 type=i32] [debug line = 882:22]
  store i32 %7, i32* %W_ref1, align 4, !dbg !9060 ; [debug line = 882:22]
  call void @llvm.dbg.declare(metadata !{i32* %W_ref2}, metadata !9061), !dbg !9062 ; [debug line = 883:13] [debug variable = W_ref2]
  %8 = getelementptr inbounds %struct.ap_concat_ref.25* %4, i32 0, i32 1, !dbg !9063 ; [#uses=1 type=%struct.ap_int_base.3**] [debug line = 883:22]
  %9 = load %struct.ap_int_base.3** %8, align 8, !dbg !9063 ; [#uses=1 type=%struct.ap_int_base.3*] [debug line = 883:22]
  %10 = call i32 @_ZNK11ap_int_baseILi8ELb0ELb1EE6lengthEv(%struct.ap_int_base.3* %9), !dbg !9063 ; [#uses=1 type=i32] [debug line = 883:22]
  store i32 %10, i32* %W_ref2, align 4, !dbg !9063 ; [debug line = 883:22]
  call void @llvm.dbg.declare(metadata !{i16* %__Result__}, metadata !9064), !dbg !9066 ; [debug line = 884:40] [debug variable = __Result__]
  store i16 0, i16* %__Result__, align 2, !dbg !9067 ; [debug line = 884:54]
  call void @llvm.dbg.declare(metadata !{i16* %__Val2__}, metadata !9068), !dbg !9069 ; [debug line = 884:73] [debug variable = __Val2__]
  %11 = bitcast %struct.ap_int_base.19* %agg.result to %struct.ssdm_int.20*, !dbg !9070 ; [#uses=1 type=%struct.ssdm_int.20*] [debug line = 884:92]
  %12 = getelementptr inbounds %struct.ssdm_int.20* %11, i32 0, i32 0, !dbg !9070 ; [#uses=1 type=i16*] [debug line = 884:92]
  %13 = load i16* %12, align 2, !dbg !9070        ; [#uses=1 type=i16] [debug line = 884:92]
  store i16 %13, i16* %__Val2__, align 2, !dbg !9070 ; [debug line = 884:92]
  call void @llvm.dbg.declare(metadata !{i8* %__Repl2__}, metadata !9071), !dbg !9072 ; [debug line = 884:138] [debug variable = __Repl2__]
  %14 = getelementptr inbounds %struct.ap_concat_ref.25* %4, i32 0, i32 1, !dbg !9073 ; [#uses=1 type=%struct.ap_int_base.3**] [debug line = 884:185]
  %15 = load %struct.ap_int_base.3** %14, align 8, !dbg !9073 ; [#uses=2 type=%struct.ap_int_base.3*] [debug line = 884:185]
  %16 = bitcast %struct.ap_int_base.3* %2 to i8*, !dbg !9073 ; [#uses=0 type=i8*] [debug line = 884:185]
  %17 = bitcast %struct.ap_int_base.3* %15 to i8*, !dbg !9073 ; [#uses=0 type=i8*] [debug line = 884:185]
  %18 = getelementptr inbounds %struct.ap_int_base.3* %2, i32 0, i32 0, !dbg !9073 ; [#uses=1 type=%struct.ssdm_int.4*] [debug line = 884:185]
  %19 = getelementptr inbounds %struct.ap_int_base.3* %15, i32 0, i32 0, !dbg !9073 ; [#uses=1 type=%struct.ssdm_int.4*] [debug line = 884:185]
  %20 = getelementptr inbounds %struct.ssdm_int.4* %18, i32 0, i32 0, !dbg !9073 ; [#uses=1 type=i8*] [debug line = 884:185]
  %21 = getelementptr inbounds %struct.ssdm_int.4* %19, i32 0, i32 0, !dbg !9073 ; [#uses=1 type=i8*] [debug line = 884:185]
  %22 = load i8* %21, !dbg !9073                  ; [#uses=1 type=i8] [debug line = 884:185]
  store i8 %22, i8* %20, !dbg !9073               ; [debug line = 884:185]
  %23 = bitcast %struct.ap_int_base.3* %2 to %struct.ssdm_int.4*, !dbg !9073 ; [#uses=1 type=%struct.ssdm_int.4*] [debug line = 884:185]
  %24 = getelementptr inbounds %struct.ssdm_int.4* %23, i32 0, i32 0, !dbg !9073 ; [#uses=1 type=i8*] [debug line = 884:185]
  %25 = load i8* %24, align 1, !dbg !9073         ; [#uses=1 type=i8] [debug line = 884:185]
  store i8 %25, i8* %__Repl2__, align 1, !dbg !9073 ; [debug line = 884:185]
  %26 = bitcast i16* %__Result__ to i8*, !dbg !9074 ; [#uses=0 type=i8*] [debug line = 884:187]
  %27 = bitcast i16* %__Val2__ to i8*, !dbg !9074 ; [#uses=0 type=i8*] [debug line = 884:187]
  %28 = load i32* %W_ref2, align 4, !dbg !9074    ; [#uses=1 type=i32] [debug line = 884:187]
  %29 = sub nsw i32 %28, 1, !dbg !9074            ; [#uses=1 type=i32] [debug line = 884:187]
  %30 = load i16* %__Val2__, !dbg !9074           ; [#uses=1 type=i16] [debug line = 884:187]
  %31 = load i8* %__Repl2__, !dbg !9074           ; [#uses=1 type=i8] [debug line = 884:187]
  %32 = call i16 @llvm.part.set.i16.i8(i16 %30, i8 %31, i32 0, i32 %29), !dbg !9074 ; [#uses=1 type=i16] [debug line = 884:187]
  store i16 %32, i16* %__Result__, !dbg !9074     ; [debug line = 884:187]
  %33 = load i16* %__Result__, align 2, !dbg !9074 ; [#uses=1 type=i16] [debug line = 884:187]
  %34 = bitcast %struct.ap_int_base.19* %agg.result to %struct.ssdm_int.20*, !dbg !9075 ; [#uses=1 type=%struct.ssdm_int.20*] [debug line = 884:0]
  %35 = getelementptr inbounds %struct.ssdm_int.20* %34, i32 0, i32 0, !dbg !9075 ; [#uses=1 type=i16*] [debug line = 884:0]
  store i16 %33, i16* %35, align 2, !dbg !9075    ; [debug line = 884:0]
  call void @llvm.dbg.declare(metadata !{i16* %__Result__1}, metadata !9076), !dbg !9078 ; [debug line = 886:40] [debug variable = __Result__]
  store i16 0, i16* %__Result__1, align 2, !dbg !9079 ; [debug line = 886:54]
  call void @llvm.dbg.declare(metadata !{i16* %__Val2__2}, metadata !9080), !dbg !9081 ; [debug line = 886:73] [debug variable = __Val2__]
  %36 = bitcast %struct.ap_int_base.19* %agg.result to %struct.ssdm_int.20*, !dbg !9082 ; [#uses=1 type=%struct.ssdm_int.20*] [debug line = 886:92]
  %37 = getelementptr inbounds %struct.ssdm_int.20* %36, i32 0, i32 0, !dbg !9082 ; [#uses=1 type=i16*] [debug line = 886:92]
  %38 = load i16* %37, align 2, !dbg !9082        ; [#uses=1 type=i16] [debug line = 886:92]
  store i16 %38, i16* %__Val2__2, align 2, !dbg !9082 ; [debug line = 886:92]
  call void @llvm.dbg.declare(metadata !{i8* %__Repl2__3}, metadata !9083), !dbg !9084 ; [debug line = 886:138] [debug variable = __Repl2__]
  %39 = getelementptr inbounds %struct.ap_concat_ref.25* %4, i32 0, i32 0, !dbg !9085 ; [#uses=1 type=%struct.ap_int_base.3**] [debug line = 886:185]
  %40 = load %struct.ap_int_base.3** %39, align 8, !dbg !9085 ; [#uses=2 type=%struct.ap_int_base.3*] [debug line = 886:185]
  %41 = bitcast %struct.ap_int_base.3* %3 to i8*, !dbg !9085 ; [#uses=0 type=i8*] [debug line = 886:185]
  %42 = bitcast %struct.ap_int_base.3* %40 to i8*, !dbg !9085 ; [#uses=0 type=i8*] [debug line = 886:185]
  %43 = getelementptr inbounds %struct.ap_int_base.3* %3, i32 0, i32 0, !dbg !9085 ; [#uses=1 type=%struct.ssdm_int.4*] [debug line = 886:185]
  %44 = getelementptr inbounds %struct.ap_int_base.3* %40, i32 0, i32 0, !dbg !9085 ; [#uses=1 type=%struct.ssdm_int.4*] [debug line = 886:185]
  %45 = getelementptr inbounds %struct.ssdm_int.4* %43, i32 0, i32 0, !dbg !9085 ; [#uses=1 type=i8*] [debug line = 886:185]
  %46 = getelementptr inbounds %struct.ssdm_int.4* %44, i32 0, i32 0, !dbg !9085 ; [#uses=1 type=i8*] [debug line = 886:185]
  %47 = load i8* %46, !dbg !9085                  ; [#uses=1 type=i8] [debug line = 886:185]
  store i8 %47, i8* %45, !dbg !9085               ; [debug line = 886:185]
  %48 = bitcast %struct.ap_int_base.3* %3 to %struct.ssdm_int.4*, !dbg !9085 ; [#uses=1 type=%struct.ssdm_int.4*] [debug line = 886:185]
  %49 = getelementptr inbounds %struct.ssdm_int.4* %48, i32 0, i32 0, !dbg !9085 ; [#uses=1 type=i8*] [debug line = 886:185]
  %50 = load i8* %49, align 1, !dbg !9085         ; [#uses=1 type=i8] [debug line = 886:185]
  store i8 %50, i8* %__Repl2__3, align 1, !dbg !9085 ; [debug line = 886:185]
  %51 = bitcast i16* %__Result__1 to i8*, !dbg !9086 ; [#uses=0 type=i8*] [debug line = 886:187]
  %52 = bitcast i16* %__Val2__2 to i8*, !dbg !9086 ; [#uses=0 type=i8*] [debug line = 886:187]
  %53 = load i32* %W_ref2, align 4, !dbg !9086    ; [#uses=1 type=i32] [debug line = 886:187]
  %54 = load i32* %W_ref1, align 4, !dbg !9086    ; [#uses=1 type=i32] [debug line = 886:187]
  %55 = load i32* %W_ref2, align 4, !dbg !9086    ; [#uses=1 type=i32] [debug line = 886:187]
  %56 = add nsw i32 %54, %55, !dbg !9086          ; [#uses=1 type=i32] [debug line = 886:187]
  %57 = sub nsw i32 %56, 1, !dbg !9086            ; [#uses=1 type=i32] [debug line = 886:187]
  %58 = load i16* %__Val2__2, !dbg !9086          ; [#uses=1 type=i16] [debug line = 886:187]
  %59 = load i8* %__Repl2__3, !dbg !9086          ; [#uses=1 type=i8] [debug line = 886:187]
  %60 = call i16 @llvm.part.set.i16.i8(i16 %58, i8 %59, i32 %53, i32 %57), !dbg !9086 ; [#uses=1 type=i16] [debug line = 886:187]
  store i16 %60, i16* %__Result__1, !dbg !9086    ; [debug line = 886:187]
  %61 = load i16* %__Result__1, align 2, !dbg !9086 ; [#uses=1 type=i16] [debug line = 886:187]
  %62 = bitcast %struct.ap_int_base.19* %agg.result to %struct.ssdm_int.20*, !dbg !9087 ; [#uses=1 type=%struct.ssdm_int.20*] [debug line = 886:0]
  %63 = getelementptr inbounds %struct.ssdm_int.20* %62, i32 0, i32 0, !dbg !9087 ; [#uses=1 type=i16*] [debug line = 886:0]
  store i16 %61, i16* %63, align 2, !dbg !9087    ; [debug line = 886:0]
  ret void, !dbg !9088                            ; [debug line = 888:9]
}

; [#uses=1]
define linkonce_odr void @_ZN11ap_int_baseILi16ELb0ELb1EEC1Ei(%struct.ap_int_base.19* %this, i32 %op) unnamed_addr nounwind uwtable inlinehint alwaysinline align 2 {
  %1 = alloca %struct.ap_int_base.19*, align 8    ; [#uses=2 type=%struct.ap_int_base.19**]
  %2 = alloca i32, align 4                        ; [#uses=2 type=i32*]
  store %struct.ap_int_base.19* %this, %struct.ap_int_base.19** %1, align 8
  call void @llvm.dbg.declare(metadata !{%struct.ap_int_base.19** %1}, metadata !9089), !dbg !9090 ; [debug line = 1465:52] [debug variable = this]
  store i32 %op, i32* %2, align 4
  call void @llvm.dbg.declare(metadata !{i32* %2}, metadata !9091), !dbg !9092 ; [debug line = 1465:68] [debug variable = op]
  %3 = load %struct.ap_int_base.19** %1           ; [#uses=1 type=%struct.ap_int_base.19*]
  %4 = load i32* %2, align 4, !dbg !9093          ; [#uses=1 type=i32] [debug line = 1465:88]
  call void @_ZN11ap_int_baseILi16ELb0ELb1EEC2Ei(%struct.ap_int_base.19* %3, i32 %4), !dbg !9093 ; [debug line = 1465:88]
  ret void, !dbg !9093                            ; [debug line = 1465:88]
}

; [#uses=2]
define linkonce_odr i32 @_ZNK11ap_int_baseILi8ELb0ELb1EE6lengthEv(%struct.ap_int_base.3* %this) nounwind uwtable inlinehint alwaysinline align 2 {
  %1 = alloca %struct.ap_int_base.3*, align 8     ; [#uses=2 type=%struct.ap_int_base.3**]
  store %struct.ap_int_base.3* %this, %struct.ap_int_base.3** %1, align 8
  call void @llvm.dbg.declare(metadata !{%struct.ap_int_base.3** %1}, metadata !9094), !dbg !9096 ; [debug line = 1684:44] [debug variable = this]
  %2 = load %struct.ap_int_base.3** %1            ; [#uses=0 type=%struct.ap_int_base.3*]
  ret i32 8, !dbg !9097                           ; [debug line = 1684:61]
}

; [#uses=2]
declare i16 @llvm.part.set.i16.i8(i16, i8, i32, i32) nounwind readnone

; [#uses=1]
define linkonce_odr void @_ZN11ap_int_baseILi16ELb0ELb1EEC2Ei(%struct.ap_int_base.19* %this, i32 %op) unnamed_addr nounwind uwtable inlinehint alwaysinline align 2 {
  %1 = alloca %struct.ap_int_base.19*, align 8    ; [#uses=2 type=%struct.ap_int_base.19**]
  %2 = alloca i32, align 4                        ; [#uses=2 type=i32*]
  store %struct.ap_int_base.19* %this, %struct.ap_int_base.19** %1, align 8
  call void @llvm.dbg.declare(metadata !{%struct.ap_int_base.19** %1}, metadata !9099), !dbg !9100 ; [debug line = 1465:52] [debug variable = this]
  store i32 %op, i32* %2, align 4
  call void @llvm.dbg.declare(metadata !{i32* %2}, metadata !9101), !dbg !9102 ; [debug line = 1465:68] [debug variable = op]
  %3 = load %struct.ap_int_base.19** %1           ; [#uses=2 type=%struct.ap_int_base.19*]
  %4 = bitcast %struct.ap_int_base.19* %3 to %struct.ssdm_int.20*, !dbg !9103 ; [#uses=1 type=%struct.ssdm_int.20*] [debug line = 1465:72]
  call void @_ZN8ssdm_intILi16ELb0EEC2Ev(%struct.ssdm_int.20* %4), !dbg !9103 ; [debug line = 1465:72]
  %5 = load i32* %2, align 4, !dbg !9104          ; [#uses=1 type=i32] [debug line = 1465:74]
  %6 = trunc i32 %5 to i16, !dbg !9104            ; [#uses=1 type=i16] [debug line = 1465:74]
  %7 = bitcast %struct.ap_int_base.19* %3 to %struct.ssdm_int.20*, !dbg !9104 ; [#uses=1 type=%struct.ssdm_int.20*] [debug line = 1465:74]
  %8 = getelementptr inbounds %struct.ssdm_int.20* %7, i32 0, i32 0, !dbg !9104 ; [#uses=1 type=i16*] [debug line = 1465:74]
  store i16 %6, i16* %8, align 2, !dbg !9104      ; [debug line = 1465:74]
  ret void, !dbg !9106                            ; [debug line = 1465:88]
}

; [#uses=1]
define linkonce_odr void @_ZN13ap_concat_refILi8E11ap_int_baseILi8ELb0ELb1EELi8ES1_EC1ERS1_S3_(%struct.ap_concat_ref.25* %this, %struct.ap_int_base.3* %bv1, %struct.ap_int_base.3* %bv2) unnamed_addr nounwind uwtable inlinehint alwaysinline align 2 {
  %1 = alloca %struct.ap_concat_ref.25*, align 8  ; [#uses=2 type=%struct.ap_concat_ref.25**]
  %2 = alloca %struct.ap_int_base.3*, align 8     ; [#uses=2 type=%struct.ap_int_base.3**]
  %3 = alloca %struct.ap_int_base.3*, align 8     ; [#uses=2 type=%struct.ap_int_base.3**]
  store %struct.ap_concat_ref.25* %this, %struct.ap_concat_ref.25** %1, align 8
  call void @llvm.dbg.declare(metadata !{%struct.ap_concat_ref.25** %1}, metadata !9107), !dbg !9109 ; [debug line = 696:43] [debug variable = this]
  store %struct.ap_int_base.3* %bv1, %struct.ap_int_base.3** %2, align 8
  call void @llvm.dbg.declare(metadata !{%struct.ap_int_base.3** %2}, metadata !9110), !dbg !9111 ; [debug line = 696:66] [debug variable = bv1]
  store %struct.ap_int_base.3* %bv2, %struct.ap_int_base.3** %3, align 8
  call void @llvm.dbg.declare(metadata !{%struct.ap_int_base.3** %3}, metadata !9112), !dbg !9113 ; [debug line = 696:79] [debug variable = bv2]
  %4 = load %struct.ap_concat_ref.25** %1         ; [#uses=1 type=%struct.ap_concat_ref.25*]
  %5 = load %struct.ap_int_base.3** %2, !dbg !9114 ; [#uses=1 type=%struct.ap_int_base.3*] [debug line = 696:109]
  %6 = load %struct.ap_int_base.3** %3, !dbg !9114 ; [#uses=1 type=%struct.ap_int_base.3*] [debug line = 696:109]
  call void @_ZN13ap_concat_refILi8E11ap_int_baseILi8ELb0ELb1EELi8ES1_EC2ERS1_S3_(%struct.ap_concat_ref.25* %4, %struct.ap_int_base.3* %5, %struct.ap_int_base.3* %6), !dbg !9114 ; [debug line = 696:109]
  ret void, !dbg !9114                            ; [debug line = 696:109]
}

; [#uses=1]
define linkonce_odr void @_ZN13ap_concat_refILi8E11ap_int_baseILi8ELb0ELb1EELi8ES1_EC2ERS1_S3_(%struct.ap_concat_ref.25* %this, %struct.ap_int_base.3* %bv1, %struct.ap_int_base.3* %bv2) unnamed_addr nounwind uwtable inlinehint alwaysinline align 2 {
  %1 = alloca %struct.ap_concat_ref.25*, align 8  ; [#uses=2 type=%struct.ap_concat_ref.25**]
  %2 = alloca %struct.ap_int_base.3*, align 8     ; [#uses=2 type=%struct.ap_int_base.3**]
  %3 = alloca %struct.ap_int_base.3*, align 8     ; [#uses=2 type=%struct.ap_int_base.3**]
  store %struct.ap_concat_ref.25* %this, %struct.ap_concat_ref.25** %1, align 8
  call void @llvm.dbg.declare(metadata !{%struct.ap_concat_ref.25** %1}, metadata !9115), !dbg !9116 ; [debug line = 696:43] [debug variable = this]
  store %struct.ap_int_base.3* %bv1, %struct.ap_int_base.3** %2, align 8
  call void @llvm.dbg.declare(metadata !{%struct.ap_int_base.3** %2}, metadata !9117), !dbg !9118 ; [debug line = 696:66] [debug variable = bv1]
  store %struct.ap_int_base.3* %bv2, %struct.ap_int_base.3** %3, align 8
  call void @llvm.dbg.declare(metadata !{%struct.ap_int_base.3** %3}, metadata !9119), !dbg !9120 ; [debug line = 696:79] [debug variable = bv2]
  %4 = load %struct.ap_concat_ref.25** %1         ; [#uses=2 type=%struct.ap_concat_ref.25*]
  %5 = getelementptr inbounds %struct.ap_concat_ref.25* %4, i32 0, i32 0, !dbg !9121 ; [#uses=1 type=%struct.ap_int_base.3**] [debug line = 696:107]
  %6 = load %struct.ap_int_base.3** %2, align 8, !dbg !9121 ; [#uses=1 type=%struct.ap_int_base.3*] [debug line = 696:107]
  store %struct.ap_int_base.3* %6, %struct.ap_int_base.3** %5, align 8, !dbg !9121 ; [debug line = 696:107]
  %7 = getelementptr inbounds %struct.ap_concat_ref.25* %4, i32 0, i32 1, !dbg !9121 ; [#uses=1 type=%struct.ap_int_base.3**] [debug line = 696:107]
  %8 = load %struct.ap_int_base.3** %3, align 8, !dbg !9121 ; [#uses=1 type=%struct.ap_int_base.3*] [debug line = 696:107]
  store %struct.ap_int_base.3* %8, %struct.ap_int_base.3** %7, align 8, !dbg !9121 ; [debug line = 696:107]
  ret void, !dbg !9122                            ; [debug line = 696:109]
}

; [#uses=1]
declare void @_ssdm_StreamRead(...) nounwind

; [#uses=1]
define linkonce_odr void @_ZN7ap_uintILi8EEC2Ei(%struct.ap_uint.2* %this, i32 %val) unnamed_addr nounwind uwtable inlinehint alwaysinline align 2 {
  %1 = alloca %struct.ap_uint.2*, align 8         ; [#uses=2 type=%struct.ap_uint.2**]
  %2 = alloca i32, align 4                        ; [#uses=2 type=i32*]
  store %struct.ap_uint.2* %this, %struct.ap_uint.2** %1, align 8
  call void @llvm.dbg.declare(metadata !{%struct.ap_uint.2** %1}, metadata !9124), !dbg !9125 ; [debug line = 250:43] [debug variable = this]
  store i32 %val, i32* %2, align 4
  call void @llvm.dbg.declare(metadata !{i32* %2}, metadata !9126), !dbg !9127 ; [debug line = 250:55] [debug variable = val]
  %3 = load %struct.ap_uint.2** %1                ; [#uses=2 type=%struct.ap_uint.2*]
  %4 = bitcast %struct.ap_uint.2* %3 to %struct.ap_int_base.3*, !dbg !9128 ; [#uses=1 type=%struct.ap_int_base.3*] [debug line = 250:60]
  call void @_ZN11ap_int_baseILi8ELb0ELb1EEC2Ev(%struct.ap_int_base.3* %4), !dbg !9128 ; [debug line = 250:60]
  %5 = load i32* %2, align 4, !dbg !9129          ; [#uses=1 type=i32] [debug line = 250:62]
  %6 = trunc i32 %5 to i8, !dbg !9129             ; [#uses=1 type=i8] [debug line = 250:62]
  %7 = bitcast %struct.ap_uint.2* %3 to %struct.ap_int_base.3*, !dbg !9129 ; [#uses=1 type=%struct.ap_int_base.3*] [debug line = 250:62]
  %8 = bitcast %struct.ap_int_base.3* %7 to %struct.ssdm_int.4*, !dbg !9129 ; [#uses=1 type=%struct.ssdm_int.4*] [debug line = 250:62]
  %9 = getelementptr inbounds %struct.ssdm_int.4* %8, i32 0, i32 0, !dbg !9129 ; [#uses=1 type=i8*] [debug line = 250:62]
  store i8 %6, i8* %9, align 1, !dbg !9129        ; [debug line = 250:62]
  ret void, !dbg !9131                            ; [debug line = 250:77]
}

; [#uses=2]
define linkonce_odr void @_ZN11ap_int_baseILi8ELb0ELb1EEC2Ev(%struct.ap_int_base.3* %this) unnamed_addr nounwind uwtable inlinehint alwaysinline align 2 {
  %1 = alloca %struct.ap_int_base.3*, align 8     ; [#uses=2 type=%struct.ap_int_base.3**]
  store %struct.ap_int_base.3* %this, %struct.ap_int_base.3** %1, align 8
  call void @llvm.dbg.declare(metadata !{%struct.ap_int_base.3** %1}, metadata !9132), !dbg !9133 ; [debug line = 1438:42] [debug variable = this]
  %2 = load %struct.ap_int_base.3** %1            ; [#uses=1 type=%struct.ap_int_base.3*]
  %3 = bitcast %struct.ap_int_base.3* %2 to %struct.ssdm_int.4*, !dbg !9134 ; [#uses=1 type=%struct.ssdm_int.4*] [debug line = 1438:56]
  call void @_ZN8ssdm_intILi8ELb0EEC2Ev(%struct.ssdm_int.4* %3), !dbg !9134 ; [debug line = 1438:56]
  ret void, !dbg !9135                            ; [debug line = 1444:4]
}

; [#uses=1]
define linkonce_odr void @_ZN8ssdm_intILi8ELb0EEC2Ev(%struct.ssdm_int.4* %this) unnamed_addr nounwind uwtable inlinehint alwaysinline align 2 {
  %1 = alloca %struct.ssdm_int.4*, align 8        ; [#uses=2 type=%struct.ssdm_int.4**]
  store %struct.ssdm_int.4* %this, %struct.ssdm_int.4** %1, align 8
  call void @llvm.dbg.declare(metadata !{%struct.ssdm_int.4** %1}, metadata !9137), !dbg !9139 ; [debug line = 10:0] [debug variable = this]
  %2 = load %struct.ssdm_int.4** %1               ; [#uses=0 type=%struct.ssdm_int.4*]
  ret void, !dbg !9140                            ; [debug line = 10:0]
}

; [#uses=1]
define linkonce_odr void @_ZN7ap_uintILi16EEC2Ev(%struct.ap_int.18* %this) unnamed_addr nounwind uwtable inlinehint alwaysinline align 2 {
  %1 = alloca %struct.ap_int.18*, align 8         ; [#uses=2 type=%struct.ap_int.18**]
  store %struct.ap_int.18* %this, %struct.ap_int.18** %1, align 8
  call void @llvm.dbg.declare(metadata !{%struct.ap_int.18** %1}, metadata !9142), !dbg !9143 ; [debug line = 183:43] [debug variable = this]
  %2 = load %struct.ap_int.18** %1                ; [#uses=1 type=%struct.ap_int.18*]
  %3 = bitcast %struct.ap_int.18* %2 to %struct.ap_int_base.19*, !dbg !9144 ; [#uses=1 type=%struct.ap_int_base.19*] [debug line = 183:61]
  call void @_ZN11ap_int_baseILi16ELb0ELb1EEC2Ev(%struct.ap_int_base.19* %3), !dbg !9144 ; [debug line = 183:61]
  ret void, !dbg !9145                            ; [debug line = 183:62]
}

; [#uses=1]
define linkonce_odr void @_ZN11ap_int_baseILi16ELb0ELb1EEC2Ev(%struct.ap_int_base.19* %this) unnamed_addr nounwind uwtable inlinehint alwaysinline align 2 {
  %1 = alloca %struct.ap_int_base.19*, align 8    ; [#uses=2 type=%struct.ap_int_base.19**]
  store %struct.ap_int_base.19* %this, %struct.ap_int_base.19** %1, align 8
  call void @llvm.dbg.declare(metadata !{%struct.ap_int_base.19** %1}, metadata !9147), !dbg !9148 ; [debug line = 1438:42] [debug variable = this]
  %2 = load %struct.ap_int_base.19** %1           ; [#uses=1 type=%struct.ap_int_base.19*]
  %3 = bitcast %struct.ap_int_base.19* %2 to %struct.ssdm_int.20*, !dbg !9149 ; [#uses=1 type=%struct.ssdm_int.20*] [debug line = 1438:56]
  call void @_ZN8ssdm_intILi16ELb0EEC2Ev(%struct.ssdm_int.20* %3), !dbg !9149 ; [debug line = 1438:56]
  ret void, !dbg !9150                            ; [debug line = 1444:4]
}

; [#uses=1]
define linkonce_odr void @_ZN6ap_intILi48EEC2ILi32E11ap_int_baseILi32ELb1ELb1EELi16ES2_ILi16ELb1ELb1EEEERK13ap_concat_refIXT_ET0_XT1_ET2_E(%struct.ap_int.5* %this, %struct.ap_concat_ref.21* %ref) unnamed_addr nounwind uwtable inlinehint alwaysinline align 2 {
  %1 = alloca %struct.ap_int.5*, align 8          ; [#uses=2 type=%struct.ap_int.5**]
  %2 = alloca %struct.ap_concat_ref.21*, align 8  ; [#uses=2 type=%struct.ap_concat_ref.21**]
  store %struct.ap_int.5* %this, %struct.ap_int.5** %1, align 8
  call void @llvm.dbg.declare(metadata !{%struct.ap_int.5** %1}, metadata !9152), !dbg !9153 ; [debug line = 96:43] [debug variable = this]
  store %struct.ap_concat_ref.21* %ref, %struct.ap_concat_ref.21** %2, align 8
  call void @llvm.dbg.declare(metadata !{%struct.ap_concat_ref.21** %2}, metadata !9154), !dbg !9155 ; [debug line = 96:103] [debug variable = ref]
  %3 = load %struct.ap_int.5** %1                 ; [#uses=1 type=%struct.ap_int.5*]
  %4 = bitcast %struct.ap_int.5* %3 to %struct.ap_int_base.6*, !dbg !9156 ; [#uses=1 type=%struct.ap_int_base.6*] [debug line = 96:118]
  %5 = load %struct.ap_concat_ref.21** %2, align 8, !dbg !9156 ; [#uses=1 type=%struct.ap_concat_ref.21*] [debug line = 96:118]
  call void @_ZN11ap_int_baseILi48ELb1ELb1EEC2ILi32ES_ILi32ELb1ELb1EELi16ES_ILi16ELb1ELb1EEEERK13ap_concat_refIXT_ET0_XT1_ET2_E(%struct.ap_int_base.6* %4, %struct.ap_concat_ref.21* %5), !dbg !9156 ; [debug line = 96:118]
  ret void, !dbg !9157                            ; [debug line = 96:119]
}

; [#uses=1]
define linkonce_odr void @_ZN11ap_int_baseILi48ELb1ELb1EEC2ILi32ES_ILi32ELb1ELb1EELi16ES_ILi16ELb1ELb1EEEERK13ap_concat_refIXT_ET0_XT1_ET2_E(%struct.ap_int_base.6* %this, %struct.ap_concat_ref.21* %ref) unnamed_addr nounwind uwtable inlinehint alwaysinline align 2 {
  %1 = alloca %struct.ap_int_base.6*, align 8     ; [#uses=2 type=%struct.ap_int_base.6**]
  %2 = alloca %struct.ap_concat_ref.21*, align 8  ; [#uses=2 type=%struct.ap_concat_ref.21**]
  %tmp = alloca %struct.ap_int_base.6, align 8    ; [#uses=2 type=%struct.ap_int_base.6*]
  store %struct.ap_int_base.6* %this, %struct.ap_int_base.6** %1, align 8
  call void @llvm.dbg.declare(metadata !{%struct.ap_int_base.6** %1}, metadata !9159), !dbg !9160 ; [debug line = 1490:43] [debug variable = this]
  store %struct.ap_concat_ref.21* %ref, %struct.ap_concat_ref.21** %2, align 8
  call void @llvm.dbg.declare(metadata !{%struct.ap_concat_ref.21** %2}, metadata !9161), !dbg !9162 ; [debug line = 1490:105] [debug variable = ref]
  %3 = load %struct.ap_int_base.6** %1            ; [#uses=2 type=%struct.ap_int_base.6*]
  %4 = bitcast %struct.ap_int_base.6* %3 to %struct.ssdm_int.7*, !dbg !9163 ; [#uses=1 type=%struct.ssdm_int.7*] [debug line = 1490:110]
  call void @_ZN8ssdm_intILi48ELb1EEC2Ev(%struct.ssdm_int.7* %4), !dbg !9163 ; [debug line = 1490:110]
  call void @llvm.dbg.declare(metadata !{%struct.ap_int_base.6* %tmp}, metadata !9164), !dbg !9166 ; [debug line = 1491:85] [debug variable = tmp]
  %5 = load %struct.ap_concat_ref.21** %2, align 8, !dbg !9167 ; [#uses=1 type=%struct.ap_concat_ref.21*] [debug line = 1491:91]
  call void @_ZNK13ap_concat_refILi32E11ap_int_baseILi32ELb1ELb1EELi16ES0_ILi16ELb1ELb1EEE3getEv(%struct.ap_int_base.6* sret %tmp, %struct.ap_concat_ref.21* %5), !dbg !9167 ; [debug line = 1491:91]
  %6 = bitcast %struct.ap_int_base.6* %tmp to %struct.ssdm_int.7*, !dbg !9168 ; [#uses=1 type=%struct.ssdm_int.7*] [debug line = 1492:9]
  %7 = getelementptr inbounds %struct.ssdm_int.7* %6, i32 0, i32 0, !dbg !9168 ; [#uses=1 type=i48*] [debug line = 1492:9]
  %8 = load i48* %7, align 8, !dbg !9168          ; [#uses=1 type=i48] [debug line = 1492:9]
  %9 = bitcast %struct.ap_int_base.6* %3 to %struct.ssdm_int.7*, !dbg !9168 ; [#uses=1 type=%struct.ssdm_int.7*] [debug line = 1492:9]
  %10 = getelementptr inbounds %struct.ssdm_int.7* %9, i32 0, i32 0, !dbg !9168 ; [#uses=1 type=i48*] [debug line = 1492:9]
  store i48 %8, i48* %10, align 8, !dbg !9168     ; [debug line = 1492:9]
  ret void, !dbg !9169                            ; [debug line = 1493:5]
}

; [#uses=1]
define linkonce_odr void @_ZN8ssdm_intILi48ELb1EEC2Ev(%struct.ssdm_int.7* %this) unnamed_addr nounwind uwtable inlinehint alwaysinline align 2 {
  %1 = alloca %struct.ssdm_int.7*, align 8        ; [#uses=2 type=%struct.ssdm_int.7**]
  store %struct.ssdm_int.7* %this, %struct.ssdm_int.7** %1, align 8
  call void @llvm.dbg.declare(metadata !{%struct.ssdm_int.7** %1}, metadata !9170), !dbg !9172 ; [debug line = 50:137] [debug variable = this]
  %2 = load %struct.ssdm_int.7** %1               ; [#uses=0 type=%struct.ssdm_int.7*]
  ret void, !dbg !9173                            ; [debug line = 50:171]
}

; [#uses=1]
define linkonce_odr void @_ZNK13ap_concat_refILi32E11ap_int_baseILi32ELb1ELb1EELi16ES0_ILi16ELb1ELb1EEE3getEv(%struct.ap_int_base.6* noalias sret %agg.result, %struct.ap_concat_ref.21* %this) nounwind uwtable inlinehint alwaysinline align 2 {
  %1 = alloca %struct.ap_concat_ref.21*, align 8  ; [#uses=2 type=%struct.ap_concat_ref.21**]
  %W_ref1 = alloca i32, align 4                   ; [#uses=2 type=i32*]
  %W_ref2 = alloca i32, align 4                   ; [#uses=4 type=i32*]
  %__Result__ = alloca i48, align 8               ; [#uses=4 type=i48*]
  %__Val2__ = alloca i48, align 8                 ; [#uses=3 type=i48*]
  %__Repl2__ = alloca i16, align 2                ; [#uses=3 type=i16*]
  %2 = alloca %struct.ap_int_base.19, align 2     ; [#uses=2 type=%struct.ap_int_base.19*]
  %__Result__1 = alloca i48, align 8              ; [#uses=4 type=i48*]
  %__Val2__2 = alloca i48, align 8                ; [#uses=3 type=i48*]
  %__Repl2__3 = alloca i32, align 4               ; [#uses=3 type=i32*]
  %3 = alloca %struct.ap_int_base.16, align 4     ; [#uses=2 type=%struct.ap_int_base.16*]
  store %struct.ap_concat_ref.21* %this, %struct.ap_concat_ref.21** %1, align 8
  call void @llvm.dbg.declare(metadata !{%struct.ap_concat_ref.21** %1}, metadata !9175), !dbg !9177 ; [debug line = 880:66] [debug variable = this]
  %4 = load %struct.ap_concat_ref.21** %1         ; [#uses=4 type=%struct.ap_concat_ref.21*]
  call void @llvm.dbg.declare(metadata !{%struct.ap_int_base.6* %agg.result}, metadata !9178), !dbg !9180 ; [debug line = 881:35] [debug variable = tmpVal]
  call void @_ZN11ap_int_baseILi48ELb0ELb1EEC1Ei(%struct.ap_int_base.6* %agg.result, i32 0), !dbg !9181 ; [debug line = 881:44]
  call void @llvm.dbg.declare(metadata !{i32* %W_ref1}, metadata !9182), !dbg !9183 ; [debug line = 882:13] [debug variable = W_ref1]
  %5 = getelementptr inbounds %struct.ap_concat_ref.21* %4, i32 0, i32 0, !dbg !9184 ; [#uses=1 type=%struct.ap_int_base.16**] [debug line = 882:22]
  %6 = load %struct.ap_int_base.16** %5, align 8, !dbg !9184 ; [#uses=1 type=%struct.ap_int_base.16*] [debug line = 882:22]
  %7 = call i32 @_ZNK11ap_int_baseILi32ELb1ELb1EE6lengthEv(%struct.ap_int_base.16* %6), !dbg !9184 ; [#uses=1 type=i32] [debug line = 882:22]
  store i32 %7, i32* %W_ref1, align 4, !dbg !9184 ; [debug line = 882:22]
  call void @llvm.dbg.declare(metadata !{i32* %W_ref2}, metadata !9185), !dbg !9186 ; [debug line = 883:13] [debug variable = W_ref2]
  %8 = getelementptr inbounds %struct.ap_concat_ref.21* %4, i32 0, i32 1, !dbg !9187 ; [#uses=1 type=%struct.ap_int_base.19**] [debug line = 883:22]
  %9 = load %struct.ap_int_base.19** %8, align 8, !dbg !9187 ; [#uses=1 type=%struct.ap_int_base.19*] [debug line = 883:22]
  %10 = call i32 @_ZNK11ap_int_baseILi16ELb1ELb1EE6lengthEv(%struct.ap_int_base.19* %9), !dbg !9187 ; [#uses=1 type=i32] [debug line = 883:22]
  store i32 %10, i32* %W_ref2, align 4, !dbg !9187 ; [debug line = 883:22]
  call void @llvm.dbg.declare(metadata !{i48* %__Result__}, metadata !9188), !dbg !9190 ; [debug line = 884:40] [debug variable = __Result__]
  store i48 0, i48* %__Result__, align 8, !dbg !9191 ; [debug line = 884:54]
  call void @llvm.dbg.declare(metadata !{i48* %__Val2__}, metadata !9192), !dbg !9193 ; [debug line = 884:73] [debug variable = __Val2__]
  %11 = bitcast %struct.ap_int_base.6* %agg.result to %struct.ssdm_int.7*, !dbg !9194 ; [#uses=1 type=%struct.ssdm_int.7*] [debug line = 884:92]
  %12 = getelementptr inbounds %struct.ssdm_int.7* %11, i32 0, i32 0, !dbg !9194 ; [#uses=1 type=i48*] [debug line = 884:92]
  %13 = load i48* %12, align 8, !dbg !9194        ; [#uses=1 type=i48] [debug line = 884:92]
  store i48 %13, i48* %__Val2__, align 8, !dbg !9194 ; [debug line = 884:92]
  call void @llvm.dbg.declare(metadata !{i16* %__Repl2__}, metadata !9195), !dbg !9196 ; [debug line = 884:138] [debug variable = __Repl2__]
  %14 = getelementptr inbounds %struct.ap_concat_ref.21* %4, i32 0, i32 1, !dbg !9197 ; [#uses=1 type=%struct.ap_int_base.19**] [debug line = 884:185]
  %15 = load %struct.ap_int_base.19** %14, align 8, !dbg !9197 ; [#uses=1 type=%struct.ap_int_base.19*] [debug line = 884:185]
  call void @_ZN11ap_int_baseILi16ELb0ELb1EEC1ILi16ELb1EEERKS_IXT_EXT0_EXleT_Li64EEE(%struct.ap_int_base.19* %2, %struct.ap_int_base.19* %15), !dbg !9197 ; [debug line = 884:185]
  %16 = bitcast %struct.ap_int_base.19* %2 to %struct.ssdm_int.20*, !dbg !9197 ; [#uses=1 type=%struct.ssdm_int.20*] [debug line = 884:185]
  %17 = getelementptr inbounds %struct.ssdm_int.20* %16, i32 0, i32 0, !dbg !9197 ; [#uses=1 type=i16*] [debug line = 884:185]
  %18 = load i16* %17, align 2, !dbg !9197        ; [#uses=1 type=i16] [debug line = 884:185]
  store i16 %18, i16* %__Repl2__, align 2, !dbg !9197 ; [debug line = 884:185]
  %19 = bitcast i48* %__Result__ to i8*, !dbg !9198 ; [#uses=0 type=i8*] [debug line = 884:187]
  %20 = bitcast i48* %__Val2__ to i8*, !dbg !9198 ; [#uses=0 type=i8*] [debug line = 884:187]
  %21 = bitcast i16* %__Repl2__ to i8*, !dbg !9198 ; [#uses=0 type=i8*] [debug line = 884:187]
  %22 = load i32* %W_ref2, align 4, !dbg !9198    ; [#uses=1 type=i32] [debug line = 884:187]
  %23 = sub nsw i32 %22, 1, !dbg !9198            ; [#uses=1 type=i32] [debug line = 884:187]
  %24 = load i48* %__Val2__, !dbg !9198           ; [#uses=1 type=i48] [debug line = 884:187]
  %25 = load i16* %__Repl2__, !dbg !9198          ; [#uses=1 type=i16] [debug line = 884:187]
  %26 = call i48 @llvm.part.set.i48.i16(i48 %24, i16 %25, i32 0, i32 %23), !dbg !9198 ; [#uses=1 type=i48] [debug line = 884:187]
  store i48 %26, i48* %__Result__, !dbg !9198     ; [debug line = 884:187]
  %27 = load i48* %__Result__, align 8, !dbg !9198 ; [#uses=1 type=i48] [debug line = 884:187]
  %28 = bitcast %struct.ap_int_base.6* %agg.result to %struct.ssdm_int.7*, !dbg !9199 ; [#uses=1 type=%struct.ssdm_int.7*] [debug line = 884:0]
  %29 = getelementptr inbounds %struct.ssdm_int.7* %28, i32 0, i32 0, !dbg !9199 ; [#uses=1 type=i48*] [debug line = 884:0]
  store i48 %27, i48* %29, align 8, !dbg !9199    ; [debug line = 884:0]
  call void @llvm.dbg.declare(metadata !{i48* %__Result__1}, metadata !9200), !dbg !9202 ; [debug line = 886:40] [debug variable = __Result__]
  store i48 0, i48* %__Result__1, align 8, !dbg !9203 ; [debug line = 886:54]
  call void @llvm.dbg.declare(metadata !{i48* %__Val2__2}, metadata !9204), !dbg !9205 ; [debug line = 886:73] [debug variable = __Val2__]
  %30 = bitcast %struct.ap_int_base.6* %agg.result to %struct.ssdm_int.7*, !dbg !9206 ; [#uses=1 type=%struct.ssdm_int.7*] [debug line = 886:92]
  %31 = getelementptr inbounds %struct.ssdm_int.7* %30, i32 0, i32 0, !dbg !9206 ; [#uses=1 type=i48*] [debug line = 886:92]
  %32 = load i48* %31, align 8, !dbg !9206        ; [#uses=1 type=i48] [debug line = 886:92]
  store i48 %32, i48* %__Val2__2, align 8, !dbg !9206 ; [debug line = 886:92]
  call void @llvm.dbg.declare(metadata !{i32* %__Repl2__3}, metadata !9207), !dbg !9208 ; [debug line = 886:138] [debug variable = __Repl2__]
  %33 = getelementptr inbounds %struct.ap_concat_ref.21* %4, i32 0, i32 0, !dbg !9209 ; [#uses=1 type=%struct.ap_int_base.16**] [debug line = 886:185]
  %34 = load %struct.ap_int_base.16** %33, align 8, !dbg !9209 ; [#uses=1 type=%struct.ap_int_base.16*] [debug line = 886:185]
  call void @_ZN11ap_int_baseILi32ELb0ELb1EEC1ILi32ELb1EEERKS_IXT_EXT0_EXleT_Li64EEE(%struct.ap_int_base.16* %3, %struct.ap_int_base.16* %34), !dbg !9209 ; [debug line = 886:185]
  %35 = bitcast %struct.ap_int_base.16* %3 to %struct.ssdm_int.17*, !dbg !9209 ; [#uses=1 type=%struct.ssdm_int.17*] [debug line = 886:185]
  %36 = getelementptr inbounds %struct.ssdm_int.17* %35, i32 0, i32 0, !dbg !9209 ; [#uses=1 type=i32*] [debug line = 886:185]
  %37 = load i32* %36, align 4, !dbg !9209        ; [#uses=1 type=i32] [debug line = 886:185]
  store i32 %37, i32* %__Repl2__3, align 4, !dbg !9209 ; [debug line = 886:185]
  %38 = bitcast i48* %__Result__1 to i8*, !dbg !9210 ; [#uses=0 type=i8*] [debug line = 886:187]
  %39 = bitcast i48* %__Val2__2 to i8*, !dbg !9210 ; [#uses=0 type=i8*] [debug line = 886:187]
  %40 = bitcast i32* %__Repl2__3 to i8*, !dbg !9210 ; [#uses=0 type=i8*] [debug line = 886:187]
  %41 = load i32* %W_ref2, align 4, !dbg !9210    ; [#uses=1 type=i32] [debug line = 886:187]
  %42 = load i32* %W_ref1, align 4, !dbg !9210    ; [#uses=1 type=i32] [debug line = 886:187]
  %43 = load i32* %W_ref2, align 4, !dbg !9210    ; [#uses=1 type=i32] [debug line = 886:187]
  %44 = add nsw i32 %42, %43, !dbg !9210          ; [#uses=1 type=i32] [debug line = 886:187]
  %45 = sub nsw i32 %44, 1, !dbg !9210            ; [#uses=1 type=i32] [debug line = 886:187]
  %46 = load i48* %__Val2__2, !dbg !9210          ; [#uses=1 type=i48] [debug line = 886:187]
  %47 = load i32* %__Repl2__3, !dbg !9210         ; [#uses=1 type=i32] [debug line = 886:187]
  %48 = call i48 @llvm.part.set.i48.i32(i48 %46, i32 %47, i32 %41, i32 %45), !dbg !9210 ; [#uses=1 type=i48] [debug line = 886:187]
  store i48 %48, i48* %__Result__1, !dbg !9210    ; [debug line = 886:187]
  %49 = load i48* %__Result__1, align 8, !dbg !9210 ; [#uses=1 type=i48] [debug line = 886:187]
  %50 = bitcast %struct.ap_int_base.6* %agg.result to %struct.ssdm_int.7*, !dbg !9211 ; [#uses=1 type=%struct.ssdm_int.7*] [debug line = 886:0]
  %51 = getelementptr inbounds %struct.ssdm_int.7* %50, i32 0, i32 0, !dbg !9211 ; [#uses=1 type=i48*] [debug line = 886:0]
  store i48 %49, i48* %51, align 8, !dbg !9211    ; [debug line = 886:0]
  ret void, !dbg !9212                            ; [debug line = 888:9]
}

; [#uses=1]
define linkonce_odr void @_ZN11ap_int_baseILi48ELb0ELb1EEC1Ei(%struct.ap_int_base.6* %this, i32 %op) unnamed_addr nounwind uwtable inlinehint alwaysinline align 2 {
  %1 = alloca %struct.ap_int_base.6*, align 8     ; [#uses=2 type=%struct.ap_int_base.6**]
  %2 = alloca i32, align 4                        ; [#uses=2 type=i32*]
  store %struct.ap_int_base.6* %this, %struct.ap_int_base.6** %1, align 8
  call void @llvm.dbg.declare(metadata !{%struct.ap_int_base.6** %1}, metadata !9213), !dbg !9214 ; [debug line = 1465:52] [debug variable = this]
  store i32 %op, i32* %2, align 4
  call void @llvm.dbg.declare(metadata !{i32* %2}, metadata !9215), !dbg !9216 ; [debug line = 1465:68] [debug variable = op]
  %3 = load %struct.ap_int_base.6** %1            ; [#uses=1 type=%struct.ap_int_base.6*]
  %4 = load i32* %2, align 4, !dbg !9217          ; [#uses=1 type=i32] [debug line = 1465:88]
  call void @_ZN11ap_int_baseILi48ELb0ELb1EEC2Ei(%struct.ap_int_base.6* %3, i32 %4), !dbg !9217 ; [debug line = 1465:88]
  ret void, !dbg !9217                            ; [debug line = 1465:88]
}

; [#uses=1]
define linkonce_odr i32 @_ZNK11ap_int_baseILi32ELb1ELb1EE6lengthEv(%struct.ap_int_base.16* %this) nounwind uwtable inlinehint alwaysinline align 2 {
  %1 = alloca %struct.ap_int_base.16*, align 8    ; [#uses=2 type=%struct.ap_int_base.16**]
  store %struct.ap_int_base.16* %this, %struct.ap_int_base.16** %1, align 8
  call void @llvm.dbg.declare(metadata !{%struct.ap_int_base.16** %1}, metadata !9218), !dbg !9220 ; [debug line = 1684:44] [debug variable = this]
  %2 = load %struct.ap_int_base.16** %1           ; [#uses=0 type=%struct.ap_int_base.16*]
  ret i32 32, !dbg !9221                          ; [debug line = 1684:61]
}

; [#uses=1]
define linkonce_odr i32 @_ZNK11ap_int_baseILi16ELb1ELb1EE6lengthEv(%struct.ap_int_base.19* %this) nounwind uwtable inlinehint alwaysinline align 2 {
  %1 = alloca %struct.ap_int_base.19*, align 8    ; [#uses=2 type=%struct.ap_int_base.19**]
  store %struct.ap_int_base.19* %this, %struct.ap_int_base.19** %1, align 8
  call void @llvm.dbg.declare(metadata !{%struct.ap_int_base.19** %1}, metadata !9223), !dbg !9225 ; [debug line = 1684:44] [debug variable = this]
  %2 = load %struct.ap_int_base.19** %1           ; [#uses=0 type=%struct.ap_int_base.19*]
  ret i32 16, !dbg !9226                          ; [debug line = 1684:61]
}

; [#uses=1]
define linkonce_odr void @_ZN11ap_int_baseILi16ELb0ELb1EEC1ILi16ELb1EEERKS_IXT_EXT0_EXleT_Li64EEE(%struct.ap_int_base.19* %this, %struct.ap_int_base.19* %op) unnamed_addr nounwind uwtable inlinehint alwaysinline align 2 {
  %1 = alloca %struct.ap_int_base.19*, align 8    ; [#uses=2 type=%struct.ap_int_base.19**]
  %2 = alloca %struct.ap_int_base.19*, align 8    ; [#uses=2 type=%struct.ap_int_base.19**]
  store %struct.ap_int_base.19* %this, %struct.ap_int_base.19** %1, align 8
  call void @llvm.dbg.declare(metadata !{%struct.ap_int_base.19** %1}, metadata !9228), !dbg !9229 ; [debug line = 1450:43] [debug variable = this]
  store %struct.ap_int_base.19* %op, %struct.ap_int_base.19** %2, align 8
  call void @llvm.dbg.declare(metadata !{%struct.ap_int_base.19** %2}, metadata !9230), !dbg !9231 ; [debug line = 1450:89] [debug variable = op]
  %3 = load %struct.ap_int_base.19** %1           ; [#uses=1 type=%struct.ap_int_base.19*]
  %4 = load %struct.ap_int_base.19** %2, !dbg !9232 ; [#uses=1 type=%struct.ap_int_base.19*] [debug line = 1450:111]
  call void @_ZN11ap_int_baseILi16ELb0ELb1EEC2ILi16ELb1EEERKS_IXT_EXT0_EXleT_Li64EEE(%struct.ap_int_base.19* %3, %struct.ap_int_base.19* %4), !dbg !9232 ; [debug line = 1450:111]
  ret void, !dbg !9232                            ; [debug line = 1450:111]
}

; [#uses=1]
declare i48 @llvm.part.set.i48.i16(i48, i16, i32, i32) nounwind readnone

; [#uses=1]
define linkonce_odr void @_ZN11ap_int_baseILi32ELb0ELb1EEC1ILi32ELb1EEERKS_IXT_EXT0_EXleT_Li64EEE(%struct.ap_int_base.16* %this, %struct.ap_int_base.16* %op) unnamed_addr nounwind uwtable inlinehint alwaysinline align 2 {
  %1 = alloca %struct.ap_int_base.16*, align 8    ; [#uses=2 type=%struct.ap_int_base.16**]
  %2 = alloca %struct.ap_int_base.16*, align 8    ; [#uses=2 type=%struct.ap_int_base.16**]
  store %struct.ap_int_base.16* %this, %struct.ap_int_base.16** %1, align 8
  call void @llvm.dbg.declare(metadata !{%struct.ap_int_base.16** %1}, metadata !9233), !dbg !9234 ; [debug line = 1450:43] [debug variable = this]
  store %struct.ap_int_base.16* %op, %struct.ap_int_base.16** %2, align 8
  call void @llvm.dbg.declare(metadata !{%struct.ap_int_base.16** %2}, metadata !9235), !dbg !9236 ; [debug line = 1450:89] [debug variable = op]
  %3 = load %struct.ap_int_base.16** %1           ; [#uses=1 type=%struct.ap_int_base.16*]
  %4 = load %struct.ap_int_base.16** %2, !dbg !9237 ; [#uses=1 type=%struct.ap_int_base.16*] [debug line = 1450:111]
  call void @_ZN11ap_int_baseILi32ELb0ELb1EEC2ILi32ELb1EEERKS_IXT_EXT0_EXleT_Li64EEE(%struct.ap_int_base.16* %3, %struct.ap_int_base.16* %4), !dbg !9237 ; [debug line = 1450:111]
  ret void, !dbg !9237                            ; [debug line = 1450:111]
}

; [#uses=1]
declare i48 @llvm.part.set.i48.i32(i48, i32, i32, i32) nounwind readnone

; [#uses=1]
define linkonce_odr void @_ZN11ap_int_baseILi32ELb0ELb1EEC2ILi32ELb1EEERKS_IXT_EXT0_EXleT_Li64EEE(%struct.ap_int_base.16* %this, %struct.ap_int_base.16* %op) unnamed_addr nounwind uwtable inlinehint alwaysinline align 2 {
  %1 = alloca %struct.ap_int_base.16*, align 8    ; [#uses=2 type=%struct.ap_int_base.16**]
  %2 = alloca %struct.ap_int_base.16*, align 8    ; [#uses=2 type=%struct.ap_int_base.16**]
  store %struct.ap_int_base.16* %this, %struct.ap_int_base.16** %1, align 8
  call void @llvm.dbg.declare(metadata !{%struct.ap_int_base.16** %1}, metadata !9238), !dbg !9239 ; [debug line = 1450:43] [debug variable = this]
  store %struct.ap_int_base.16* %op, %struct.ap_int_base.16** %2, align 8
  call void @llvm.dbg.declare(metadata !{%struct.ap_int_base.16** %2}, metadata !9240), !dbg !9241 ; [debug line = 1450:89] [debug variable = op]
  %3 = load %struct.ap_int_base.16** %1           ; [#uses=2 type=%struct.ap_int_base.16*]
  %4 = bitcast %struct.ap_int_base.16* %3 to %struct.ssdm_int.17*, !dbg !9242 ; [#uses=1 type=%struct.ssdm_int.17*] [debug line = 1450:93]
  call void @_ZN8ssdm_intILi32ELb0EEC2Ev(%struct.ssdm_int.17* %4), !dbg !9242 ; [debug line = 1450:93]
  %5 = load %struct.ap_int_base.16** %2, align 8, !dbg !9243 ; [#uses=1 type=%struct.ap_int_base.16*] [debug line = 1450:95]
  %6 = bitcast %struct.ap_int_base.16* %5 to %struct.ssdm_int.17*, !dbg !9243 ; [#uses=1 type=%struct.ssdm_int.17*] [debug line = 1450:95]
  %7 = getelementptr inbounds %struct.ssdm_int.17* %6, i32 0, i32 0, !dbg !9243 ; [#uses=1 type=i32*] [debug line = 1450:95]
  %8 = load i32* %7, align 4, !dbg !9243          ; [#uses=1 type=i32] [debug line = 1450:95]
  %9 = bitcast %struct.ap_int_base.16* %3 to %struct.ssdm_int.17*, !dbg !9243 ; [#uses=1 type=%struct.ssdm_int.17*] [debug line = 1450:95]
  %10 = getelementptr inbounds %struct.ssdm_int.17* %9, i32 0, i32 0, !dbg !9243 ; [#uses=1 type=i32*] [debug line = 1450:95]
  store i32 %8, i32* %10, align 4, !dbg !9243     ; [debug line = 1450:95]
  ret void, !dbg !9245                            ; [debug line = 1450:111]
}

; [#uses=1]
define linkonce_odr void @_ZN8ssdm_intILi32ELb0EEC2Ev(%struct.ssdm_int.17* %this) unnamed_addr nounwind uwtable inlinehint alwaysinline align 2 {
  %1 = alloca %struct.ssdm_int.17*, align 8       ; [#uses=2 type=%struct.ssdm_int.17**]
  store %struct.ssdm_int.17* %this, %struct.ssdm_int.17** %1, align 8
  call void @llvm.dbg.declare(metadata !{%struct.ssdm_int.17** %1}, metadata !9246), !dbg !9248 ; [debug line = 34:0] [debug variable = this]
  %2 = load %struct.ssdm_int.17** %1              ; [#uses=0 type=%struct.ssdm_int.17*]
  ret void, !dbg !9249                            ; [debug line = 34:0]
}

; [#uses=1]
define linkonce_odr void @_ZN11ap_int_baseILi16ELb0ELb1EEC2ILi16ELb1EEERKS_IXT_EXT0_EXleT_Li64EEE(%struct.ap_int_base.19* %this, %struct.ap_int_base.19* %op) unnamed_addr nounwind uwtable inlinehint alwaysinline align 2 {
  %1 = alloca %struct.ap_int_base.19*, align 8    ; [#uses=2 type=%struct.ap_int_base.19**]
  %2 = alloca %struct.ap_int_base.19*, align 8    ; [#uses=2 type=%struct.ap_int_base.19**]
  store %struct.ap_int_base.19* %this, %struct.ap_int_base.19** %1, align 8
  call void @llvm.dbg.declare(metadata !{%struct.ap_int_base.19** %1}, metadata !9251), !dbg !9252 ; [debug line = 1450:43] [debug variable = this]
  store %struct.ap_int_base.19* %op, %struct.ap_int_base.19** %2, align 8
  call void @llvm.dbg.declare(metadata !{%struct.ap_int_base.19** %2}, metadata !9253), !dbg !9254 ; [debug line = 1450:89] [debug variable = op]
  %3 = load %struct.ap_int_base.19** %1           ; [#uses=2 type=%struct.ap_int_base.19*]
  %4 = bitcast %struct.ap_int_base.19* %3 to %struct.ssdm_int.20*, !dbg !9255 ; [#uses=1 type=%struct.ssdm_int.20*] [debug line = 1450:93]
  call void @_ZN8ssdm_intILi16ELb0EEC2Ev(%struct.ssdm_int.20* %4), !dbg !9255 ; [debug line = 1450:93]
  %5 = load %struct.ap_int_base.19** %2, align 8, !dbg !9256 ; [#uses=1 type=%struct.ap_int_base.19*] [debug line = 1450:95]
  %6 = bitcast %struct.ap_int_base.19* %5 to %struct.ssdm_int.20*, !dbg !9256 ; [#uses=1 type=%struct.ssdm_int.20*] [debug line = 1450:95]
  %7 = getelementptr inbounds %struct.ssdm_int.20* %6, i32 0, i32 0, !dbg !9256 ; [#uses=1 type=i16*] [debug line = 1450:95]
  %8 = load i16* %7, align 2, !dbg !9256          ; [#uses=1 type=i16] [debug line = 1450:95]
  %9 = bitcast %struct.ap_int_base.19* %3 to %struct.ssdm_int.20*, !dbg !9256 ; [#uses=1 type=%struct.ssdm_int.20*] [debug line = 1450:95]
  %10 = getelementptr inbounds %struct.ssdm_int.20* %9, i32 0, i32 0, !dbg !9256 ; [#uses=1 type=i16*] [debug line = 1450:95]
  store i16 %8, i16* %10, align 2, !dbg !9256     ; [debug line = 1450:95]
  ret void, !dbg !9258                            ; [debug line = 1450:111]
}

; [#uses=1]
define linkonce_odr void @_ZN11ap_int_baseILi48ELb0ELb1EEC2Ei(%struct.ap_int_base.6* %this, i32 %op) unnamed_addr nounwind uwtable inlinehint alwaysinline align 2 {
  %1 = alloca %struct.ap_int_base.6*, align 8     ; [#uses=2 type=%struct.ap_int_base.6**]
  %2 = alloca i32, align 4                        ; [#uses=2 type=i32*]
  store %struct.ap_int_base.6* %this, %struct.ap_int_base.6** %1, align 8
  call void @llvm.dbg.declare(metadata !{%struct.ap_int_base.6** %1}, metadata !9259), !dbg !9260 ; [debug line = 1465:52] [debug variable = this]
  store i32 %op, i32* %2, align 4
  call void @llvm.dbg.declare(metadata !{i32* %2}, metadata !9261), !dbg !9262 ; [debug line = 1465:68] [debug variable = op]
  %3 = load %struct.ap_int_base.6** %1            ; [#uses=2 type=%struct.ap_int_base.6*]
  %4 = bitcast %struct.ap_int_base.6* %3 to %struct.ssdm_int.7*, !dbg !9263 ; [#uses=1 type=%struct.ssdm_int.7*] [debug line = 1465:72]
  call void @_ZN8ssdm_intILi48ELb0EEC2Ev(%struct.ssdm_int.7* %4), !dbg !9263 ; [debug line = 1465:72]
  %5 = load i32* %2, align 4, !dbg !9264          ; [#uses=1 type=i32] [debug line = 1465:74]
  %6 = sext i32 %5 to i48, !dbg !9264             ; [#uses=1 type=i48] [debug line = 1465:74]
  %7 = bitcast %struct.ap_int_base.6* %3 to %struct.ssdm_int.7*, !dbg !9264 ; [#uses=1 type=%struct.ssdm_int.7*] [debug line = 1465:74]
  %8 = getelementptr inbounds %struct.ssdm_int.7* %7, i32 0, i32 0, !dbg !9264 ; [#uses=1 type=i48*] [debug line = 1465:74]
  store i48 %6, i48* %8, align 8, !dbg !9264      ; [debug line = 1465:74]
  ret void, !dbg !9266                            ; [debug line = 1465:88]
}

; [#uses=1]
define linkonce_odr void @_ZN13ap_concat_refILi32E11ap_int_baseILi32ELb1ELb1EELi16ES0_ILi16ELb1ELb1EEEC1ERS1_RS2_(%struct.ap_concat_ref.21* %this, %struct.ap_int_base.16* %bv1, %struct.ap_int_base.19* %bv2) unnamed_addr nounwind uwtable inlinehint alwaysinline align 2 {
  %1 = alloca %struct.ap_concat_ref.21*, align 8  ; [#uses=2 type=%struct.ap_concat_ref.21**]
  %2 = alloca %struct.ap_int_base.16*, align 8    ; [#uses=2 type=%struct.ap_int_base.16**]
  %3 = alloca %struct.ap_int_base.19*, align 8    ; [#uses=2 type=%struct.ap_int_base.19**]
  store %struct.ap_concat_ref.21* %this, %struct.ap_concat_ref.21** %1, align 8
  call void @llvm.dbg.declare(metadata !{%struct.ap_concat_ref.21** %1}, metadata !9267), !dbg !9269 ; [debug line = 696:43] [debug variable = this]
  store %struct.ap_int_base.16* %bv1, %struct.ap_int_base.16** %2, align 8
  call void @llvm.dbg.declare(metadata !{%struct.ap_int_base.16** %2}, metadata !9270), !dbg !9271 ; [debug line = 696:66] [debug variable = bv1]
  store %struct.ap_int_base.19* %bv2, %struct.ap_int_base.19** %3, align 8
  call void @llvm.dbg.declare(metadata !{%struct.ap_int_base.19** %3}, metadata !9272), !dbg !9273 ; [debug line = 696:79] [debug variable = bv2]
  %4 = load %struct.ap_concat_ref.21** %1         ; [#uses=1 type=%struct.ap_concat_ref.21*]
  %5 = load %struct.ap_int_base.16** %2, !dbg !9274 ; [#uses=1 type=%struct.ap_int_base.16*] [debug line = 696:109]
  %6 = load %struct.ap_int_base.19** %3, !dbg !9274 ; [#uses=1 type=%struct.ap_int_base.19*] [debug line = 696:109]
  call void @_ZN13ap_concat_refILi32E11ap_int_baseILi32ELb1ELb1EELi16ES0_ILi16ELb1ELb1EEEC2ERS1_RS2_(%struct.ap_concat_ref.21* %4, %struct.ap_int_base.16* %5, %struct.ap_int_base.19* %6), !dbg !9274 ; [debug line = 696:109]
  ret void, !dbg !9274                            ; [debug line = 696:109]
}

; [#uses=1]
define linkonce_odr void @_ZN13ap_concat_refILi32E11ap_int_baseILi32ELb1ELb1EELi16ES0_ILi16ELb1ELb1EEEC2ERS1_RS2_(%struct.ap_concat_ref.21* %this, %struct.ap_int_base.16* %bv1, %struct.ap_int_base.19* %bv2) unnamed_addr nounwind uwtable inlinehint alwaysinline align 2 {
  %1 = alloca %struct.ap_concat_ref.21*, align 8  ; [#uses=2 type=%struct.ap_concat_ref.21**]
  %2 = alloca %struct.ap_int_base.16*, align 8    ; [#uses=2 type=%struct.ap_int_base.16**]
  %3 = alloca %struct.ap_int_base.19*, align 8    ; [#uses=2 type=%struct.ap_int_base.19**]
  store %struct.ap_concat_ref.21* %this, %struct.ap_concat_ref.21** %1, align 8
  call void @llvm.dbg.declare(metadata !{%struct.ap_concat_ref.21** %1}, metadata !9275), !dbg !9276 ; [debug line = 696:43] [debug variable = this]
  store %struct.ap_int_base.16* %bv1, %struct.ap_int_base.16** %2, align 8
  call void @llvm.dbg.declare(metadata !{%struct.ap_int_base.16** %2}, metadata !9277), !dbg !9278 ; [debug line = 696:66] [debug variable = bv1]
  store %struct.ap_int_base.19* %bv2, %struct.ap_int_base.19** %3, align 8
  call void @llvm.dbg.declare(metadata !{%struct.ap_int_base.19** %3}, metadata !9279), !dbg !9280 ; [debug line = 696:79] [debug variable = bv2]
  %4 = load %struct.ap_concat_ref.21** %1         ; [#uses=2 type=%struct.ap_concat_ref.21*]
  %5 = getelementptr inbounds %struct.ap_concat_ref.21* %4, i32 0, i32 0, !dbg !9281 ; [#uses=1 type=%struct.ap_int_base.16**] [debug line = 696:107]
  %6 = load %struct.ap_int_base.16** %2, align 8, !dbg !9281 ; [#uses=1 type=%struct.ap_int_base.16*] [debug line = 696:107]
  store %struct.ap_int_base.16* %6, %struct.ap_int_base.16** %5, align 8, !dbg !9281 ; [debug line = 696:107]
  %7 = getelementptr inbounds %struct.ap_concat_ref.21* %4, i32 0, i32 1, !dbg !9281 ; [#uses=1 type=%struct.ap_int_base.19**] [debug line = 696:107]
  %8 = load %struct.ap_int_base.19** %3, align 8, !dbg !9281 ; [#uses=1 type=%struct.ap_int_base.19*] [debug line = 696:107]
  store %struct.ap_int_base.19* %8, %struct.ap_int_base.19** %7, align 8, !dbg !9281 ; [debug line = 696:107]
  ret void, !dbg !9282                            ; [debug line = 696:109]
}

; [#uses=1]
define linkonce_odr void @_ZN6ap_intILi16EEC2Ei(%struct.ap_int.18* %this, i32 %val) unnamed_addr nounwind uwtable inlinehint alwaysinline align 2 {
  %1 = alloca %struct.ap_int.18*, align 8         ; [#uses=2 type=%struct.ap_int.18**]
  %2 = alloca i32, align 4                        ; [#uses=2 type=i32*]
  store %struct.ap_int.18* %this, %struct.ap_int.18** %1, align 8
  call void @llvm.dbg.declare(metadata !{%struct.ap_int.18** %1}, metadata !9284), !dbg !9285 ; [debug line = 144:43] [debug variable = this]
  store i32 %val, i32* %2, align 4
  call void @llvm.dbg.declare(metadata !{i32* %2}, metadata !9286), !dbg !9287 ; [debug line = 144:54] [debug variable = val]
  %3 = load %struct.ap_int.18** %1                ; [#uses=2 type=%struct.ap_int.18*]
  %4 = bitcast %struct.ap_int.18* %3 to %struct.ap_int_base.19*, !dbg !9288 ; [#uses=1 type=%struct.ap_int_base.19*] [debug line = 144:59]
  call void @_ZN11ap_int_baseILi16ELb1ELb1EEC2Ev(%struct.ap_int_base.19* %4), !dbg !9288 ; [debug line = 144:59]
  %5 = load i32* %2, align 4, !dbg !9289          ; [#uses=1 type=i32] [debug line = 144:60]
  %6 = trunc i32 %5 to i16, !dbg !9289            ; [#uses=1 type=i16] [debug line = 144:60]
  %7 = bitcast %struct.ap_int.18* %3 to %struct.ap_int_base.19*, !dbg !9289 ; [#uses=1 type=%struct.ap_int_base.19*] [debug line = 144:60]
  %8 = bitcast %struct.ap_int_base.19* %7 to %struct.ssdm_int.20*, !dbg !9289 ; [#uses=1 type=%struct.ssdm_int.20*] [debug line = 144:60]
  %9 = getelementptr inbounds %struct.ssdm_int.20* %8, i32 0, i32 0, !dbg !9289 ; [#uses=1 type=i16*] [debug line = 144:60]
  store i16 %6, i16* %9, align 2, !dbg !9289      ; [debug line = 144:60]
  ret void, !dbg !9291                            ; [debug line = 144:75]
}

; [#uses=1]
define linkonce_odr void @_ZN11ap_int_baseILi16ELb1ELb1EEC2Ev(%struct.ap_int_base.19* %this) unnamed_addr nounwind uwtable inlinehint alwaysinline align 2 {
  %1 = alloca %struct.ap_int_base.19*, align 8    ; [#uses=2 type=%struct.ap_int_base.19**]
  store %struct.ap_int_base.19* %this, %struct.ap_int_base.19** %1, align 8
  call void @llvm.dbg.declare(metadata !{%struct.ap_int_base.19** %1}, metadata !9292), !dbg !9294 ; [debug line = 1438:42] [debug variable = this]
  %2 = load %struct.ap_int_base.19** %1           ; [#uses=1 type=%struct.ap_int_base.19*]
  %3 = bitcast %struct.ap_int_base.19* %2 to %struct.ssdm_int.20*, !dbg !9295 ; [#uses=1 type=%struct.ssdm_int.20*] [debug line = 1438:56]
  call void @_ZN8ssdm_intILi16ELb1EEC2Ev(%struct.ssdm_int.20* %3), !dbg !9295 ; [debug line = 1438:56]
  ret void, !dbg !9296                            ; [debug line = 1444:4]
}

; [#uses=1]
define linkonce_odr void @_ZN8ssdm_intILi16ELb1EEC2Ev(%struct.ssdm_int.20* %this) unnamed_addr nounwind uwtable inlinehint alwaysinline align 2 {
  %1 = alloca %struct.ssdm_int.20*, align 8       ; [#uses=2 type=%struct.ssdm_int.20**]
  store %struct.ssdm_int.20* %this, %struct.ssdm_int.20** %1, align 8
  call void @llvm.dbg.declare(metadata !{%struct.ssdm_int.20** %1}, metadata !9298), !dbg !9300 ; [debug line = 18:137] [debug variable = this]
  %2 = load %struct.ssdm_int.20** %1              ; [#uses=0 type=%struct.ssdm_int.20*]
  ret void, !dbg !9301                            ; [debug line = 18:171]
}

; [#uses=1]
define linkonce_odr void @_ZN6ap_intILi32EEC2ILi96ELb1EEERK12ap_range_refIXT_EXT0_EE(%struct.ap_int.15* %this, %struct.ap_range_ref* %ref) unnamed_addr nounwind uwtable inlinehint alwaysinline align 2 {
  %1 = alloca %struct.ap_int.15*, align 8         ; [#uses=2 type=%struct.ap_int.15**]
  %2 = alloca %struct.ap_range_ref*, align 8      ; [#uses=2 type=%struct.ap_range_ref**]
  store %struct.ap_int.15* %this, %struct.ap_int.15** %1, align 8
  call void @llvm.dbg.declare(metadata !{%struct.ap_int.15** %1}, metadata !9303), !dbg !9304 ; [debug line = 90:43] [debug variable = this]
  store %struct.ap_range_ref* %ref, %struct.ap_range_ref** %2, align 8
  call void @llvm.dbg.declare(metadata !{%struct.ap_range_ref** %2}, metadata !9305), !dbg !9306 ; [debug line = 90:86] [debug variable = ref]
  %3 = load %struct.ap_int.15** %1                ; [#uses=1 type=%struct.ap_int.15*]
  %4 = bitcast %struct.ap_int.15* %3 to %struct.ap_int_base.16*, !dbg !9307 ; [#uses=1 type=%struct.ap_int_base.16*] [debug line = 90:101]
  %5 = load %struct.ap_range_ref** %2, align 8, !dbg !9307 ; [#uses=1 type=%struct.ap_range_ref*] [debug line = 90:101]
  call void @_ZN11ap_int_baseILi32ELb1ELb1EEC2ILi96ELb1EEERK12ap_range_refIXT_EXT0_EE(%struct.ap_int_base.16* %4, %struct.ap_range_ref* %5), !dbg !9307 ; [debug line = 90:101]
  ret void, !dbg !9308                            ; [debug line = 90:102]
}

; [#uses=1]
define linkonce_odr void @_ZN11ap_int_baseILi32ELb1ELb1EEC2ILi96ELb1EEERK12ap_range_refIXT_EXT0_EE(%struct.ap_int_base.16* %this, %struct.ap_range_ref* %ref) unnamed_addr nounwind uwtable inlinehint alwaysinline align 2 {
  %1 = alloca %struct.ap_int_base.16*, align 8    ; [#uses=2 type=%struct.ap_int_base.16**]
  %2 = alloca %struct.ap_range_ref*, align 8      ; [#uses=2 type=%struct.ap_range_ref**]
  %3 = alloca %struct.ap_int_base.10, align 8     ; [#uses=2 type=%struct.ap_int_base.10*]
  store %struct.ap_int_base.16* %this, %struct.ap_int_base.16** %1, align 8
  call void @llvm.dbg.declare(metadata !{%struct.ap_int_base.16** %1}, metadata !9310), !dbg !9311 ; [debug line = 1480:43] [debug variable = this]
  store %struct.ap_range_ref* %ref, %struct.ap_range_ref** %2, align 8
  call void @llvm.dbg.declare(metadata !{%struct.ap_range_ref** %2}, metadata !9312), !dbg !9313 ; [debug line = 1480:90] [debug variable = ref]
  %4 = load %struct.ap_int_base.16** %1           ; [#uses=2 type=%struct.ap_int_base.16*]
  %5 = bitcast %struct.ap_int_base.16* %4 to %struct.ssdm_int.17*, !dbg !9314 ; [#uses=1 type=%struct.ssdm_int.17*] [debug line = 1480:95]
  call void @_ZN8ssdm_intILi32ELb1EEC2Ev(%struct.ssdm_int.17* %5), !dbg !9314 ; [debug line = 1480:95]
  %6 = load %struct.ap_range_ref** %2, align 8, !dbg !9315 ; [#uses=1 type=%struct.ap_range_ref*] [debug line = 1481:19]
  call void @_ZNK12ap_range_refILi96ELb1EEcv11ap_int_baseILi96ELb0ELb0EEEv(%struct.ap_int_base.10* sret %3, %struct.ap_range_ref* %6), !dbg !9315 ; [debug line = 1481:19]
  %7 = bitcast %struct.ap_int_base.10* %3 to %struct.ssdm_int.11*, !dbg !9315 ; [#uses=1 type=%struct.ssdm_int.11*] [debug line = 1481:19]
  %8 = getelementptr inbounds %struct.ssdm_int.11* %7, i32 0, i32 0, !dbg !9315 ; [#uses=1 type=i96*] [debug line = 1481:19]
  %9 = load i96* %8, align 8, !dbg !9315          ; [#uses=1 type=i96] [debug line = 1481:19]
  %10 = trunc i96 %9 to i32, !dbg !9315           ; [#uses=1 type=i32] [debug line = 1481:19]
  %11 = bitcast %struct.ap_int_base.16* %4 to %struct.ssdm_int.17*, !dbg !9315 ; [#uses=1 type=%struct.ssdm_int.17*] [debug line = 1481:19]
  %12 = getelementptr inbounds %struct.ssdm_int.17* %11, i32 0, i32 0, !dbg !9315 ; [#uses=1 type=i32*] [debug line = 1481:19]
  store i32 %10, i32* %12, align 4, !dbg !9315    ; [debug line = 1481:19]
  ret void, !dbg !9317                            ; [debug line = 1482:5]
}

; [#uses=2]
define linkonce_odr void @_ZNK12ap_range_refILi96ELb1EEcv11ap_int_baseILi96ELb0ELb0EEEv(%struct.ap_int_base.10* noalias sret %agg.result, %struct.ap_range_ref* %this) nounwind uwtable inlinehint alwaysinline align 2 {
  %1 = alloca %struct.ap_range_ref*, align 8      ; [#uses=2 type=%struct.ap_range_ref**]
  %__Result__ = alloca i96, align 8               ; [#uses=4 type=i96*]
  %__Val2__ = alloca i96, align 8                 ; [#uses=3 type=i96*]
  store %struct.ap_range_ref* %this, %struct.ap_range_ref** %1, align 8
  call void @llvm.dbg.declare(metadata !{%struct.ap_range_ref** %1}, metadata !9318), !dbg !9320 ; [debug line = 937:43] [debug variable = this]
  %2 = load %struct.ap_range_ref** %1             ; [#uses=3 type=%struct.ap_range_ref*]
  call void @llvm.dbg.declare(metadata !{%struct.ap_int_base.10* %agg.result}, metadata !9321), !dbg !9323 ; [debug line = 938:34] [debug variable = ret]
  call void @_ZN11ap_int_baseILi96ELb0ELb0EEC1Ev(%struct.ap_int_base.10* %agg.result), !dbg !9324 ; [debug line = 938:37]
  call void @llvm.dbg.declare(metadata !{i96* %__Result__}, metadata !9325), !dbg !9327 ; [debug line = 939:35] [debug variable = __Result__]
  store i96 0, i96* %__Result__, align 8, !dbg !9328 ; [debug line = 939:49]
  call void @llvm.dbg.declare(metadata !{i96* %__Val2__}, metadata !9329), !dbg !9330 ; [debug line = 939:66] [debug variable = __Val2__]
  %3 = getelementptr inbounds %struct.ap_range_ref* %2, i32 0, i32 0, !dbg !9331 ; [#uses=1 type=%struct.ap_int_base.10**] [debug line = 939:83]
  %4 = load %struct.ap_int_base.10** %3, align 8, !dbg !9331 ; [#uses=1 type=%struct.ap_int_base.10*] [debug line = 939:83]
  %5 = bitcast %struct.ap_int_base.10* %4 to %struct.ssdm_int.11*, !dbg !9331 ; [#uses=1 type=%struct.ssdm_int.11*] [debug line = 939:83]
  %6 = getelementptr inbounds %struct.ssdm_int.11* %5, i32 0, i32 0, !dbg !9331 ; [#uses=1 type=i96*] [debug line = 939:83]
  %7 = load i96* %6, align 8, !dbg !9331          ; [#uses=1 type=i96] [debug line = 939:83]
  store i96 %7, i96* %__Val2__, align 8, !dbg !9331 ; [debug line = 939:83]
  %8 = bitcast i96* %__Result__ to i8*, !dbg !9332 ; [#uses=0 type=i8*] [debug line = 939:85]
  %9 = bitcast i96* %__Val2__ to i8*, !dbg !9332  ; [#uses=0 type=i8*] [debug line = 939:85]
  %10 = getelementptr inbounds %struct.ap_range_ref* %2, i32 0, i32 1, !dbg !9332 ; [#uses=1 type=i32*] [debug line = 939:85]
  %11 = load i32* %10, align 4, !dbg !9332        ; [#uses=1 type=i32] [debug line = 939:85]
  %12 = getelementptr inbounds %struct.ap_range_ref* %2, i32 0, i32 2, !dbg !9332 ; [#uses=1 type=i32*] [debug line = 939:85]
  %13 = load i32* %12, align 4, !dbg !9332        ; [#uses=1 type=i32] [debug line = 939:85]
  %14 = load i96* %__Val2__, !dbg !9332           ; [#uses=1 type=i96] [debug line = 939:85]
  %15 = call i96 @llvm.part.select.i96(i96 %14, i32 %11, i32 %13), !dbg !9332 ; [#uses=1 type=i96] [debug line = 939:85]
  store i96 %15, i96* %__Result__, !dbg !9332     ; [debug line = 939:85]
  %16 = load i96* %__Result__, align 8, !dbg !9332 ; [#uses=1 type=i96] [debug line = 939:85]
  %17 = bitcast %struct.ap_int_base.10* %agg.result to %struct.ssdm_int.11*, !dbg !9333 ; [#uses=1 type=%struct.ssdm_int.11*] [debug line = 939:184]
  %18 = getelementptr inbounds %struct.ssdm_int.11* %17, i32 0, i32 0, !dbg !9333 ; [#uses=1 type=i96*] [debug line = 939:184]
  store i96 %16, i96* %18, align 8, !dbg !9333    ; [debug line = 939:184]
  ret void, !dbg !9334                            ; [debug line = 940:9]
}

; [#uses=1]
define linkonce_odr void @_ZN11ap_int_baseILi96ELb0ELb0EEC1Ev(%struct.ap_int_base.10* %this) unnamed_addr nounwind uwtable inlinehint alwaysinline align 2 {
  %1 = alloca %struct.ap_int_base.10*, align 8    ; [#uses=2 type=%struct.ap_int_base.10**]
  store %struct.ap_int_base.10* %this, %struct.ap_int_base.10** %1, align 8
  call void @llvm.dbg.declare(metadata !{%struct.ap_int_base.10** %1}, metadata !9335), !dbg !9337 ; [debug line = 2379:42] [debug variable = this]
  %2 = load %struct.ap_int_base.10** %1           ; [#uses=1 type=%struct.ap_int_base.10*]
  call void @_ZN11ap_int_baseILi96ELb0ELb0EEC2Ev(%struct.ap_int_base.10* %2), !dbg !9338 ; [debug line = 2385:4]
  ret void, !dbg !9338                            ; [debug line = 2385:4]
}

; [#uses=1]
declare i96 @llvm.part.select.i96(i96, i32, i32) nounwind readnone

; [#uses=1]
define linkonce_odr void @_ZN11ap_int_baseILi96ELb0ELb0EEC2Ev(%struct.ap_int_base.10* %this) unnamed_addr nounwind uwtable inlinehint alwaysinline align 2 {
  %1 = alloca %struct.ap_int_base.10*, align 8    ; [#uses=2 type=%struct.ap_int_base.10**]
  store %struct.ap_int_base.10* %this, %struct.ap_int_base.10** %1, align 8
  call void @llvm.dbg.declare(metadata !{%struct.ap_int_base.10** %1}, metadata !9339), !dbg !9340 ; [debug line = 2379:42] [debug variable = this]
  %2 = load %struct.ap_int_base.10** %1           ; [#uses=1 type=%struct.ap_int_base.10*]
  %3 = bitcast %struct.ap_int_base.10* %2 to %struct.ssdm_int.11*, !dbg !9341 ; [#uses=1 type=%struct.ssdm_int.11*] [debug line = 2379:56]
  call void @_ZN8ssdm_intILi96ELb0EEC2Ev(%struct.ssdm_int.11* %3), !dbg !9341 ; [debug line = 2379:56]
  ret void, !dbg !9342                            ; [debug line = 2385:4]
}

; [#uses=2]
define linkonce_odr void @_ZN8ssdm_intILi96ELb0EEC2Ev(%struct.ssdm_int.11* %this) unnamed_addr nounwind uwtable inlinehint alwaysinline align 2 {
  %1 = alloca %struct.ssdm_int.11*, align 8       ; [#uses=2 type=%struct.ssdm_int.11**]
  store %struct.ssdm_int.11* %this, %struct.ssdm_int.11** %1, align 8
  call void @llvm.dbg.declare(metadata !{%struct.ssdm_int.11** %1}, metadata !9344), !dbg !9346 ; [debug line = 104:0] [debug variable = this]
  %2 = load %struct.ssdm_int.11** %1              ; [#uses=0 type=%struct.ssdm_int.11*]
  ret void, !dbg !9347                            ; [debug line = 104:0]
}

; [#uses=1]
define linkonce_odr void @_ZN6ap_intILi64EEC2ILi96ELb1EEERK12ap_range_refIXT_EXT0_EE(%struct.ap_int* %this, %struct.ap_range_ref* %ref) unnamed_addr nounwind uwtable inlinehint alwaysinline align 2 {
  %1 = alloca %struct.ap_int*, align 8            ; [#uses=2 type=%struct.ap_int**]
  %2 = alloca %struct.ap_range_ref*, align 8      ; [#uses=2 type=%struct.ap_range_ref**]
  store %struct.ap_int* %this, %struct.ap_int** %1, align 8
  call void @llvm.dbg.declare(metadata !{%struct.ap_int** %1}, metadata !9349), !dbg !9350 ; [debug line = 90:43] [debug variable = this]
  store %struct.ap_range_ref* %ref, %struct.ap_range_ref** %2, align 8
  call void @llvm.dbg.declare(metadata !{%struct.ap_range_ref** %2}, metadata !9351), !dbg !9352 ; [debug line = 90:86] [debug variable = ref]
  %3 = load %struct.ap_int** %1                   ; [#uses=1 type=%struct.ap_int*]
  %4 = bitcast %struct.ap_int* %3 to %struct.ap_int_base*, !dbg !9353 ; [#uses=1 type=%struct.ap_int_base*] [debug line = 90:101]
  %5 = load %struct.ap_range_ref** %2, align 8, !dbg !9353 ; [#uses=1 type=%struct.ap_range_ref*] [debug line = 90:101]
  call void @_ZN11ap_int_baseILi64ELb1ELb1EEC2ILi96ELb1EEERK12ap_range_refIXT_EXT0_EE(%struct.ap_int_base* %4, %struct.ap_range_ref* %5), !dbg !9353 ; [debug line = 90:101]
  ret void, !dbg !9354                            ; [debug line = 90:102]
}

; [#uses=1]
define linkonce_odr void @_ZN11ap_int_baseILi64ELb1ELb1EEC2ILi96ELb1EEERK12ap_range_refIXT_EXT0_EE(%struct.ap_int_base* %this, %struct.ap_range_ref* %ref) unnamed_addr nounwind uwtable inlinehint alwaysinline align 2 {
  %1 = alloca %struct.ap_int_base*, align 8       ; [#uses=2 type=%struct.ap_int_base**]
  %2 = alloca %struct.ap_range_ref*, align 8      ; [#uses=2 type=%struct.ap_range_ref**]
  %3 = alloca %struct.ap_int_base.10, align 8     ; [#uses=2 type=%struct.ap_int_base.10*]
  store %struct.ap_int_base* %this, %struct.ap_int_base** %1, align 8
  call void @llvm.dbg.declare(metadata !{%struct.ap_int_base** %1}, metadata !9356), !dbg !9357 ; [debug line = 1480:43] [debug variable = this]
  store %struct.ap_range_ref* %ref, %struct.ap_range_ref** %2, align 8
  call void @llvm.dbg.declare(metadata !{%struct.ap_range_ref** %2}, metadata !9358), !dbg !9359 ; [debug line = 1480:90] [debug variable = ref]
  %4 = load %struct.ap_int_base** %1              ; [#uses=2 type=%struct.ap_int_base*]
  %5 = bitcast %struct.ap_int_base* %4 to %"class.std::locale::id"*, !dbg !9360 ; [#uses=1 type=%"class.std::locale::id"*] [debug line = 1480:95]
  call void @_ZN8ssdm_intILi64ELb1EEC2Ev(%"class.std::locale::id"* %5), !dbg !9360 ; [debug line = 1480:95]
  %6 = load %struct.ap_range_ref** %2, align 8, !dbg !9361 ; [#uses=1 type=%struct.ap_range_ref*] [debug line = 1481:19]
  call void @_ZNK12ap_range_refILi96ELb1EEcv11ap_int_baseILi96ELb0ELb0EEEv(%struct.ap_int_base.10* sret %3, %struct.ap_range_ref* %6), !dbg !9361 ; [debug line = 1481:19]
  %7 = bitcast %struct.ap_int_base.10* %3 to %struct.ssdm_int.11*, !dbg !9361 ; [#uses=1 type=%struct.ssdm_int.11*] [debug line = 1481:19]
  %8 = getelementptr inbounds %struct.ssdm_int.11* %7, i32 0, i32 0, !dbg !9361 ; [#uses=1 type=i96*] [debug line = 1481:19]
  %9 = load i96* %8, align 8, !dbg !9361          ; [#uses=1 type=i96] [debug line = 1481:19]
  %10 = trunc i96 %9 to i64, !dbg !9361           ; [#uses=1 type=i64] [debug line = 1481:19]
  %11 = bitcast %struct.ap_int_base* %4 to %"class.std::locale::id"*, !dbg !9361 ; [#uses=1 type=%"class.std::locale::id"*] [debug line = 1481:19]
  %12 = getelementptr inbounds %"class.std::locale::id"* %11, i32 0, i32 0, !dbg !9361 ; [#uses=1 type=i64*] [debug line = 1481:19]
  store i64 %10, i64* %12, align 8, !dbg !9361    ; [debug line = 1481:19]
  ret void, !dbg !9363                            ; [debug line = 1482:5]
}

; [#uses=1]
define linkonce_odr void @_ZN12ap_range_refILi96ELb1EEC1EP11ap_int_baseILi96ELb1ELb0EEii(%struct.ap_range_ref* %this, %struct.ap_int_base.10* %bv, i32 %h, i32 %l) unnamed_addr nounwind uwtable inlinehint alwaysinline align 2 {
  %1 = alloca %struct.ap_range_ref*, align 8      ; [#uses=2 type=%struct.ap_range_ref**]
  %2 = alloca %struct.ap_int_base.10*, align 8    ; [#uses=2 type=%struct.ap_int_base.10**]
  %3 = alloca i32, align 4                        ; [#uses=2 type=i32*]
  %4 = alloca i32, align 4                        ; [#uses=2 type=i32*]
  store %struct.ap_range_ref* %this, %struct.ap_range_ref** %1, align 8
  call void @llvm.dbg.declare(metadata !{%struct.ap_range_ref** %1}, metadata !9364), !dbg !9366 ; [debug line = 932:43] [debug variable = this]
  store %struct.ap_int_base.10* %bv, %struct.ap_int_base.10** %2, align 8
  call void @llvm.dbg.declare(metadata !{%struct.ap_int_base.10** %2}, metadata !9367), !dbg !9368 ; [debug line = 932:82] [debug variable = bv]
  store i32 %h, i32* %3, align 4
  call void @llvm.dbg.declare(metadata !{i32* %3}, metadata !9369), !dbg !9370 ; [debug line = 932:90] [debug variable = h]
  store i32 %l, i32* %4, align 4
  call void @llvm.dbg.declare(metadata !{i32* %4}, metadata !9371), !dbg !9372 ; [debug line = 932:97] [debug variable = l]
  %5 = load %struct.ap_range_ref** %1             ; [#uses=1 type=%struct.ap_range_ref*]
  %6 = load %struct.ap_int_base.10** %2, align 8, !dbg !9373 ; [#uses=1 type=%struct.ap_int_base.10*] [debug line = 935:5]
  %7 = load i32* %3, align 4, !dbg !9373          ; [#uses=1 type=i32] [debug line = 935:5]
  %8 = load i32* %4, align 4, !dbg !9373          ; [#uses=1 type=i32] [debug line = 935:5]
  call void @_ZN12ap_range_refILi96ELb1EEC2EP11ap_int_baseILi96ELb1ELb0EEii(%struct.ap_range_ref* %5, %struct.ap_int_base.10* %6, i32 %7, i32 %8), !dbg !9373 ; [debug line = 935:5]
  ret void, !dbg !9373                            ; [debug line = 935:5]
}

; [#uses=1]
define linkonce_odr void @_ZN12ap_range_refILi96ELb1EEC2EP11ap_int_baseILi96ELb1ELb0EEii(%struct.ap_range_ref* %this, %struct.ap_int_base.10* %bv, i32 %h, i32 %l) unnamed_addr nounwind uwtable inlinehint alwaysinline align 2 {
  %1 = alloca %struct.ap_range_ref*, align 8      ; [#uses=2 type=%struct.ap_range_ref**]
  %2 = alloca %struct.ap_int_base.10*, align 8    ; [#uses=2 type=%struct.ap_int_base.10**]
  %3 = alloca i32, align 4                        ; [#uses=2 type=i32*]
  %4 = alloca i32, align 4                        ; [#uses=2 type=i32*]
  store %struct.ap_range_ref* %this, %struct.ap_range_ref** %1, align 8
  call void @llvm.dbg.declare(metadata !{%struct.ap_range_ref** %1}, metadata !9374), !dbg !9375 ; [debug line = 932:43] [debug variable = this]
  store %struct.ap_int_base.10* %bv, %struct.ap_int_base.10** %2, align 8
  call void @llvm.dbg.declare(metadata !{%struct.ap_int_base.10** %2}, metadata !9376), !dbg !9377 ; [debug line = 932:82] [debug variable = bv]
  store i32 %h, i32* %3, align 4
  call void @llvm.dbg.declare(metadata !{i32* %3}, metadata !9378), !dbg !9379 ; [debug line = 932:90] [debug variable = h]
  store i32 %l, i32* %4, align 4
  call void @llvm.dbg.declare(metadata !{i32* %4}, metadata !9380), !dbg !9381 ; [debug line = 932:97] [debug variable = l]
  %5 = load %struct.ap_range_ref** %1             ; [#uses=3 type=%struct.ap_range_ref*]
  %6 = getelementptr inbounds %struct.ap_range_ref* %5, i32 0, i32 0, !dbg !9382 ; [#uses=1 type=%struct.ap_int_base.10**] [debug line = 933:43]
  %7 = load %struct.ap_int_base.10** %2, align 8, !dbg !9382 ; [#uses=1 type=%struct.ap_int_base.10*] [debug line = 933:43]
  store %struct.ap_int_base.10* %7, %struct.ap_int_base.10** %6, align 8, !dbg !9382 ; [debug line = 933:43]
  %8 = getelementptr inbounds %struct.ap_range_ref* %5, i32 0, i32 1, !dbg !9382 ; [#uses=1 type=i32*] [debug line = 933:43]
  %9 = load i32* %4, align 4, !dbg !9382          ; [#uses=1 type=i32] [debug line = 933:43]
  store i32 %9, i32* %8, align 4, !dbg !9382      ; [debug line = 933:43]
  %10 = getelementptr inbounds %struct.ap_range_ref* %5, i32 0, i32 2, !dbg !9382 ; [#uses=1 type=i32*] [debug line = 933:43]
  %11 = load i32* %3, align 4, !dbg !9382         ; [#uses=1 type=i32] [debug line = 933:43]
  store i32 %11, i32* %10, align 4, !dbg !9382    ; [debug line = 933:43]
  ret void, !dbg !9383                            ; [debug line = 935:5]
}

; [#uses=1]
define linkonce_odr void @_ZN6ap_intILi96EEC2ILi48E11ap_int_baseILi48ELb1ELb1EELi48ES3_EERK13ap_concat_refIXT_ET0_XT1_ET2_E(%struct.ap_int.9* %this, %struct.ap_concat_ref* %ref) unnamed_addr nounwind uwtable inlinehint alwaysinline align 2 {
  %1 = alloca %struct.ap_int.9*, align 8          ; [#uses=2 type=%struct.ap_int.9**]
  %2 = alloca %struct.ap_concat_ref*, align 8     ; [#uses=2 type=%struct.ap_concat_ref**]
  store %struct.ap_int.9* %this, %struct.ap_int.9** %1, align 8
  call void @llvm.dbg.declare(metadata !{%struct.ap_int.9** %1}, metadata !9385), !dbg !9386 ; [debug line = 96:43] [debug variable = this]
  store %struct.ap_concat_ref* %ref, %struct.ap_concat_ref** %2, align 8
  call void @llvm.dbg.declare(metadata !{%struct.ap_concat_ref** %2}, metadata !9387), !dbg !9388 ; [debug line = 96:103] [debug variable = ref]
  %3 = load %struct.ap_int.9** %1                 ; [#uses=1 type=%struct.ap_int.9*]
  %4 = bitcast %struct.ap_int.9* %3 to %struct.ap_int_base.10*, !dbg !9389 ; [#uses=1 type=%struct.ap_int_base.10*] [debug line = 96:118]
  %5 = load %struct.ap_concat_ref** %2, align 8, !dbg !9389 ; [#uses=1 type=%struct.ap_concat_ref*] [debug line = 96:118]
  call void @_ZN11ap_int_baseILi96ELb1ELb0EEC2ILi48ES_ILi48ELb1ELb1EELi48ES2_EERK13ap_concat_refIXT_ET0_XT1_ET2_E(%struct.ap_int_base.10* %4, %struct.ap_concat_ref* %5), !dbg !9389 ; [debug line = 96:118]
  ret void, !dbg !9390                            ; [debug line = 96:119]
}

; [#uses=1]
define linkonce_odr void @_ZN11ap_int_baseILi96ELb1ELb0EEC2ILi48ES_ILi48ELb1ELb1EELi48ES2_EERK13ap_concat_refIXT_ET0_XT1_ET2_E(%struct.ap_int_base.10* %this, %struct.ap_concat_ref* %ref) unnamed_addr nounwind uwtable inlinehint alwaysinline align 2 {
  %1 = alloca %struct.ap_int_base.10*, align 8    ; [#uses=2 type=%struct.ap_int_base.10**]
  %2 = alloca %struct.ap_concat_ref*, align 8     ; [#uses=2 type=%struct.ap_concat_ref**]
  %tmp = alloca %struct.ap_int_base.10, align 8   ; [#uses=2 type=%struct.ap_int_base.10*]
  store %struct.ap_int_base.10* %this, %struct.ap_int_base.10** %1, align 8
  call void @llvm.dbg.declare(metadata !{%struct.ap_int_base.10** %1}, metadata !9392), !dbg !9393 ; [debug line = 2431:43] [debug variable = this]
  store %struct.ap_concat_ref* %ref, %struct.ap_concat_ref** %2, align 8
  call void @llvm.dbg.declare(metadata !{%struct.ap_concat_ref** %2}, metadata !9394), !dbg !9395 ; [debug line = 2431:105] [debug variable = ref]
  %3 = load %struct.ap_int_base.10** %1           ; [#uses=2 type=%struct.ap_int_base.10*]
  %4 = bitcast %struct.ap_int_base.10* %3 to %struct.ssdm_int.11*, !dbg !9396 ; [#uses=1 type=%struct.ssdm_int.11*] [debug line = 2431:110]
  call void @_ZN8ssdm_intILi96ELb1EEC2Ev(%struct.ssdm_int.11* %4), !dbg !9396 ; [debug line = 2431:110]
  call void @llvm.dbg.declare(metadata !{%struct.ap_int_base.10* %tmp}, metadata !9397), !dbg !9399 ; [debug line = 2432:85] [debug variable = tmp]
  %5 = load %struct.ap_concat_ref** %2, align 8, !dbg !9400 ; [#uses=1 type=%struct.ap_concat_ref*] [debug line = 2432:91]
  call void @_ZNK13ap_concat_refILi48E11ap_int_baseILi48ELb1ELb1EELi48ES1_E3getEv(%struct.ap_int_base.10* sret %tmp, %struct.ap_concat_ref* %5), !dbg !9400 ; [debug line = 2432:91]
  %6 = bitcast %struct.ap_int_base.10* %tmp to %struct.ssdm_int.11*, !dbg !9401 ; [#uses=1 type=%struct.ssdm_int.11*] [debug line = 2433:9]
  %7 = getelementptr inbounds %struct.ssdm_int.11* %6, i32 0, i32 0, !dbg !9401 ; [#uses=1 type=i96*] [debug line = 2433:9]
  %8 = load i96* %7, align 8, !dbg !9401          ; [#uses=1 type=i96] [debug line = 2433:9]
  %9 = bitcast %struct.ap_int_base.10* %3 to %struct.ssdm_int.11*, !dbg !9401 ; [#uses=1 type=%struct.ssdm_int.11*] [debug line = 2433:9]
  %10 = getelementptr inbounds %struct.ssdm_int.11* %9, i32 0, i32 0, !dbg !9401 ; [#uses=1 type=i96*] [debug line = 2433:9]
  store i96 %8, i96* %10, align 8, !dbg !9401     ; [debug line = 2433:9]
  ret void, !dbg !9402                            ; [debug line = 2434:5]
}

; [#uses=2]
define linkonce_odr void @_ZN8ssdm_intILi96ELb1EEC2Ev(%struct.ssdm_int.11* %this) unnamed_addr nounwind uwtable inlinehint alwaysinline align 2 {
  %1 = alloca %struct.ssdm_int.11*, align 8       ; [#uses=2 type=%struct.ssdm_int.11**]
  store %struct.ssdm_int.11* %this, %struct.ssdm_int.11** %1, align 8
  call void @llvm.dbg.declare(metadata !{%struct.ssdm_int.11** %1}, metadata !9403), !dbg !9405 ; [debug line = 104:137] [debug variable = this]
  %2 = load %struct.ssdm_int.11** %1              ; [#uses=0 type=%struct.ssdm_int.11*]
  ret void, !dbg !9406                            ; [debug line = 104:171]
}

; [#uses=1]
define linkonce_odr void @_ZNK13ap_concat_refILi48E11ap_int_baseILi48ELb1ELb1EELi48ES1_E3getEv(%struct.ap_int_base.10* noalias sret %agg.result, %struct.ap_concat_ref* %this) nounwind uwtable inlinehint alwaysinline align 2 {
  %1 = alloca %struct.ap_concat_ref*, align 8     ; [#uses=2 type=%struct.ap_concat_ref**]
  %W_ref1 = alloca i32, align 4                   ; [#uses=2 type=i32*]
  %W_ref2 = alloca i32, align 4                   ; [#uses=4 type=i32*]
  %__Result__ = alloca i96, align 8               ; [#uses=4 type=i96*]
  %__Val2__ = alloca i96, align 8                 ; [#uses=3 type=i96*]
  %__Repl2__ = alloca i48, align 8                ; [#uses=3 type=i48*]
  %2 = alloca %struct.ap_int_base.6, align 8      ; [#uses=2 type=%struct.ap_int_base.6*]
  %__Result__1 = alloca i96, align 8              ; [#uses=4 type=i96*]
  %__Val2__2 = alloca i96, align 8                ; [#uses=3 type=i96*]
  %__Repl2__3 = alloca i48, align 8               ; [#uses=3 type=i48*]
  %3 = alloca %struct.ap_int_base.6, align 8      ; [#uses=2 type=%struct.ap_int_base.6*]
  store %struct.ap_concat_ref* %this, %struct.ap_concat_ref** %1, align 8
  call void @llvm.dbg.declare(metadata !{%struct.ap_concat_ref** %1}, metadata !9408), !dbg !9410 ; [debug line = 880:66] [debug variable = this]
  %4 = load %struct.ap_concat_ref** %1            ; [#uses=4 type=%struct.ap_concat_ref*]
  call void @llvm.dbg.declare(metadata !{%struct.ap_int_base.10* %agg.result}, metadata !9411), !dbg !9413 ; [debug line = 881:35] [debug variable = tmpVal]
  call void @_ZN11ap_int_baseILi96ELb0ELb0EEC1Ei(%struct.ap_int_base.10* %agg.result, i32 0), !dbg !9414 ; [debug line = 881:44]
  call void @llvm.dbg.declare(metadata !{i32* %W_ref1}, metadata !9415), !dbg !9416 ; [debug line = 882:13] [debug variable = W_ref1]
  %5 = getelementptr inbounds %struct.ap_concat_ref* %4, i32 0, i32 0, !dbg !9417 ; [#uses=1 type=%struct.ap_int_base.6**] [debug line = 882:22]
  %6 = load %struct.ap_int_base.6** %5, align 8, !dbg !9417 ; [#uses=1 type=%struct.ap_int_base.6*] [debug line = 882:22]
  %7 = call i32 @_ZNK11ap_int_baseILi48ELb1ELb1EE6lengthEv(%struct.ap_int_base.6* %6), !dbg !9417 ; [#uses=1 type=i32] [debug line = 882:22]
  store i32 %7, i32* %W_ref1, align 4, !dbg !9417 ; [debug line = 882:22]
  call void @llvm.dbg.declare(metadata !{i32* %W_ref2}, metadata !9418), !dbg !9419 ; [debug line = 883:13] [debug variable = W_ref2]
  %8 = getelementptr inbounds %struct.ap_concat_ref* %4, i32 0, i32 1, !dbg !9420 ; [#uses=1 type=%struct.ap_int_base.6**] [debug line = 883:22]
  %9 = load %struct.ap_int_base.6** %8, align 8, !dbg !9420 ; [#uses=1 type=%struct.ap_int_base.6*] [debug line = 883:22]
  %10 = call i32 @_ZNK11ap_int_baseILi48ELb1ELb1EE6lengthEv(%struct.ap_int_base.6* %9), !dbg !9420 ; [#uses=1 type=i32] [debug line = 883:22]
  store i32 %10, i32* %W_ref2, align 4, !dbg !9420 ; [debug line = 883:22]
  call void @llvm.dbg.declare(metadata !{i96* %__Result__}, metadata !9421), !dbg !9423 ; [debug line = 884:40] [debug variable = __Result__]
  store i96 0, i96* %__Result__, align 8, !dbg !9424 ; [debug line = 884:54]
  call void @llvm.dbg.declare(metadata !{i96* %__Val2__}, metadata !9425), !dbg !9426 ; [debug line = 884:73] [debug variable = __Val2__]
  %11 = bitcast %struct.ap_int_base.10* %agg.result to %struct.ssdm_int.11*, !dbg !9427 ; [#uses=1 type=%struct.ssdm_int.11*] [debug line = 884:92]
  %12 = getelementptr inbounds %struct.ssdm_int.11* %11, i32 0, i32 0, !dbg !9427 ; [#uses=1 type=i96*] [debug line = 884:92]
  %13 = load i96* %12, align 8, !dbg !9427        ; [#uses=1 type=i96] [debug line = 884:92]
  store i96 %13, i96* %__Val2__, align 8, !dbg !9427 ; [debug line = 884:92]
  call void @llvm.dbg.declare(metadata !{i48* %__Repl2__}, metadata !9428), !dbg !9429 ; [debug line = 884:138] [debug variable = __Repl2__]
  %14 = getelementptr inbounds %struct.ap_concat_ref* %4, i32 0, i32 1, !dbg !9430 ; [#uses=1 type=%struct.ap_int_base.6**] [debug line = 884:185]
  %15 = load %struct.ap_int_base.6** %14, align 8, !dbg !9430 ; [#uses=1 type=%struct.ap_int_base.6*] [debug line = 884:185]
  call void @_ZN11ap_int_baseILi48ELb0ELb1EEC1ILi48ELb1EEERKS_IXT_EXT0_EXleT_Li64EEE(%struct.ap_int_base.6* %2, %struct.ap_int_base.6* %15), !dbg !9430 ; [debug line = 884:185]
  %16 = bitcast %struct.ap_int_base.6* %2 to %struct.ssdm_int.7*, !dbg !9430 ; [#uses=1 type=%struct.ssdm_int.7*] [debug line = 884:185]
  %17 = getelementptr inbounds %struct.ssdm_int.7* %16, i32 0, i32 0, !dbg !9430 ; [#uses=1 type=i48*] [debug line = 884:185]
  %18 = load i48* %17, align 8, !dbg !9430        ; [#uses=1 type=i48] [debug line = 884:185]
  store i48 %18, i48* %__Repl2__, align 8, !dbg !9430 ; [debug line = 884:185]
  %19 = bitcast i96* %__Result__ to i8*, !dbg !9431 ; [#uses=0 type=i8*] [debug line = 884:187]
  %20 = bitcast i96* %__Val2__ to i8*, !dbg !9431 ; [#uses=0 type=i8*] [debug line = 884:187]
  %21 = bitcast i48* %__Repl2__ to i8*, !dbg !9431 ; [#uses=0 type=i8*] [debug line = 884:187]
  %22 = load i32* %W_ref2, align 4, !dbg !9431    ; [#uses=1 type=i32] [debug line = 884:187]
  %23 = sub nsw i32 %22, 1, !dbg !9431            ; [#uses=1 type=i32] [debug line = 884:187]
  %24 = load i96* %__Val2__, !dbg !9431           ; [#uses=1 type=i96] [debug line = 884:187]
  %25 = load i48* %__Repl2__, !dbg !9431          ; [#uses=1 type=i48] [debug line = 884:187]
  %26 = call i96 @llvm.part.set.i96.i48(i96 %24, i48 %25, i32 0, i32 %23), !dbg !9431 ; [#uses=1 type=i96] [debug line = 884:187]
  store i96 %26, i96* %__Result__, !dbg !9431     ; [debug line = 884:187]
  %27 = load i96* %__Result__, align 8, !dbg !9431 ; [#uses=1 type=i96] [debug line = 884:187]
  %28 = bitcast %struct.ap_int_base.10* %agg.result to %struct.ssdm_int.11*, !dbg !9432 ; [#uses=1 type=%struct.ssdm_int.11*] [debug line = 884:0]
  %29 = getelementptr inbounds %struct.ssdm_int.11* %28, i32 0, i32 0, !dbg !9432 ; [#uses=1 type=i96*] [debug line = 884:0]
  store i96 %27, i96* %29, align 8, !dbg !9432    ; [debug line = 884:0]
  call void @llvm.dbg.declare(metadata !{i96* %__Result__1}, metadata !9433), !dbg !9435 ; [debug line = 886:40] [debug variable = __Result__]
  store i96 0, i96* %__Result__1, align 8, !dbg !9436 ; [debug line = 886:54]
  call void @llvm.dbg.declare(metadata !{i96* %__Val2__2}, metadata !9437), !dbg !9438 ; [debug line = 886:73] [debug variable = __Val2__]
  %30 = bitcast %struct.ap_int_base.10* %agg.result to %struct.ssdm_int.11*, !dbg !9439 ; [#uses=1 type=%struct.ssdm_int.11*] [debug line = 886:92]
  %31 = getelementptr inbounds %struct.ssdm_int.11* %30, i32 0, i32 0, !dbg !9439 ; [#uses=1 type=i96*] [debug line = 886:92]
  %32 = load i96* %31, align 8, !dbg !9439        ; [#uses=1 type=i96] [debug line = 886:92]
  store i96 %32, i96* %__Val2__2, align 8, !dbg !9439 ; [debug line = 886:92]
  call void @llvm.dbg.declare(metadata !{i48* %__Repl2__3}, metadata !9440), !dbg !9441 ; [debug line = 886:138] [debug variable = __Repl2__]
  %33 = getelementptr inbounds %struct.ap_concat_ref* %4, i32 0, i32 0, !dbg !9442 ; [#uses=1 type=%struct.ap_int_base.6**] [debug line = 886:185]
  %34 = load %struct.ap_int_base.6** %33, align 8, !dbg !9442 ; [#uses=1 type=%struct.ap_int_base.6*] [debug line = 886:185]
  call void @_ZN11ap_int_baseILi48ELb0ELb1EEC1ILi48ELb1EEERKS_IXT_EXT0_EXleT_Li64EEE(%struct.ap_int_base.6* %3, %struct.ap_int_base.6* %34), !dbg !9442 ; [debug line = 886:185]
  %35 = bitcast %struct.ap_int_base.6* %3 to %struct.ssdm_int.7*, !dbg !9442 ; [#uses=1 type=%struct.ssdm_int.7*] [debug line = 886:185]
  %36 = getelementptr inbounds %struct.ssdm_int.7* %35, i32 0, i32 0, !dbg !9442 ; [#uses=1 type=i48*] [debug line = 886:185]
  %37 = load i48* %36, align 8, !dbg !9442        ; [#uses=1 type=i48] [debug line = 886:185]
  store i48 %37, i48* %__Repl2__3, align 8, !dbg !9442 ; [debug line = 886:185]
  %38 = bitcast i96* %__Result__1 to i8*, !dbg !9443 ; [#uses=0 type=i8*] [debug line = 886:187]
  %39 = bitcast i96* %__Val2__2 to i8*, !dbg !9443 ; [#uses=0 type=i8*] [debug line = 886:187]
  %40 = bitcast i48* %__Repl2__3 to i8*, !dbg !9443 ; [#uses=0 type=i8*] [debug line = 886:187]
  %41 = load i32* %W_ref2, align 4, !dbg !9443    ; [#uses=1 type=i32] [debug line = 886:187]
  %42 = load i32* %W_ref1, align 4, !dbg !9443    ; [#uses=1 type=i32] [debug line = 886:187]
  %43 = load i32* %W_ref2, align 4, !dbg !9443    ; [#uses=1 type=i32] [debug line = 886:187]
  %44 = add nsw i32 %42, %43, !dbg !9443          ; [#uses=1 type=i32] [debug line = 886:187]
  %45 = sub nsw i32 %44, 1, !dbg !9443            ; [#uses=1 type=i32] [debug line = 886:187]
  %46 = load i96* %__Val2__2, !dbg !9443          ; [#uses=1 type=i96] [debug line = 886:187]
  %47 = load i48* %__Repl2__3, !dbg !9443         ; [#uses=1 type=i48] [debug line = 886:187]
  %48 = call i96 @llvm.part.set.i96.i48(i96 %46, i48 %47, i32 %41, i32 %45), !dbg !9443 ; [#uses=1 type=i96] [debug line = 886:187]
  store i96 %48, i96* %__Result__1, !dbg !9443    ; [debug line = 886:187]
  %49 = load i96* %__Result__1, align 8, !dbg !9443 ; [#uses=1 type=i96] [debug line = 886:187]
  %50 = bitcast %struct.ap_int_base.10* %agg.result to %struct.ssdm_int.11*, !dbg !9444 ; [#uses=1 type=%struct.ssdm_int.11*] [debug line = 886:0]
  %51 = getelementptr inbounds %struct.ssdm_int.11* %50, i32 0, i32 0, !dbg !9444 ; [#uses=1 type=i96*] [debug line = 886:0]
  store i96 %49, i96* %51, align 8, !dbg !9444    ; [debug line = 886:0]
  ret void, !dbg !9445                            ; [debug line = 888:9]
}

; [#uses=1]
define linkonce_odr void @_ZN11ap_int_baseILi96ELb0ELb0EEC1Ei(%struct.ap_int_base.10* %this, i32 %op) unnamed_addr nounwind uwtable inlinehint alwaysinline align 2 {
  %1 = alloca %struct.ap_int_base.10*, align 8    ; [#uses=2 type=%struct.ap_int_base.10**]
  %2 = alloca i32, align 4                        ; [#uses=2 type=i32*]
  store %struct.ap_int_base.10* %this, %struct.ap_int_base.10** %1, align 8
  call void @llvm.dbg.declare(metadata !{%struct.ap_int_base.10** %1}, metadata !9446), !dbg !9447 ; [debug line = 2406:52] [debug variable = this]
  store i32 %op, i32* %2, align 4
  call void @llvm.dbg.declare(metadata !{i32* %2}, metadata !9448), !dbg !9449 ; [debug line = 2406:68] [debug variable = op]
  %3 = load %struct.ap_int_base.10** %1           ; [#uses=1 type=%struct.ap_int_base.10*]
  %4 = load i32* %2, align 4, !dbg !9450          ; [#uses=1 type=i32] [debug line = 2406:88]
  call void @_ZN11ap_int_baseILi96ELb0ELb0EEC2Ei(%struct.ap_int_base.10* %3, i32 %4), !dbg !9450 ; [debug line = 2406:88]
  ret void, !dbg !9450                            ; [debug line = 2406:88]
}

; [#uses=2]
declare i96 @llvm.part.set.i96.i48(i96, i48, i32, i32) nounwind readnone

; [#uses=1]
define linkonce_odr void @_ZN11ap_int_baseILi96ELb0ELb0EEC2Ei(%struct.ap_int_base.10* %this, i32 %op) unnamed_addr nounwind uwtable inlinehint alwaysinline align 2 {
  %1 = alloca %struct.ap_int_base.10*, align 8    ; [#uses=2 type=%struct.ap_int_base.10**]
  %2 = alloca i32, align 4                        ; [#uses=2 type=i32*]
  store %struct.ap_int_base.10* %this, %struct.ap_int_base.10** %1, align 8
  call void @llvm.dbg.declare(metadata !{%struct.ap_int_base.10** %1}, metadata !9451), !dbg !9452 ; [debug line = 2406:52] [debug variable = this]
  store i32 %op, i32* %2, align 4
  call void @llvm.dbg.declare(metadata !{i32* %2}, metadata !9453), !dbg !9454 ; [debug line = 2406:68] [debug variable = op]
  %3 = load %struct.ap_int_base.10** %1           ; [#uses=2 type=%struct.ap_int_base.10*]
  %4 = bitcast %struct.ap_int_base.10* %3 to %struct.ssdm_int.11*, !dbg !9455 ; [#uses=1 type=%struct.ssdm_int.11*] [debug line = 2406:72]
  call void @_ZN8ssdm_intILi96ELb0EEC2Ev(%struct.ssdm_int.11* %4), !dbg !9455 ; [debug line = 2406:72]
  %5 = load i32* %2, align 4, !dbg !9456          ; [#uses=1 type=i32] [debug line = 2406:74]
  %6 = sext i32 %5 to i96, !dbg !9456             ; [#uses=1 type=i96] [debug line = 2406:74]
  %7 = bitcast %struct.ap_int_base.10* %3 to %struct.ssdm_int.11*, !dbg !9456 ; [#uses=1 type=%struct.ssdm_int.11*] [debug line = 2406:74]
  %8 = getelementptr inbounds %struct.ssdm_int.11* %7, i32 0, i32 0, !dbg !9456 ; [#uses=1 type=i96*] [debug line = 2406:74]
  store i96 %6, i96* %8, align 8, !dbg !9456      ; [debug line = 2406:74]
  ret void, !dbg !9458                            ; [debug line = 2406:88]
}

; [#uses=1]
define linkonce_odr void @_ZN13ap_concat_refILi48E11ap_int_baseILi48ELb1ELb1EELi48ES1_EC1ERS1_S3_(%struct.ap_concat_ref* %this, %struct.ap_int_base.6* %bv1, %struct.ap_int_base.6* %bv2) unnamed_addr nounwind uwtable inlinehint alwaysinline align 2 {
  %1 = alloca %struct.ap_concat_ref*, align 8     ; [#uses=2 type=%struct.ap_concat_ref**]
  %2 = alloca %struct.ap_int_base.6*, align 8     ; [#uses=2 type=%struct.ap_int_base.6**]
  %3 = alloca %struct.ap_int_base.6*, align 8     ; [#uses=2 type=%struct.ap_int_base.6**]
  store %struct.ap_concat_ref* %this, %struct.ap_concat_ref** %1, align 8
  call void @llvm.dbg.declare(metadata !{%struct.ap_concat_ref** %1}, metadata !9459), !dbg !9461 ; [debug line = 696:43] [debug variable = this]
  store %struct.ap_int_base.6* %bv1, %struct.ap_int_base.6** %2, align 8
  call void @llvm.dbg.declare(metadata !{%struct.ap_int_base.6** %2}, metadata !9462), !dbg !9463 ; [debug line = 696:66] [debug variable = bv1]
  store %struct.ap_int_base.6* %bv2, %struct.ap_int_base.6** %3, align 8
  call void @llvm.dbg.declare(metadata !{%struct.ap_int_base.6** %3}, metadata !9464), !dbg !9465 ; [debug line = 696:79] [debug variable = bv2]
  %4 = load %struct.ap_concat_ref** %1            ; [#uses=1 type=%struct.ap_concat_ref*]
  %5 = load %struct.ap_int_base.6** %2, !dbg !9466 ; [#uses=1 type=%struct.ap_int_base.6*] [debug line = 696:109]
  %6 = load %struct.ap_int_base.6** %3, !dbg !9466 ; [#uses=1 type=%struct.ap_int_base.6*] [debug line = 696:109]
  call void @_ZN13ap_concat_refILi48E11ap_int_baseILi48ELb1ELb1EELi48ES1_EC2ERS1_S3_(%struct.ap_concat_ref* %4, %struct.ap_int_base.6* %5, %struct.ap_int_base.6* %6), !dbg !9466 ; [debug line = 696:109]
  ret void, !dbg !9466                            ; [debug line = 696:109]
}

; [#uses=1]
define linkonce_odr void @_ZN13ap_concat_refILi48E11ap_int_baseILi48ELb1ELb1EELi48ES1_EC2ERS1_S3_(%struct.ap_concat_ref* %this, %struct.ap_int_base.6* %bv1, %struct.ap_int_base.6* %bv2) unnamed_addr nounwind uwtable inlinehint alwaysinline align 2 {
  %1 = alloca %struct.ap_concat_ref*, align 8     ; [#uses=2 type=%struct.ap_concat_ref**]
  %2 = alloca %struct.ap_int_base.6*, align 8     ; [#uses=2 type=%struct.ap_int_base.6**]
  %3 = alloca %struct.ap_int_base.6*, align 8     ; [#uses=2 type=%struct.ap_int_base.6**]
  store %struct.ap_concat_ref* %this, %struct.ap_concat_ref** %1, align 8
  call void @llvm.dbg.declare(metadata !{%struct.ap_concat_ref** %1}, metadata !9467), !dbg !9468 ; [debug line = 696:43] [debug variable = this]
  store %struct.ap_int_base.6* %bv1, %struct.ap_int_base.6** %2, align 8
  call void @llvm.dbg.declare(metadata !{%struct.ap_int_base.6** %2}, metadata !9469), !dbg !9470 ; [debug line = 696:66] [debug variable = bv1]
  store %struct.ap_int_base.6* %bv2, %struct.ap_int_base.6** %3, align 8
  call void @llvm.dbg.declare(metadata !{%struct.ap_int_base.6** %3}, metadata !9471), !dbg !9472 ; [debug line = 696:79] [debug variable = bv2]
  %4 = load %struct.ap_concat_ref** %1            ; [#uses=2 type=%struct.ap_concat_ref*]
  %5 = getelementptr inbounds %struct.ap_concat_ref* %4, i32 0, i32 0, !dbg !9473 ; [#uses=1 type=%struct.ap_int_base.6**] [debug line = 696:107]
  %6 = load %struct.ap_int_base.6** %2, align 8, !dbg !9473 ; [#uses=1 type=%struct.ap_int_base.6*] [debug line = 696:107]
  store %struct.ap_int_base.6* %6, %struct.ap_int_base.6** %5, align 8, !dbg !9473 ; [debug line = 696:107]
  %7 = getelementptr inbounds %struct.ap_concat_ref* %4, i32 0, i32 1, !dbg !9473 ; [#uses=1 type=%struct.ap_int_base.6**] [debug line = 696:107]
  %8 = load %struct.ap_int_base.6** %3, align 8, !dbg !9473 ; [#uses=1 type=%struct.ap_int_base.6*] [debug line = 696:107]
  store %struct.ap_int_base.6* %8, %struct.ap_int_base.6** %7, align 8, !dbg !9473 ; [debug line = 696:107]
  ret void, !dbg !9474                            ; [debug line = 696:109]
}

; [#uses=1]
define linkonce_odr void @_ZN6ap_intILi112EEC2Ev(%struct.ap_int.12* %this) unnamed_addr nounwind uwtable inlinehint alwaysinline align 2 {
  %1 = alloca %struct.ap_int.12*, align 8         ; [#uses=2 type=%struct.ap_int.12**]
  store %struct.ap_int.12* %this, %struct.ap_int.12** %1, align 8
  call void @llvm.dbg.declare(metadata !{%struct.ap_int.12** %1}, metadata !9476), !dbg !9477 ; [debug line = 76:43] [debug variable = this]
  %2 = load %struct.ap_int.12** %1                ; [#uses=1 type=%struct.ap_int.12*]
  %3 = bitcast %struct.ap_int.12* %2 to %struct.ap_int_base.13*, !dbg !9478 ; [#uses=1 type=%struct.ap_int_base.13*] [debug line = 76:60]
  call void @_ZN11ap_int_baseILi112ELb1ELb0EEC2Ev(%struct.ap_int_base.13* %3), !dbg !9478 ; [debug line = 76:60]
  ret void, !dbg !9479                            ; [debug line = 76:61]
}

; [#uses=1]
define linkonce_odr void @_ZN11ap_int_baseILi112ELb1ELb0EEC2Ev(%struct.ap_int_base.13* %this) unnamed_addr nounwind uwtable inlinehint alwaysinline align 2 {
  %1 = alloca %struct.ap_int_base.13*, align 8    ; [#uses=2 type=%struct.ap_int_base.13**]
  store %struct.ap_int_base.13* %this, %struct.ap_int_base.13** %1, align 8
  call void @llvm.dbg.declare(metadata !{%struct.ap_int_base.13** %1}, metadata !9481), !dbg !9483 ; [debug line = 2379:42] [debug variable = this]
  %2 = load %struct.ap_int_base.13** %1           ; [#uses=1 type=%struct.ap_int_base.13*]
  %3 = bitcast %struct.ap_int_base.13* %2 to %struct.ssdm_int.14*, !dbg !9484 ; [#uses=1 type=%struct.ssdm_int.14*] [debug line = 2379:56]
  call void @_ZN8ssdm_intILi112ELb1EEC2Ev(%struct.ssdm_int.14* %3), !dbg !9484 ; [debug line = 2379:56]
  ret void, !dbg !9485                            ; [debug line = 2385:4]
}

; [#uses=1]
define linkonce_odr void @_ZN8ssdm_intILi112ELb1EEC2Ev(%struct.ssdm_int.14* %this) unnamed_addr nounwind uwtable inlinehint alwaysinline align 2 {
  %1 = alloca %struct.ssdm_int.14*, align 8       ; [#uses=2 type=%struct.ssdm_int.14**]
  store %struct.ssdm_int.14* %this, %struct.ssdm_int.14** %1, align 8
  call void @llvm.dbg.declare(metadata !{%struct.ssdm_int.14** %1}, metadata !9487), !dbg !9489 ; [debug line = 120:139] [debug variable = this]
  %2 = load %struct.ssdm_int.14** %1              ; [#uses=0 type=%struct.ssdm_int.14*]
  ret void, !dbg !9490                            ; [debug line = 120:174]
}

; [#uses=1]
define linkonce_odr void @_ZN6ap_intILi96EEC2Ev(%struct.ap_int.9* %this) unnamed_addr nounwind uwtable inlinehint alwaysinline align 2 {
  %1 = alloca %struct.ap_int.9*, align 8          ; [#uses=2 type=%struct.ap_int.9**]
  store %struct.ap_int.9* %this, %struct.ap_int.9** %1, align 8
  call void @llvm.dbg.declare(metadata !{%struct.ap_int.9** %1}, metadata !9492), !dbg !9493 ; [debug line = 76:43] [debug variable = this]
  %2 = load %struct.ap_int.9** %1                 ; [#uses=1 type=%struct.ap_int.9*]
  %3 = bitcast %struct.ap_int.9* %2 to %struct.ap_int_base.10*, !dbg !9494 ; [#uses=1 type=%struct.ap_int_base.10*] [debug line = 76:60]
  call void @_ZN11ap_int_baseILi96ELb1ELb0EEC2Ev(%struct.ap_int_base.10* %3), !dbg !9494 ; [debug line = 76:60]
  ret void, !dbg !9495                            ; [debug line = 76:61]
}

; [#uses=1]
define linkonce_odr void @_ZN11ap_int_baseILi96ELb1ELb0EEC2Ev(%struct.ap_int_base.10* %this) unnamed_addr nounwind uwtable inlinehint alwaysinline align 2 {
  %1 = alloca %struct.ap_int_base.10*, align 8    ; [#uses=2 type=%struct.ap_int_base.10**]
  store %struct.ap_int_base.10* %this, %struct.ap_int_base.10** %1, align 8
  call void @llvm.dbg.declare(metadata !{%struct.ap_int_base.10** %1}, metadata !9497), !dbg !9498 ; [debug line = 2379:42] [debug variable = this]
  %2 = load %struct.ap_int_base.10** %1           ; [#uses=1 type=%struct.ap_int_base.10*]
  %3 = bitcast %struct.ap_int_base.10* %2 to %struct.ssdm_int.11*, !dbg !9499 ; [#uses=1 type=%struct.ssdm_int.11*] [debug line = 2379:56]
  call void @_ZN8ssdm_intILi96ELb1EEC2Ev(%struct.ssdm_int.11* %3), !dbg !9499 ; [debug line = 2379:56]
  ret void, !dbg !9500                            ; [debug line = 2385:4]
}

; [#uses=1]
define linkonce_odr void @_ZN12ap_axis_destC2Ev(%struct.ap_axis_dest* %this) unnamed_addr nounwind uwtable inlinehint align 2 {
  %1 = alloca %struct.ap_axis_dest*, align 8      ; [#uses=2 type=%struct.ap_axis_dest**]
  store %struct.ap_axis_dest* %this, %struct.ap_axis_dest** %1, align 8
  call void @llvm.dbg.declare(metadata !{%struct.ap_axis_dest** %1}, metadata !9502), !dbg !9503 ; [debug line = 17:8] [debug variable = this]
  %2 = load %struct.ap_axis_dest** %1             ; [#uses=4 type=%struct.ap_axis_dest*]
  %3 = getelementptr inbounds %struct.ap_axis_dest* %2, i32 0, i32 0, !dbg !9503 ; [#uses=1 type=%struct.ap_int*] [debug line = 17:8]
  call void @_ZN6ap_intILi64EEC1Ev(%struct.ap_int* %3), !dbg !9503 ; [debug line = 17:8]
  %4 = getelementptr inbounds %struct.ap_axis_dest* %2, i32 0, i32 1, !dbg !9503 ; [#uses=1 type=%struct.ap_uint*] [debug line = 17:8]
  call void @_ZN7ap_uintILi1EEC1Ev(%struct.ap_uint* %4), !dbg !9503 ; [debug line = 17:8]
  %5 = getelementptr inbounds %struct.ap_axis_dest* %2, i32 0, i32 2, !dbg !9503 ; [#uses=1 type=%struct.ap_uint.2*] [debug line = 17:8]
  call void @_ZN7ap_uintILi8EEC1Ev(%struct.ap_uint.2* %5), !dbg !9503 ; [debug line = 17:8]
  %6 = getelementptr inbounds %struct.ap_axis_dest* %2, i32 0, i32 3, !dbg !9503 ; [#uses=1 type=%struct.ap_uint.2*] [debug line = 17:8]
  call void @_ZN7ap_uintILi8EEC1Ev(%struct.ap_uint.2* %6), !dbg !9503 ; [debug line = 17:8]
  ret void, !dbg !9504                            ; [debug line = 17:8]
}

; [#uses=2]
define linkonce_odr void @_ZN6ap_intILi64EEC1Ev(%struct.ap_int* %this) unnamed_addr nounwind uwtable inlinehint alwaysinline align 2 {
  %1 = alloca %struct.ap_int*, align 8            ; [#uses=2 type=%struct.ap_int**]
  store %struct.ap_int* %this, %struct.ap_int** %1, align 8
  call void @llvm.dbg.declare(metadata !{%struct.ap_int** %1}, metadata !9506), !dbg !9507 ; [debug line = 76:43] [debug variable = this]
  %2 = load %struct.ap_int** %1                   ; [#uses=1 type=%struct.ap_int*]
  call void @_ZN6ap_intILi64EEC2Ev(%struct.ap_int* %2), !dbg !9508 ; [debug line = 76:61]
  ret void, !dbg !9508                            ; [debug line = 76:61]
}

; [#uses=2]
define linkonce_odr void @_ZN7ap_uintILi1EEC1Ev(%struct.ap_uint* %this) unnamed_addr nounwind uwtable inlinehint alwaysinline align 2 {
  %1 = alloca %struct.ap_uint*, align 8           ; [#uses=2 type=%struct.ap_uint**]
  store %struct.ap_uint* %this, %struct.ap_uint** %1, align 8
  call void @llvm.dbg.declare(metadata !{%struct.ap_uint** %1}, metadata !9509), !dbg !9510 ; [debug line = 183:43] [debug variable = this]
  %2 = load %struct.ap_uint** %1                  ; [#uses=1 type=%struct.ap_uint*]
  call void @_ZN7ap_uintILi1EEC2Ev(%struct.ap_uint* %2), !dbg !9511 ; [debug line = 183:62]
  ret void, !dbg !9511                            ; [debug line = 183:62]
}

; [#uses=3]
define linkonce_odr void @_ZN7ap_uintILi8EEC1Ev(%struct.ap_uint.2* %this) unnamed_addr nounwind uwtable inlinehint alwaysinline align 2 {
  %1 = alloca %struct.ap_uint.2*, align 8         ; [#uses=2 type=%struct.ap_uint.2**]
  store %struct.ap_uint.2* %this, %struct.ap_uint.2** %1, align 8
  call void @llvm.dbg.declare(metadata !{%struct.ap_uint.2** %1}, metadata !9512), !dbg !9513 ; [debug line = 183:43] [debug variable = this]
  %2 = load %struct.ap_uint.2** %1                ; [#uses=1 type=%struct.ap_uint.2*]
  call void @_ZN7ap_uintILi8EEC2Ev(%struct.ap_uint.2* %2), !dbg !9514 ; [debug line = 183:62]
  ret void, !dbg !9514                            ; [debug line = 183:62]
}

; [#uses=1]
define linkonce_odr void @_ZN7ap_uintILi8EEC2Ev(%struct.ap_uint.2* %this) unnamed_addr nounwind uwtable inlinehint alwaysinline align 2 {
  %1 = alloca %struct.ap_uint.2*, align 8         ; [#uses=2 type=%struct.ap_uint.2**]
  store %struct.ap_uint.2* %this, %struct.ap_uint.2** %1, align 8
  call void @llvm.dbg.declare(metadata !{%struct.ap_uint.2** %1}, metadata !9515), !dbg !9516 ; [debug line = 183:43] [debug variable = this]
  %2 = load %struct.ap_uint.2** %1                ; [#uses=1 type=%struct.ap_uint.2*]
  %3 = bitcast %struct.ap_uint.2* %2 to %struct.ap_int_base.3*, !dbg !9517 ; [#uses=1 type=%struct.ap_int_base.3*] [debug line = 183:61]
  call void @_ZN11ap_int_baseILi8ELb0ELb1EEC2Ev(%struct.ap_int_base.3* %3), !dbg !9517 ; [debug line = 183:61]
  ret void, !dbg !9518                            ; [debug line = 183:62]
}

; [#uses=1]
define linkonce_odr void @_ZN7ap_uintILi1EEC2Ev(%struct.ap_uint* %this) unnamed_addr nounwind uwtable inlinehint alwaysinline align 2 {
  %1 = alloca %struct.ap_uint*, align 8           ; [#uses=2 type=%struct.ap_uint**]
  store %struct.ap_uint* %this, %struct.ap_uint** %1, align 8
  call void @llvm.dbg.declare(metadata !{%struct.ap_uint** %1}, metadata !9520), !dbg !9521 ; [debug line = 183:43] [debug variable = this]
  %2 = load %struct.ap_uint** %1                  ; [#uses=1 type=%struct.ap_uint*]
  %3 = bitcast %struct.ap_uint* %2 to %struct.ap_int_base.0*, !dbg !9522 ; [#uses=1 type=%struct.ap_int_base.0*] [debug line = 183:61]
  call void @_ZN11ap_int_baseILi1ELb0ELb1EEC2Ev(%struct.ap_int_base.0* %3), !dbg !9522 ; [debug line = 183:61]
  ret void, !dbg !9523                            ; [debug line = 183:62]
}

; [#uses=1]
define linkonce_odr void @_ZN6ap_intILi64EEC2Ev(%struct.ap_int* %this) unnamed_addr nounwind uwtable inlinehint alwaysinline align 2 {
  %1 = alloca %struct.ap_int*, align 8            ; [#uses=2 type=%struct.ap_int**]
  store %struct.ap_int* %this, %struct.ap_int** %1, align 8
  call void @llvm.dbg.declare(metadata !{%struct.ap_int** %1}, metadata !9525), !dbg !9526 ; [debug line = 76:43] [debug variable = this]
  %2 = load %struct.ap_int** %1                   ; [#uses=1 type=%struct.ap_int*]
  %3 = bitcast %struct.ap_int* %2 to %struct.ap_int_base*, !dbg !9527 ; [#uses=1 type=%struct.ap_int_base*] [debug line = 76:60]
  call void @_ZN11ap_int_baseILi64ELb1ELb1EEC2Ev(%struct.ap_int_base* %3), !dbg !9527 ; [debug line = 76:60]
  ret void, !dbg !9528                            ; [debug line = 76:61]
}

; [#uses=1]
define linkonce_odr void @_ZN11ap_int_baseILi64ELb1ELb1EEC2Ev(%struct.ap_int_base* %this) unnamed_addr nounwind uwtable inlinehint alwaysinline align 2 {
  %1 = alloca %struct.ap_int_base*, align 8       ; [#uses=2 type=%struct.ap_int_base**]
  store %struct.ap_int_base* %this, %struct.ap_int_base** %1, align 8
  call void @llvm.dbg.declare(metadata !{%struct.ap_int_base** %1}, metadata !9530), !dbg !9531 ; [debug line = 1438:42] [debug variable = this]
  %2 = load %struct.ap_int_base** %1              ; [#uses=1 type=%struct.ap_int_base*]
  %3 = bitcast %struct.ap_int_base* %2 to %"class.std::locale::id"*, !dbg !9532 ; [#uses=1 type=%"class.std::locale::id"*] [debug line = 1438:56]
  call void @_ZN8ssdm_intILi64ELb1EEC2Ev(%"class.std::locale::id"* %3), !dbg !9532 ; [debug line = 1438:56]
  ret void, !dbg !9533                            ; [debug line = 1444:4]
}

; [#uses=1]
define linkonce_odr void @_ZN7ap_axisC2Ev(%struct.ap_axis* %this) unnamed_addr nounwind uwtable inlinehint align 2 {
  %1 = alloca %struct.ap_axis*, align 8           ; [#uses=2 type=%struct.ap_axis**]
  store %struct.ap_axis* %this, %struct.ap_axis** %1, align 8
  call void @llvm.dbg.declare(metadata !{%struct.ap_axis** %1}, metadata !9535), !dbg !9536 ; [debug line = 9:8] [debug variable = this]
  %2 = load %struct.ap_axis** %1                  ; [#uses=3 type=%struct.ap_axis*]
  %3 = getelementptr inbounds %struct.ap_axis* %2, i32 0, i32 0, !dbg !9536 ; [#uses=1 type=%struct.ap_int*] [debug line = 9:8]
  call void @_ZN6ap_intILi64EEC1Ev(%struct.ap_int* %3), !dbg !9536 ; [debug line = 9:8]
  %4 = getelementptr inbounds %struct.ap_axis* %2, i32 0, i32 1, !dbg !9536 ; [#uses=1 type=%struct.ap_uint*] [debug line = 9:8]
  call void @_ZN7ap_uintILi1EEC1Ev(%struct.ap_uint* %4), !dbg !9536 ; [debug line = 9:8]
  %5 = getelementptr inbounds %struct.ap_axis* %2, i32 0, i32 2, !dbg !9536 ; [#uses=1 type=%struct.ap_uint.2*] [debug line = 9:8]
  call void @_ZN7ap_uintILi8EEC1Ev(%struct.ap_uint.2* %5), !dbg !9536 ; [debug line = 9:8]
  ret void, !dbg !9537                            ; [debug line = 9:8]
}

; [#uses=1]
define internal void @_GLOBAL__I_a() nounwind section ".text.startup" {
  call void @__cxx_global_var_init()
  ret void
}

!llvm.dbg.cu = !{!0}
!opencl.kernels = !{!8392, !8399, !8405, !8411, !8412, !8418, !8421, !8423, !8424, !8425, !8426, !8428, !8430, !8431, !8434, !8437, !8438, !8439, !8440, !8442, !8443, !8444, !8445, !8446, !8447, !8448, !8449, !8450, !8453, !8456, !8457, !8458, !8459, !8460, !8461, !8463, !8464, !8465, !8466, !8467, !8468, !8469, !8470, !8472, !8474, !8476, !8477, !8479, !8480, !8481, !8482, !8483, !8484, !8485, !8486, !8487, !8488, !8490, !8491, !8492, !8493, !8494, !8495, !8496, !8498, !8499, !8500, !8501, !8502, !8503, !8504, !8506, !8508, !8509, !8510, !8511, !8512, !8513, !8515, !8516, !8517, !8518, !8519, !8520, !8521, !8522, !8523, !8524, !8526, !8529, !8535, !8536, !8538, !8539, !8540, !8541, !8542, !8543, !8544, !8546, !8548, !8550, !8551, !8552, !8553, !8554, !8555, !8556, !8557, !8558, !8561, !8562, !8563, !8564, !8565, !8566, !8567, !8568, !8569, !8570, !8571}
!hls.encrypted.func = !{}

!0 = metadata !{i32 786449, i32 0, i32 4, metadata !"/home/tarafdar/thesis/gitStuff/hlsIP_8k5/packetFormatter_hardcode_64/solution1/.autopilot/db/packetFormatter_hardcode_64.pragma.2.cpp", metadata !"/home/tarafdar/thesis/gitStuff", metadata !"clang version 3.1 ", i1 true, i1 false, metadata !"", i32 0, metadata !1, metadata !897, metadata !899, metadata !6664} ; [ DW_TAG_compile_unit ]
!1 = metadata !{metadata !2}
!2 = metadata !{metadata !3, metadata !26, metadata !33, metadata !42, metadata !48, metadata !890}
!3 = metadata !{i32 786436, metadata !4, metadata !"_Ios_Fmtflags", metadata !5, i32 52, i64 17, i64 32, i32 0, i32 0, null, metadata !6, i32 0, i32 0} ; [ DW_TAG_enumeration_type ]
!4 = metadata !{i32 786489, null, metadata !"std", metadata !5, i32 44} ; [ DW_TAG_namespace ]
!5 = metadata !{i32 786473, metadata !"/opt/Xilinx/Vivado_HLS/2016.4/lnx64/tools/gcc/lib/gcc/x86_64-unknown-linux-gnu/4.6.3/../../../../include/c++/4.6.3/bits/ios_base.h", metadata !"/home/tarafdar/thesis/gitStuff", null} ; [ DW_TAG_file_type ]
!6 = metadata !{metadata !7, metadata !8, metadata !9, metadata !10, metadata !11, metadata !12, metadata !13, metadata !14, metadata !15, metadata !16, metadata !17, metadata !18, metadata !19, metadata !20, metadata !21, metadata !22, metadata !23, metadata !24, metadata !25}
!7 = metadata !{i32 786472, metadata !"_S_boolalpha", i64 1} ; [ DW_TAG_enumerator ]
!8 = metadata !{i32 786472, metadata !"_S_dec", i64 2} ; [ DW_TAG_enumerator ]
!9 = metadata !{i32 786472, metadata !"_S_fixed", i64 4} ; [ DW_TAG_enumerator ]
!10 = metadata !{i32 786472, metadata !"_S_hex", i64 8} ; [ DW_TAG_enumerator ]
!11 = metadata !{i32 786472, metadata !"_S_internal", i64 16} ; [ DW_TAG_enumerator ]
!12 = metadata !{i32 786472, metadata !"_S_left", i64 32} ; [ DW_TAG_enumerator ]
!13 = metadata !{i32 786472, metadata !"_S_oct", i64 64} ; [ DW_TAG_enumerator ]
!14 = metadata !{i32 786472, metadata !"_S_right", i64 128} ; [ DW_TAG_enumerator ]
!15 = metadata !{i32 786472, metadata !"_S_scientific", i64 256} ; [ DW_TAG_enumerator ]
!16 = metadata !{i32 786472, metadata !"_S_showbase", i64 512} ; [ DW_TAG_enumerator ]
!17 = metadata !{i32 786472, metadata !"_S_showpoint", i64 1024} ; [ DW_TAG_enumerator ]
!18 = metadata !{i32 786472, metadata !"_S_showpos", i64 2048} ; [ DW_TAG_enumerator ]
!19 = metadata !{i32 786472, metadata !"_S_skipws", i64 4096} ; [ DW_TAG_enumerator ]
!20 = metadata !{i32 786472, metadata !"_S_unitbuf", i64 8192} ; [ DW_TAG_enumerator ]
!21 = metadata !{i32 786472, metadata !"_S_uppercase", i64 16384} ; [ DW_TAG_enumerator ]
!22 = metadata !{i32 786472, metadata !"_S_adjustfield", i64 176} ; [ DW_TAG_enumerator ]
!23 = metadata !{i32 786472, metadata !"_S_basefield", i64 74} ; [ DW_TAG_enumerator ]
!24 = metadata !{i32 786472, metadata !"_S_floatfield", i64 260} ; [ DW_TAG_enumerator ]
!25 = metadata !{i32 786472, metadata !"_S_ios_fmtflags_end", i64 65536} ; [ DW_TAG_enumerator ]
!26 = metadata !{i32 786436, metadata !4, metadata !"_Ios_Iostate", metadata !5, i32 144, i64 17, i64 32, i32 0, i32 0, null, metadata !27, i32 0, i32 0} ; [ DW_TAG_enumeration_type ]
!27 = metadata !{metadata !28, metadata !29, metadata !30, metadata !31, metadata !32}
!28 = metadata !{i32 786472, metadata !"_S_goodbit", i64 0} ; [ DW_TAG_enumerator ]
!29 = metadata !{i32 786472, metadata !"_S_badbit", i64 1} ; [ DW_TAG_enumerator ]
!30 = metadata !{i32 786472, metadata !"_S_eofbit", i64 2} ; [ DW_TAG_enumerator ]
!31 = metadata !{i32 786472, metadata !"_S_failbit", i64 4} ; [ DW_TAG_enumerator ]
!32 = metadata !{i32 786472, metadata !"_S_ios_iostate_end", i64 65536} ; [ DW_TAG_enumerator ]
!33 = metadata !{i32 786436, metadata !4, metadata !"_Ios_Openmode", metadata !5, i32 104, i64 17, i64 32, i32 0, i32 0, null, metadata !34, i32 0, i32 0} ; [ DW_TAG_enumeration_type ]
!34 = metadata !{metadata !35, metadata !36, metadata !37, metadata !38, metadata !39, metadata !40, metadata !41}
!35 = metadata !{i32 786472, metadata !"_S_app", i64 1} ; [ DW_TAG_enumerator ]
!36 = metadata !{i32 786472, metadata !"_S_ate", i64 2} ; [ DW_TAG_enumerator ]
!37 = metadata !{i32 786472, metadata !"_S_bin", i64 4} ; [ DW_TAG_enumerator ]
!38 = metadata !{i32 786472, metadata !"_S_in", i64 8} ; [ DW_TAG_enumerator ]
!39 = metadata !{i32 786472, metadata !"_S_out", i64 16} ; [ DW_TAG_enumerator ]
!40 = metadata !{i32 786472, metadata !"_S_trunc", i64 32} ; [ DW_TAG_enumerator ]
!41 = metadata !{i32 786472, metadata !"_S_ios_openmode_end", i64 65536} ; [ DW_TAG_enumerator ]
!42 = metadata !{i32 786436, metadata !4, metadata !"_Ios_Seekdir", metadata !5, i32 182, i64 17, i64 32, i32 0, i32 0, null, metadata !43, i32 0, i32 0} ; [ DW_TAG_enumeration_type ]
!43 = metadata !{metadata !44, metadata !45, metadata !46, metadata !47}
!44 = metadata !{i32 786472, metadata !"_S_beg", i64 0} ; [ DW_TAG_enumerator ]
!45 = metadata !{i32 786472, metadata !"_S_cur", i64 1} ; [ DW_TAG_enumerator ]
!46 = metadata !{i32 786472, metadata !"_S_end", i64 2} ; [ DW_TAG_enumerator ]
!47 = metadata !{i32 786472, metadata !"_S_ios_seekdir_end", i64 65536} ; [ DW_TAG_enumerator ]
!48 = metadata !{i32 786436, metadata !49, metadata !"event", metadata !5, i32 420, i64 2, i64 2, i32 0, i32 0, null, metadata !886, i32 0, i32 0} ; [ DW_TAG_enumeration_type ]
!49 = metadata !{i32 786434, metadata !4, metadata !"ios_base", metadata !5, i32 200, i64 1728, i64 64, i32 0, i32 0, null, metadata !50, i32 0, metadata !49, null} ; [ DW_TAG_class_type ]
!50 = metadata !{metadata !51, metadata !57, metadata !65, metadata !66, metadata !68, metadata !70, metadata !71, metadata !97, metadata !107, metadata !111, metadata !112, metadata !114, metadata !818, metadata !822, metadata !825, metadata !828, metadata !832, metadata !833, metadata !838, metadata !841, metadata !842, metadata !845, metadata !848, metadata !851, metadata !854, metadata !855, metadata !856, metadata !859, metadata !862, metadata !865, metadata !868, metadata !869, metadata !873, metadata !877, metadata !878, metadata !879, metadata !883}
!51 = metadata !{i32 786445, metadata !5, metadata !"_vptr$ios_base", metadata !5, i32 0, i64 64, i64 0, i64 0, i32 0, metadata !52} ; [ DW_TAG_member ]
!52 = metadata !{i32 786447, null, metadata !"", null, i32 0, i64 64, i64 0, i64 0, i32 0, metadata !53} ; [ DW_TAG_pointer_type ]
!53 = metadata !{i32 786447, null, metadata !"__vtbl_ptr_type", null, i32 0, i64 64, i64 0, i64 0, i32 0, metadata !54} ; [ DW_TAG_pointer_type ]
!54 = metadata !{i32 786453, i32 0, metadata !"", i32 0, i32 0, i64 0, i64 0, i64 0, i32 0, null, metadata !55, i32 0, i32 0} ; [ DW_TAG_subroutine_type ]
!55 = metadata !{metadata !56}
!56 = metadata !{i32 786468, null, metadata !"int", null, i32 0, i64 32, i64 32, i64 0, i32 0, i32 5} ; [ DW_TAG_base_type ]
!57 = metadata !{i32 786445, metadata !49, metadata !"_M_precision", metadata !5, i32 453, i64 64, i64 64, i64 64, i32 2, metadata !58} ; [ DW_TAG_member ]
!58 = metadata !{i32 786454, metadata !59, metadata !"streamsize", metadata !5, i32 99, i64 0, i64 0, i64 0, i32 0, metadata !61} ; [ DW_TAG_typedef ]
!59 = metadata !{i32 786489, null, metadata !"std", metadata !60, i32 69} ; [ DW_TAG_namespace ]
!60 = metadata !{i32 786473, metadata !"/opt/Xilinx/Vivado_HLS/2016.4/lnx64/tools/gcc/lib/gcc/x86_64-unknown-linux-gnu/4.6.3/../../../../include/c++/4.6.3/bits/postypes.h", metadata !"/home/tarafdar/thesis/gitStuff", null} ; [ DW_TAG_file_type ]
!61 = metadata !{i32 786454, metadata !62, metadata !"ptrdiff_t", metadata !5, i32 156, i64 0, i64 0, i64 0, i32 0, metadata !64} ; [ DW_TAG_typedef ]
!62 = metadata !{i32 786489, null, metadata !"std", metadata !63, i32 153} ; [ DW_TAG_namespace ]
!63 = metadata !{i32 786473, metadata !"/opt/Xilinx/Vivado_HLS/2016.4/lnx64/tools/gcc/lib/gcc/x86_64-unknown-linux-gnu/4.6.3/../../../../include/c++/4.6.3/x86_64-unknown-linux-gnu/bits/c++config.h", metadata !"/home/tarafdar/thesis/gitStuff", null} ; [ DW_TAG_file_type ]
!64 = metadata !{i32 786468, null, metadata !"long int", null, i32 0, i64 64, i64 64, i64 0, i32 0, i32 5} ; [ DW_TAG_base_type ]
!65 = metadata !{i32 786445, metadata !49, metadata !"_M_width", metadata !5, i32 454, i64 64, i64 64, i64 128, i32 2, metadata !58} ; [ DW_TAG_member ]
!66 = metadata !{i32 786445, metadata !49, metadata !"_M_flags", metadata !5, i32 455, i64 17, i64 32, i64 192, i32 2, metadata !67} ; [ DW_TAG_member ]
!67 = metadata !{i32 786454, metadata !49, metadata !"fmtflags", metadata !5, i32 256, i64 0, i64 0, i64 0, i32 0, metadata !3} ; [ DW_TAG_typedef ]
!68 = metadata !{i32 786445, metadata !49, metadata !"_M_exception", metadata !5, i32 456, i64 17, i64 32, i64 224, i32 2, metadata !69} ; [ DW_TAG_member ]
!69 = metadata !{i32 786454, metadata !49, metadata !"iostate", metadata !5, i32 331, i64 0, i64 0, i64 0, i32 0, metadata !26} ; [ DW_TAG_typedef ]
!70 = metadata !{i32 786445, metadata !49, metadata !"_M_streambuf_state", metadata !5, i32 457, i64 17, i64 32, i64 256, i32 2, metadata !69} ; [ DW_TAG_member ]
!71 = metadata !{i32 786445, metadata !49, metadata !"_M_callbacks", metadata !5, i32 491, i64 64, i64 64, i64 320, i32 2, metadata !72} ; [ DW_TAG_member ]
!72 = metadata !{i32 786447, null, metadata !"", null, i32 0, i64 64, i64 64, i64 0, i32 0, metadata !73} ; [ DW_TAG_pointer_type ]
!73 = metadata !{i32 786434, metadata !49, metadata !"_Callback_list", metadata !5, i32 461, i64 192, i64 64, i32 0, i32 0, null, metadata !74, i32 0, null, null} ; [ DW_TAG_class_type ]
!74 = metadata !{metadata !75, metadata !76, metadata !82, metadata !83, metadata !85, metadata !91, metadata !94}
!75 = metadata !{i32 786445, metadata !73, metadata !"_M_next", metadata !5, i32 464, i64 64, i64 64, i64 0, i32 0, metadata !72} ; [ DW_TAG_member ]
!76 = metadata !{i32 786445, metadata !73, metadata !"_M_fn", metadata !5, i32 465, i64 64, i64 64, i64 64, i32 0, metadata !77} ; [ DW_TAG_member ]
!77 = metadata !{i32 786454, metadata !49, metadata !"event_callback", metadata !5, i32 437, i64 0, i64 0, i64 0, i32 0, metadata !78} ; [ DW_TAG_typedef ]
!78 = metadata !{i32 786447, null, metadata !"", null, i32 0, i64 64, i64 64, i64 0, i32 0, metadata !79} ; [ DW_TAG_pointer_type ]
!79 = metadata !{i32 786453, i32 0, metadata !"", i32 0, i32 0, i64 0, i64 0, i64 0, i32 0, null, metadata !80, i32 0, i32 0} ; [ DW_TAG_subroutine_type ]
!80 = metadata !{null, metadata !48, metadata !81, metadata !56}
!81 = metadata !{i32 786448, null, null, null, i32 0, i64 0, i64 0, i64 0, i32 0, metadata !49} ; [ DW_TAG_reference_type ]
!82 = metadata !{i32 786445, metadata !73, metadata !"_M_index", metadata !5, i32 466, i64 32, i64 32, i64 128, i32 0, metadata !56} ; [ DW_TAG_member ]
!83 = metadata !{i32 786445, metadata !73, metadata !"_M_refcount", metadata !5, i32 467, i64 32, i64 32, i64 160, i32 0, metadata !84} ; [ DW_TAG_member ]
!84 = metadata !{i32 786454, null, metadata !"_Atomic_word", metadata !5, i32 32, i64 0, i64 0, i64 0, i32 0, metadata !56} ; [ DW_TAG_typedef ]
!85 = metadata !{i32 786478, i32 0, metadata !73, metadata !"_Callback_list", metadata !"_Callback_list", metadata !"", metadata !5, i32 469, metadata !86, i1 false, i1 false, i32 0, i32 0, null, i32 256, i1 false, null, null, i32 0, metadata !89, i32 469} ; [ DW_TAG_subprogram ]
!86 = metadata !{i32 786453, i32 0, metadata !"", i32 0, i32 0, i64 0, i64 0, i64 0, i32 0, null, metadata !87, i32 0, i32 0} ; [ DW_TAG_subroutine_type ]
!87 = metadata !{null, metadata !88, metadata !77, metadata !56, metadata !72}
!88 = metadata !{i32 786447, i32 0, metadata !"", i32 0, i32 0, i64 64, i64 64, i64 0, i32 64, metadata !73} ; [ DW_TAG_pointer_type ]
!89 = metadata !{metadata !90}
!90 = metadata !{i32 786468}                      ; [ DW_TAG_base_type ]
!91 = metadata !{i32 786478, i32 0, metadata !73, metadata !"_M_add_reference", metadata !"_M_add_reference", metadata !"_ZNSt8ios_base14_Callback_list16_M_add_referenceEv", metadata !5, i32 474, metadata !92, i1 false, i1 false, i32 0, i32 0, null, i32 256, i1 false, null, null, i32 0, metadata !89, i32 474} ; [ DW_TAG_subprogram ]
!92 = metadata !{i32 786453, i32 0, metadata !"", i32 0, i32 0, i64 0, i64 0, i64 0, i32 0, null, metadata !93, i32 0, i32 0} ; [ DW_TAG_subroutine_type ]
!93 = metadata !{null, metadata !88}
!94 = metadata !{i32 786478, i32 0, metadata !73, metadata !"_M_remove_reference", metadata !"_M_remove_reference", metadata !"_ZNSt8ios_base14_Callback_list19_M_remove_referenceEv", metadata !5, i32 478, metadata !95, i1 false, i1 false, i32 0, i32 0, null, i32 256, i1 false, null, null, i32 0, metadata !89, i32 478} ; [ DW_TAG_subprogram ]
!95 = metadata !{i32 786453, i32 0, metadata !"", i32 0, i32 0, i64 0, i64 0, i64 0, i32 0, null, metadata !96, i32 0, i32 0} ; [ DW_TAG_subroutine_type ]
!96 = metadata !{metadata !56, metadata !88}
!97 = metadata !{i32 786445, metadata !49, metadata !"_M_word_zero", metadata !5, i32 508, i64 128, i64 64, i64 384, i32 2, metadata !98} ; [ DW_TAG_member ]
!98 = metadata !{i32 786434, metadata !49, metadata !"_Words", metadata !5, i32 500, i64 128, i64 64, i32 0, i32 0, null, metadata !99, i32 0, null, null} ; [ DW_TAG_class_type ]
!99 = metadata !{metadata !100, metadata !102, metadata !103}
!100 = metadata !{i32 786445, metadata !98, metadata !"_M_pword", metadata !5, i32 502, i64 64, i64 64, i64 0, i32 0, metadata !101} ; [ DW_TAG_member ]
!101 = metadata !{i32 786447, null, metadata !"", null, i32 0, i64 64, i64 64, i64 0, i32 0, null} ; [ DW_TAG_pointer_type ]
!102 = metadata !{i32 786445, metadata !98, metadata !"_M_iword", metadata !5, i32 503, i64 64, i64 64, i64 64, i32 0, metadata !64} ; [ DW_TAG_member ]
!103 = metadata !{i32 786478, i32 0, metadata !98, metadata !"_Words", metadata !"_Words", metadata !"", metadata !5, i32 504, metadata !104, i1 false, i1 false, i32 0, i32 0, null, i32 256, i1 false, null, null, i32 0, metadata !89, i32 504} ; [ DW_TAG_subprogram ]
!104 = metadata !{i32 786453, i32 0, metadata !"", i32 0, i32 0, i64 0, i64 0, i64 0, i32 0, null, metadata !105, i32 0, i32 0} ; [ DW_TAG_subroutine_type ]
!105 = metadata !{null, metadata !106}
!106 = metadata !{i32 786447, i32 0, metadata !"", i32 0, i32 0, i64 64, i64 64, i64 0, i32 64, metadata !98} ; [ DW_TAG_pointer_type ]
!107 = metadata !{i32 786445, metadata !49, metadata !"_M_local_word", metadata !5, i32 513, i64 1024, i64 64, i64 512, i32 2, metadata !108} ; [ DW_TAG_member ]
!108 = metadata !{i32 786433, null, metadata !"", null, i32 0, i64 1024, i64 64, i32 0, i32 0, metadata !98, metadata !109, i32 0, i32 0} ; [ DW_TAG_array_type ]
!109 = metadata !{metadata !110}
!110 = metadata !{i32 786465, i64 0, i64 7}       ; [ DW_TAG_subrange_type ]
!111 = metadata !{i32 786445, metadata !49, metadata !"_M_word_size", metadata !5, i32 516, i64 32, i64 32, i64 1536, i32 2, metadata !56} ; [ DW_TAG_member ]
!112 = metadata !{i32 786445, metadata !49, metadata !"_M_word", metadata !5, i32 517, i64 64, i64 64, i64 1600, i32 2, metadata !113} ; [ DW_TAG_member ]
!113 = metadata !{i32 786447, null, metadata !"", null, i32 0, i64 64, i64 64, i64 0, i32 0, metadata !98} ; [ DW_TAG_pointer_type ]
!114 = metadata !{i32 786445, metadata !49, metadata !"_M_ios_locale", metadata !5, i32 523, i64 64, i64 64, i64 1664, i32 2, metadata !115} ; [ DW_TAG_member ]
!115 = metadata !{i32 786434, metadata !116, metadata !"locale", metadata !117, i32 63, i64 64, i64 64, i32 0, i32 0, null, metadata !118, i32 0, null, null} ; [ DW_TAG_class_type ]
!116 = metadata !{i32 786489, null, metadata !"std", metadata !117, i32 44} ; [ DW_TAG_namespace ]
!117 = metadata !{i32 786473, metadata !"/opt/Xilinx/Vivado_HLS/2016.4/lnx64/tools/gcc/lib/gcc/x86_64-unknown-linux-gnu/4.6.3/../../../../include/c++/4.6.3/bits/locale_classes.h", metadata !"/home/tarafdar/thesis/gitStuff", null} ; [ DW_TAG_file_type ]
!118 = metadata !{metadata !119, metadata !280, metadata !284, metadata !289, metadata !292, metadata !295, metadata !298, metadata !299, metadata !302, metadata !797, metadata !800, metadata !801, metadata !804, metadata !807, metadata !810, metadata !811, metadata !812, metadata !815, metadata !816, metadata !817}
!119 = metadata !{i32 786445, metadata !115, metadata !"_M_impl", metadata !117, i32 280, i64 64, i64 64, i64 0, i32 1, metadata !120} ; [ DW_TAG_member ]
!120 = metadata !{i32 786447, null, metadata !"", null, i32 0, i64 64, i64 64, i64 0, i32 0, metadata !121} ; [ DW_TAG_pointer_type ]
!121 = metadata !{i32 786434, metadata !115, metadata !"_Impl", metadata !117, i32 475, i64 320, i64 64, i32 0, i32 0, null, metadata !122, i32 0, null, null} ; [ DW_TAG_class_type ]
!122 = metadata !{metadata !123, metadata !124, metadata !209, metadata !210, metadata !211, metadata !214, metadata !218, metadata !219, metadata !224, metadata !227, metadata !230, metadata !231, metadata !234, metadata !235, metadata !239, metadata !244, metadata !269, metadata !272, metadata !275, metadata !278, metadata !279}
!123 = metadata !{i32 786445, metadata !121, metadata !"_M_refcount", metadata !117, i32 495, i64 32, i64 32, i64 0, i32 1, metadata !84} ; [ DW_TAG_member ]
!124 = metadata !{i32 786445, metadata !121, metadata !"_M_facets", metadata !117, i32 496, i64 64, i64 64, i64 64, i32 1, metadata !125} ; [ DW_TAG_member ]
!125 = metadata !{i32 786447, null, metadata !"", null, i32 0, i64 64, i64 64, i64 0, i32 0, metadata !126} ; [ DW_TAG_pointer_type ]
!126 = metadata !{i32 786447, null, metadata !"", null, i32 0, i64 64, i64 64, i64 0, i32 0, metadata !127} ; [ DW_TAG_pointer_type ]
